
./riscv32-benchmarks-customtoolchain/src/ud/ud:     file format elf32-littleriscv


Disassembly of section .text:

00010094 <exit>:
   10094:	ff010113          	addi	sp,sp,-16
   10098:	00000593          	li	a1,0
   1009c:	00812423          	sw	s0,8(sp)
   100a0:	00112623          	sw	ra,12(sp)
   100a4:	00050413          	mv	s0,a0
   100a8:	5d0010ef          	jal	ra,11678 <__call_exitprocs>
   100ac:	c281a503          	lw	a0,-984(gp) # 12438 <_global_impure_ptr>
   100b0:	03c52783          	lw	a5,60(a0)
   100b4:	00078463          	beqz	a5,100bc <exit+0x28>
   100b8:	000780e7          	jalr	a5
   100bc:	00040513          	mv	a0,s0
   100c0:	7e0010ef          	jal	ra,118a0 <_exit>

000100c4 <register_fini>:
   100c4:	00000793          	li	a5,0
   100c8:	00078863          	beqz	a5,100d8 <register_fini+0x14>
   100cc:	00011537          	lui	a0,0x11
   100d0:	79850513          	addi	a0,a0,1944 # 11798 <__libc_fini_array>
   100d4:	7200106f          	j	117f4 <atexit>
   100d8:	00008067          	ret

000100dc <_start>:
   100dc:	00002197          	auipc	gp,0x2
   100e0:	73418193          	addi	gp,gp,1844 # 12810 <__global_pointer$>
   100e4:	c3018513          	addi	a0,gp,-976 # 12440 <chkerr>
   100e8:	33018613          	addi	a2,gp,816 # 12b40 <__BSS_END__>
   100ec:	40a60633          	sub	a2,a2,a0
   100f0:	00000593          	li	a1,0
   100f4:	4a8010ef          	jal	ra,1159c <memset>
   100f8:	00001517          	auipc	a0,0x1
   100fc:	6fc50513          	addi	a0,a0,1788 # 117f4 <atexit>
   10100:	00050863          	beqz	a0,10110 <_start+0x34>
   10104:	00001517          	auipc	a0,0x1
   10108:	69450513          	addi	a0,a0,1684 # 11798 <__libc_fini_array>
   1010c:	6e8010ef          	jal	ra,117f4 <atexit>
   10110:	250010ef          	jal	ra,11360 <__libc_init_array>
   10114:	00012503          	lw	a0,0(sp)
   10118:	00410593          	addi	a1,sp,4
   1011c:	00000613          	li	a2,0
   10120:	085000ef          	jal	ra,109a4 <main>
   10124:	f71ff06f          	j	10094 <exit>

00010128 <__do_global_dtors_aux>:
   10128:	ff010113          	addi	sp,sp,-16
   1012c:	00812423          	sw	s0,8(sp)
   10130:	c341c783          	lbu	a5,-972(gp) # 12444 <completed.1>
   10134:	00112623          	sw	ra,12(sp)
   10138:	02079263          	bnez	a5,1015c <__do_global_dtors_aux+0x34>
   1013c:	00000793          	li	a5,0
   10140:	00078a63          	beqz	a5,10154 <__do_global_dtors_aux+0x2c>
   10144:	00012537          	lui	a0,0x12
   10148:	00050513          	mv	a0,a0
   1014c:	00000097          	auipc	ra,0x0
   10150:	000000e7          	jalr	zero # 0 <exit-0x10094>
   10154:	00100793          	li	a5,1
   10158:	c2f18a23          	sb	a5,-972(gp) # 12444 <completed.1>
   1015c:	00c12083          	lw	ra,12(sp)
   10160:	00812403          	lw	s0,8(sp)
   10164:	01010113          	addi	sp,sp,16
   10168:	00008067          	ret

0001016c <frame_dummy>:
   1016c:	00000793          	li	a5,0
   10170:	00078c63          	beqz	a5,10188 <frame_dummy+0x1c>
   10174:	00012537          	lui	a0,0x12
   10178:	c3818593          	addi	a1,gp,-968 # 12448 <object.0>
   1017c:	00050513          	mv	a0,a0
   10180:	00000317          	auipc	t1,0x0
   10184:	00000067          	jr	zero # 0 <exit-0x10094>
   10188:	00008067          	ret

0001018c <verify_benchmark>:
   1018c:	f9010113          	addi	sp,sp,-112
   10190:	06112623          	sw	ra,108(sp)
   10194:	06812423          	sw	s0,104(sp)
   10198:	07010413          	addi	s0,sp,112
   1019c:	f8a42e23          	sw	a0,-100(s0)
   101a0:	000127b7          	lui	a5,0x12
   101a4:	8d878713          	addi	a4,a5,-1832 # 118d8 <__errno+0x8>
   101a8:	fa040793          	addi	a5,s0,-96
   101ac:	00070693          	mv	a3,a4
   101b0:	05000713          	li	a4,80
   101b4:	00070613          	mv	a2,a4
   101b8:	00068593          	mv	a1,a3
   101bc:	00078513          	mv	a0,a5
   101c0:	2b4010ef          	jal	ra,11474 <memcpy>
   101c4:	fa040793          	addi	a5,s0,-96
   101c8:	05000613          	li	a2,80
   101cc:	00078593          	mv	a1,a5
   101d0:	2e018513          	addi	a0,gp,736 # 12af0 <x>
   101d4:	228010ef          	jal	ra,113fc <memcmp>
   101d8:	00050793          	mv	a5,a0
   101dc:	00079a63          	bnez	a5,101f0 <verify_benchmark+0x64>
   101e0:	f9c42783          	lw	a5,-100(s0)
   101e4:	00079663          	bnez	a5,101f0 <verify_benchmark+0x64>
   101e8:	00100793          	li	a5,1
   101ec:	0080006f          	j	101f4 <verify_benchmark+0x68>
   101f0:	00000793          	li	a5,0
   101f4:	00078513          	mv	a0,a5
   101f8:	06c12083          	lw	ra,108(sp)
   101fc:	06812403          	lw	s0,104(sp)
   10200:	07010113          	addi	sp,sp,112
   10204:	00008067          	ret

00010208 <initialise_benchmark>:
   10208:	ff010113          	addi	sp,sp,-16
   1020c:	00812623          	sw	s0,12(sp)
   10210:	01010413          	addi	s0,sp,16
   10214:	00000013          	nop
   10218:	00c12403          	lw	s0,12(sp)
   1021c:	01010113          	addi	sp,sp,16
   10220:	00008067          	ret

00010224 <warm_caches>:
   10224:	fd010113          	addi	sp,sp,-48
   10228:	02112623          	sw	ra,44(sp)
   1022c:	02812423          	sw	s0,40(sp)
   10230:	03010413          	addi	s0,sp,48
   10234:	fca42e23          	sw	a0,-36(s0)
   10238:	fdc42503          	lw	a0,-36(s0)
   1023c:	04c000ef          	jal	ra,10288 <benchmark_body>
   10240:	fea42623          	sw	a0,-20(s0)
   10244:	00000013          	nop
   10248:	02c12083          	lw	ra,44(sp)
   1024c:	02812403          	lw	s0,40(sp)
   10250:	03010113          	addi	sp,sp,48
   10254:	00008067          	ret

00010258 <benchmark>:
   10258:	ff010113          	addi	sp,sp,-16
   1025c:	00112623          	sw	ra,12(sp)
   10260:	00812423          	sw	s0,8(sp)
   10264:	01010413          	addi	s0,sp,16
   10268:	5c600513          	li	a0,1478
   1026c:	01c000ef          	jal	ra,10288 <benchmark_body>
   10270:	00050793          	mv	a5,a0
   10274:	00078513          	mv	a0,a5
   10278:	00c12083          	lw	ra,12(sp)
   1027c:	00812403          	lw	s0,8(sp)
   10280:	01010113          	addi	sp,sp,16
   10284:	00008067          	ret

00010288 <benchmark_body>:
   10288:	fc010113          	addi	sp,sp,-64
   1028c:	02112e23          	sw	ra,60(sp)
   10290:	02812c23          	sw	s0,56(sp)
   10294:	04010413          	addi	s0,sp,64
   10298:	fca42623          	sw	a0,-52(s0)
   1029c:	fe042623          	sw	zero,-20(s0)
   102a0:	1b80006f          	j	10458 <benchmark_body+0x1d0>
   102a4:	01400793          	li	a5,20
   102a8:	fcf42e23          	sw	a5,-36(s0)
   102ac:	00500793          	li	a5,5
   102b0:	fcf42c23          	sw	a5,-40(s0)
   102b4:	fe042423          	sw	zero,-24(s0)
   102b8:	1740006f          	j	1042c <benchmark_body+0x1a4>
   102bc:	fe042023          	sw	zero,-32(s0)
   102c0:	fe042223          	sw	zero,-28(s0)
   102c4:	1380006f          	j	103fc <benchmark_body+0x174>
   102c8:	fe842783          	lw	a5,-24(s0)
   102cc:	00178713          	addi	a4,a5,1
   102d0:	fe442783          	lw	a5,-28(s0)
   102d4:	00178793          	addi	a5,a5,1
   102d8:	00f706b3          	add	a3,a4,a5
   102dc:	000127b7          	lui	a5,0x12
   102e0:	46078613          	addi	a2,a5,1120 # 12460 <a>
   102e4:	fe842703          	lw	a4,-24(s0)
   102e8:	00070793          	mv	a5,a4
   102ec:	00279793          	slli	a5,a5,0x2
   102f0:	00e787b3          	add	a5,a5,a4
   102f4:	00279793          	slli	a5,a5,0x2
   102f8:	fe442703          	lw	a4,-28(s0)
   102fc:	00e787b3          	add	a5,a5,a4
   10300:	00279793          	slli	a5,a5,0x2
   10304:	00f607b3          	add	a5,a2,a5
   10308:	00d7a023          	sw	a3,0(a5)
   1030c:	fe842703          	lw	a4,-24(s0)
   10310:	fe442783          	lw	a5,-28(s0)
   10314:	0af71063          	bne	a4,a5,103b4 <benchmark_body+0x12c>
   10318:	000127b7          	lui	a5,0x12
   1031c:	46078693          	addi	a3,a5,1120 # 12460 <a>
   10320:	fe842703          	lw	a4,-24(s0)
   10324:	00070793          	mv	a5,a4
   10328:	00279793          	slli	a5,a5,0x2
   1032c:	00e787b3          	add	a5,a5,a4
   10330:	00279793          	slli	a5,a5,0x2
   10334:	fe442703          	lw	a4,-28(s0)
   10338:	00e787b3          	add	a5,a5,a4
   1033c:	00279793          	slli	a5,a5,0x2
   10340:	00f687b3          	add	a5,a3,a5
   10344:	0007a783          	lw	a5,0(a5)
   10348:	00078513          	mv	a0,a5
   1034c:	721000ef          	jal	ra,1126c <__floatsidf>
   10350:	00050713          	mv	a4,a0
   10354:	00058793          	mv	a5,a1
   10358:	00070613          	mv	a2,a4
   1035c:	00078693          	mv	a3,a5
   10360:	00070513          	mv	a0,a4
   10364:	00078593          	mv	a1,a5
   10368:	6a8000ef          	jal	ra,10a10 <__adddf3>
   1036c:	00050713          	mv	a4,a0
   10370:	00058793          	mv	a5,a1
   10374:	00070513          	mv	a0,a4
   10378:	00078593          	mv	a1,a5
   1037c:	671000ef          	jal	ra,111ec <__fixdfsi>
   10380:	00050613          	mv	a2,a0
   10384:	000127b7          	lui	a5,0x12
   10388:	46078693          	addi	a3,a5,1120 # 12460 <a>
   1038c:	fe842703          	lw	a4,-24(s0)
   10390:	00070793          	mv	a5,a4
   10394:	00279793          	slli	a5,a5,0x2
   10398:	00e787b3          	add	a5,a5,a4
   1039c:	00279793          	slli	a5,a5,0x2
   103a0:	fe442703          	lw	a4,-28(s0)
   103a4:	00e787b3          	add	a5,a5,a4
   103a8:	00279793          	slli	a5,a5,0x2
   103ac:	00f687b3          	add	a5,a3,a5
   103b0:	00c7a023          	sw	a2,0(a5)
   103b4:	000127b7          	lui	a5,0x12
   103b8:	46078693          	addi	a3,a5,1120 # 12460 <a>
   103bc:	fe842703          	lw	a4,-24(s0)
   103c0:	00070793          	mv	a5,a4
   103c4:	00279793          	slli	a5,a5,0x2
   103c8:	00e787b3          	add	a5,a5,a4
   103cc:	00279793          	slli	a5,a5,0x2
   103d0:	fe442703          	lw	a4,-28(s0)
   103d4:	00e787b3          	add	a5,a5,a4
   103d8:	00279793          	slli	a5,a5,0x2
   103dc:	00f687b3          	add	a5,a3,a5
   103e0:	0007a783          	lw	a5,0(a5)
   103e4:	fe042703          	lw	a4,-32(s0)
   103e8:	00f707b3          	add	a5,a4,a5
   103ec:	fef42023          	sw	a5,-32(s0)
   103f0:	fe442783          	lw	a5,-28(s0)
   103f4:	00178793          	addi	a5,a5,1
   103f8:	fef42223          	sw	a5,-28(s0)
   103fc:	fe442703          	lw	a4,-28(s0)
   10400:	fd842783          	lw	a5,-40(s0)
   10404:	ece7d2e3          	bge	a5,a4,102c8 <benchmark_body+0x40>
   10408:	29018713          	addi	a4,gp,656 # 12aa0 <b>
   1040c:	fe842783          	lw	a5,-24(s0)
   10410:	00279793          	slli	a5,a5,0x2
   10414:	00f707b3          	add	a5,a4,a5
   10418:	fe042703          	lw	a4,-32(s0)
   1041c:	00e7a023          	sw	a4,0(a5)
   10420:	fe842783          	lw	a5,-24(s0)
   10424:	00178793          	addi	a5,a5,1
   10428:	fef42423          	sw	a5,-24(s0)
   1042c:	fe842703          	lw	a4,-24(s0)
   10430:	fd842783          	lw	a5,-40(s0)
   10434:	e8e7d4e3          	bge	a5,a4,102bc <benchmark_body+0x34>
   10438:	fd842583          	lw	a1,-40(s0)
   1043c:	fdc42503          	lw	a0,-36(s0)
   10440:	03c000ef          	jal	ra,1047c <ludcmp>
   10444:	00050713          	mv	a4,a0
   10448:	c2e1a823          	sw	a4,-976(gp) # 12440 <chkerr>
   1044c:	fec42783          	lw	a5,-20(s0)
   10450:	00178793          	addi	a5,a5,1
   10454:	fef42623          	sw	a5,-20(s0)
   10458:	fec42703          	lw	a4,-20(s0)
   1045c:	fcc42783          	lw	a5,-52(s0)
   10460:	e4f742e3          	blt	a4,a5,102a4 <benchmark_body+0x1c>
   10464:	c301a783          	lw	a5,-976(gp) # 12440 <chkerr>
   10468:	00078513          	mv	a0,a5
   1046c:	03c12083          	lw	ra,60(sp)
   10470:	03812403          	lw	s0,56(sp)
   10474:	04010113          	addi	sp,sp,64
   10478:	00008067          	ret

0001047c <ludcmp>:
   1047c:	e4010113          	addi	sp,sp,-448
   10480:	1a812e23          	sw	s0,444(sp)
   10484:	1c010413          	addi	s0,sp,448
   10488:	e4a42623          	sw	a0,-436(s0)
   1048c:	e4b42423          	sw	a1,-440(s0)
   10490:	fe042623          	sw	zero,-20(s0)
   10494:	2840006f          	j	10718 <ludcmp+0x29c>
   10498:	fec42783          	lw	a5,-20(s0)
   1049c:	00178793          	addi	a5,a5,1
   104a0:	fef42423          	sw	a5,-24(s0)
   104a4:	1300006f          	j	105d4 <ludcmp+0x158>
   104a8:	000127b7          	lui	a5,0x12
   104ac:	46078693          	addi	a3,a5,1120 # 12460 <a>
   104b0:	fe842703          	lw	a4,-24(s0)
   104b4:	00070793          	mv	a5,a4
   104b8:	00279793          	slli	a5,a5,0x2
   104bc:	00e787b3          	add	a5,a5,a4
   104c0:	00279793          	slli	a5,a5,0x2
   104c4:	fec42703          	lw	a4,-20(s0)
   104c8:	00e787b3          	add	a5,a5,a4
   104cc:	00279793          	slli	a5,a5,0x2
   104d0:	00f687b3          	add	a5,a3,a5
   104d4:	0007a783          	lw	a5,0(a5)
   104d8:	fef42023          	sw	a5,-32(s0)
   104dc:	fec42783          	lw	a5,-20(s0)
   104e0:	08078a63          	beqz	a5,10574 <ludcmp+0xf8>
   104e4:	fe042223          	sw	zero,-28(s0)
   104e8:	0800006f          	j	10568 <ludcmp+0xec>
   104ec:	000127b7          	lui	a5,0x12
   104f0:	46078693          	addi	a3,a5,1120 # 12460 <a>
   104f4:	fe842703          	lw	a4,-24(s0)
   104f8:	00070793          	mv	a5,a4
   104fc:	00279793          	slli	a5,a5,0x2
   10500:	00e787b3          	add	a5,a5,a4
   10504:	00279793          	slli	a5,a5,0x2
   10508:	fe442703          	lw	a4,-28(s0)
   1050c:	00e787b3          	add	a5,a5,a4
   10510:	00279793          	slli	a5,a5,0x2
   10514:	00f687b3          	add	a5,a3,a5
   10518:	0007a683          	lw	a3,0(a5)
   1051c:	000127b7          	lui	a5,0x12
   10520:	46078613          	addi	a2,a5,1120 # 12460 <a>
   10524:	fe442703          	lw	a4,-28(s0)
   10528:	00070793          	mv	a5,a4
   1052c:	00279793          	slli	a5,a5,0x2
   10530:	00e787b3          	add	a5,a5,a4
   10534:	00279793          	slli	a5,a5,0x2
   10538:	fec42703          	lw	a4,-20(s0)
   1053c:	00e787b3          	add	a5,a5,a4
   10540:	00279793          	slli	a5,a5,0x2
   10544:	00f607b3          	add	a5,a2,a5
   10548:	0007a783          	lw	a5,0(a5)
   1054c:	02f687b3          	mul	a5,a3,a5
   10550:	fe042703          	lw	a4,-32(s0)
   10554:	40f707b3          	sub	a5,a4,a5
   10558:	fef42023          	sw	a5,-32(s0)
   1055c:	fe442783          	lw	a5,-28(s0)
   10560:	00178793          	addi	a5,a5,1
   10564:	fef42223          	sw	a5,-28(s0)
   10568:	fe442703          	lw	a4,-28(s0)
   1056c:	fec42783          	lw	a5,-20(s0)
   10570:	f6f74ee3          	blt	a4,a5,104ec <ludcmp+0x70>
   10574:	000127b7          	lui	a5,0x12
   10578:	46078713          	addi	a4,a5,1120 # 12460 <a>
   1057c:	fec42683          	lw	a3,-20(s0)
   10580:	05400793          	li	a5,84
   10584:	02f687b3          	mul	a5,a3,a5
   10588:	00f707b3          	add	a5,a4,a5
   1058c:	0007a783          	lw	a5,0(a5)
   10590:	fe042703          	lw	a4,-32(s0)
   10594:	02f746b3          	div	a3,a4,a5
   10598:	000127b7          	lui	a5,0x12
   1059c:	46078613          	addi	a2,a5,1120 # 12460 <a>
   105a0:	fe842703          	lw	a4,-24(s0)
   105a4:	00070793          	mv	a5,a4
   105a8:	00279793          	slli	a5,a5,0x2
   105ac:	00e787b3          	add	a5,a5,a4
   105b0:	00279793          	slli	a5,a5,0x2
   105b4:	fec42703          	lw	a4,-20(s0)
   105b8:	00e787b3          	add	a5,a5,a4
   105bc:	00279793          	slli	a5,a5,0x2
   105c0:	00f607b3          	add	a5,a2,a5
   105c4:	00d7a023          	sw	a3,0(a5)
   105c8:	fe842783          	lw	a5,-24(s0)
   105cc:	00178793          	addi	a5,a5,1
   105d0:	fef42423          	sw	a5,-24(s0)
   105d4:	fe842703          	lw	a4,-24(s0)
   105d8:	e4842783          	lw	a5,-440(s0)
   105dc:	ece7d6e3          	bge	a5,a4,104a8 <ludcmp+0x2c>
   105e0:	fec42783          	lw	a5,-20(s0)
   105e4:	00178793          	addi	a5,a5,1
   105e8:	fef42423          	sw	a5,-24(s0)
   105ec:	1140006f          	j	10700 <ludcmp+0x284>
   105f0:	fec42783          	lw	a5,-20(s0)
   105f4:	00178713          	addi	a4,a5,1
   105f8:	000127b7          	lui	a5,0x12
   105fc:	46078693          	addi	a3,a5,1120 # 12460 <a>
   10600:	00070793          	mv	a5,a4
   10604:	00279793          	slli	a5,a5,0x2
   10608:	00e787b3          	add	a5,a5,a4
   1060c:	00279793          	slli	a5,a5,0x2
   10610:	fe842703          	lw	a4,-24(s0)
   10614:	00e787b3          	add	a5,a5,a4
   10618:	00279793          	slli	a5,a5,0x2
   1061c:	00f687b3          	add	a5,a3,a5
   10620:	0007a783          	lw	a5,0(a5)
   10624:	fef42023          	sw	a5,-32(s0)
   10628:	fe042223          	sw	zero,-28(s0)
   1062c:	0840006f          	j	106b0 <ludcmp+0x234>
   10630:	fec42783          	lw	a5,-20(s0)
   10634:	00178713          	addi	a4,a5,1
   10638:	000127b7          	lui	a5,0x12
   1063c:	46078693          	addi	a3,a5,1120 # 12460 <a>
   10640:	00070793          	mv	a5,a4
   10644:	00279793          	slli	a5,a5,0x2
   10648:	00e787b3          	add	a5,a5,a4
   1064c:	00279793          	slli	a5,a5,0x2
   10650:	fe442703          	lw	a4,-28(s0)
   10654:	00e787b3          	add	a5,a5,a4
   10658:	00279793          	slli	a5,a5,0x2
   1065c:	00f687b3          	add	a5,a3,a5
   10660:	0007a683          	lw	a3,0(a5)
   10664:	000127b7          	lui	a5,0x12
   10668:	46078613          	addi	a2,a5,1120 # 12460 <a>
   1066c:	fe442703          	lw	a4,-28(s0)
   10670:	00070793          	mv	a5,a4
   10674:	00279793          	slli	a5,a5,0x2
   10678:	00e787b3          	add	a5,a5,a4
   1067c:	00279793          	slli	a5,a5,0x2
   10680:	fe842703          	lw	a4,-24(s0)
   10684:	00e787b3          	add	a5,a5,a4
   10688:	00279793          	slli	a5,a5,0x2
   1068c:	00f607b3          	add	a5,a2,a5
   10690:	0007a783          	lw	a5,0(a5)
   10694:	02f687b3          	mul	a5,a3,a5
   10698:	fe042703          	lw	a4,-32(s0)
   1069c:	40f707b3          	sub	a5,a4,a5
   106a0:	fef42023          	sw	a5,-32(s0)
   106a4:	fe442783          	lw	a5,-28(s0)
   106a8:	00178793          	addi	a5,a5,1
   106ac:	fef42223          	sw	a5,-28(s0)
   106b0:	fe442703          	lw	a4,-28(s0)
   106b4:	fec42783          	lw	a5,-20(s0)
   106b8:	f6e7dce3          	bge	a5,a4,10630 <ludcmp+0x1b4>
   106bc:	fec42783          	lw	a5,-20(s0)
   106c0:	00178713          	addi	a4,a5,1
   106c4:	000127b7          	lui	a5,0x12
   106c8:	46078693          	addi	a3,a5,1120 # 12460 <a>
   106cc:	00070793          	mv	a5,a4
   106d0:	00279793          	slli	a5,a5,0x2
   106d4:	00e787b3          	add	a5,a5,a4
   106d8:	00279793          	slli	a5,a5,0x2
   106dc:	fe842703          	lw	a4,-24(s0)
   106e0:	00e787b3          	add	a5,a5,a4
   106e4:	00279793          	slli	a5,a5,0x2
   106e8:	00f687b3          	add	a5,a3,a5
   106ec:	fe042703          	lw	a4,-32(s0)
   106f0:	00e7a023          	sw	a4,0(a5)
   106f4:	fe842783          	lw	a5,-24(s0)
   106f8:	00178793          	addi	a5,a5,1
   106fc:	fef42423          	sw	a5,-24(s0)
   10700:	fe842703          	lw	a4,-24(s0)
   10704:	e4842783          	lw	a5,-440(s0)
   10708:	eee7d4e3          	bge	a5,a4,105f0 <ludcmp+0x174>
   1070c:	fec42783          	lw	a5,-20(s0)
   10710:	00178793          	addi	a5,a5,1
   10714:	fef42623          	sw	a5,-20(s0)
   10718:	fec42703          	lw	a4,-20(s0)
   1071c:	e4842783          	lw	a5,-440(s0)
   10720:	d6f74ce3          	blt	a4,a5,10498 <ludcmp+0x1c>
   10724:	29018793          	addi	a5,gp,656 # 12aa0 <b>
   10728:	0007a783          	lw	a5,0(a5)
   1072c:	e4f42823          	sw	a5,-432(s0)
   10730:	00100793          	li	a5,1
   10734:	fef42623          	sw	a5,-20(s0)
   10738:	0b40006f          	j	107ec <ludcmp+0x370>
   1073c:	29018713          	addi	a4,gp,656 # 12aa0 <b>
   10740:	fec42783          	lw	a5,-20(s0)
   10744:	00279793          	slli	a5,a5,0x2
   10748:	00f707b3          	add	a5,a4,a5
   1074c:	0007a783          	lw	a5,0(a5)
   10750:	fef42023          	sw	a5,-32(s0)
   10754:	fe042423          	sw	zero,-24(s0)
   10758:	0640006f          	j	107bc <ludcmp+0x340>
   1075c:	000127b7          	lui	a5,0x12
   10760:	46078693          	addi	a3,a5,1120 # 12460 <a>
   10764:	fec42703          	lw	a4,-20(s0)
   10768:	00070793          	mv	a5,a4
   1076c:	00279793          	slli	a5,a5,0x2
   10770:	00e787b3          	add	a5,a5,a4
   10774:	00279793          	slli	a5,a5,0x2
   10778:	fe842703          	lw	a4,-24(s0)
   1077c:	00e787b3          	add	a5,a5,a4
   10780:	00279793          	slli	a5,a5,0x2
   10784:	00f687b3          	add	a5,a3,a5
   10788:	0007a703          	lw	a4,0(a5)
   1078c:	fe842783          	lw	a5,-24(s0)
   10790:	00279793          	slli	a5,a5,0x2
   10794:	ff078793          	addi	a5,a5,-16
   10798:	008787b3          	add	a5,a5,s0
   1079c:	e607a783          	lw	a5,-416(a5)
   107a0:	02f707b3          	mul	a5,a4,a5
   107a4:	fe042703          	lw	a4,-32(s0)
   107a8:	40f707b3          	sub	a5,a4,a5
   107ac:	fef42023          	sw	a5,-32(s0)
   107b0:	fe842783          	lw	a5,-24(s0)
   107b4:	00178793          	addi	a5,a5,1
   107b8:	fef42423          	sw	a5,-24(s0)
   107bc:	fe842703          	lw	a4,-24(s0)
   107c0:	fec42783          	lw	a5,-20(s0)
   107c4:	f8f74ce3          	blt	a4,a5,1075c <ludcmp+0x2e0>
   107c8:	fec42783          	lw	a5,-20(s0)
   107cc:	00279793          	slli	a5,a5,0x2
   107d0:	ff078793          	addi	a5,a5,-16
   107d4:	008787b3          	add	a5,a5,s0
   107d8:	fe042703          	lw	a4,-32(s0)
   107dc:	e6e7a023          	sw	a4,-416(a5)
   107e0:	fec42783          	lw	a5,-20(s0)
   107e4:	00178793          	addi	a5,a5,1
   107e8:	fef42623          	sw	a5,-20(s0)
   107ec:	fec42703          	lw	a4,-20(s0)
   107f0:	e4842783          	lw	a5,-440(s0)
   107f4:	f4e7d4e3          	bge	a5,a4,1073c <ludcmp+0x2c0>
   107f8:	e4842783          	lw	a5,-440(s0)
   107fc:	00279793          	slli	a5,a5,0x2
   10800:	ff078793          	addi	a5,a5,-16
   10804:	008787b3          	add	a5,a5,s0
   10808:	e607a703          	lw	a4,-416(a5)
   1080c:	000127b7          	lui	a5,0x12
   10810:	46078693          	addi	a3,a5,1120 # 12460 <a>
   10814:	e4842603          	lw	a2,-440(s0)
   10818:	05400793          	li	a5,84
   1081c:	02f607b3          	mul	a5,a2,a5
   10820:	00f687b3          	add	a5,a3,a5
   10824:	0007a783          	lw	a5,0(a5)
   10828:	02f74733          	div	a4,a4,a5
   1082c:	2e018693          	addi	a3,gp,736 # 12af0 <x>
   10830:	e4842783          	lw	a5,-440(s0)
   10834:	00279793          	slli	a5,a5,0x2
   10838:	00f687b3          	add	a5,a3,a5
   1083c:	00e7a023          	sw	a4,0(a5)
   10840:	e4842783          	lw	a5,-440(s0)
   10844:	fff78793          	addi	a5,a5,-1
   10848:	fef42623          	sw	a5,-20(s0)
   1084c:	0dc0006f          	j	10928 <ludcmp+0x4ac>
   10850:	fec42783          	lw	a5,-20(s0)
   10854:	00279793          	slli	a5,a5,0x2
   10858:	ff078793          	addi	a5,a5,-16
   1085c:	008787b3          	add	a5,a5,s0
   10860:	e607a783          	lw	a5,-416(a5)
   10864:	fef42023          	sw	a5,-32(s0)
   10868:	fec42783          	lw	a5,-20(s0)
   1086c:	00178793          	addi	a5,a5,1
   10870:	fef42423          	sw	a5,-24(s0)
   10874:	0640006f          	j	108d8 <ludcmp+0x45c>
   10878:	000127b7          	lui	a5,0x12
   1087c:	46078693          	addi	a3,a5,1120 # 12460 <a>
   10880:	fec42703          	lw	a4,-20(s0)
   10884:	00070793          	mv	a5,a4
   10888:	00279793          	slli	a5,a5,0x2
   1088c:	00e787b3          	add	a5,a5,a4
   10890:	00279793          	slli	a5,a5,0x2
   10894:	fe842703          	lw	a4,-24(s0)
   10898:	00e787b3          	add	a5,a5,a4
   1089c:	00279793          	slli	a5,a5,0x2
   108a0:	00f687b3          	add	a5,a3,a5
   108a4:	0007a703          	lw	a4,0(a5)
   108a8:	2e018693          	addi	a3,gp,736 # 12af0 <x>
   108ac:	fe842783          	lw	a5,-24(s0)
   108b0:	00279793          	slli	a5,a5,0x2
   108b4:	00f687b3          	add	a5,a3,a5
   108b8:	0007a783          	lw	a5,0(a5)
   108bc:	02f707b3          	mul	a5,a4,a5
   108c0:	fe042703          	lw	a4,-32(s0)
   108c4:	40f707b3          	sub	a5,a4,a5
   108c8:	fef42023          	sw	a5,-32(s0)
   108cc:	fe842783          	lw	a5,-24(s0)
   108d0:	00178793          	addi	a5,a5,1
   108d4:	fef42423          	sw	a5,-24(s0)
   108d8:	fe842703          	lw	a4,-24(s0)
   108dc:	e4842783          	lw	a5,-440(s0)
   108e0:	f8e7dce3          	bge	a5,a4,10878 <ludcmp+0x3fc>
   108e4:	000127b7          	lui	a5,0x12
   108e8:	46078713          	addi	a4,a5,1120 # 12460 <a>
   108ec:	fec42683          	lw	a3,-20(s0)
   108f0:	05400793          	li	a5,84
   108f4:	02f687b3          	mul	a5,a3,a5
   108f8:	00f707b3          	add	a5,a4,a5
   108fc:	0007a783          	lw	a5,0(a5)
   10900:	fe042703          	lw	a4,-32(s0)
   10904:	02f74733          	div	a4,a4,a5
   10908:	2e018693          	addi	a3,gp,736 # 12af0 <x>
   1090c:	fec42783          	lw	a5,-20(s0)
   10910:	00279793          	slli	a5,a5,0x2
   10914:	00f687b3          	add	a5,a3,a5
   10918:	00e7a023          	sw	a4,0(a5)
   1091c:	fec42783          	lw	a5,-20(s0)
   10920:	fff78793          	addi	a5,a5,-1
   10924:	fef42623          	sw	a5,-20(s0)
   10928:	fec42783          	lw	a5,-20(s0)
   1092c:	f207d2e3          	bgez	a5,10850 <ludcmp+0x3d4>
   10930:	00000793          	li	a5,0
   10934:	00078513          	mv	a0,a5
   10938:	1bc12403          	lw	s0,444(sp)
   1093c:	1c010113          	addi	sp,sp,448
   10940:	00008067          	ret

00010944 <initialise_board>:
   10944:	ff010113          	addi	sp,sp,-16
   10948:	00812623          	sw	s0,12(sp)
   1094c:	01010413          	addi	s0,sp,16
   10950:	00000513          	li	a0,0
   10954:	00000013          	nop
   10958:	00c12403          	lw	s0,12(sp)
   1095c:	01010113          	addi	sp,sp,16
   10960:	00008067          	ret

00010964 <start_trigger>:
   10964:	ff010113          	addi	sp,sp,-16
   10968:	00812623          	sw	s0,12(sp)
   1096c:	01010413          	addi	s0,sp,16
   10970:	00000513          	li	a0,0
   10974:	00000013          	nop
   10978:	00c12403          	lw	s0,12(sp)
   1097c:	01010113          	addi	sp,sp,16
   10980:	00008067          	ret

00010984 <stop_trigger>:
   10984:	ff010113          	addi	sp,sp,-16
   10988:	00812623          	sw	s0,12(sp)
   1098c:	01010413          	addi	s0,sp,16
   10990:	00000513          	li	a0,0
   10994:	00000013          	nop
   10998:	00c12403          	lw	s0,12(sp)
   1099c:	01010113          	addi	sp,sp,16
   109a0:	00008067          	ret

000109a4 <main>:
   109a4:	fd010113          	addi	sp,sp,-48
   109a8:	02112623          	sw	ra,44(sp)
   109ac:	02812423          	sw	s0,40(sp)
   109b0:	03010413          	addi	s0,sp,48
   109b4:	fca42e23          	sw	a0,-36(s0)
   109b8:	fcb42c23          	sw	a1,-40(s0)
   109bc:	f89ff0ef          	jal	ra,10944 <initialise_board>
   109c0:	849ff0ef          	jal	ra,10208 <initialise_benchmark>
   109c4:	00100513          	li	a0,1
   109c8:	85dff0ef          	jal	ra,10224 <warm_caches>
   109cc:	f99ff0ef          	jal	ra,10964 <start_trigger>
   109d0:	889ff0ef          	jal	ra,10258 <benchmark>
   109d4:	00050793          	mv	a5,a0
   109d8:	fef42423          	sw	a5,-24(s0)
   109dc:	fa9ff0ef          	jal	ra,10984 <stop_trigger>
   109e0:	fe842783          	lw	a5,-24(s0)
   109e4:	00078513          	mv	a0,a5
   109e8:	fa4ff0ef          	jal	ra,1018c <verify_benchmark>
   109ec:	fea42623          	sw	a0,-20(s0)
   109f0:	fec42783          	lw	a5,-20(s0)
   109f4:	0017b793          	seqz	a5,a5
   109f8:	0ff7f793          	zext.b	a5,a5
   109fc:	00078513          	mv	a0,a5
   10a00:	02c12083          	lw	ra,44(sp)
   10a04:	02812403          	lw	s0,40(sp)
   10a08:	03010113          	addi	sp,sp,48
   10a0c:	00008067          	ret

00010a10 <__adddf3>:
   10a10:	00100837          	lui	a6,0x100
   10a14:	fff80813          	addi	a6,a6,-1 # fffff <__BSS_END__+0xed4bf>
   10a18:	fe010113          	addi	sp,sp,-32
   10a1c:	00b878b3          	and	a7,a6,a1
   10a20:	0145d713          	srli	a4,a1,0x14
   10a24:	01d55793          	srli	a5,a0,0x1d
   10a28:	00d87833          	and	a6,a6,a3
   10a2c:	00812c23          	sw	s0,24(sp)
   10a30:	7ff77413          	andi	s0,a4,2047
   10a34:	00389713          	slli	a4,a7,0x3
   10a38:	0146d893          	srli	a7,a3,0x14
   10a3c:	00381813          	slli	a6,a6,0x3
   10a40:	00912a23          	sw	s1,20(sp)
   10a44:	00e7e7b3          	or	a5,a5,a4
   10a48:	7ff8f893          	andi	a7,a7,2047
   10a4c:	01d65713          	srli	a4,a2,0x1d
   10a50:	00112e23          	sw	ra,28(sp)
   10a54:	01212823          	sw	s2,16(sp)
   10a58:	01312623          	sw	s3,12(sp)
   10a5c:	01f5d493          	srli	s1,a1,0x1f
   10a60:	01f6d693          	srli	a3,a3,0x1f
   10a64:	01076733          	or	a4,a4,a6
   10a68:	00351513          	slli	a0,a0,0x3
   10a6c:	00361613          	slli	a2,a2,0x3
   10a70:	41140833          	sub	a6,s0,a7
   10a74:	2cd49863          	bne	s1,a3,10d44 <__adddf3+0x334>
   10a78:	13005063          	blez	a6,10b98 <__adddf3+0x188>
   10a7c:	04089063          	bnez	a7,10abc <__adddf3+0xac>
   10a80:	00c766b3          	or	a3,a4,a2
   10a84:	70068e63          	beqz	a3,111a0 <__adddf3+0x790>
   10a88:	fff80593          	addi	a1,a6,-1
   10a8c:	02059063          	bnez	a1,10aac <__adddf3+0x9c>
   10a90:	00c50633          	add	a2,a0,a2
   10a94:	00e78733          	add	a4,a5,a4
   10a98:	00a637b3          	sltu	a5,a2,a0
   10a9c:	00f707b3          	add	a5,a4,a5
   10aa0:	00060513          	mv	a0,a2
   10aa4:	00100413          	li	s0,1
   10aa8:	0700006f          	j	10b18 <__adddf3+0x108>
   10aac:	7ff00693          	li	a3,2047
   10ab0:	02d81063          	bne	a6,a3,10ad0 <__adddf3+0xc0>
   10ab4:	7ff00413          	li	s0,2047
   10ab8:	2140006f          	j	10ccc <__adddf3+0x2bc>
   10abc:	7ff00693          	li	a3,2047
   10ac0:	20d40663          	beq	s0,a3,10ccc <__adddf3+0x2bc>
   10ac4:	008006b7          	lui	a3,0x800
   10ac8:	00d76733          	or	a4,a4,a3
   10acc:	00080593          	mv	a1,a6
   10ad0:	03800693          	li	a3,56
   10ad4:	0ab6cc63          	blt	a3,a1,10b8c <__adddf3+0x17c>
   10ad8:	01f00693          	li	a3,31
   10adc:	06b6ce63          	blt	a3,a1,10b58 <__adddf3+0x148>
   10ae0:	02000813          	li	a6,32
   10ae4:	40b80833          	sub	a6,a6,a1
   10ae8:	010716b3          	sll	a3,a4,a6
   10aec:	00b658b3          	srl	a7,a2,a1
   10af0:	01061833          	sll	a6,a2,a6
   10af4:	0116e6b3          	or	a3,a3,a7
   10af8:	01003833          	snez	a6,a6
   10afc:	0106e6b3          	or	a3,a3,a6
   10b00:	00b755b3          	srl	a1,a4,a1
   10b04:	00a686b3          	add	a3,a3,a0
   10b08:	00f585b3          	add	a1,a1,a5
   10b0c:	00a6b7b3          	sltu	a5,a3,a0
   10b10:	00f587b3          	add	a5,a1,a5
   10b14:	00068513          	mv	a0,a3
   10b18:	00800737          	lui	a4,0x800
   10b1c:	00e7f733          	and	a4,a5,a4
   10b20:	1a070663          	beqz	a4,10ccc <__adddf3+0x2bc>
   10b24:	00140413          	addi	s0,s0,1
   10b28:	7ff00713          	li	a4,2047
   10b2c:	5ce40a63          	beq	s0,a4,11100 <__adddf3+0x6f0>
   10b30:	ff800737          	lui	a4,0xff800
   10b34:	fff70713          	addi	a4,a4,-1 # ff7fffff <__BSS_END__+0xff7ed4bf>
   10b38:	00e7f7b3          	and	a5,a5,a4
   10b3c:	00155713          	srli	a4,a0,0x1
   10b40:	00157513          	andi	a0,a0,1
   10b44:	00a76733          	or	a4,a4,a0
   10b48:	01f79513          	slli	a0,a5,0x1f
   10b4c:	00e56533          	or	a0,a0,a4
   10b50:	0017d793          	srli	a5,a5,0x1
   10b54:	1780006f          	j	10ccc <__adddf3+0x2bc>
   10b58:	fe058693          	addi	a3,a1,-32
   10b5c:	02000893          	li	a7,32
   10b60:	00d756b3          	srl	a3,a4,a3
   10b64:	00000813          	li	a6,0
   10b68:	01158863          	beq	a1,a7,10b78 <__adddf3+0x168>
   10b6c:	04000813          	li	a6,64
   10b70:	40b80833          	sub	a6,a6,a1
   10b74:	01071833          	sll	a6,a4,a6
   10b78:	00c86833          	or	a6,a6,a2
   10b7c:	01003833          	snez	a6,a6
   10b80:	0106e6b3          	or	a3,a3,a6
   10b84:	00000593          	li	a1,0
   10b88:	f7dff06f          	j	10b04 <__adddf3+0xf4>
   10b8c:	00c766b3          	or	a3,a4,a2
   10b90:	00d036b3          	snez	a3,a3
   10b94:	ff1ff06f          	j	10b84 <__adddf3+0x174>
   10b98:	0e080263          	beqz	a6,10c7c <__adddf3+0x26c>
   10b9c:	408885b3          	sub	a1,a7,s0
   10ba0:	02041e63          	bnez	s0,10bdc <__adddf3+0x1cc>
   10ba4:	00a7e6b3          	or	a3,a5,a0
   10ba8:	52068c63          	beqz	a3,110e0 <__adddf3+0x6d0>
   10bac:	fff58693          	addi	a3,a1,-1
   10bb0:	00069c63          	bnez	a3,10bc8 <__adddf3+0x1b8>
   10bb4:	00c50533          	add	a0,a0,a2
   10bb8:	00e78733          	add	a4,a5,a4
   10bbc:	00c53633          	sltu	a2,a0,a2
   10bc0:	00c707b3          	add	a5,a4,a2
   10bc4:	ee1ff06f          	j	10aa4 <__adddf3+0x94>
   10bc8:	7ff00813          	li	a6,2047
   10bcc:	03059263          	bne	a1,a6,10bf0 <__adddf3+0x1e0>
   10bd0:	00070793          	mv	a5,a4
   10bd4:	00060513          	mv	a0,a2
   10bd8:	eddff06f          	j	10ab4 <__adddf3+0xa4>
   10bdc:	7ff00693          	li	a3,2047
   10be0:	fed888e3          	beq	a7,a3,10bd0 <__adddf3+0x1c0>
   10be4:	008006b7          	lui	a3,0x800
   10be8:	00d7e7b3          	or	a5,a5,a3
   10bec:	00058693          	mv	a3,a1
   10bf0:	03800593          	li	a1,56
   10bf4:	06d5ce63          	blt	a1,a3,10c70 <__adddf3+0x260>
   10bf8:	01f00593          	li	a1,31
   10bfc:	04d5c063          	blt	a1,a3,10c3c <__adddf3+0x22c>
   10c00:	02000813          	li	a6,32
   10c04:	40d80833          	sub	a6,a6,a3
   10c08:	010795b3          	sll	a1,a5,a6
   10c0c:	00d55333          	srl	t1,a0,a3
   10c10:	01051833          	sll	a6,a0,a6
   10c14:	0065e5b3          	or	a1,a1,t1
   10c18:	01003833          	snez	a6,a6
   10c1c:	0105e5b3          	or	a1,a1,a6
   10c20:	00d7d6b3          	srl	a3,a5,a3
   10c24:	00c58533          	add	a0,a1,a2
   10c28:	00e686b3          	add	a3,a3,a4
   10c2c:	00c53633          	sltu	a2,a0,a2
   10c30:	00c687b3          	add	a5,a3,a2
   10c34:	00088413          	mv	s0,a7
   10c38:	ee1ff06f          	j	10b18 <__adddf3+0x108>
   10c3c:	fe068593          	addi	a1,a3,-32 # 7fffe0 <__BSS_END__+0x7ed4a0>
   10c40:	02000313          	li	t1,32
   10c44:	00b7d5b3          	srl	a1,a5,a1
   10c48:	00000813          	li	a6,0
   10c4c:	00668863          	beq	a3,t1,10c5c <__adddf3+0x24c>
   10c50:	04000813          	li	a6,64
   10c54:	40d80833          	sub	a6,a6,a3
   10c58:	01079833          	sll	a6,a5,a6
   10c5c:	00a86833          	or	a6,a6,a0
   10c60:	01003833          	snez	a6,a6
   10c64:	0105e5b3          	or	a1,a1,a6
   10c68:	00000693          	li	a3,0
   10c6c:	fb9ff06f          	j	10c24 <__adddf3+0x214>
   10c70:	00a7e5b3          	or	a1,a5,a0
   10c74:	00b035b3          	snez	a1,a1
   10c78:	ff1ff06f          	j	10c68 <__adddf3+0x258>
   10c7c:	00140693          	addi	a3,s0,1
   10c80:	7fe6f593          	andi	a1,a3,2046
   10c84:	08059863          	bnez	a1,10d14 <__adddf3+0x304>
   10c88:	00a7e6b3          	or	a3,a5,a0
   10c8c:	06041463          	bnez	s0,10cf4 <__adddf3+0x2e4>
   10c90:	46068063          	beqz	a3,110f0 <__adddf3+0x6e0>
   10c94:	00c766b3          	or	a3,a4,a2
   10c98:	02068a63          	beqz	a3,10ccc <__adddf3+0x2bc>
   10c9c:	00c50633          	add	a2,a0,a2
   10ca0:	00e78733          	add	a4,a5,a4
   10ca4:	00a637b3          	sltu	a5,a2,a0
   10ca8:	00f707b3          	add	a5,a4,a5
   10cac:	00800737          	lui	a4,0x800
   10cb0:	00e7f733          	and	a4,a5,a4
   10cb4:	00060513          	mv	a0,a2
   10cb8:	00070a63          	beqz	a4,10ccc <__adddf3+0x2bc>
   10cbc:	ff800737          	lui	a4,0xff800
   10cc0:	fff70713          	addi	a4,a4,-1 # ff7fffff <__BSS_END__+0xff7ed4bf>
   10cc4:	00e7f7b3          	and	a5,a5,a4
   10cc8:	00100413          	li	s0,1
   10ccc:	00757713          	andi	a4,a0,7
   10cd0:	42070c63          	beqz	a4,11108 <__adddf3+0x6f8>
   10cd4:	00f57713          	andi	a4,a0,15
   10cd8:	00400693          	li	a3,4
   10cdc:	42d70663          	beq	a4,a3,11108 <__adddf3+0x6f8>
   10ce0:	00450713          	addi	a4,a0,4 # 12004 <__init_array_start>
   10ce4:	00a73533          	sltu	a0,a4,a0
   10ce8:	00a787b3          	add	a5,a5,a0
   10cec:	00070513          	mv	a0,a4
   10cf0:	4180006f          	j	11108 <__adddf3+0x6f8>
   10cf4:	ec068ee3          	beqz	a3,10bd0 <__adddf3+0x1c0>
   10cf8:	00c76733          	or	a4,a4,a2
   10cfc:	da070ce3          	beqz	a4,10ab4 <__adddf3+0xa4>
   10d00:	00000493          	li	s1,0
   10d04:	004007b7          	lui	a5,0x400
   10d08:	00000513          	li	a0,0
   10d0c:	7ff00413          	li	s0,2047
   10d10:	3f80006f          	j	11108 <__adddf3+0x6f8>
   10d14:	7ff00593          	li	a1,2047
   10d18:	3eb68263          	beq	a3,a1,110fc <__adddf3+0x6ec>
   10d1c:	00c50633          	add	a2,a0,a2
   10d20:	00a63533          	sltu	a0,a2,a0
   10d24:	00e78733          	add	a4,a5,a4
   10d28:	00a70733          	add	a4,a4,a0
   10d2c:	01f71513          	slli	a0,a4,0x1f
   10d30:	00165613          	srli	a2,a2,0x1
   10d34:	00c56533          	or	a0,a0,a2
   10d38:	00175793          	srli	a5,a4,0x1
   10d3c:	00068413          	mv	s0,a3
   10d40:	f8dff06f          	j	10ccc <__adddf3+0x2bc>
   10d44:	0f005c63          	blez	a6,10e3c <__adddf3+0x42c>
   10d48:	08089e63          	bnez	a7,10de4 <__adddf3+0x3d4>
   10d4c:	00c766b3          	or	a3,a4,a2
   10d50:	44068863          	beqz	a3,111a0 <__adddf3+0x790>
   10d54:	fff80593          	addi	a1,a6,-1
   10d58:	02059063          	bnez	a1,10d78 <__adddf3+0x368>
   10d5c:	40c50633          	sub	a2,a0,a2
   10d60:	40e78733          	sub	a4,a5,a4
   10d64:	00c537b3          	sltu	a5,a0,a2
   10d68:	40f707b3          	sub	a5,a4,a5
   10d6c:	00060513          	mv	a0,a2
   10d70:	00100413          	li	s0,1
   10d74:	0540006f          	j	10dc8 <__adddf3+0x3b8>
   10d78:	7ff00693          	li	a3,2047
   10d7c:	d2d80ce3          	beq	a6,a3,10ab4 <__adddf3+0xa4>
   10d80:	03800693          	li	a3,56
   10d84:	0ab6c663          	blt	a3,a1,10e30 <__adddf3+0x420>
   10d88:	01f00693          	li	a3,31
   10d8c:	06b6c863          	blt	a3,a1,10dfc <__adddf3+0x3ec>
   10d90:	02000813          	li	a6,32
   10d94:	40b80833          	sub	a6,a6,a1
   10d98:	010716b3          	sll	a3,a4,a6
   10d9c:	00b658b3          	srl	a7,a2,a1
   10da0:	01061833          	sll	a6,a2,a6
   10da4:	0116e6b3          	or	a3,a3,a7
   10da8:	01003833          	snez	a6,a6
   10dac:	0106e6b3          	or	a3,a3,a6
   10db0:	00b755b3          	srl	a1,a4,a1
   10db4:	40d506b3          	sub	a3,a0,a3
   10db8:	40b785b3          	sub	a1,a5,a1
   10dbc:	00d537b3          	sltu	a5,a0,a3
   10dc0:	40f587b3          	sub	a5,a1,a5
   10dc4:	00068513          	mv	a0,a3
   10dc8:	00800937          	lui	s2,0x800
   10dcc:	0127f733          	and	a4,a5,s2
   10dd0:	ee070ee3          	beqz	a4,10ccc <__adddf3+0x2bc>
   10dd4:	fff90913          	addi	s2,s2,-1 # 7fffff <__BSS_END__+0x7ed4bf>
   10dd8:	0127f933          	and	s2,a5,s2
   10ddc:	00050993          	mv	s3,a0
   10de0:	2140006f          	j	10ff4 <__adddf3+0x5e4>
   10de4:	7ff00693          	li	a3,2047
   10de8:	eed402e3          	beq	s0,a3,10ccc <__adddf3+0x2bc>
   10dec:	008006b7          	lui	a3,0x800
   10df0:	00d76733          	or	a4,a4,a3
   10df4:	00080593          	mv	a1,a6
   10df8:	f89ff06f          	j	10d80 <__adddf3+0x370>
   10dfc:	fe058693          	addi	a3,a1,-32
   10e00:	02000893          	li	a7,32
   10e04:	00d756b3          	srl	a3,a4,a3
   10e08:	00000813          	li	a6,0
   10e0c:	01158863          	beq	a1,a7,10e1c <__adddf3+0x40c>
   10e10:	04000813          	li	a6,64
   10e14:	40b80833          	sub	a6,a6,a1
   10e18:	01071833          	sll	a6,a4,a6
   10e1c:	00c86833          	or	a6,a6,a2
   10e20:	01003833          	snez	a6,a6
   10e24:	0106e6b3          	or	a3,a3,a6
   10e28:	00000593          	li	a1,0
   10e2c:	f89ff06f          	j	10db4 <__adddf3+0x3a4>
   10e30:	00c766b3          	or	a3,a4,a2
   10e34:	00d036b3          	snez	a3,a3
   10e38:	ff1ff06f          	j	10e28 <__adddf3+0x418>
   10e3c:	0e080863          	beqz	a6,10f2c <__adddf3+0x51c>
   10e40:	40888833          	sub	a6,a7,s0
   10e44:	04041263          	bnez	s0,10e88 <__adddf3+0x478>
   10e48:	00a7e5b3          	or	a1,a5,a0
   10e4c:	34058e63          	beqz	a1,111a8 <__adddf3+0x798>
   10e50:	fff80593          	addi	a1,a6,-1
   10e54:	00059e63          	bnez	a1,10e70 <__adddf3+0x460>
   10e58:	40a60533          	sub	a0,a2,a0
   10e5c:	40f70733          	sub	a4,a4,a5
   10e60:	00a63633          	sltu	a2,a2,a0
   10e64:	40c707b3          	sub	a5,a4,a2
   10e68:	00068493          	mv	s1,a3
   10e6c:	f05ff06f          	j	10d70 <__adddf3+0x360>
   10e70:	7ff00313          	li	t1,2047
   10e74:	02681463          	bne	a6,t1,10e9c <__adddf3+0x48c>
   10e78:	00070793          	mv	a5,a4
   10e7c:	00060513          	mv	a0,a2
   10e80:	7ff00413          	li	s0,2047
   10e84:	0d00006f          	j	10f54 <__adddf3+0x544>
   10e88:	7ff00593          	li	a1,2047
   10e8c:	feb886e3          	beq	a7,a1,10e78 <__adddf3+0x468>
   10e90:	008005b7          	lui	a1,0x800
   10e94:	00b7e7b3          	or	a5,a5,a1
   10e98:	00080593          	mv	a1,a6
   10e9c:	03800813          	li	a6,56
   10ea0:	08b84063          	blt	a6,a1,10f20 <__adddf3+0x510>
   10ea4:	01f00813          	li	a6,31
   10ea8:	04b84263          	blt	a6,a1,10eec <__adddf3+0x4dc>
   10eac:	02000313          	li	t1,32
   10eb0:	40b30333          	sub	t1,t1,a1
   10eb4:	00b55e33          	srl	t3,a0,a1
   10eb8:	00679833          	sll	a6,a5,t1
   10ebc:	00651333          	sll	t1,a0,t1
   10ec0:	01c86833          	or	a6,a6,t3
   10ec4:	00603333          	snez	t1,t1
   10ec8:	00686533          	or	a0,a6,t1
   10ecc:	00b7d5b3          	srl	a1,a5,a1
   10ed0:	40a60533          	sub	a0,a2,a0
   10ed4:	40b705b3          	sub	a1,a4,a1
   10ed8:	00a63633          	sltu	a2,a2,a0
   10edc:	40c587b3          	sub	a5,a1,a2
   10ee0:	00088413          	mv	s0,a7
   10ee4:	00068493          	mv	s1,a3
   10ee8:	ee1ff06f          	j	10dc8 <__adddf3+0x3b8>
   10eec:	fe058813          	addi	a6,a1,-32 # 7fffe0 <__BSS_END__+0x7ed4a0>
   10ef0:	02000e13          	li	t3,32
   10ef4:	0107d833          	srl	a6,a5,a6
   10ef8:	00000313          	li	t1,0
   10efc:	01c58863          	beq	a1,t3,10f0c <__adddf3+0x4fc>
   10f00:	04000313          	li	t1,64
   10f04:	40b30333          	sub	t1,t1,a1
   10f08:	00679333          	sll	t1,a5,t1
   10f0c:	00a36333          	or	t1,t1,a0
   10f10:	00603333          	snez	t1,t1
   10f14:	00686533          	or	a0,a6,t1
   10f18:	00000593          	li	a1,0
   10f1c:	fb5ff06f          	j	10ed0 <__adddf3+0x4c0>
   10f20:	00a7e533          	or	a0,a5,a0
   10f24:	00a03533          	snez	a0,a0
   10f28:	ff1ff06f          	j	10f18 <__adddf3+0x508>
   10f2c:	00140593          	addi	a1,s0,1
   10f30:	7fe5f593          	andi	a1,a1,2046
   10f34:	08059863          	bnez	a1,10fc4 <__adddf3+0x5b4>
   10f38:	00a7e833          	or	a6,a5,a0
   10f3c:	00c765b3          	or	a1,a4,a2
   10f40:	06041263          	bnez	s0,10fa4 <__adddf3+0x594>
   10f44:	00081c63          	bnez	a6,10f5c <__adddf3+0x54c>
   10f48:	26058863          	beqz	a1,111b8 <__adddf3+0x7a8>
   10f4c:	00070793          	mv	a5,a4
   10f50:	00060513          	mv	a0,a2
   10f54:	00068493          	mv	s1,a3
   10f58:	d75ff06f          	j	10ccc <__adddf3+0x2bc>
   10f5c:	d60588e3          	beqz	a1,10ccc <__adddf3+0x2bc>
   10f60:	40c50833          	sub	a6,a0,a2
   10f64:	010538b3          	sltu	a7,a0,a6
   10f68:	40e785b3          	sub	a1,a5,a4
   10f6c:	411585b3          	sub	a1,a1,a7
   10f70:	008008b7          	lui	a7,0x800
   10f74:	0115f8b3          	and	a7,a1,a7
   10f78:	00088c63          	beqz	a7,10f90 <__adddf3+0x580>
   10f7c:	40a60533          	sub	a0,a2,a0
   10f80:	40f70733          	sub	a4,a4,a5
   10f84:	00a63633          	sltu	a2,a2,a0
   10f88:	40c707b3          	sub	a5,a4,a2
   10f8c:	fc9ff06f          	j	10f54 <__adddf3+0x544>
   10f90:	00b86533          	or	a0,a6,a1
   10f94:	22050a63          	beqz	a0,111c8 <__adddf3+0x7b8>
   10f98:	00058793          	mv	a5,a1
   10f9c:	00080513          	mv	a0,a6
   10fa0:	d2dff06f          	j	10ccc <__adddf3+0x2bc>
   10fa4:	00081c63          	bnez	a6,10fbc <__adddf3+0x5ac>
   10fa8:	22058463          	beqz	a1,111d0 <__adddf3+0x7c0>
   10fac:	00070793          	mv	a5,a4
   10fb0:	00060513          	mv	a0,a2
   10fb4:	00068493          	mv	s1,a3
   10fb8:	afdff06f          	j	10ab4 <__adddf3+0xa4>
   10fbc:	ae058ce3          	beqz	a1,10ab4 <__adddf3+0xa4>
   10fc0:	d41ff06f          	j	10d00 <__adddf3+0x2f0>
   10fc4:	40c509b3          	sub	s3,a0,a2
   10fc8:	013535b3          	sltu	a1,a0,s3
   10fcc:	40e78933          	sub	s2,a5,a4
   10fd0:	40b90933          	sub	s2,s2,a1
   10fd4:	008005b7          	lui	a1,0x800
   10fd8:	00b975b3          	and	a1,s2,a1
   10fdc:	08058463          	beqz	a1,11064 <__adddf3+0x654>
   10fe0:	40a609b3          	sub	s3,a2,a0
   10fe4:	40f70933          	sub	s2,a4,a5
   10fe8:	01363633          	sltu	a2,a2,s3
   10fec:	40c90933          	sub	s2,s2,a2
   10ff0:	00068493          	mv	s1,a3
   10ff4:	08090263          	beqz	s2,11078 <__adddf3+0x668>
   10ff8:	00090513          	mv	a0,s2
   10ffc:	318000ef          	jal	ra,11314 <__clzsi2>
   11000:	ff850713          	addi	a4,a0,-8
   11004:	01f00793          	li	a5,31
   11008:	08e7c063          	blt	a5,a4,11088 <__adddf3+0x678>
   1100c:	02000793          	li	a5,32
   11010:	40e787b3          	sub	a5,a5,a4
   11014:	00e91933          	sll	s2,s2,a4
   11018:	00f9d7b3          	srl	a5,s3,a5
   1101c:	0127e7b3          	or	a5,a5,s2
   11020:	00e99533          	sll	a0,s3,a4
   11024:	0a874463          	blt	a4,s0,110cc <__adddf3+0x6bc>
   11028:	40870733          	sub	a4,a4,s0
   1102c:	00170613          	addi	a2,a4,1
   11030:	01f00693          	li	a3,31
   11034:	06c6c263          	blt	a3,a2,11098 <__adddf3+0x688>
   11038:	02000713          	li	a4,32
   1103c:	40c70733          	sub	a4,a4,a2
   11040:	00e796b3          	sll	a3,a5,a4
   11044:	00c555b3          	srl	a1,a0,a2
   11048:	00e51733          	sll	a4,a0,a4
   1104c:	00b6e6b3          	or	a3,a3,a1
   11050:	00e03733          	snez	a4,a4
   11054:	00e6e533          	or	a0,a3,a4
   11058:	00c7d7b3          	srl	a5,a5,a2
   1105c:	00000413          	li	s0,0
   11060:	c6dff06f          	j	10ccc <__adddf3+0x2bc>
   11064:	0129e533          	or	a0,s3,s2
   11068:	f80516e3          	bnez	a0,10ff4 <__adddf3+0x5e4>
   1106c:	00000793          	li	a5,0
   11070:	00000413          	li	s0,0
   11074:	14c0006f          	j	111c0 <__adddf3+0x7b0>
   11078:	00098513          	mv	a0,s3
   1107c:	298000ef          	jal	ra,11314 <__clzsi2>
   11080:	02050513          	addi	a0,a0,32
   11084:	f7dff06f          	j	11000 <__adddf3+0x5f0>
   11088:	fd850793          	addi	a5,a0,-40
   1108c:	00f997b3          	sll	a5,s3,a5
   11090:	00000513          	li	a0,0
   11094:	f91ff06f          	j	11024 <__adddf3+0x614>
   11098:	fe170713          	addi	a4,a4,-31
   1109c:	02000593          	li	a1,32
   110a0:	00e7d733          	srl	a4,a5,a4
   110a4:	00000693          	li	a3,0
   110a8:	00b60863          	beq	a2,a1,110b8 <__adddf3+0x6a8>
   110ac:	04000693          	li	a3,64
   110b0:	40c686b3          	sub	a3,a3,a2
   110b4:	00d796b3          	sll	a3,a5,a3
   110b8:	00d566b3          	or	a3,a0,a3
   110bc:	00d036b3          	snez	a3,a3
   110c0:	00d76533          	or	a0,a4,a3
   110c4:	00000793          	li	a5,0
   110c8:	f95ff06f          	j	1105c <__adddf3+0x64c>
   110cc:	40e40433          	sub	s0,s0,a4
   110d0:	ff800737          	lui	a4,0xff800
   110d4:	fff70713          	addi	a4,a4,-1 # ff7fffff <__BSS_END__+0xff7ed4bf>
   110d8:	00e7f7b3          	and	a5,a5,a4
   110dc:	bf1ff06f          	j	10ccc <__adddf3+0x2bc>
   110e0:	00070793          	mv	a5,a4
   110e4:	00060513          	mv	a0,a2
   110e8:	00058413          	mv	s0,a1
   110ec:	be1ff06f          	j	10ccc <__adddf3+0x2bc>
   110f0:	00070793          	mv	a5,a4
   110f4:	00060513          	mv	a0,a2
   110f8:	bd5ff06f          	j	10ccc <__adddf3+0x2bc>
   110fc:	7ff00413          	li	s0,2047
   11100:	00000793          	li	a5,0
   11104:	00000513          	li	a0,0
   11108:	00800737          	lui	a4,0x800
   1110c:	00e7f733          	and	a4,a5,a4
   11110:	00070e63          	beqz	a4,1112c <__adddf3+0x71c>
   11114:	00140413          	addi	s0,s0,1
   11118:	7ff00713          	li	a4,2047
   1111c:	0ce40263          	beq	s0,a4,111e0 <__adddf3+0x7d0>
   11120:	ff800737          	lui	a4,0xff800
   11124:	fff70713          	addi	a4,a4,-1 # ff7fffff <__BSS_END__+0xff7ed4bf>
   11128:	00e7f7b3          	and	a5,a5,a4
   1112c:	01d79693          	slli	a3,a5,0x1d
   11130:	00355513          	srli	a0,a0,0x3
   11134:	7ff00713          	li	a4,2047
   11138:	00a6e6b3          	or	a3,a3,a0
   1113c:	0037d793          	srli	a5,a5,0x3
   11140:	00e41e63          	bne	s0,a4,1115c <__adddf3+0x74c>
   11144:	00f6e6b3          	or	a3,a3,a5
   11148:	00000793          	li	a5,0
   1114c:	00068863          	beqz	a3,1115c <__adddf3+0x74c>
   11150:	000807b7          	lui	a5,0x80
   11154:	00000693          	li	a3,0
   11158:	00000493          	li	s1,0
   1115c:	01441713          	slli	a4,s0,0x14
   11160:	7ff00637          	lui	a2,0x7ff00
   11164:	00c79793          	slli	a5,a5,0xc
   11168:	01c12083          	lw	ra,28(sp)
   1116c:	01812403          	lw	s0,24(sp)
   11170:	00c77733          	and	a4,a4,a2
   11174:	00c7d793          	srli	a5,a5,0xc
   11178:	01f49493          	slli	s1,s1,0x1f
   1117c:	00f767b3          	or	a5,a4,a5
   11180:	0097e733          	or	a4,a5,s1
   11184:	01012903          	lw	s2,16(sp)
   11188:	01412483          	lw	s1,20(sp)
   1118c:	00c12983          	lw	s3,12(sp)
   11190:	00068513          	mv	a0,a3
   11194:	00070593          	mv	a1,a4
   11198:	02010113          	addi	sp,sp,32
   1119c:	00008067          	ret
   111a0:	00080413          	mv	s0,a6
   111a4:	b29ff06f          	j	10ccc <__adddf3+0x2bc>
   111a8:	00070793          	mv	a5,a4
   111ac:	00060513          	mv	a0,a2
   111b0:	00080413          	mv	s0,a6
   111b4:	da1ff06f          	j	10f54 <__adddf3+0x544>
   111b8:	00000793          	li	a5,0
   111bc:	00000513          	li	a0,0
   111c0:	00000493          	li	s1,0
   111c4:	f45ff06f          	j	11108 <__adddf3+0x6f8>
   111c8:	00000793          	li	a5,0
   111cc:	ff5ff06f          	j	111c0 <__adddf3+0x7b0>
   111d0:	00000513          	li	a0,0
   111d4:	00000493          	li	s1,0
   111d8:	004007b7          	lui	a5,0x400
   111dc:	b31ff06f          	j	10d0c <__adddf3+0x2fc>
   111e0:	00000793          	li	a5,0
   111e4:	00000513          	li	a0,0
   111e8:	f45ff06f          	j	1112c <__adddf3+0x71c>

000111ec <__fixdfsi>:
   111ec:	0145d713          	srli	a4,a1,0x14
   111f0:	001006b7          	lui	a3,0x100
   111f4:	fff68793          	addi	a5,a3,-1 # fffff <__BSS_END__+0xed4bf>
   111f8:	7ff77713          	andi	a4,a4,2047
   111fc:	3fe00613          	li	a2,1022
   11200:	00b7f7b3          	and	a5,a5,a1
   11204:	01f5d593          	srli	a1,a1,0x1f
   11208:	04e65e63          	bge	a2,a4,11264 <__fixdfsi+0x78>
   1120c:	41d00613          	li	a2,1053
   11210:	00e65a63          	bge	a2,a4,11224 <__fixdfsi+0x38>
   11214:	80000537          	lui	a0,0x80000
   11218:	fff54513          	not	a0,a0
   1121c:	00a58533          	add	a0,a1,a0
   11220:	00008067          	ret
   11224:	00d7e7b3          	or	a5,a5,a3
   11228:	43300693          	li	a3,1075
   1122c:	40e686b3          	sub	a3,a3,a4
   11230:	01f00613          	li	a2,31
   11234:	02d64063          	blt	a2,a3,11254 <__fixdfsi+0x68>
   11238:	bed70713          	addi	a4,a4,-1043
   1123c:	00e797b3          	sll	a5,a5,a4
   11240:	00d55533          	srl	a0,a0,a3
   11244:	00a7e533          	or	a0,a5,a0
   11248:	02058063          	beqz	a1,11268 <__fixdfsi+0x7c>
   1124c:	40a00533          	neg	a0,a0
   11250:	00008067          	ret
   11254:	41300693          	li	a3,1043
   11258:	40e68733          	sub	a4,a3,a4
   1125c:	00e7d533          	srl	a0,a5,a4
   11260:	fe9ff06f          	j	11248 <__fixdfsi+0x5c>
   11264:	00000513          	li	a0,0
   11268:	00008067          	ret

0001126c <__floatsidf>:
   1126c:	ff010113          	addi	sp,sp,-16
   11270:	00112623          	sw	ra,12(sp)
   11274:	00812423          	sw	s0,8(sp)
   11278:	00912223          	sw	s1,4(sp)
   1127c:	08050663          	beqz	a0,11308 <__floatsidf+0x9c>
   11280:	41f55793          	srai	a5,a0,0x1f
   11284:	00a7c433          	xor	s0,a5,a0
   11288:	40f40433          	sub	s0,s0,a5
   1128c:	01f55493          	srli	s1,a0,0x1f
   11290:	00040513          	mv	a0,s0
   11294:	080000ef          	jal	ra,11314 <__clzsi2>
   11298:	41e00713          	li	a4,1054
   1129c:	00a00793          	li	a5,10
   112a0:	40a70733          	sub	a4,a4,a0
   112a4:	04a7c863          	blt	a5,a0,112f4 <__floatsidf+0x88>
   112a8:	00b00793          	li	a5,11
   112ac:	40a787b3          	sub	a5,a5,a0
   112b0:	01550513          	addi	a0,a0,21 # 80000015 <__BSS_END__+0x7ffed4d5>
   112b4:	00f457b3          	srl	a5,s0,a5
   112b8:	00a41433          	sll	s0,s0,a0
   112bc:	00048513          	mv	a0,s1
   112c0:	00c79793          	slli	a5,a5,0xc
   112c4:	00c7d793          	srli	a5,a5,0xc
   112c8:	01471713          	slli	a4,a4,0x14
   112cc:	01f51513          	slli	a0,a0,0x1f
   112d0:	00f76733          	or	a4,a4,a5
   112d4:	00c12083          	lw	ra,12(sp)
   112d8:	00a767b3          	or	a5,a4,a0
   112dc:	00040513          	mv	a0,s0
   112e0:	00812403          	lw	s0,8(sp)
   112e4:	00412483          	lw	s1,4(sp)
   112e8:	00078593          	mv	a1,a5
   112ec:	01010113          	addi	sp,sp,16
   112f0:	00008067          	ret
   112f4:	ff550513          	addi	a0,a0,-11
   112f8:	00a417b3          	sll	a5,s0,a0
   112fc:	00048513          	mv	a0,s1
   11300:	00000413          	li	s0,0
   11304:	fbdff06f          	j	112c0 <__floatsidf+0x54>
   11308:	00000713          	li	a4,0
   1130c:	00000793          	li	a5,0
   11310:	ff1ff06f          	j	11300 <__floatsidf+0x94>

00011314 <__clzsi2>:
   11314:	000107b7          	lui	a5,0x10
   11318:	02f57a63          	bgeu	a0,a5,1134c <__clzsi2+0x38>
   1131c:	10053793          	sltiu	a5,a0,256
   11320:	0017c793          	xori	a5,a5,1
   11324:	00379793          	slli	a5,a5,0x3
   11328:	00012737          	lui	a4,0x12
   1132c:	02000693          	li	a3,32
   11330:	40f686b3          	sub	a3,a3,a5
   11334:	00f55533          	srl	a0,a0,a5
   11338:	92870793          	addi	a5,a4,-1752 # 11928 <__clz_tab>
   1133c:	00a787b3          	add	a5,a5,a0
   11340:	0007c503          	lbu	a0,0(a5) # 10000 <exit-0x94>
   11344:	40a68533          	sub	a0,a3,a0
   11348:	00008067          	ret
   1134c:	01000737          	lui	a4,0x1000
   11350:	01000793          	li	a5,16
   11354:	fce56ae3          	bltu	a0,a4,11328 <__clzsi2+0x14>
   11358:	01800793          	li	a5,24
   1135c:	fcdff06f          	j	11328 <__clzsi2+0x14>

00011360 <__libc_init_array>:
   11360:	ff010113          	addi	sp,sp,-16
   11364:	00812423          	sw	s0,8(sp)
   11368:	01212023          	sw	s2,0(sp)
   1136c:	00012437          	lui	s0,0x12
   11370:	00012937          	lui	s2,0x12
   11374:	00440793          	addi	a5,s0,4 # 12004 <__init_array_start>
   11378:	00490913          	addi	s2,s2,4 # 12004 <__init_array_start>
   1137c:	40f90933          	sub	s2,s2,a5
   11380:	00112623          	sw	ra,12(sp)
   11384:	00912223          	sw	s1,4(sp)
   11388:	40295913          	srai	s2,s2,0x2
   1138c:	02090063          	beqz	s2,113ac <__libc_init_array+0x4c>
   11390:	00440413          	addi	s0,s0,4
   11394:	00000493          	li	s1,0
   11398:	00042783          	lw	a5,0(s0)
   1139c:	00148493          	addi	s1,s1,1
   113a0:	00440413          	addi	s0,s0,4
   113a4:	000780e7          	jalr	a5
   113a8:	fe9918e3          	bne	s2,s1,11398 <__libc_init_array+0x38>
   113ac:	00012437          	lui	s0,0x12
   113b0:	00012937          	lui	s2,0x12
   113b4:	00440793          	addi	a5,s0,4 # 12004 <__init_array_start>
   113b8:	00c90913          	addi	s2,s2,12 # 1200c <__do_global_dtors_aux_fini_array_entry>
   113bc:	40f90933          	sub	s2,s2,a5
   113c0:	40295913          	srai	s2,s2,0x2
   113c4:	02090063          	beqz	s2,113e4 <__libc_init_array+0x84>
   113c8:	00440413          	addi	s0,s0,4
   113cc:	00000493          	li	s1,0
   113d0:	00042783          	lw	a5,0(s0)
   113d4:	00148493          	addi	s1,s1,1
   113d8:	00440413          	addi	s0,s0,4
   113dc:	000780e7          	jalr	a5
   113e0:	fe9918e3          	bne	s2,s1,113d0 <__libc_init_array+0x70>
   113e4:	00c12083          	lw	ra,12(sp)
   113e8:	00812403          	lw	s0,8(sp)
   113ec:	00412483          	lw	s1,4(sp)
   113f0:	00012903          	lw	s2,0(sp)
   113f4:	01010113          	addi	sp,sp,16
   113f8:	00008067          	ret

000113fc <memcmp>:
   113fc:	00300793          	li	a5,3
   11400:	02c7f863          	bgeu	a5,a2,11430 <memcmp+0x34>
   11404:	00b567b3          	or	a5,a0,a1
   11408:	0037f793          	andi	a5,a5,3
   1140c:	00300693          	li	a3,3
   11410:	04079e63          	bnez	a5,1146c <memcmp+0x70>
   11414:	00052703          	lw	a4,0(a0)
   11418:	0005a783          	lw	a5,0(a1) # 800000 <__BSS_END__+0x7ed4c0>
   1141c:	04f71863          	bne	a4,a5,1146c <memcmp+0x70>
   11420:	ffc60613          	addi	a2,a2,-4 # 7feffffc <__BSS_END__+0x7feed4bc>
   11424:	00450513          	addi	a0,a0,4
   11428:	00458593          	addi	a1,a1,4
   1142c:	fec6e4e3          	bltu	a3,a2,11414 <memcmp+0x18>
   11430:	fff60693          	addi	a3,a2,-1
   11434:	02060863          	beqz	a2,11464 <memcmp+0x68>
   11438:	00168693          	addi	a3,a3,1
   1143c:	00d506b3          	add	a3,a0,a3
   11440:	0080006f          	j	11448 <memcmp+0x4c>
   11444:	02d50063          	beq	a0,a3,11464 <memcmp+0x68>
   11448:	00054783          	lbu	a5,0(a0)
   1144c:	0005c703          	lbu	a4,0(a1)
   11450:	00150513          	addi	a0,a0,1
   11454:	00158593          	addi	a1,a1,1
   11458:	fee786e3          	beq	a5,a4,11444 <memcmp+0x48>
   1145c:	40e78533          	sub	a0,a5,a4
   11460:	00008067          	ret
   11464:	00000513          	li	a0,0
   11468:	00008067          	ret
   1146c:	fff60693          	addi	a3,a2,-1
   11470:	fc9ff06f          	j	11438 <memcmp+0x3c>

00011474 <memcpy>:
   11474:	00b547b3          	xor	a5,a0,a1
   11478:	0037f793          	andi	a5,a5,3
   1147c:	00c508b3          	add	a7,a0,a2
   11480:	06079663          	bnez	a5,114ec <memcpy+0x78>
   11484:	00300793          	li	a5,3
   11488:	06c7f263          	bgeu	a5,a2,114ec <memcpy+0x78>
   1148c:	00357793          	andi	a5,a0,3
   11490:	00050713          	mv	a4,a0
   11494:	0c079a63          	bnez	a5,11568 <memcpy+0xf4>
   11498:	ffc8f613          	andi	a2,a7,-4
   1149c:	40e606b3          	sub	a3,a2,a4
   114a0:	02000793          	li	a5,32
   114a4:	02000293          	li	t0,32
   114a8:	06d7c263          	blt	a5,a3,1150c <memcpy+0x98>
   114ac:	00058693          	mv	a3,a1
   114b0:	00070793          	mv	a5,a4
   114b4:	02c77863          	bgeu	a4,a2,114e4 <memcpy+0x70>
   114b8:	0006a803          	lw	a6,0(a3)
   114bc:	00478793          	addi	a5,a5,4
   114c0:	00468693          	addi	a3,a3,4
   114c4:	ff07ae23          	sw	a6,-4(a5)
   114c8:	fec7e8e3          	bltu	a5,a2,114b8 <memcpy+0x44>
   114cc:	fff60793          	addi	a5,a2,-1
   114d0:	40e787b3          	sub	a5,a5,a4
   114d4:	ffc7f793          	andi	a5,a5,-4
   114d8:	00478793          	addi	a5,a5,4
   114dc:	00f70733          	add	a4,a4,a5
   114e0:	00f585b3          	add	a1,a1,a5
   114e4:	01176863          	bltu	a4,a7,114f4 <memcpy+0x80>
   114e8:	00008067          	ret
   114ec:	00050713          	mv	a4,a0
   114f0:	ff157ce3          	bgeu	a0,a7,114e8 <memcpy+0x74>
   114f4:	0005c783          	lbu	a5,0(a1)
   114f8:	00170713          	addi	a4,a4,1 # 1000001 <__BSS_END__+0xfed4c1>
   114fc:	00158593          	addi	a1,a1,1
   11500:	fef70fa3          	sb	a5,-1(a4)
   11504:	ff1768e3          	bltu	a4,a7,114f4 <memcpy+0x80>
   11508:	00008067          	ret
   1150c:	0045a683          	lw	a3,4(a1)
   11510:	01c5a783          	lw	a5,28(a1)
   11514:	0005af83          	lw	t6,0(a1)
   11518:	0085af03          	lw	t5,8(a1)
   1151c:	00c5ae83          	lw	t4,12(a1)
   11520:	0105ae03          	lw	t3,16(a1)
   11524:	0145a303          	lw	t1,20(a1)
   11528:	0185a803          	lw	a6,24(a1)
   1152c:	00d72223          	sw	a3,4(a4)
   11530:	0205a683          	lw	a3,32(a1)
   11534:	01f72023          	sw	t6,0(a4)
   11538:	01e72423          	sw	t5,8(a4)
   1153c:	01d72623          	sw	t4,12(a4)
   11540:	01c72823          	sw	t3,16(a4)
   11544:	00672a23          	sw	t1,20(a4)
   11548:	01072c23          	sw	a6,24(a4)
   1154c:	00f72e23          	sw	a5,28(a4)
   11550:	02470713          	addi	a4,a4,36
   11554:	40e607b3          	sub	a5,a2,a4
   11558:	fed72e23          	sw	a3,-4(a4)
   1155c:	02458593          	addi	a1,a1,36
   11560:	faf2c6e3          	blt	t0,a5,1150c <memcpy+0x98>
   11564:	f49ff06f          	j	114ac <memcpy+0x38>
   11568:	0005c683          	lbu	a3,0(a1)
   1156c:	00170713          	addi	a4,a4,1
   11570:	00377793          	andi	a5,a4,3
   11574:	fed70fa3          	sb	a3,-1(a4)
   11578:	00158593          	addi	a1,a1,1
   1157c:	f0078ee3          	beqz	a5,11498 <memcpy+0x24>
   11580:	0005c683          	lbu	a3,0(a1)
   11584:	00170713          	addi	a4,a4,1
   11588:	00377793          	andi	a5,a4,3
   1158c:	fed70fa3          	sb	a3,-1(a4)
   11590:	00158593          	addi	a1,a1,1
   11594:	fc079ae3          	bnez	a5,11568 <memcpy+0xf4>
   11598:	f01ff06f          	j	11498 <memcpy+0x24>

0001159c <memset>:
   1159c:	00f00313          	li	t1,15
   115a0:	00050713          	mv	a4,a0
   115a4:	02c37e63          	bgeu	t1,a2,115e0 <memset+0x44>
   115a8:	00f77793          	andi	a5,a4,15
   115ac:	0a079063          	bnez	a5,1164c <memset+0xb0>
   115b0:	08059263          	bnez	a1,11634 <memset+0x98>
   115b4:	ff067693          	andi	a3,a2,-16
   115b8:	00f67613          	andi	a2,a2,15
   115bc:	00e686b3          	add	a3,a3,a4
   115c0:	00b72023          	sw	a1,0(a4)
   115c4:	00b72223          	sw	a1,4(a4)
   115c8:	00b72423          	sw	a1,8(a4)
   115cc:	00b72623          	sw	a1,12(a4)
   115d0:	01070713          	addi	a4,a4,16
   115d4:	fed766e3          	bltu	a4,a3,115c0 <memset+0x24>
   115d8:	00061463          	bnez	a2,115e0 <memset+0x44>
   115dc:	00008067          	ret
   115e0:	40c306b3          	sub	a3,t1,a2
   115e4:	00269693          	slli	a3,a3,0x2
   115e8:	00000297          	auipc	t0,0x0
   115ec:	005686b3          	add	a3,a3,t0
   115f0:	00c68067          	jr	12(a3)
   115f4:	00b70723          	sb	a1,14(a4)
   115f8:	00b706a3          	sb	a1,13(a4)
   115fc:	00b70623          	sb	a1,12(a4)
   11600:	00b705a3          	sb	a1,11(a4)
   11604:	00b70523          	sb	a1,10(a4)
   11608:	00b704a3          	sb	a1,9(a4)
   1160c:	00b70423          	sb	a1,8(a4)
   11610:	00b703a3          	sb	a1,7(a4)
   11614:	00b70323          	sb	a1,6(a4)
   11618:	00b702a3          	sb	a1,5(a4)
   1161c:	00b70223          	sb	a1,4(a4)
   11620:	00b701a3          	sb	a1,3(a4)
   11624:	00b70123          	sb	a1,2(a4)
   11628:	00b700a3          	sb	a1,1(a4)
   1162c:	00b70023          	sb	a1,0(a4)
   11630:	00008067          	ret
   11634:	0ff5f593          	zext.b	a1,a1
   11638:	00859693          	slli	a3,a1,0x8
   1163c:	00d5e5b3          	or	a1,a1,a3
   11640:	01059693          	slli	a3,a1,0x10
   11644:	00d5e5b3          	or	a1,a1,a3
   11648:	f6dff06f          	j	115b4 <memset+0x18>
   1164c:	00279693          	slli	a3,a5,0x2
   11650:	00000297          	auipc	t0,0x0
   11654:	005686b3          	add	a3,a3,t0
   11658:	00008293          	mv	t0,ra
   1165c:	fa0680e7          	jalr	-96(a3)
   11660:	00028093          	mv	ra,t0
   11664:	ff078793          	addi	a5,a5,-16
   11668:	40f70733          	sub	a4,a4,a5
   1166c:	00f60633          	add	a2,a2,a5
   11670:	f6c378e3          	bgeu	t1,a2,115e0 <memset+0x44>
   11674:	f3dff06f          	j	115b0 <memset+0x14>

00011678 <__call_exitprocs>:
   11678:	fd010113          	addi	sp,sp,-48
   1167c:	01412c23          	sw	s4,24(sp)
   11680:	c281aa03          	lw	s4,-984(gp) # 12438 <_global_impure_ptr>
   11684:	03212023          	sw	s2,32(sp)
   11688:	02112623          	sw	ra,44(sp)
   1168c:	148a2903          	lw	s2,328(s4)
   11690:	02812423          	sw	s0,40(sp)
   11694:	02912223          	sw	s1,36(sp)
   11698:	01312e23          	sw	s3,28(sp)
   1169c:	01512a23          	sw	s5,20(sp)
   116a0:	01612823          	sw	s6,16(sp)
   116a4:	01712623          	sw	s7,12(sp)
   116a8:	01812423          	sw	s8,8(sp)
   116ac:	04090063          	beqz	s2,116ec <__call_exitprocs+0x74>
   116b0:	00050b13          	mv	s6,a0
   116b4:	00058b93          	mv	s7,a1
   116b8:	00100a93          	li	s5,1
   116bc:	fff00993          	li	s3,-1
   116c0:	00492483          	lw	s1,4(s2)
   116c4:	fff48413          	addi	s0,s1,-1
   116c8:	02044263          	bltz	s0,116ec <__call_exitprocs+0x74>
   116cc:	00249493          	slli	s1,s1,0x2
   116d0:	009904b3          	add	s1,s2,s1
   116d4:	040b8463          	beqz	s7,1171c <__call_exitprocs+0xa4>
   116d8:	1044a783          	lw	a5,260(s1)
   116dc:	05778063          	beq	a5,s7,1171c <__call_exitprocs+0xa4>
   116e0:	fff40413          	addi	s0,s0,-1
   116e4:	ffc48493          	addi	s1,s1,-4
   116e8:	ff3416e3          	bne	s0,s3,116d4 <__call_exitprocs+0x5c>
   116ec:	02c12083          	lw	ra,44(sp)
   116f0:	02812403          	lw	s0,40(sp)
   116f4:	02412483          	lw	s1,36(sp)
   116f8:	02012903          	lw	s2,32(sp)
   116fc:	01c12983          	lw	s3,28(sp)
   11700:	01812a03          	lw	s4,24(sp)
   11704:	01412a83          	lw	s5,20(sp)
   11708:	01012b03          	lw	s6,16(sp)
   1170c:	00c12b83          	lw	s7,12(sp)
   11710:	00812c03          	lw	s8,8(sp)
   11714:	03010113          	addi	sp,sp,48
   11718:	00008067          	ret
   1171c:	00492783          	lw	a5,4(s2)
   11720:	0044a683          	lw	a3,4(s1)
   11724:	fff78793          	addi	a5,a5,-1
   11728:	04878e63          	beq	a5,s0,11784 <__call_exitprocs+0x10c>
   1172c:	0004a223          	sw	zero,4(s1)
   11730:	fa0688e3          	beqz	a3,116e0 <__call_exitprocs+0x68>
   11734:	18892783          	lw	a5,392(s2)
   11738:	008a9733          	sll	a4,s5,s0
   1173c:	00492c03          	lw	s8,4(s2)
   11740:	00f777b3          	and	a5,a4,a5
   11744:	02079263          	bnez	a5,11768 <__call_exitprocs+0xf0>
   11748:	000680e7          	jalr	a3
   1174c:	00492703          	lw	a4,4(s2)
   11750:	148a2783          	lw	a5,328(s4)
   11754:	01871463          	bne	a4,s8,1175c <__call_exitprocs+0xe4>
   11758:	f92784e3          	beq	a5,s2,116e0 <__call_exitprocs+0x68>
   1175c:	f80788e3          	beqz	a5,116ec <__call_exitprocs+0x74>
   11760:	00078913          	mv	s2,a5
   11764:	f5dff06f          	j	116c0 <__call_exitprocs+0x48>
   11768:	18c92783          	lw	a5,396(s2)
   1176c:	0844a583          	lw	a1,132(s1)
   11770:	00f77733          	and	a4,a4,a5
   11774:	00071c63          	bnez	a4,1178c <__call_exitprocs+0x114>
   11778:	000b0513          	mv	a0,s6
   1177c:	000680e7          	jalr	a3
   11780:	fcdff06f          	j	1174c <__call_exitprocs+0xd4>
   11784:	00892223          	sw	s0,4(s2)
   11788:	fa9ff06f          	j	11730 <__call_exitprocs+0xb8>
   1178c:	00058513          	mv	a0,a1
   11790:	000680e7          	jalr	a3
   11794:	fb9ff06f          	j	1174c <__call_exitprocs+0xd4>

00011798 <__libc_fini_array>:
   11798:	ff010113          	addi	sp,sp,-16
   1179c:	00812423          	sw	s0,8(sp)
   117a0:	000127b7          	lui	a5,0x12
   117a4:	00012437          	lui	s0,0x12
   117a8:	00c78793          	addi	a5,a5,12 # 1200c <__do_global_dtors_aux_fini_array_entry>
   117ac:	01040413          	addi	s0,s0,16 # 12010 <impure_data>
   117b0:	40f40433          	sub	s0,s0,a5
   117b4:	00912223          	sw	s1,4(sp)
   117b8:	00112623          	sw	ra,12(sp)
   117bc:	40245493          	srai	s1,s0,0x2
   117c0:	02048063          	beqz	s1,117e0 <__libc_fini_array+0x48>
   117c4:	ffc40413          	addi	s0,s0,-4
   117c8:	00f40433          	add	s0,s0,a5
   117cc:	00042783          	lw	a5,0(s0)
   117d0:	fff48493          	addi	s1,s1,-1
   117d4:	ffc40413          	addi	s0,s0,-4
   117d8:	000780e7          	jalr	a5
   117dc:	fe0498e3          	bnez	s1,117cc <__libc_fini_array+0x34>
   117e0:	00c12083          	lw	ra,12(sp)
   117e4:	00812403          	lw	s0,8(sp)
   117e8:	00412483          	lw	s1,4(sp)
   117ec:	01010113          	addi	sp,sp,16
   117f0:	00008067          	ret

000117f4 <atexit>:
   117f4:	00050593          	mv	a1,a0
   117f8:	00000693          	li	a3,0
   117fc:	00000613          	li	a2,0
   11800:	00000513          	li	a0,0
   11804:	0040006f          	j	11808 <__register_exitproc>

00011808 <__register_exitproc>:
   11808:	c281a703          	lw	a4,-984(gp) # 12438 <_global_impure_ptr>
   1180c:	14872783          	lw	a5,328(a4)
   11810:	04078c63          	beqz	a5,11868 <__register_exitproc+0x60>
   11814:	0047a703          	lw	a4,4(a5)
   11818:	01f00813          	li	a6,31
   1181c:	06e84e63          	blt	a6,a4,11898 <__register_exitproc+0x90>
   11820:	00271813          	slli	a6,a4,0x2
   11824:	02050663          	beqz	a0,11850 <__register_exitproc+0x48>
   11828:	01078333          	add	t1,a5,a6
   1182c:	08c32423          	sw	a2,136(t1) # 10208 <initialise_benchmark>
   11830:	1887a883          	lw	a7,392(a5)
   11834:	00100613          	li	a2,1
   11838:	00e61633          	sll	a2,a2,a4
   1183c:	00c8e8b3          	or	a7,a7,a2
   11840:	1917a423          	sw	a7,392(a5)
   11844:	10d32423          	sw	a3,264(t1)
   11848:	00200693          	li	a3,2
   1184c:	02d50463          	beq	a0,a3,11874 <__register_exitproc+0x6c>
   11850:	00170713          	addi	a4,a4,1
   11854:	00e7a223          	sw	a4,4(a5)
   11858:	010787b3          	add	a5,a5,a6
   1185c:	00b7a423          	sw	a1,8(a5)
   11860:	00000513          	li	a0,0
   11864:	00008067          	ret
   11868:	14c70793          	addi	a5,a4,332
   1186c:	14f72423          	sw	a5,328(a4)
   11870:	fa5ff06f          	j	11814 <__register_exitproc+0xc>
   11874:	18c7a683          	lw	a3,396(a5)
   11878:	00170713          	addi	a4,a4,1
   1187c:	00e7a223          	sw	a4,4(a5)
   11880:	00c6e6b3          	or	a3,a3,a2
   11884:	18d7a623          	sw	a3,396(a5)
   11888:	010787b3          	add	a5,a5,a6
   1188c:	00b7a423          	sw	a1,8(a5)
   11890:	00000513          	li	a0,0
   11894:	00008067          	ret
   11898:	fff00513          	li	a0,-1
   1189c:	00008067          	ret

000118a0 <_exit>:
   118a0:	05d00893          	li	a7,93
   118a4:	00000073          	ecall
   118a8:	00054463          	bltz	a0,118b0 <_exit+0x10>
   118ac:	0000006f          	j	118ac <_exit+0xc>
   118b0:	ff010113          	addi	sp,sp,-16
   118b4:	00812423          	sw	s0,8(sp)
   118b8:	00050413          	mv	s0,a0
   118bc:	00112623          	sw	ra,12(sp)
   118c0:	40800433          	neg	s0,s0
   118c4:	00c000ef          	jal	ra,118d0 <__errno>
   118c8:	00852023          	sw	s0,0(a0)
   118cc:	0000006f          	j	118cc <_exit+0x2c>

000118d0 <__errno>:
   118d0:	c2c1a503          	lw	a0,-980(gp) # 1243c <_impure_ptr>
   118d4:	00008067          	ret
