
./riscv32-benchmarks-customtoolchain/src/edn/edn:     file format elf32-littleriscv


Disassembly of section .text:

00010094 <exit>:
   10094:	ff010113          	addi	sp,sp,-16
   10098:	00000593          	li	a1,0
   1009c:	00812423          	sw	s0,8(sp)
   100a0:	00112623          	sw	ra,12(sp)
   100a4:	00050413          	mv	s0,a0
   100a8:	64c010ef          	jal	ra,116f4 <__call_exitprocs>
   100ac:	c281a503          	lw	a0,-984(gp) # 12438 <_global_impure_ptr>
   100b0:	03c52783          	lw	a5,60(a0)
   100b4:	00078463          	beqz	a5,100bc <exit+0x28>
   100b8:	000780e7          	jalr	a5
   100bc:	00040513          	mv	a0,s0
   100c0:	05d010ef          	jal	ra,1191c <_exit>

000100c4 <register_fini>:
   100c4:	00000793          	li	a5,0
   100c8:	00078863          	beqz	a5,100d8 <register_fini+0x14>
   100cc:	00012537          	lui	a0,0x12
   100d0:	81450513          	addi	a0,a0,-2028 # 11814 <__libc_fini_array>
   100d4:	79c0106f          	j	11870 <atexit>
   100d8:	00008067          	ret

000100dc <_start>:
   100dc:	00002197          	auipc	gp,0x2
   100e0:	73418193          	addi	gp,gp,1844 # 12810 <__global_pointer$>
   100e4:	c3018513          	addi	a0,gp,-976 # 12440 <completed.1>
   100e8:	29818613          	addi	a2,gp,664 # 12aa8 <__BSS_END__>
   100ec:	40a60633          	sub	a2,a2,a0
   100f0:	00000593          	li	a1,0
   100f4:	524010ef          	jal	ra,11618 <memset>
   100f8:	00001517          	auipc	a0,0x1
   100fc:	77850513          	addi	a0,a0,1912 # 11870 <atexit>
   10100:	00050863          	beqz	a0,10110 <_start+0x34>
   10104:	00001517          	auipc	a0,0x1
   10108:	71050513          	addi	a0,a0,1808 # 11814 <__libc_fini_array>
   1010c:	764010ef          	jal	ra,11870 <atexit>
   10110:	2cc010ef          	jal	ra,113dc <__libc_init_array>
   10114:	00012503          	lw	a0,0(sp)
   10118:	00410593          	addi	a1,sp,4
   1011c:	00000613          	li	a2,0
   10120:	250010ef          	jal	ra,11370 <main>
   10124:	f71ff06f          	j	10094 <exit>

00010128 <__do_global_dtors_aux>:
   10128:	ff010113          	addi	sp,sp,-16
   1012c:	00812423          	sw	s0,8(sp)
   10130:	c301c783          	lbu	a5,-976(gp) # 12440 <completed.1>
   10134:	00112623          	sw	ra,12(sp)
   10138:	02079263          	bnez	a5,1015c <__do_global_dtors_aux+0x34>
   1013c:	00000793          	li	a5,0
   10140:	00078a63          	beqz	a5,10154 <__do_global_dtors_aux+0x2c>
   10144:	00012537          	lui	a0,0x12
   10148:	00050513          	mv	a0,a0
   1014c:	00000097          	auipc	ra,0x0
   10150:	000000e7          	jalr	zero # 0 <exit-0x10094>
   10154:	00100793          	li	a5,1
   10158:	c2f18823          	sb	a5,-976(gp) # 12440 <completed.1>
   1015c:	00c12083          	lw	ra,12(sp)
   10160:	00812403          	lw	s0,8(sp)
   10164:	01010113          	addi	sp,sp,16
   10168:	00008067          	ret

0001016c <frame_dummy>:
   1016c:	00000793          	li	a5,0
   10170:	00078c63          	beqz	a5,10188 <frame_dummy+0x1c>
   10174:	00012537          	lui	a0,0x12
   10178:	c3418593          	addi	a1,gp,-972 # 12444 <object.0>
   1017c:	00050513          	mv	a0,a0
   10180:	00000317          	auipc	t1,0x0
   10184:	00000067          	jr	zero # 0 <exit-0x10094>
   10188:	00008067          	ret

0001018c <vec_mpy1>:
   1018c:	fd010113          	addi	sp,sp,-48
   10190:	02812623          	sw	s0,44(sp)
   10194:	03010413          	addi	s0,sp,48
   10198:	fca42e23          	sw	a0,-36(s0)
   1019c:	fcb42c23          	sw	a1,-40(s0)
   101a0:	00060793          	mv	a5,a2
   101a4:	fcf41b23          	sh	a5,-42(s0)
   101a8:	fe042623          	sw	zero,-20(s0)
   101ac:	07c0006f          	j	10228 <vec_mpy1+0x9c>
   101b0:	fec42783          	lw	a5,-20(s0)
   101b4:	00179793          	slli	a5,a5,0x1
   101b8:	fdc42703          	lw	a4,-36(s0)
   101bc:	00f707b3          	add	a5,a4,a5
   101c0:	00079783          	lh	a5,0(a5)
   101c4:	01079713          	slli	a4,a5,0x10
   101c8:	01075713          	srli	a4,a4,0x10
   101cc:	fd641783          	lh	a5,-42(s0)
   101d0:	fec42683          	lw	a3,-20(s0)
   101d4:	00169693          	slli	a3,a3,0x1
   101d8:	fd842603          	lw	a2,-40(s0)
   101dc:	00d606b3          	add	a3,a2,a3
   101e0:	00069683          	lh	a3,0(a3)
   101e4:	02d787b3          	mul	a5,a5,a3
   101e8:	40f7d793          	srai	a5,a5,0xf
   101ec:	01079793          	slli	a5,a5,0x10
   101f0:	0107d793          	srli	a5,a5,0x10
   101f4:	00f707b3          	add	a5,a4,a5
   101f8:	01079693          	slli	a3,a5,0x10
   101fc:	0106d693          	srli	a3,a3,0x10
   10200:	fec42783          	lw	a5,-20(s0)
   10204:	00179793          	slli	a5,a5,0x1
   10208:	fdc42703          	lw	a4,-36(s0)
   1020c:	00f707b3          	add	a5,a4,a5
   10210:	01069713          	slli	a4,a3,0x10
   10214:	41075713          	srai	a4,a4,0x10
   10218:	00e79023          	sh	a4,0(a5)
   1021c:	fec42783          	lw	a5,-20(s0)
   10220:	00178793          	addi	a5,a5,1
   10224:	fef42623          	sw	a5,-20(s0)
   10228:	fec42703          	lw	a4,-20(s0)
   1022c:	09500793          	li	a5,149
   10230:	f8e7d0e3          	bge	a5,a4,101b0 <vec_mpy1+0x24>
   10234:	00000013          	nop
   10238:	00000013          	nop
   1023c:	02c12403          	lw	s0,44(sp)
   10240:	03010113          	addi	sp,sp,48
   10244:	00008067          	ret

00010248 <mac>:
   10248:	fd010113          	addi	sp,sp,-48
   1024c:	02812623          	sw	s0,44(sp)
   10250:	03010413          	addi	s0,sp,48
   10254:	fca42e23          	sw	a0,-36(s0)
   10258:	fcb42c23          	sw	a1,-40(s0)
   1025c:	fcc42a23          	sw	a2,-44(s0)
   10260:	fcd42823          	sw	a3,-48(s0)
   10264:	fd042783          	lw	a5,-48(s0)
   10268:	0007a783          	lw	a5,0(a5)
   1026c:	fef42423          	sw	a5,-24(s0)
   10270:	fe042623          	sw	zero,-20(s0)
   10274:	0880006f          	j	102fc <mac+0xb4>
   10278:	fec42783          	lw	a5,-20(s0)
   1027c:	00179793          	slli	a5,a5,0x1
   10280:	fd842703          	lw	a4,-40(s0)
   10284:	00f707b3          	add	a5,a4,a5
   10288:	00079783          	lh	a5,0(a5)
   1028c:	00078693          	mv	a3,a5
   10290:	fec42783          	lw	a5,-20(s0)
   10294:	00179793          	slli	a5,a5,0x1
   10298:	fdc42703          	lw	a4,-36(s0)
   1029c:	00f707b3          	add	a5,a4,a5
   102a0:	00079783          	lh	a5,0(a5)
   102a4:	02f687b3          	mul	a5,a3,a5
   102a8:	fe842703          	lw	a4,-24(s0)
   102ac:	00f707b3          	add	a5,a4,a5
   102b0:	fef42423          	sw	a5,-24(s0)
   102b4:	fec42783          	lw	a5,-20(s0)
   102b8:	00179793          	slli	a5,a5,0x1
   102bc:	fd842703          	lw	a4,-40(s0)
   102c0:	00f707b3          	add	a5,a4,a5
   102c4:	00079783          	lh	a5,0(a5)
   102c8:	00078693          	mv	a3,a5
   102cc:	fec42783          	lw	a5,-20(s0)
   102d0:	00179793          	slli	a5,a5,0x1
   102d4:	fd842703          	lw	a4,-40(s0)
   102d8:	00f707b3          	add	a5,a4,a5
   102dc:	00079783          	lh	a5,0(a5)
   102e0:	02f687b3          	mul	a5,a3,a5
   102e4:	fd442703          	lw	a4,-44(s0)
   102e8:	00f707b3          	add	a5,a4,a5
   102ec:	fcf42a23          	sw	a5,-44(s0)
   102f0:	fec42783          	lw	a5,-20(s0)
   102f4:	00178793          	addi	a5,a5,1
   102f8:	fef42623          	sw	a5,-20(s0)
   102fc:	fec42703          	lw	a4,-20(s0)
   10300:	09500793          	li	a5,149
   10304:	f6e7dae3          	bge	a5,a4,10278 <mac+0x30>
   10308:	fd042783          	lw	a5,-48(s0)
   1030c:	fe842703          	lw	a4,-24(s0)
   10310:	00e7a023          	sw	a4,0(a5)
   10314:	fd442783          	lw	a5,-44(s0)
   10318:	00078513          	mv	a0,a5
   1031c:	02c12403          	lw	s0,44(sp)
   10320:	03010113          	addi	sp,sp,48
   10324:	00008067          	ret

00010328 <fir>:
   10328:	fd010113          	addi	sp,sp,-48
   1032c:	02812623          	sw	s0,44(sp)
   10330:	03010413          	addi	s0,sp,48
   10334:	fca42e23          	sw	a0,-36(s0)
   10338:	fcb42c23          	sw	a1,-40(s0)
   1033c:	fcc42a23          	sw	a2,-44(s0)
   10340:	fe042623          	sw	zero,-20(s0)
   10344:	0940006f          	j	103d8 <fir+0xb0>
   10348:	fe042223          	sw	zero,-28(s0)
   1034c:	fe042423          	sw	zero,-24(s0)
   10350:	0540006f          	j	103a4 <fir+0x7c>
   10354:	fec42703          	lw	a4,-20(s0)
   10358:	fe842783          	lw	a5,-24(s0)
   1035c:	00f707b3          	add	a5,a4,a5
   10360:	00179793          	slli	a5,a5,0x1
   10364:	fdc42703          	lw	a4,-36(s0)
   10368:	00f707b3          	add	a5,a4,a5
   1036c:	00079783          	lh	a5,0(a5)
   10370:	00078693          	mv	a3,a5
   10374:	fe842783          	lw	a5,-24(s0)
   10378:	00179793          	slli	a5,a5,0x1
   1037c:	fd842703          	lw	a4,-40(s0)
   10380:	00f707b3          	add	a5,a4,a5
   10384:	00079783          	lh	a5,0(a5)
   10388:	02f687b3          	mul	a5,a3,a5
   1038c:	fe442703          	lw	a4,-28(s0)
   10390:	00f707b3          	add	a5,a4,a5
   10394:	fef42223          	sw	a5,-28(s0)
   10398:	fe842783          	lw	a5,-24(s0)
   1039c:	00178793          	addi	a5,a5,1
   103a0:	fef42423          	sw	a5,-24(s0)
   103a4:	fe842703          	lw	a4,-24(s0)
   103a8:	03100793          	li	a5,49
   103ac:	fae7d4e3          	bge	a5,a4,10354 <fir+0x2c>
   103b0:	fec42783          	lw	a5,-20(s0)
   103b4:	00279793          	slli	a5,a5,0x2
   103b8:	fd442703          	lw	a4,-44(s0)
   103bc:	00f707b3          	add	a5,a4,a5
   103c0:	fe442703          	lw	a4,-28(s0)
   103c4:	40f75713          	srai	a4,a4,0xf
   103c8:	00e7a023          	sw	a4,0(a5)
   103cc:	fec42783          	lw	a5,-20(s0)
   103d0:	00178793          	addi	a5,a5,1
   103d4:	fef42623          	sw	a5,-20(s0)
   103d8:	fec42703          	lw	a4,-20(s0)
   103dc:	03100793          	li	a5,49
   103e0:	f6e7d4e3          	bge	a5,a4,10348 <fir+0x20>
   103e4:	00000013          	nop
   103e8:	00000013          	nop
   103ec:	02c12403          	lw	s0,44(sp)
   103f0:	03010113          	addi	sp,sp,48
   103f4:	00008067          	ret

000103f8 <fir_no_red_ld>:
   103f8:	fc010113          	addi	sp,sp,-64
   103fc:	02812e23          	sw	s0,60(sp)
   10400:	04010413          	addi	s0,sp,64
   10404:	fca42623          	sw	a0,-52(s0)
   10408:	fcb42423          	sw	a1,-56(s0)
   1040c:	fcc42223          	sw	a2,-60(s0)
   10410:	fe042423          	sw	zero,-24(s0)
   10414:	1680006f          	j	1057c <fir_no_red_ld+0x184>
   10418:	fe042223          	sw	zero,-28(s0)
   1041c:	fe042023          	sw	zero,-32(s0)
   10420:	fe842783          	lw	a5,-24(s0)
   10424:	00179793          	slli	a5,a5,0x1
   10428:	fcc42703          	lw	a4,-52(s0)
   1042c:	00f707b3          	add	a5,a4,a5
   10430:	0007d783          	lhu	a5,0(a5)
   10434:	fcf41f23          	sh	a5,-34(s0)
   10438:	fe042623          	sw	zero,-20(s0)
   1043c:	0ec0006f          	j	10528 <fir_no_red_ld+0x130>
   10440:	fe842703          	lw	a4,-24(s0)
   10444:	fec42783          	lw	a5,-20(s0)
   10448:	00f707b3          	add	a5,a4,a5
   1044c:	00178793          	addi	a5,a5,1
   10450:	00179793          	slli	a5,a5,0x1
   10454:	fcc42703          	lw	a4,-52(s0)
   10458:	00f707b3          	add	a5,a4,a5
   1045c:	0007d783          	lhu	a5,0(a5)
   10460:	fcf41e23          	sh	a5,-36(s0)
   10464:	fec42783          	lw	a5,-20(s0)
   10468:	00179793          	slli	a5,a5,0x1
   1046c:	fc842703          	lw	a4,-56(s0)
   10470:	00f707b3          	add	a5,a4,a5
   10474:	0007d783          	lhu	a5,0(a5)
   10478:	fcf41d23          	sh	a5,-38(s0)
   1047c:	fde41703          	lh	a4,-34(s0)
   10480:	fda41783          	lh	a5,-38(s0)
   10484:	02f707b3          	mul	a5,a4,a5
   10488:	fe442703          	lw	a4,-28(s0)
   1048c:	00f707b3          	add	a5,a4,a5
   10490:	fef42223          	sw	a5,-28(s0)
   10494:	fdc41703          	lh	a4,-36(s0)
   10498:	fda41783          	lh	a5,-38(s0)
   1049c:	02f707b3          	mul	a5,a4,a5
   104a0:	fe042703          	lw	a4,-32(s0)
   104a4:	00f707b3          	add	a5,a4,a5
   104a8:	fef42023          	sw	a5,-32(s0)
   104ac:	fe842703          	lw	a4,-24(s0)
   104b0:	fec42783          	lw	a5,-20(s0)
   104b4:	00f707b3          	add	a5,a4,a5
   104b8:	00278793          	addi	a5,a5,2
   104bc:	00179793          	slli	a5,a5,0x1
   104c0:	fcc42703          	lw	a4,-52(s0)
   104c4:	00f707b3          	add	a5,a4,a5
   104c8:	0007d783          	lhu	a5,0(a5)
   104cc:	fcf41f23          	sh	a5,-34(s0)
   104d0:	fec42783          	lw	a5,-20(s0)
   104d4:	00178793          	addi	a5,a5,1
   104d8:	00179793          	slli	a5,a5,0x1
   104dc:	fc842703          	lw	a4,-56(s0)
   104e0:	00f707b3          	add	a5,a4,a5
   104e4:	0007d783          	lhu	a5,0(a5)
   104e8:	fcf41c23          	sh	a5,-40(s0)
   104ec:	fdc41703          	lh	a4,-36(s0)
   104f0:	fd841783          	lh	a5,-40(s0)
   104f4:	02f707b3          	mul	a5,a4,a5
   104f8:	fe442703          	lw	a4,-28(s0)
   104fc:	00f707b3          	add	a5,a4,a5
   10500:	fef42223          	sw	a5,-28(s0)
   10504:	fde41703          	lh	a4,-34(s0)
   10508:	fd841783          	lh	a5,-40(s0)
   1050c:	02f707b3          	mul	a5,a4,a5
   10510:	fe042703          	lw	a4,-32(s0)
   10514:	00f707b3          	add	a5,a4,a5
   10518:	fef42023          	sw	a5,-32(s0)
   1051c:	fec42783          	lw	a5,-20(s0)
   10520:	00278793          	addi	a5,a5,2
   10524:	fef42623          	sw	a5,-20(s0)
   10528:	fec42703          	lw	a4,-20(s0)
   1052c:	01f00793          	li	a5,31
   10530:	f0e7d8e3          	bge	a5,a4,10440 <fir_no_red_ld+0x48>
   10534:	fe842783          	lw	a5,-24(s0)
   10538:	00279793          	slli	a5,a5,0x2
   1053c:	fc442703          	lw	a4,-60(s0)
   10540:	00f707b3          	add	a5,a4,a5
   10544:	fe442703          	lw	a4,-28(s0)
   10548:	40f75713          	srai	a4,a4,0xf
   1054c:	00e7a023          	sw	a4,0(a5)
   10550:	fe842783          	lw	a5,-24(s0)
   10554:	00178793          	addi	a5,a5,1
   10558:	00279793          	slli	a5,a5,0x2
   1055c:	fc442703          	lw	a4,-60(s0)
   10560:	00f707b3          	add	a5,a4,a5
   10564:	fe042703          	lw	a4,-32(s0)
   10568:	40f75713          	srai	a4,a4,0xf
   1056c:	00e7a023          	sw	a4,0(a5)
   10570:	fe842783          	lw	a5,-24(s0)
   10574:	00278793          	addi	a5,a5,2
   10578:	fef42423          	sw	a5,-24(s0)
   1057c:	fe842703          	lw	a4,-24(s0)
   10580:	06300793          	li	a5,99
   10584:	e8e7dae3          	bge	a5,a4,10418 <fir_no_red_ld+0x20>
   10588:	00000013          	nop
   1058c:	00000013          	nop
   10590:	03c12403          	lw	s0,60(sp)
   10594:	04010113          	addi	sp,sp,64
   10598:	00008067          	ret

0001059c <latsynth>:
   1059c:	fd010113          	addi	sp,sp,-48
   105a0:	02812623          	sw	s0,44(sp)
   105a4:	03010413          	addi	s0,sp,48
   105a8:	fca42e23          	sw	a0,-36(s0)
   105ac:	fcb42c23          	sw	a1,-40(s0)
   105b0:	fcc42a23          	sw	a2,-44(s0)
   105b4:	fcd42823          	sw	a3,-48(s0)
   105b8:	fd442703          	lw	a4,-44(s0)
   105bc:	800007b7          	lui	a5,0x80000
   105c0:	fff7c793          	not	a5,a5
   105c4:	00f707b3          	add	a5,a4,a5
   105c8:	00179793          	slli	a5,a5,0x1
   105cc:	fdc42703          	lw	a4,-36(s0)
   105d0:	00f707b3          	add	a5,a4,a5
   105d4:	00079783          	lh	a5,0(a5) # 80000000 <__BSS_END__+0x7ffed558>
   105d8:	00078693          	mv	a3,a5
   105dc:	fd442703          	lw	a4,-44(s0)
   105e0:	800007b7          	lui	a5,0x80000
   105e4:	fff7c793          	not	a5,a5
   105e8:	00f707b3          	add	a5,a4,a5
   105ec:	00179793          	slli	a5,a5,0x1
   105f0:	fd842703          	lw	a4,-40(s0)
   105f4:	00f707b3          	add	a5,a4,a5
   105f8:	00079783          	lh	a5,0(a5) # 80000000 <__BSS_END__+0x7ffed558>
   105fc:	02f687b3          	mul	a5,a3,a5
   10600:	fd042703          	lw	a4,-48(s0)
   10604:	40f707b3          	sub	a5,a4,a5
   10608:	fcf42823          	sw	a5,-48(s0)
   1060c:	fd442783          	lw	a5,-44(s0)
   10610:	ffe78793          	addi	a5,a5,-2
   10614:	fef42623          	sw	a5,-20(s0)
   10618:	0c40006f          	j	106dc <latsynth+0x140>
   1061c:	fec42783          	lw	a5,-20(s0)
   10620:	00179793          	slli	a5,a5,0x1
   10624:	fdc42703          	lw	a4,-36(s0)
   10628:	00f707b3          	add	a5,a4,a5
   1062c:	00079783          	lh	a5,0(a5)
   10630:	00078693          	mv	a3,a5
   10634:	fec42783          	lw	a5,-20(s0)
   10638:	00179793          	slli	a5,a5,0x1
   1063c:	fd842703          	lw	a4,-40(s0)
   10640:	00f707b3          	add	a5,a4,a5
   10644:	00079783          	lh	a5,0(a5)
   10648:	02f687b3          	mul	a5,a3,a5
   1064c:	fd042703          	lw	a4,-48(s0)
   10650:	40f707b3          	sub	a5,a4,a5
   10654:	fcf42823          	sw	a5,-48(s0)
   10658:	fec42783          	lw	a5,-20(s0)
   1065c:	00179793          	slli	a5,a5,0x1
   10660:	fdc42703          	lw	a4,-36(s0)
   10664:	00f707b3          	add	a5,a4,a5
   10668:	00079783          	lh	a5,0(a5)
   1066c:	01079713          	slli	a4,a5,0x10
   10670:	01075713          	srli	a4,a4,0x10
   10674:	fec42783          	lw	a5,-20(s0)
   10678:	00179793          	slli	a5,a5,0x1
   1067c:	fd842683          	lw	a3,-40(s0)
   10680:	00f687b3          	add	a5,a3,a5
   10684:	00079783          	lh	a5,0(a5)
   10688:	00078693          	mv	a3,a5
   1068c:	fd042783          	lw	a5,-48(s0)
   10690:	4107d793          	srai	a5,a5,0x10
   10694:	02f687b3          	mul	a5,a3,a5
   10698:	4107d793          	srai	a5,a5,0x10
   1069c:	01079793          	slli	a5,a5,0x10
   106a0:	0107d793          	srli	a5,a5,0x10
   106a4:	00f707b3          	add	a5,a4,a5
   106a8:	01079693          	slli	a3,a5,0x10
   106ac:	0106d693          	srli	a3,a3,0x10
   106b0:	fec42783          	lw	a5,-20(s0)
   106b4:	00178793          	addi	a5,a5,1
   106b8:	00179793          	slli	a5,a5,0x1
   106bc:	fdc42703          	lw	a4,-36(s0)
   106c0:	00f707b3          	add	a5,a4,a5
   106c4:	01069713          	slli	a4,a3,0x10
   106c8:	41075713          	srai	a4,a4,0x10
   106cc:	00e79023          	sh	a4,0(a5)
   106d0:	fec42783          	lw	a5,-20(s0)
   106d4:	fff78793          	addi	a5,a5,-1
   106d8:	fef42623          	sw	a5,-20(s0)
   106dc:	fec42783          	lw	a5,-20(s0)
   106e0:	f207dee3          	bgez	a5,1061c <latsynth+0x80>
   106e4:	fd042783          	lw	a5,-48(s0)
   106e8:	4107d793          	srai	a5,a5,0x10
   106ec:	01079713          	slli	a4,a5,0x10
   106f0:	41075713          	srai	a4,a4,0x10
   106f4:	fdc42783          	lw	a5,-36(s0)
   106f8:	00e79023          	sh	a4,0(a5)
   106fc:	fd042783          	lw	a5,-48(s0)
   10700:	00078513          	mv	a0,a5
   10704:	02c12403          	lw	s0,44(sp)
   10708:	03010113          	addi	sp,sp,48
   1070c:	00008067          	ret

00010710 <iir1>:
   10710:	fd010113          	addi	sp,sp,-48
   10714:	02812623          	sw	s0,44(sp)
   10718:	03010413          	addi	s0,sp,48
   1071c:	fca42e23          	sw	a0,-36(s0)
   10720:	fcb42c23          	sw	a1,-40(s0)
   10724:	fcc42a23          	sw	a2,-44(s0)
   10728:	fcd42823          	sw	a3,-48(s0)
   1072c:	fd842783          	lw	a5,-40(s0)
   10730:	00079783          	lh	a5,0(a5)
   10734:	fef42623          	sw	a5,-20(s0)
   10738:	fe042423          	sw	zero,-24(s0)
   1073c:	0e40006f          	j	10820 <iir1+0x110>
   10740:	fdc42783          	lw	a5,-36(s0)
   10744:	00478793          	addi	a5,a5,4
   10748:	00079783          	lh	a5,0(a5)
   1074c:	00078713          	mv	a4,a5
   10750:	fd042783          	lw	a5,-48(s0)
   10754:	0007a783          	lw	a5,0(a5)
   10758:	02f70733          	mul	a4,a4,a5
   1075c:	fdc42783          	lw	a5,-36(s0)
   10760:	00678793          	addi	a5,a5,6
   10764:	00079783          	lh	a5,0(a5)
   10768:	00078693          	mv	a3,a5
   1076c:	fd042783          	lw	a5,-48(s0)
   10770:	00478793          	addi	a5,a5,4
   10774:	0007a783          	lw	a5,0(a5)
   10778:	02f687b3          	mul	a5,a3,a5
   1077c:	00f707b3          	add	a5,a4,a5
   10780:	40f7d793          	srai	a5,a5,0xf
   10784:	fec42703          	lw	a4,-20(s0)
   10788:	00f707b3          	add	a5,a4,a5
   1078c:	fef42223          	sw	a5,-28(s0)
   10790:	fdc42783          	lw	a5,-36(s0)
   10794:	00079783          	lh	a5,0(a5)
   10798:	00078713          	mv	a4,a5
   1079c:	fd042783          	lw	a5,-48(s0)
   107a0:	0007a783          	lw	a5,0(a5)
   107a4:	02f70733          	mul	a4,a4,a5
   107a8:	fdc42783          	lw	a5,-36(s0)
   107ac:	00278793          	addi	a5,a5,2
   107b0:	00079783          	lh	a5,0(a5)
   107b4:	00078693          	mv	a3,a5
   107b8:	fd042783          	lw	a5,-48(s0)
   107bc:	00478793          	addi	a5,a5,4
   107c0:	0007a783          	lw	a5,0(a5)
   107c4:	02f687b3          	mul	a5,a3,a5
   107c8:	00f707b3          	add	a5,a4,a5
   107cc:	40f7d793          	srai	a5,a5,0xf
   107d0:	fe442703          	lw	a4,-28(s0)
   107d4:	00f707b3          	add	a5,a4,a5
   107d8:	fef42623          	sw	a5,-20(s0)
   107dc:	fd042783          	lw	a5,-48(s0)
   107e0:	00478793          	addi	a5,a5,4
   107e4:	fd042703          	lw	a4,-48(s0)
   107e8:	00072703          	lw	a4,0(a4)
   107ec:	00e7a023          	sw	a4,0(a5)
   107f0:	fd042783          	lw	a5,-48(s0)
   107f4:	fe442703          	lw	a4,-28(s0)
   107f8:	00e7a023          	sw	a4,0(a5)
   107fc:	fdc42783          	lw	a5,-36(s0)
   10800:	00878793          	addi	a5,a5,8
   10804:	fcf42e23          	sw	a5,-36(s0)
   10808:	fd042783          	lw	a5,-48(s0)
   1080c:	00878793          	addi	a5,a5,8
   10810:	fcf42823          	sw	a5,-48(s0)
   10814:	fe842783          	lw	a5,-24(s0)
   10818:	00178793          	addi	a5,a5,1
   1081c:	fef42423          	sw	a5,-24(s0)
   10820:	fe842703          	lw	a4,-24(s0)
   10824:	03100793          	li	a5,49
   10828:	f0e7dce3          	bge	a5,a4,10740 <iir1+0x30>
   1082c:	fd442783          	lw	a5,-44(s0)
   10830:	00478713          	addi	a4,a5,4
   10834:	fce42a23          	sw	a4,-44(s0)
   10838:	fec42703          	lw	a4,-20(s0)
   1083c:	00e7a023          	sw	a4,0(a5)
   10840:	00000013          	nop
   10844:	02c12403          	lw	s0,44(sp)
   10848:	03010113          	addi	sp,sp,48
   1084c:	00008067          	ret

00010850 <codebook>:
   10850:	fc010113          	addi	sp,sp,-64
   10854:	02812e23          	sw	s0,60(sp)
   10858:	04010413          	addi	s0,sp,64
   1085c:	fca42e23          	sw	a0,-36(s0)
   10860:	fcb42c23          	sw	a1,-40(s0)
   10864:	fcc42a23          	sw	a2,-44(s0)
   10868:	fcd42823          	sw	a3,-48(s0)
   1086c:	fce42623          	sw	a4,-52(s0)
   10870:	fcf42423          	sw	a5,-56(s0)
   10874:	00080793          	mv	a5,a6
   10878:	00088713          	mv	a4,a7
   1087c:	fcf41323          	sh	a5,-58(s0)
   10880:	00070793          	mv	a5,a4
   10884:	fcf41223          	sh	a5,-60(s0)
   10888:	fd842783          	lw	a5,-40(s0)
   1088c:	00178793          	addi	a5,a5,1
   10890:	fef42623          	sw	a5,-20(s0)
   10894:	0100006f          	j	108a4 <codebook+0x54>
   10898:	fec42783          	lw	a5,-20(s0)
   1089c:	00178793          	addi	a5,a5,1
   108a0:	fef42623          	sw	a5,-20(s0)
   108a4:	fec42703          	lw	a4,-20(s0)
   108a8:	fd442783          	lw	a5,-44(s0)
   108ac:	fee7d6e3          	bge	a5,a4,10898 <codebook+0x48>
   108b0:	fcc42783          	lw	a5,-52(s0)
   108b4:	00078513          	mv	a0,a5
   108b8:	03c12403          	lw	s0,60(sp)
   108bc:	04010113          	addi	sp,sp,64
   108c0:	00008067          	ret

000108c4 <jpegdct>:
   108c4:	fa010113          	addi	sp,sp,-96
   108c8:	04812e23          	sw	s0,92(sp)
   108cc:	06010413          	addi	s0,sp,96
   108d0:	faa42623          	sw	a0,-84(s0)
   108d4:	fab42423          	sw	a1,-88(s0)
   108d8:	00100793          	li	a5,1
   108dc:	fef41523          	sh	a5,-22(s0)
   108e0:	fe041423          	sh	zero,-24(s0)
   108e4:	00d00793          	li	a5,13
   108e8:	fef41323          	sh	a5,-26(s0)
   108ec:	00800793          	li	a5,8
   108f0:	fef41223          	sh	a5,-28(s0)
   108f4:	6d40006f          	j	10fc8 <jpegdct+0x704>
   108f8:	fe041723          	sh	zero,-18(s0)
   108fc:	6640006f          	j	10f60 <jpegdct+0x69c>
   10900:	fe041623          	sh	zero,-20(s0)
   10904:	0e80006f          	j	109ec <jpegdct+0x128>
   10908:	fea41703          	lh	a4,-22(s0)
   1090c:	fec41783          	lh	a5,-20(s0)
   10910:	02f707b3          	mul	a5,a4,a5
   10914:	00179793          	slli	a5,a5,0x1
   10918:	fac42703          	lw	a4,-84(s0)
   1091c:	00f707b3          	add	a5,a4,a5
   10920:	00079783          	lh	a5,0(a5)
   10924:	00078613          	mv	a2,a5
   10928:	fea41703          	lh	a4,-22(s0)
   1092c:	fec41783          	lh	a5,-20(s0)
   10930:	00700693          	li	a3,7
   10934:	40f687b3          	sub	a5,a3,a5
   10938:	02f707b3          	mul	a5,a4,a5
   1093c:	00179793          	slli	a5,a5,0x1
   10940:	fac42703          	lw	a4,-84(s0)
   10944:	00f707b3          	add	a5,a4,a5
   10948:	00079783          	lh	a5,0(a5)
   1094c:	00078713          	mv	a4,a5
   10950:	fec41783          	lh	a5,-20(s0)
   10954:	00e60733          	add	a4,a2,a4
   10958:	00279793          	slli	a5,a5,0x2
   1095c:	ff078793          	addi	a5,a5,-16
   10960:	008787b3          	add	a5,a5,s0
   10964:	fce7a223          	sw	a4,-60(a5)
   10968:	fea41703          	lh	a4,-22(s0)
   1096c:	fec41783          	lh	a5,-20(s0)
   10970:	02f707b3          	mul	a5,a4,a5
   10974:	00179793          	slli	a5,a5,0x1
   10978:	fac42703          	lw	a4,-84(s0)
   1097c:	00f707b3          	add	a5,a4,a5
   10980:	00079783          	lh	a5,0(a5)
   10984:	00078613          	mv	a2,a5
   10988:	fea41703          	lh	a4,-22(s0)
   1098c:	fec41783          	lh	a5,-20(s0)
   10990:	00700693          	li	a3,7
   10994:	40f687b3          	sub	a5,a3,a5
   10998:	02f707b3          	mul	a5,a4,a5
   1099c:	00179793          	slli	a5,a5,0x1
   109a0:	fac42703          	lw	a4,-84(s0)
   109a4:	00f707b3          	add	a5,a4,a5
   109a8:	00079783          	lh	a5,0(a5)
   109ac:	00078693          	mv	a3,a5
   109b0:	fec41783          	lh	a5,-20(s0)
   109b4:	00700713          	li	a4,7
   109b8:	40f707b3          	sub	a5,a4,a5
   109bc:	40d60733          	sub	a4,a2,a3
   109c0:	00279793          	slli	a5,a5,0x2
   109c4:	ff078793          	addi	a5,a5,-16
   109c8:	008787b3          	add	a5,a5,s0
   109cc:	fce7a223          	sw	a4,-60(a5)
   109d0:	fec41783          	lh	a5,-20(s0)
   109d4:	01079793          	slli	a5,a5,0x10
   109d8:	0107d793          	srli	a5,a5,0x10
   109dc:	00178793          	addi	a5,a5,1
   109e0:	01079793          	slli	a5,a5,0x10
   109e4:	0107d793          	srli	a5,a5,0x10
   109e8:	fef41623          	sh	a5,-20(s0)
   109ec:	fec41703          	lh	a4,-20(s0)
   109f0:	00300793          	li	a5,3
   109f4:	f0e7dae3          	bge	a5,a4,10908 <jpegdct+0x44>
   109f8:	fb442703          	lw	a4,-76(s0)
   109fc:	fc042783          	lw	a5,-64(s0)
   10a00:	00f707b3          	add	a5,a4,a5
   10a04:	fcf42a23          	sw	a5,-44(s0)
   10a08:	fb442703          	lw	a4,-76(s0)
   10a0c:	fc042783          	lw	a5,-64(s0)
   10a10:	40f707b3          	sub	a5,a4,a5
   10a14:	fcf42c23          	sw	a5,-40(s0)
   10a18:	fb842703          	lw	a4,-72(s0)
   10a1c:	fbc42783          	lw	a5,-68(s0)
   10a20:	00f707b3          	add	a5,a4,a5
   10a24:	fcf42e23          	sw	a5,-36(s0)
   10a28:	fb842703          	lw	a4,-72(s0)
   10a2c:	fbc42783          	lw	a5,-68(s0)
   10a30:	40f707b3          	sub	a5,a4,a5
   10a34:	fef42023          	sw	a5,-32(s0)
   10a38:	fd442703          	lw	a4,-44(s0)
   10a3c:	fdc42783          	lw	a5,-36(s0)
   10a40:	00f70733          	add	a4,a4,a5
   10a44:	fe841783          	lh	a5,-24(s0)
   10a48:	40f757b3          	sra	a5,a4,a5
   10a4c:	01079713          	slli	a4,a5,0x10
   10a50:	41075713          	srai	a4,a4,0x10
   10a54:	fac42783          	lw	a5,-84(s0)
   10a58:	00e79023          	sh	a4,0(a5)
   10a5c:	fd442703          	lw	a4,-44(s0)
   10a60:	fdc42783          	lw	a5,-36(s0)
   10a64:	40f70733          	sub	a4,a4,a5
   10a68:	fe841783          	lh	a5,-24(s0)
   10a6c:	40f756b3          	sra	a3,a4,a5
   10a70:	fea41783          	lh	a5,-22(s0)
   10a74:	00379793          	slli	a5,a5,0x3
   10a78:	fac42703          	lw	a4,-84(s0)
   10a7c:	00f707b3          	add	a5,a4,a5
   10a80:	01069713          	slli	a4,a3,0x10
   10a84:	41075713          	srai	a4,a4,0x10
   10a88:	00e79023          	sh	a4,0(a5)
   10a8c:	fe042783          	lw	a5,-32(s0)
   10a90:	01079713          	slli	a4,a5,0x10
   10a94:	01075713          	srli	a4,a4,0x10
   10a98:	fd842783          	lw	a5,-40(s0)
   10a9c:	01079793          	slli	a5,a5,0x10
   10aa0:	0107d793          	srli	a5,a5,0x10
   10aa4:	00f707b3          	add	a5,a4,a5
   10aa8:	01079793          	slli	a5,a5,0x10
   10aac:	0107d793          	srli	a5,a5,0x10
   10ab0:	01079793          	slli	a5,a5,0x10
   10ab4:	4107d793          	srai	a5,a5,0x10
   10ab8:	00078713          	mv	a4,a5
   10abc:	fa842783          	lw	a5,-88(s0)
   10ac0:	01478793          	addi	a5,a5,20
   10ac4:	00079783          	lh	a5,0(a5)
   10ac8:	02f707b3          	mul	a5,a4,a5
   10acc:	fcf42a23          	sw	a5,-44(s0)
   10ad0:	fd442783          	lw	a5,-44(s0)
   10ad4:	01079713          	slli	a4,a5,0x10
   10ad8:	01075713          	srli	a4,a4,0x10
   10adc:	fd842783          	lw	a5,-40(s0)
   10ae0:	fa842683          	lw	a3,-88(s0)
   10ae4:	01268693          	addi	a3,a3,18
   10ae8:	00069683          	lh	a3,0(a3)
   10aec:	02d786b3          	mul	a3,a5,a3
   10af0:	fe641783          	lh	a5,-26(s0)
   10af4:	40f6d7b3          	sra	a5,a3,a5
   10af8:	01079793          	slli	a5,a5,0x10
   10afc:	0107d793          	srli	a5,a5,0x10
   10b00:	00f707b3          	add	a5,a4,a5
   10b04:	01079693          	slli	a3,a5,0x10
   10b08:	0106d693          	srli	a3,a3,0x10
   10b0c:	fea41783          	lh	a5,-22(s0)
   10b10:	00279793          	slli	a5,a5,0x2
   10b14:	fac42703          	lw	a4,-84(s0)
   10b18:	00f707b3          	add	a5,a4,a5
   10b1c:	01069713          	slli	a4,a3,0x10
   10b20:	41075713          	srai	a4,a4,0x10
   10b24:	00e79023          	sh	a4,0(a5)
   10b28:	fd442783          	lw	a5,-44(s0)
   10b2c:	01079713          	slli	a4,a5,0x10
   10b30:	01075713          	srli	a4,a4,0x10
   10b34:	fe042783          	lw	a5,-32(s0)
   10b38:	fa842683          	lw	a3,-88(s0)
   10b3c:	01668693          	addi	a3,a3,22
   10b40:	00069683          	lh	a3,0(a3)
   10b44:	02d786b3          	mul	a3,a5,a3
   10b48:	fe641783          	lh	a5,-26(s0)
   10b4c:	40f6d7b3          	sra	a5,a3,a5
   10b50:	01079793          	slli	a5,a5,0x10
   10b54:	0107d793          	srli	a5,a5,0x10
   10b58:	00f707b3          	add	a5,a4,a5
   10b5c:	01079693          	slli	a3,a5,0x10
   10b60:	0106d693          	srli	a3,a3,0x10
   10b64:	fea41703          	lh	a4,-22(s0)
   10b68:	00070793          	mv	a5,a4
   10b6c:	00179793          	slli	a5,a5,0x1
   10b70:	00e787b3          	add	a5,a5,a4
   10b74:	00279793          	slli	a5,a5,0x2
   10b78:	00078713          	mv	a4,a5
   10b7c:	fac42783          	lw	a5,-84(s0)
   10b80:	00e787b3          	add	a5,a5,a4
   10b84:	01069713          	slli	a4,a3,0x10
   10b88:	41075713          	srai	a4,a4,0x10
   10b8c:	00e79023          	sh	a4,0(a5)
   10b90:	fc442783          	lw	a5,-60(s0)
   10b94:	01079713          	slli	a4,a5,0x10
   10b98:	01075713          	srli	a4,a4,0x10
   10b9c:	fd042783          	lw	a5,-48(s0)
   10ba0:	01079793          	slli	a5,a5,0x10
   10ba4:	0107d793          	srli	a5,a5,0x10
   10ba8:	00f707b3          	add	a5,a4,a5
   10bac:	01079793          	slli	a5,a5,0x10
   10bb0:	0107d793          	srli	a5,a5,0x10
   10bb4:	01079793          	slli	a5,a5,0x10
   10bb8:	4107d793          	srai	a5,a5,0x10
   10bbc:	00078713          	mv	a4,a5
   10bc0:	fa842783          	lw	a5,-88(s0)
   10bc4:	00478793          	addi	a5,a5,4
   10bc8:	00079783          	lh	a5,0(a5)
   10bcc:	02f707b3          	mul	a5,a4,a5
   10bd0:	faf42a23          	sw	a5,-76(s0)
   10bd4:	fc842783          	lw	a5,-56(s0)
   10bd8:	01079713          	slli	a4,a5,0x10
   10bdc:	01075713          	srli	a4,a4,0x10
   10be0:	fcc42783          	lw	a5,-52(s0)
   10be4:	01079793          	slli	a5,a5,0x10
   10be8:	0107d793          	srli	a5,a5,0x10
   10bec:	00f707b3          	add	a5,a4,a5
   10bf0:	01079793          	slli	a5,a5,0x10
   10bf4:	0107d793          	srli	a5,a5,0x10
   10bf8:	01079793          	slli	a5,a5,0x10
   10bfc:	4107d793          	srai	a5,a5,0x10
   10c00:	00078713          	mv	a4,a5
   10c04:	fa842783          	lw	a5,-88(s0)
   10c08:	00079783          	lh	a5,0(a5)
   10c0c:	02f707b3          	mul	a5,a4,a5
   10c10:	faf42c23          	sw	a5,-72(s0)
   10c14:	fc442703          	lw	a4,-60(s0)
   10c18:	fcc42783          	lw	a5,-52(s0)
   10c1c:	00f707b3          	add	a5,a4,a5
   10c20:	faf42e23          	sw	a5,-68(s0)
   10c24:	fc842703          	lw	a4,-56(s0)
   10c28:	fd042783          	lw	a5,-48(s0)
   10c2c:	00f707b3          	add	a5,a4,a5
   10c30:	fcf42023          	sw	a5,-64(s0)
   10c34:	fbc42783          	lw	a5,-68(s0)
   10c38:	01079713          	slli	a4,a5,0x10
   10c3c:	01075713          	srli	a4,a4,0x10
   10c40:	fc042783          	lw	a5,-64(s0)
   10c44:	01079793          	slli	a5,a5,0x10
   10c48:	0107d793          	srli	a5,a5,0x10
   10c4c:	00f707b3          	add	a5,a4,a5
   10c50:	01079793          	slli	a5,a5,0x10
   10c54:	0107d793          	srli	a5,a5,0x10
   10c58:	01079793          	slli	a5,a5,0x10
   10c5c:	4107d793          	srai	a5,a5,0x10
   10c60:	00078713          	mv	a4,a5
   10c64:	fa842783          	lw	a5,-88(s0)
   10c68:	01078793          	addi	a5,a5,16
   10c6c:	00079783          	lh	a5,0(a5)
   10c70:	02f707b3          	mul	a5,a4,a5
   10c74:	fcf42a23          	sw	a5,-44(s0)
   10c78:	fbc42783          	lw	a5,-68(s0)
   10c7c:	01079793          	slli	a5,a5,0x10
   10c80:	4107d793          	srai	a5,a5,0x10
   10c84:	00078713          	mv	a4,a5
   10c88:	fa842783          	lw	a5,-88(s0)
   10c8c:	00278793          	addi	a5,a5,2
   10c90:	00079783          	lh	a5,0(a5)
   10c94:	02f70733          	mul	a4,a4,a5
   10c98:	fd442783          	lw	a5,-44(s0)
   10c9c:	00f707b3          	add	a5,a4,a5
   10ca0:	faf42e23          	sw	a5,-68(s0)
   10ca4:	fc042783          	lw	a5,-64(s0)
   10ca8:	01079793          	slli	a5,a5,0x10
   10cac:	4107d793          	srai	a5,a5,0x10
   10cb0:	00078713          	mv	a4,a5
   10cb4:	fa842783          	lw	a5,-88(s0)
   10cb8:	00678793          	addi	a5,a5,6
   10cbc:	00079783          	lh	a5,0(a5)
   10cc0:	02f70733          	mul	a4,a4,a5
   10cc4:	fd442783          	lw	a5,-44(s0)
   10cc8:	00f707b3          	add	a5,a4,a5
   10ccc:	fcf42023          	sw	a5,-64(s0)
   10cd0:	fc442783          	lw	a5,-60(s0)
   10cd4:	01079713          	slli	a4,a5,0x10
   10cd8:	01075713          	srli	a4,a4,0x10
   10cdc:	fa842783          	lw	a5,-88(s0)
   10ce0:	00878793          	addi	a5,a5,8
   10ce4:	00079783          	lh	a5,0(a5)
   10ce8:	01079793          	slli	a5,a5,0x10
   10cec:	0107d793          	srli	a5,a5,0x10
   10cf0:	02f707b3          	mul	a5,a4,a5
   10cf4:	01079713          	slli	a4,a5,0x10
   10cf8:	01075713          	srli	a4,a4,0x10
   10cfc:	fb442783          	lw	a5,-76(s0)
   10d00:	01079793          	slli	a5,a5,0x10
   10d04:	0107d793          	srli	a5,a5,0x10
   10d08:	00f707b3          	add	a5,a4,a5
   10d0c:	01079713          	slli	a4,a5,0x10
   10d10:	01075713          	srli	a4,a4,0x10
   10d14:	fbc42783          	lw	a5,-68(s0)
   10d18:	01079793          	slli	a5,a5,0x10
   10d1c:	0107d793          	srli	a5,a5,0x10
   10d20:	00f707b3          	add	a5,a4,a5
   10d24:	01079793          	slli	a5,a5,0x10
   10d28:	0107d793          	srli	a5,a5,0x10
   10d2c:	01079793          	slli	a5,a5,0x10
   10d30:	4107d793          	srai	a5,a5,0x10
   10d34:	00078713          	mv	a4,a5
   10d38:	fe641783          	lh	a5,-26(s0)
   10d3c:	40f756b3          	sra	a3,a4,a5
   10d40:	fea41703          	lh	a4,-22(s0)
   10d44:	00070793          	mv	a5,a4
   10d48:	00379793          	slli	a5,a5,0x3
   10d4c:	40e787b3          	sub	a5,a5,a4
   10d50:	00179793          	slli	a5,a5,0x1
   10d54:	00078713          	mv	a4,a5
   10d58:	fac42783          	lw	a5,-84(s0)
   10d5c:	00e787b3          	add	a5,a5,a4
   10d60:	01069713          	slli	a4,a3,0x10
   10d64:	41075713          	srai	a4,a4,0x10
   10d68:	00e79023          	sh	a4,0(a5)
   10d6c:	fc842783          	lw	a5,-56(s0)
   10d70:	01079713          	slli	a4,a5,0x10
   10d74:	01075713          	srli	a4,a4,0x10
   10d78:	fa842783          	lw	a5,-88(s0)
   10d7c:	00c78793          	addi	a5,a5,12
   10d80:	00079783          	lh	a5,0(a5)
   10d84:	01079793          	slli	a5,a5,0x10
   10d88:	0107d793          	srli	a5,a5,0x10
   10d8c:	02f707b3          	mul	a5,a4,a5
   10d90:	01079713          	slli	a4,a5,0x10
   10d94:	01075713          	srli	a4,a4,0x10
   10d98:	fb842783          	lw	a5,-72(s0)
   10d9c:	01079793          	slli	a5,a5,0x10
   10da0:	0107d793          	srli	a5,a5,0x10
   10da4:	00f707b3          	add	a5,a4,a5
   10da8:	01079713          	slli	a4,a5,0x10
   10dac:	01075713          	srli	a4,a4,0x10
   10db0:	fc042783          	lw	a5,-64(s0)
   10db4:	01079793          	slli	a5,a5,0x10
   10db8:	0107d793          	srli	a5,a5,0x10
   10dbc:	00f707b3          	add	a5,a4,a5
   10dc0:	01079793          	slli	a5,a5,0x10
   10dc4:	0107d793          	srli	a5,a5,0x10
   10dc8:	01079793          	slli	a5,a5,0x10
   10dcc:	4107d793          	srai	a5,a5,0x10
   10dd0:	00078713          	mv	a4,a5
   10dd4:	fe641783          	lh	a5,-26(s0)
   10dd8:	40f756b3          	sra	a3,a4,a5
   10ddc:	fea41703          	lh	a4,-22(s0)
   10de0:	00070793          	mv	a5,a4
   10de4:	00279793          	slli	a5,a5,0x2
   10de8:	00e787b3          	add	a5,a5,a4
   10dec:	00179793          	slli	a5,a5,0x1
   10df0:	00078713          	mv	a4,a5
   10df4:	fac42783          	lw	a5,-84(s0)
   10df8:	00e787b3          	add	a5,a5,a4
   10dfc:	01069713          	slli	a4,a3,0x10
   10e00:	41075713          	srai	a4,a4,0x10
   10e04:	00e79023          	sh	a4,0(a5)
   10e08:	fcc42783          	lw	a5,-52(s0)
   10e0c:	01079713          	slli	a4,a5,0x10
   10e10:	01075713          	srli	a4,a4,0x10
   10e14:	fa842783          	lw	a5,-88(s0)
   10e18:	00a78793          	addi	a5,a5,10
   10e1c:	00079783          	lh	a5,0(a5)
   10e20:	01079793          	slli	a5,a5,0x10
   10e24:	0107d793          	srli	a5,a5,0x10
   10e28:	02f707b3          	mul	a5,a4,a5
   10e2c:	01079713          	slli	a4,a5,0x10
   10e30:	01075713          	srli	a4,a4,0x10
   10e34:	fb842783          	lw	a5,-72(s0)
   10e38:	01079793          	slli	a5,a5,0x10
   10e3c:	0107d793          	srli	a5,a5,0x10
   10e40:	00f707b3          	add	a5,a4,a5
   10e44:	01079713          	slli	a4,a5,0x10
   10e48:	01075713          	srli	a4,a4,0x10
   10e4c:	fbc42783          	lw	a5,-68(s0)
   10e50:	01079793          	slli	a5,a5,0x10
   10e54:	0107d793          	srli	a5,a5,0x10
   10e58:	00f707b3          	add	a5,a4,a5
   10e5c:	01079793          	slli	a5,a5,0x10
   10e60:	0107d793          	srli	a5,a5,0x10
   10e64:	01079793          	slli	a5,a5,0x10
   10e68:	4107d793          	srai	a5,a5,0x10
   10e6c:	00078713          	mv	a4,a5
   10e70:	fe641783          	lh	a5,-26(s0)
   10e74:	40f756b3          	sra	a3,a4,a5
   10e78:	fea41703          	lh	a4,-22(s0)
   10e7c:	00070793          	mv	a5,a4
   10e80:	00179793          	slli	a5,a5,0x1
   10e84:	00e787b3          	add	a5,a5,a4
   10e88:	00179793          	slli	a5,a5,0x1
   10e8c:	00078713          	mv	a4,a5
   10e90:	fac42783          	lw	a5,-84(s0)
   10e94:	00e787b3          	add	a5,a5,a4
   10e98:	01069713          	slli	a4,a3,0x10
   10e9c:	41075713          	srai	a4,a4,0x10
   10ea0:	00e79023          	sh	a4,0(a5)
   10ea4:	fd042783          	lw	a5,-48(s0)
   10ea8:	01079713          	slli	a4,a5,0x10
   10eac:	01075713          	srli	a4,a4,0x10
   10eb0:	fa842783          	lw	a5,-88(s0)
   10eb4:	00e78793          	addi	a5,a5,14
   10eb8:	00079783          	lh	a5,0(a5)
   10ebc:	01079793          	slli	a5,a5,0x10
   10ec0:	0107d793          	srli	a5,a5,0x10
   10ec4:	02f707b3          	mul	a5,a4,a5
   10ec8:	01079713          	slli	a4,a5,0x10
   10ecc:	01075713          	srli	a4,a4,0x10
   10ed0:	fb442783          	lw	a5,-76(s0)
   10ed4:	01079793          	slli	a5,a5,0x10
   10ed8:	0107d793          	srli	a5,a5,0x10
   10edc:	00f707b3          	add	a5,a4,a5
   10ee0:	01079713          	slli	a4,a5,0x10
   10ee4:	01075713          	srli	a4,a4,0x10
   10ee8:	fc042783          	lw	a5,-64(s0)
   10eec:	01079793          	slli	a5,a5,0x10
   10ef0:	0107d793          	srli	a5,a5,0x10
   10ef4:	00f707b3          	add	a5,a4,a5
   10ef8:	01079793          	slli	a5,a5,0x10
   10efc:	0107d793          	srli	a5,a5,0x10
   10f00:	01079793          	slli	a5,a5,0x10
   10f04:	4107d793          	srai	a5,a5,0x10
   10f08:	00078713          	mv	a4,a5
   10f0c:	fe641783          	lh	a5,-26(s0)
   10f10:	40f756b3          	sra	a3,a4,a5
   10f14:	fea41783          	lh	a5,-22(s0)
   10f18:	00179793          	slli	a5,a5,0x1
   10f1c:	fac42703          	lw	a4,-84(s0)
   10f20:	00f707b3          	add	a5,a4,a5
   10f24:	01069713          	slli	a4,a3,0x10
   10f28:	41075713          	srai	a4,a4,0x10
   10f2c:	00e79023          	sh	a4,0(a5)
   10f30:	fee41783          	lh	a5,-18(s0)
   10f34:	01079793          	slli	a5,a5,0x10
   10f38:	0107d793          	srli	a5,a5,0x10
   10f3c:	00178793          	addi	a5,a5,1
   10f40:	01079793          	slli	a5,a5,0x10
   10f44:	0107d793          	srli	a5,a5,0x10
   10f48:	fef41723          	sh	a5,-18(s0)
   10f4c:	fe441783          	lh	a5,-28(s0)
   10f50:	00179793          	slli	a5,a5,0x1
   10f54:	fac42703          	lw	a4,-84(s0)
   10f58:	00f707b3          	add	a5,a4,a5
   10f5c:	faf42623          	sw	a5,-84(s0)
   10f60:	fee41703          	lh	a4,-18(s0)
   10f64:	00700793          	li	a5,7
   10f68:	98e7dce3          	bge	a5,a4,10900 <jpegdct+0x3c>
   10f6c:	fea45783          	lhu	a5,-22(s0)
   10f70:	00778793          	addi	a5,a5,7
   10f74:	01079793          	slli	a5,a5,0x10
   10f78:	0107d793          	srli	a5,a5,0x10
   10f7c:	fef41523          	sh	a5,-22(s0)
   10f80:	fe845783          	lhu	a5,-24(s0)
   10f84:	00378793          	addi	a5,a5,3
   10f88:	01079793          	slli	a5,a5,0x10
   10f8c:	0107d793          	srli	a5,a5,0x10
   10f90:	fef41423          	sh	a5,-24(s0)
   10f94:	fe645783          	lhu	a5,-26(s0)
   10f98:	00378793          	addi	a5,a5,3
   10f9c:	01079793          	slli	a5,a5,0x10
   10fa0:	0107d793          	srli	a5,a5,0x10
   10fa4:	fef41323          	sh	a5,-26(s0)
   10fa8:	fe445783          	lhu	a5,-28(s0)
   10fac:	ff978793          	addi	a5,a5,-7
   10fb0:	01079793          	slli	a5,a5,0x10
   10fb4:	0107d793          	srli	a5,a5,0x10
   10fb8:	fef41223          	sh	a5,-28(s0)
   10fbc:	fac42783          	lw	a5,-84(s0)
   10fc0:	f8078793          	addi	a5,a5,-128
   10fc4:	faf42623          	sw	a5,-84(s0)
   10fc8:	fea41703          	lh	a4,-22(s0)
   10fcc:	00800793          	li	a5,8
   10fd0:	92e7d4e3          	bge	a5,a4,108f8 <jpegdct+0x34>
   10fd4:	00000013          	nop
   10fd8:	00000013          	nop
   10fdc:	05c12403          	lw	s0,92(sp)
   10fe0:	06010113          	addi	sp,sp,96
   10fe4:	00008067          	ret

00010fe8 <initialise_benchmark>:
   10fe8:	ff010113          	addi	sp,sp,-16
   10fec:	00812623          	sw	s0,12(sp)
   10ff0:	01010413          	addi	s0,sp,16
   10ff4:	00000013          	nop
   10ff8:	00c12403          	lw	s0,12(sp)
   10ffc:	01010113          	addi	sp,sp,16
   11000:	00008067          	ret

00011004 <warm_caches>:
   11004:	fd010113          	addi	sp,sp,-48
   11008:	02112623          	sw	ra,44(sp)
   1100c:	02812423          	sw	s0,40(sp)
   11010:	03010413          	addi	s0,sp,48
   11014:	fca42e23          	sw	a0,-36(s0)
   11018:	fdc42503          	lw	a0,-36(s0)
   1101c:	04c000ef          	jal	ra,11068 <benchmark_body>
   11020:	fea42623          	sw	a0,-20(s0)
   11024:	00000013          	nop
   11028:	02c12083          	lw	ra,44(sp)
   1102c:	02812403          	lw	s0,40(sp)
   11030:	03010113          	addi	sp,sp,48
   11034:	00008067          	ret

00011038 <benchmark>:
   11038:	ff010113          	addi	sp,sp,-16
   1103c:	00112623          	sw	ra,12(sp)
   11040:	00812423          	sw	s0,8(sp)
   11044:	01010413          	addi	s0,sp,16
   11048:	05700513          	li	a0,87
   1104c:	01c000ef          	jal	ra,11068 <benchmark_body>
   11050:	00050793          	mv	a5,a0
   11054:	00078513          	mv	a0,a5
   11058:	00c12083          	lw	ra,12(sp)
   1105c:	00812403          	lw	s0,8(sp)
   11060:	01010113          	addi	sp,sp,16
   11064:	00008067          	ret

00011068 <benchmark_body>:
   11068:	cb010113          	addi	sp,sp,-848
   1106c:	34112623          	sw	ra,844(sp)
   11070:	34812423          	sw	s0,840(sp)
   11074:	35010413          	addi	s0,sp,848
   11078:	caa42e23          	sw	a0,-836(s0)
   1107c:	fe042623          	sw	zero,-20(s0)
   11080:	1c80006f          	j	11248 <benchmark_body+0x1e0>
   11084:	000127b7          	lui	a5,0x12
   11088:	95478713          	addi	a4,a5,-1708 # 11954 <__errno+0x8>
   1108c:	cc840793          	addi	a5,s0,-824
   11090:	00070693          	mv	a3,a4
   11094:	19000713          	li	a4,400
   11098:	00070613          	mv	a2,a4
   1109c:	00068593          	mv	a1,a3
   110a0:	00078513          	mv	a0,a5
   110a4:	44c000ef          	jal	ra,114f0 <memcpy>
   110a8:	000127b7          	lui	a5,0x12
   110ac:	ae478713          	addi	a4,a5,-1308 # 11ae4 <__errno+0x198>
   110b0:	e5840793          	addi	a5,s0,-424
   110b4:	00070693          	mv	a3,a4
   110b8:	19000713          	li	a4,400
   110bc:	00070613          	mv	a2,a4
   110c0:	00068593          	mv	a1,a3
   110c4:	00078513          	mv	a0,a5
   110c8:	428000ef          	jal	ra,114f0 <memcpy>
   110cc:	00300713          	li	a4,3
   110d0:	f6e19623          	sh	a4,-148(gp) # 1277c <c>
   110d4:	0000b737          	lui	a4,0xb
   110d8:	aaa70713          	addi	a4,a4,-1366 # aaaa <exit-0x55ea>
   110dc:	f6e1a823          	sw	a4,-144(gp) # 12780 <d>
   110e0:	0000f737          	lui	a4,0xf
   110e4:	eee70713          	addi	a4,a4,-274 # eeee <exit-0x11a6>
   110e8:	f6e1aa23          	sw	a4,-140(gp) # 12784 <e>
   110ec:	fe042423          	sw	zero,-24(s0)
   110f0:	0700006f          	j	11160 <benchmark_body+0xf8>
   110f4:	fe842783          	lw	a5,-24(s0)
   110f8:	00179793          	slli	a5,a5,0x1
   110fc:	ff078793          	addi	a5,a5,-16
   11100:	008787b3          	add	a5,a5,s0
   11104:	cd87d783          	lhu	a5,-808(a5)
   11108:	01079713          	slli	a4,a5,0x10
   1110c:	41075713          	srai	a4,a4,0x10
   11110:	c4c18693          	addi	a3,gp,-948 # 1245c <a>
   11114:	fe842783          	lw	a5,-24(s0)
   11118:	00179793          	slli	a5,a5,0x1
   1111c:	00f687b3          	add	a5,a3,a5
   11120:	00e79023          	sh	a4,0(a5)
   11124:	fe842783          	lw	a5,-24(s0)
   11128:	00179793          	slli	a5,a5,0x1
   1112c:	ff078793          	addi	a5,a5,-16
   11130:	008787b3          	add	a5,a5,s0
   11134:	e687d783          	lhu	a5,-408(a5)
   11138:	01079713          	slli	a4,a5,0x10
   1113c:	41075713          	srai	a4,a4,0x10
   11140:	ddc18693          	addi	a3,gp,-548 # 125ec <b>
   11144:	fe842783          	lw	a5,-24(s0)
   11148:	00179793          	slli	a5,a5,0x1
   1114c:	00f687b3          	add	a5,a3,a5
   11150:	00e79023          	sh	a4,0(a5)
   11154:	fe842783          	lw	a5,-24(s0)
   11158:	00178793          	addi	a5,a5,1
   1115c:	fef42423          	sw	a5,-24(s0)
   11160:	fe842703          	lw	a4,-24(s0)
   11164:	0c700793          	li	a5,199
   11168:	f8e7d6e3          	bge	a5,a4,110f4 <benchmark_body+0x8c>
   1116c:	f6c19783          	lh	a5,-148(gp) # 1277c <c>
   11170:	00078613          	mv	a2,a5
   11174:	ddc18593          	addi	a1,gp,-548 # 125ec <b>
   11178:	c4c18513          	addi	a0,gp,-948 # 1245c <a>
   1117c:	810ff0ef          	jal	ra,1018c <vec_mpy1>
   11180:	f6c19783          	lh	a5,-148(gp) # 1277c <c>
   11184:	00078713          	mv	a4,a5
   11188:	f7818693          	addi	a3,gp,-136 # 12788 <output>
   1118c:	00070613          	mv	a2,a4
   11190:	ddc18593          	addi	a1,gp,-548 # 125ec <b>
   11194:	c4c18513          	addi	a0,gp,-948 # 1245c <a>
   11198:	8b0ff0ef          	jal	ra,10248 <mac>
   1119c:	00050793          	mv	a5,a0
   111a0:	01079713          	slli	a4,a5,0x10
   111a4:	41075713          	srai	a4,a4,0x10
   111a8:	f6e19623          	sh	a4,-148(gp) # 1277c <c>
   111ac:	f7818613          	addi	a2,gp,-136 # 12788 <output>
   111b0:	ddc18593          	addi	a1,gp,-548 # 125ec <b>
   111b4:	c4c18513          	addi	a0,gp,-948 # 1245c <a>
   111b8:	970ff0ef          	jal	ra,10328 <fir>
   111bc:	f7818613          	addi	a2,gp,-136 # 12788 <output>
   111c0:	ddc18593          	addi	a1,gp,-548 # 125ec <b>
   111c4:	c4c18513          	addi	a0,gp,-948 # 1245c <a>
   111c8:	a30ff0ef          	jal	ra,103f8 <fir_no_red_ld>
   111cc:	f701a783          	lw	a5,-144(gp) # 12780 <d>
   111d0:	00078693          	mv	a3,a5
   111d4:	06400613          	li	a2,100
   111d8:	ddc18593          	addi	a1,gp,-548 # 125ec <b>
   111dc:	c4c18513          	addi	a0,gp,-948 # 1245c <a>
   111e0:	bbcff0ef          	jal	ra,1059c <latsynth>
   111e4:	00050713          	mv	a4,a0
   111e8:	f6e1a823          	sw	a4,-144(gp) # 12780 <d>
   111ec:	f7818693          	addi	a3,gp,-136 # 12788 <output>
   111f0:	10818613          	addi	a2,gp,264 # 12918 <__global_pointer$+0x108>
   111f4:	ddc18593          	addi	a1,gp,-548 # 125ec <b>
   111f8:	c4c18513          	addi	a0,gp,-948 # 1245c <a>
   111fc:	d14ff0ef          	jal	ra,10710 <iir1>
   11200:	f701a503          	lw	a0,-144(gp) # 12780 <d>
   11204:	f741a683          	lw	a3,-140(gp) # 12784 <e>
   11208:	f701a703          	lw	a4,-144(gp) # 12780 <d>
   1120c:	f6c19783          	lh	a5,-148(gp) # 1277c <c>
   11210:	00100893          	li	a7,1
   11214:	00078813          	mv	a6,a5
   11218:	c4c18793          	addi	a5,gp,-948 # 1245c <a>
   1121c:	01100613          	li	a2,17
   11220:	00100593          	li	a1,1
   11224:	e2cff0ef          	jal	ra,10850 <codebook>
   11228:	00050713          	mv	a4,a0
   1122c:	f6e1aa23          	sw	a4,-140(gp) # 12784 <e>
   11230:	ddc18593          	addi	a1,gp,-548 # 125ec <b>
   11234:	c4c18513          	addi	a0,gp,-948 # 1245c <a>
   11238:	e8cff0ef          	jal	ra,108c4 <jpegdct>
   1123c:	fec42783          	lw	a5,-20(s0)
   11240:	00178793          	addi	a5,a5,1
   11244:	fef42623          	sw	a5,-20(s0)
   11248:	fec42703          	lw	a4,-20(s0)
   1124c:	cbc42783          	lw	a5,-836(s0)
   11250:	e2f74ae3          	blt	a4,a5,11084 <benchmark_body+0x1c>
   11254:	00000793          	li	a5,0
   11258:	00078513          	mv	a0,a5
   1125c:	34c12083          	lw	ra,844(sp)
   11260:	34812403          	lw	s0,840(sp)
   11264:	35010113          	addi	sp,sp,848
   11268:	00008067          	ret

0001126c <verify_benchmark>:
   1126c:	cc010113          	addi	sp,sp,-832
   11270:	32112e23          	sw	ra,828(sp)
   11274:	32812c23          	sw	s0,824(sp)
   11278:	34010413          	addi	s0,sp,832
   1127c:	cca42623          	sw	a0,-820(s0)
   11280:	000127b7          	lui	a5,0x12
   11284:	c7478713          	addi	a4,a5,-908 # 11c74 <__errno+0x328>
   11288:	cd040793          	addi	a5,s0,-816
   1128c:	00070693          	mv	a3,a4
   11290:	32000713          	li	a4,800
   11294:	00070613          	mv	a2,a4
   11298:	00068593          	mv	a1,a3
   1129c:	00078513          	mv	a0,a5
   112a0:	250000ef          	jal	ra,114f0 <memcpy>
   112a4:	cd040793          	addi	a5,s0,-816
   112a8:	32000613          	li	a2,800
   112ac:	00078593          	mv	a1,a5
   112b0:	f7818513          	addi	a0,gp,-136 # 12788 <output>
   112b4:	1c4000ef          	jal	ra,11478 <memcmp>
   112b8:	00050793          	mv	a5,a0
   112bc:	02079e63          	bnez	a5,112f8 <verify_benchmark+0x8c>
   112c0:	f6c19703          	lh	a4,-148(gp) # 1277c <c>
   112c4:	000037b7          	lui	a5,0x3
   112c8:	80378793          	addi	a5,a5,-2045 # 2803 <exit-0xd891>
   112cc:	02f71663          	bne	a4,a5,112f8 <verify_benchmark+0x8c>
   112d0:	f701a703          	lw	a4,-144(gp) # 12780 <d>
   112d4:	e5a967b7          	lui	a5,0xe5a96
   112d8:	9ea78793          	addi	a5,a5,-1558 # e5a959ea <__BSS_END__+0xe5a82f42>
   112dc:	00f71e63          	bne	a4,a5,112f8 <verify_benchmark+0x8c>
   112e0:	f741a703          	lw	a4,-140(gp) # 12784 <e>
   112e4:	e5a967b7          	lui	a5,0xe5a96
   112e8:	9ea78793          	addi	a5,a5,-1558 # e5a959ea <__BSS_END__+0xe5a82f42>
   112ec:	00f71663          	bne	a4,a5,112f8 <verify_benchmark+0x8c>
   112f0:	00100793          	li	a5,1
   112f4:	0080006f          	j	112fc <verify_benchmark+0x90>
   112f8:	00000793          	li	a5,0
   112fc:	00078513          	mv	a0,a5
   11300:	33c12083          	lw	ra,828(sp)
   11304:	33812403          	lw	s0,824(sp)
   11308:	34010113          	addi	sp,sp,832
   1130c:	00008067          	ret

00011310 <initialise_board>:
   11310:	ff010113          	addi	sp,sp,-16
   11314:	00812623          	sw	s0,12(sp)
   11318:	01010413          	addi	s0,sp,16
   1131c:	00000513          	li	a0,0
   11320:	00000013          	nop
   11324:	00c12403          	lw	s0,12(sp)
   11328:	01010113          	addi	sp,sp,16
   1132c:	00008067          	ret

00011330 <start_trigger>:
   11330:	ff010113          	addi	sp,sp,-16
   11334:	00812623          	sw	s0,12(sp)
   11338:	01010413          	addi	s0,sp,16
   1133c:	00000513          	li	a0,0
   11340:	00000013          	nop
   11344:	00c12403          	lw	s0,12(sp)
   11348:	01010113          	addi	sp,sp,16
   1134c:	00008067          	ret

00011350 <stop_trigger>:
   11350:	ff010113          	addi	sp,sp,-16
   11354:	00812623          	sw	s0,12(sp)
   11358:	01010413          	addi	s0,sp,16
   1135c:	00000513          	li	a0,0
   11360:	00000013          	nop
   11364:	00c12403          	lw	s0,12(sp)
   11368:	01010113          	addi	sp,sp,16
   1136c:	00008067          	ret

00011370 <main>:
   11370:	fd010113          	addi	sp,sp,-48
   11374:	02112623          	sw	ra,44(sp)
   11378:	02812423          	sw	s0,40(sp)
   1137c:	03010413          	addi	s0,sp,48
   11380:	fca42e23          	sw	a0,-36(s0)
   11384:	fcb42c23          	sw	a1,-40(s0)
   11388:	f89ff0ef          	jal	ra,11310 <initialise_board>
   1138c:	c5dff0ef          	jal	ra,10fe8 <initialise_benchmark>
   11390:	00100513          	li	a0,1
   11394:	c71ff0ef          	jal	ra,11004 <warm_caches>
   11398:	f99ff0ef          	jal	ra,11330 <start_trigger>
   1139c:	c9dff0ef          	jal	ra,11038 <benchmark>
   113a0:	00050793          	mv	a5,a0
   113a4:	fef42423          	sw	a5,-24(s0)
   113a8:	fa9ff0ef          	jal	ra,11350 <stop_trigger>
   113ac:	fe842783          	lw	a5,-24(s0)
   113b0:	00078513          	mv	a0,a5
   113b4:	eb9ff0ef          	jal	ra,1126c <verify_benchmark>
   113b8:	fea42623          	sw	a0,-20(s0)
   113bc:	fec42783          	lw	a5,-20(s0)
   113c0:	0017b793          	seqz	a5,a5
   113c4:	0ff7f793          	zext.b	a5,a5
   113c8:	00078513          	mv	a0,a5
   113cc:	02c12083          	lw	ra,44(sp)
   113d0:	02812403          	lw	s0,40(sp)
   113d4:	03010113          	addi	sp,sp,48
   113d8:	00008067          	ret

000113dc <__libc_init_array>:
   113dc:	ff010113          	addi	sp,sp,-16
   113e0:	00812423          	sw	s0,8(sp)
   113e4:	01212023          	sw	s2,0(sp)
   113e8:	00012437          	lui	s0,0x12
   113ec:	00012937          	lui	s2,0x12
   113f0:	00440793          	addi	a5,s0,4 # 12004 <__init_array_start>
   113f4:	00490913          	addi	s2,s2,4 # 12004 <__init_array_start>
   113f8:	40f90933          	sub	s2,s2,a5
   113fc:	00112623          	sw	ra,12(sp)
   11400:	00912223          	sw	s1,4(sp)
   11404:	40295913          	srai	s2,s2,0x2
   11408:	02090063          	beqz	s2,11428 <__libc_init_array+0x4c>
   1140c:	00440413          	addi	s0,s0,4
   11410:	00000493          	li	s1,0
   11414:	00042783          	lw	a5,0(s0)
   11418:	00148493          	addi	s1,s1,1
   1141c:	00440413          	addi	s0,s0,4
   11420:	000780e7          	jalr	a5
   11424:	fe9918e3          	bne	s2,s1,11414 <__libc_init_array+0x38>
   11428:	00012437          	lui	s0,0x12
   1142c:	00012937          	lui	s2,0x12
   11430:	00440793          	addi	a5,s0,4 # 12004 <__init_array_start>
   11434:	00c90913          	addi	s2,s2,12 # 1200c <__do_global_dtors_aux_fini_array_entry>
   11438:	40f90933          	sub	s2,s2,a5
   1143c:	40295913          	srai	s2,s2,0x2
   11440:	02090063          	beqz	s2,11460 <__libc_init_array+0x84>
   11444:	00440413          	addi	s0,s0,4
   11448:	00000493          	li	s1,0
   1144c:	00042783          	lw	a5,0(s0)
   11450:	00148493          	addi	s1,s1,1
   11454:	00440413          	addi	s0,s0,4
   11458:	000780e7          	jalr	a5
   1145c:	fe9918e3          	bne	s2,s1,1144c <__libc_init_array+0x70>
   11460:	00c12083          	lw	ra,12(sp)
   11464:	00812403          	lw	s0,8(sp)
   11468:	00412483          	lw	s1,4(sp)
   1146c:	00012903          	lw	s2,0(sp)
   11470:	01010113          	addi	sp,sp,16
   11474:	00008067          	ret

00011478 <memcmp>:
   11478:	00300793          	li	a5,3
   1147c:	02c7f863          	bgeu	a5,a2,114ac <memcmp+0x34>
   11480:	00b567b3          	or	a5,a0,a1
   11484:	0037f793          	andi	a5,a5,3
   11488:	00300693          	li	a3,3
   1148c:	04079e63          	bnez	a5,114e8 <memcmp+0x70>
   11490:	00052703          	lw	a4,0(a0) # 12000 <__FRAME_END__>
   11494:	0005a783          	lw	a5,0(a1)
   11498:	04f71863          	bne	a4,a5,114e8 <memcmp+0x70>
   1149c:	ffc60613          	addi	a2,a2,-4
   114a0:	00450513          	addi	a0,a0,4
   114a4:	00458593          	addi	a1,a1,4
   114a8:	fec6e4e3          	bltu	a3,a2,11490 <memcmp+0x18>
   114ac:	fff60693          	addi	a3,a2,-1
   114b0:	02060863          	beqz	a2,114e0 <memcmp+0x68>
   114b4:	00168693          	addi	a3,a3,1
   114b8:	00d506b3          	add	a3,a0,a3
   114bc:	0080006f          	j	114c4 <memcmp+0x4c>
   114c0:	02d50063          	beq	a0,a3,114e0 <memcmp+0x68>
   114c4:	00054783          	lbu	a5,0(a0)
   114c8:	0005c703          	lbu	a4,0(a1)
   114cc:	00150513          	addi	a0,a0,1
   114d0:	00158593          	addi	a1,a1,1
   114d4:	fee786e3          	beq	a5,a4,114c0 <memcmp+0x48>
   114d8:	40e78533          	sub	a0,a5,a4
   114dc:	00008067          	ret
   114e0:	00000513          	li	a0,0
   114e4:	00008067          	ret
   114e8:	fff60693          	addi	a3,a2,-1
   114ec:	fc9ff06f          	j	114b4 <memcmp+0x3c>

000114f0 <memcpy>:
   114f0:	00b547b3          	xor	a5,a0,a1
   114f4:	0037f793          	andi	a5,a5,3
   114f8:	00c508b3          	add	a7,a0,a2
   114fc:	06079663          	bnez	a5,11568 <memcpy+0x78>
   11500:	00300793          	li	a5,3
   11504:	06c7f263          	bgeu	a5,a2,11568 <memcpy+0x78>
   11508:	00357793          	andi	a5,a0,3
   1150c:	00050713          	mv	a4,a0
   11510:	0c079a63          	bnez	a5,115e4 <memcpy+0xf4>
   11514:	ffc8f613          	andi	a2,a7,-4
   11518:	40e606b3          	sub	a3,a2,a4
   1151c:	02000793          	li	a5,32
   11520:	02000293          	li	t0,32
   11524:	06d7c263          	blt	a5,a3,11588 <memcpy+0x98>
   11528:	00058693          	mv	a3,a1
   1152c:	00070793          	mv	a5,a4
   11530:	02c77863          	bgeu	a4,a2,11560 <memcpy+0x70>
   11534:	0006a803          	lw	a6,0(a3)
   11538:	00478793          	addi	a5,a5,4
   1153c:	00468693          	addi	a3,a3,4
   11540:	ff07ae23          	sw	a6,-4(a5)
   11544:	fec7e8e3          	bltu	a5,a2,11534 <memcpy+0x44>
   11548:	fff60793          	addi	a5,a2,-1
   1154c:	40e787b3          	sub	a5,a5,a4
   11550:	ffc7f793          	andi	a5,a5,-4
   11554:	00478793          	addi	a5,a5,4
   11558:	00f70733          	add	a4,a4,a5
   1155c:	00f585b3          	add	a1,a1,a5
   11560:	01176863          	bltu	a4,a7,11570 <memcpy+0x80>
   11564:	00008067          	ret
   11568:	00050713          	mv	a4,a0
   1156c:	ff157ce3          	bgeu	a0,a7,11564 <memcpy+0x74>
   11570:	0005c783          	lbu	a5,0(a1)
   11574:	00170713          	addi	a4,a4,1
   11578:	00158593          	addi	a1,a1,1
   1157c:	fef70fa3          	sb	a5,-1(a4)
   11580:	ff1768e3          	bltu	a4,a7,11570 <memcpy+0x80>
   11584:	00008067          	ret
   11588:	0045a683          	lw	a3,4(a1)
   1158c:	01c5a783          	lw	a5,28(a1)
   11590:	0005af83          	lw	t6,0(a1)
   11594:	0085af03          	lw	t5,8(a1)
   11598:	00c5ae83          	lw	t4,12(a1)
   1159c:	0105ae03          	lw	t3,16(a1)
   115a0:	0145a303          	lw	t1,20(a1)
   115a4:	0185a803          	lw	a6,24(a1)
   115a8:	00d72223          	sw	a3,4(a4)
   115ac:	0205a683          	lw	a3,32(a1)
   115b0:	01f72023          	sw	t6,0(a4)
   115b4:	01e72423          	sw	t5,8(a4)
   115b8:	01d72623          	sw	t4,12(a4)
   115bc:	01c72823          	sw	t3,16(a4)
   115c0:	00672a23          	sw	t1,20(a4)
   115c4:	01072c23          	sw	a6,24(a4)
   115c8:	00f72e23          	sw	a5,28(a4)
   115cc:	02470713          	addi	a4,a4,36
   115d0:	40e607b3          	sub	a5,a2,a4
   115d4:	fed72e23          	sw	a3,-4(a4)
   115d8:	02458593          	addi	a1,a1,36
   115dc:	faf2c6e3          	blt	t0,a5,11588 <memcpy+0x98>
   115e0:	f49ff06f          	j	11528 <memcpy+0x38>
   115e4:	0005c683          	lbu	a3,0(a1)
   115e8:	00170713          	addi	a4,a4,1
   115ec:	00377793          	andi	a5,a4,3
   115f0:	fed70fa3          	sb	a3,-1(a4)
   115f4:	00158593          	addi	a1,a1,1
   115f8:	f0078ee3          	beqz	a5,11514 <memcpy+0x24>
   115fc:	0005c683          	lbu	a3,0(a1)
   11600:	00170713          	addi	a4,a4,1
   11604:	00377793          	andi	a5,a4,3
   11608:	fed70fa3          	sb	a3,-1(a4)
   1160c:	00158593          	addi	a1,a1,1
   11610:	fc079ae3          	bnez	a5,115e4 <memcpy+0xf4>
   11614:	f01ff06f          	j	11514 <memcpy+0x24>

00011618 <memset>:
   11618:	00f00313          	li	t1,15
   1161c:	00050713          	mv	a4,a0
   11620:	02c37e63          	bgeu	t1,a2,1165c <memset+0x44>
   11624:	00f77793          	andi	a5,a4,15
   11628:	0a079063          	bnez	a5,116c8 <memset+0xb0>
   1162c:	08059263          	bnez	a1,116b0 <memset+0x98>
   11630:	ff067693          	andi	a3,a2,-16
   11634:	00f67613          	andi	a2,a2,15
   11638:	00e686b3          	add	a3,a3,a4
   1163c:	00b72023          	sw	a1,0(a4)
   11640:	00b72223          	sw	a1,4(a4)
   11644:	00b72423          	sw	a1,8(a4)
   11648:	00b72623          	sw	a1,12(a4)
   1164c:	01070713          	addi	a4,a4,16
   11650:	fed766e3          	bltu	a4,a3,1163c <memset+0x24>
   11654:	00061463          	bnez	a2,1165c <memset+0x44>
   11658:	00008067          	ret
   1165c:	40c306b3          	sub	a3,t1,a2
   11660:	00269693          	slli	a3,a3,0x2
   11664:	00000297          	auipc	t0,0x0
   11668:	005686b3          	add	a3,a3,t0
   1166c:	00c68067          	jr	12(a3)
   11670:	00b70723          	sb	a1,14(a4)
   11674:	00b706a3          	sb	a1,13(a4)
   11678:	00b70623          	sb	a1,12(a4)
   1167c:	00b705a3          	sb	a1,11(a4)
   11680:	00b70523          	sb	a1,10(a4)
   11684:	00b704a3          	sb	a1,9(a4)
   11688:	00b70423          	sb	a1,8(a4)
   1168c:	00b703a3          	sb	a1,7(a4)
   11690:	00b70323          	sb	a1,6(a4)
   11694:	00b702a3          	sb	a1,5(a4)
   11698:	00b70223          	sb	a1,4(a4)
   1169c:	00b701a3          	sb	a1,3(a4)
   116a0:	00b70123          	sb	a1,2(a4)
   116a4:	00b700a3          	sb	a1,1(a4)
   116a8:	00b70023          	sb	a1,0(a4)
   116ac:	00008067          	ret
   116b0:	0ff5f593          	zext.b	a1,a1
   116b4:	00859693          	slli	a3,a1,0x8
   116b8:	00d5e5b3          	or	a1,a1,a3
   116bc:	01059693          	slli	a3,a1,0x10
   116c0:	00d5e5b3          	or	a1,a1,a3
   116c4:	f6dff06f          	j	11630 <memset+0x18>
   116c8:	00279693          	slli	a3,a5,0x2
   116cc:	00000297          	auipc	t0,0x0
   116d0:	005686b3          	add	a3,a3,t0
   116d4:	00008293          	mv	t0,ra
   116d8:	fa0680e7          	jalr	-96(a3)
   116dc:	00028093          	mv	ra,t0
   116e0:	ff078793          	addi	a5,a5,-16
   116e4:	40f70733          	sub	a4,a4,a5
   116e8:	00f60633          	add	a2,a2,a5
   116ec:	f6c378e3          	bgeu	t1,a2,1165c <memset+0x44>
   116f0:	f3dff06f          	j	1162c <memset+0x14>

000116f4 <__call_exitprocs>:
   116f4:	fd010113          	addi	sp,sp,-48
   116f8:	01412c23          	sw	s4,24(sp)
   116fc:	c281aa03          	lw	s4,-984(gp) # 12438 <_global_impure_ptr>
   11700:	03212023          	sw	s2,32(sp)
   11704:	02112623          	sw	ra,44(sp)
   11708:	148a2903          	lw	s2,328(s4)
   1170c:	02812423          	sw	s0,40(sp)
   11710:	02912223          	sw	s1,36(sp)
   11714:	01312e23          	sw	s3,28(sp)
   11718:	01512a23          	sw	s5,20(sp)
   1171c:	01612823          	sw	s6,16(sp)
   11720:	01712623          	sw	s7,12(sp)
   11724:	01812423          	sw	s8,8(sp)
   11728:	04090063          	beqz	s2,11768 <__call_exitprocs+0x74>
   1172c:	00050b13          	mv	s6,a0
   11730:	00058b93          	mv	s7,a1
   11734:	00100a93          	li	s5,1
   11738:	fff00993          	li	s3,-1
   1173c:	00492483          	lw	s1,4(s2)
   11740:	fff48413          	addi	s0,s1,-1
   11744:	02044263          	bltz	s0,11768 <__call_exitprocs+0x74>
   11748:	00249493          	slli	s1,s1,0x2
   1174c:	009904b3          	add	s1,s2,s1
   11750:	040b8463          	beqz	s7,11798 <__call_exitprocs+0xa4>
   11754:	1044a783          	lw	a5,260(s1)
   11758:	05778063          	beq	a5,s7,11798 <__call_exitprocs+0xa4>
   1175c:	fff40413          	addi	s0,s0,-1
   11760:	ffc48493          	addi	s1,s1,-4
   11764:	ff3416e3          	bne	s0,s3,11750 <__call_exitprocs+0x5c>
   11768:	02c12083          	lw	ra,44(sp)
   1176c:	02812403          	lw	s0,40(sp)
   11770:	02412483          	lw	s1,36(sp)
   11774:	02012903          	lw	s2,32(sp)
   11778:	01c12983          	lw	s3,28(sp)
   1177c:	01812a03          	lw	s4,24(sp)
   11780:	01412a83          	lw	s5,20(sp)
   11784:	01012b03          	lw	s6,16(sp)
   11788:	00c12b83          	lw	s7,12(sp)
   1178c:	00812c03          	lw	s8,8(sp)
   11790:	03010113          	addi	sp,sp,48
   11794:	00008067          	ret
   11798:	00492783          	lw	a5,4(s2)
   1179c:	0044a683          	lw	a3,4(s1)
   117a0:	fff78793          	addi	a5,a5,-1
   117a4:	04878e63          	beq	a5,s0,11800 <__call_exitprocs+0x10c>
   117a8:	0004a223          	sw	zero,4(s1)
   117ac:	fa0688e3          	beqz	a3,1175c <__call_exitprocs+0x68>
   117b0:	18892783          	lw	a5,392(s2)
   117b4:	008a9733          	sll	a4,s5,s0
   117b8:	00492c03          	lw	s8,4(s2)
   117bc:	00f777b3          	and	a5,a4,a5
   117c0:	02079263          	bnez	a5,117e4 <__call_exitprocs+0xf0>
   117c4:	000680e7          	jalr	a3
   117c8:	00492703          	lw	a4,4(s2)
   117cc:	148a2783          	lw	a5,328(s4)
   117d0:	01871463          	bne	a4,s8,117d8 <__call_exitprocs+0xe4>
   117d4:	f92784e3          	beq	a5,s2,1175c <__call_exitprocs+0x68>
   117d8:	f80788e3          	beqz	a5,11768 <__call_exitprocs+0x74>
   117dc:	00078913          	mv	s2,a5
   117e0:	f5dff06f          	j	1173c <__call_exitprocs+0x48>
   117e4:	18c92783          	lw	a5,396(s2)
   117e8:	0844a583          	lw	a1,132(s1)
   117ec:	00f77733          	and	a4,a4,a5
   117f0:	00071c63          	bnez	a4,11808 <__call_exitprocs+0x114>
   117f4:	000b0513          	mv	a0,s6
   117f8:	000680e7          	jalr	a3
   117fc:	fcdff06f          	j	117c8 <__call_exitprocs+0xd4>
   11800:	00892223          	sw	s0,4(s2)
   11804:	fa9ff06f          	j	117ac <__call_exitprocs+0xb8>
   11808:	00058513          	mv	a0,a1
   1180c:	000680e7          	jalr	a3
   11810:	fb9ff06f          	j	117c8 <__call_exitprocs+0xd4>

00011814 <__libc_fini_array>:
   11814:	ff010113          	addi	sp,sp,-16
   11818:	00812423          	sw	s0,8(sp)
   1181c:	000127b7          	lui	a5,0x12
   11820:	00012437          	lui	s0,0x12
   11824:	00c78793          	addi	a5,a5,12 # 1200c <__do_global_dtors_aux_fini_array_entry>
   11828:	01040413          	addi	s0,s0,16 # 12010 <impure_data>
   1182c:	40f40433          	sub	s0,s0,a5
   11830:	00912223          	sw	s1,4(sp)
   11834:	00112623          	sw	ra,12(sp)
   11838:	40245493          	srai	s1,s0,0x2
   1183c:	02048063          	beqz	s1,1185c <__libc_fini_array+0x48>
   11840:	ffc40413          	addi	s0,s0,-4
   11844:	00f40433          	add	s0,s0,a5
   11848:	00042783          	lw	a5,0(s0)
   1184c:	fff48493          	addi	s1,s1,-1
   11850:	ffc40413          	addi	s0,s0,-4
   11854:	000780e7          	jalr	a5
   11858:	fe0498e3          	bnez	s1,11848 <__libc_fini_array+0x34>
   1185c:	00c12083          	lw	ra,12(sp)
   11860:	00812403          	lw	s0,8(sp)
   11864:	00412483          	lw	s1,4(sp)
   11868:	01010113          	addi	sp,sp,16
   1186c:	00008067          	ret

00011870 <atexit>:
   11870:	00050593          	mv	a1,a0
   11874:	00000693          	li	a3,0
   11878:	00000613          	li	a2,0
   1187c:	00000513          	li	a0,0
   11880:	0040006f          	j	11884 <__register_exitproc>

00011884 <__register_exitproc>:
   11884:	c281a703          	lw	a4,-984(gp) # 12438 <_global_impure_ptr>
   11888:	14872783          	lw	a5,328(a4)
   1188c:	04078c63          	beqz	a5,118e4 <__register_exitproc+0x60>
   11890:	0047a703          	lw	a4,4(a5)
   11894:	01f00813          	li	a6,31
   11898:	06e84e63          	blt	a6,a4,11914 <__register_exitproc+0x90>
   1189c:	00271813          	slli	a6,a4,0x2
   118a0:	02050663          	beqz	a0,118cc <__register_exitproc+0x48>
   118a4:	01078333          	add	t1,a5,a6
   118a8:	08c32423          	sw	a2,136(t1) # 10208 <vec_mpy1+0x7c>
   118ac:	1887a883          	lw	a7,392(a5)
   118b0:	00100613          	li	a2,1
   118b4:	00e61633          	sll	a2,a2,a4
   118b8:	00c8e8b3          	or	a7,a7,a2
   118bc:	1917a423          	sw	a7,392(a5)
   118c0:	10d32423          	sw	a3,264(t1)
   118c4:	00200693          	li	a3,2
   118c8:	02d50463          	beq	a0,a3,118f0 <__register_exitproc+0x6c>
   118cc:	00170713          	addi	a4,a4,1
   118d0:	00e7a223          	sw	a4,4(a5)
   118d4:	010787b3          	add	a5,a5,a6
   118d8:	00b7a423          	sw	a1,8(a5)
   118dc:	00000513          	li	a0,0
   118e0:	00008067          	ret
   118e4:	14c70793          	addi	a5,a4,332
   118e8:	14f72423          	sw	a5,328(a4)
   118ec:	fa5ff06f          	j	11890 <__register_exitproc+0xc>
   118f0:	18c7a683          	lw	a3,396(a5)
   118f4:	00170713          	addi	a4,a4,1
   118f8:	00e7a223          	sw	a4,4(a5)
   118fc:	00c6e6b3          	or	a3,a3,a2
   11900:	18d7a623          	sw	a3,396(a5)
   11904:	010787b3          	add	a5,a5,a6
   11908:	00b7a423          	sw	a1,8(a5)
   1190c:	00000513          	li	a0,0
   11910:	00008067          	ret
   11914:	fff00513          	li	a0,-1
   11918:	00008067          	ret

0001191c <_exit>:
   1191c:	05d00893          	li	a7,93
   11920:	00000073          	ecall
   11924:	00054463          	bltz	a0,1192c <_exit+0x10>
   11928:	0000006f          	j	11928 <_exit+0xc>
   1192c:	ff010113          	addi	sp,sp,-16
   11930:	00812423          	sw	s0,8(sp)
   11934:	00050413          	mv	s0,a0
   11938:	00112623          	sw	ra,12(sp)
   1193c:	40800433          	neg	s0,s0
   11940:	00c000ef          	jal	ra,1194c <__errno>
   11944:	00852023          	sw	s0,0(a0)
   11948:	0000006f          	j	11948 <_exit+0x2c>

0001194c <__errno>:
   1194c:	c2c1a503          	lw	a0,-980(gp) # 1243c <_impure_ptr>
   11950:	00008067          	ret
