
./riscv32-benchmarks-customtoolchain/src/statemate/statemate:     file format elf32-littleriscv


Disassembly of section .text:

00010094 <exit>:
   10094:	ff010113          	addi	sp,sp,-16
   10098:	00000593          	li	a1,0
   1009c:	00812423          	sw	s0,8(sp)
   100a0:	00112623          	sw	ra,12(sp)
   100a4:	00050413          	mv	s0,a0
   100a8:	429010ef          	jal	ra,11cd0 <__call_exitprocs>
   100ac:	c281a503          	lw	a0,-984(gp) # 12438 <_global_impure_ptr>
   100b0:	03c52783          	lw	a5,60(a0)
   100b4:	00078463          	beqz	a5,100bc <exit+0x28>
   100b8:	000780e7          	jalr	a5
   100bc:	00040513          	mv	a0,s0
   100c0:	639010ef          	jal	ra,11ef8 <_exit>

000100c4 <register_fini>:
   100c4:	00000793          	li	a5,0
   100c8:	00078863          	beqz	a5,100d8 <register_fini+0x14>
   100cc:	00012537          	lui	a0,0x12
   100d0:	df050513          	addi	a0,a0,-528 # 11df0 <__libc_fini_array>
   100d4:	5790106f          	j	11e4c <atexit>
   100d8:	00008067          	ret

000100dc <_start>:
   100dc:	00002197          	auipc	gp,0x2
   100e0:	73418193          	addi	gp,gp,1844 # 12810 <__global_pointer$>
   100e4:	c3018513          	addi	a0,gp,-976 # 12440 <tm_entered_EINSCHALTSTROM_MESSEN_BLOCK_ERKENNUNG_CTRLch_BLOCK_ERKENNUNG_CTRL__N_copy>
   100e8:	d4418613          	addi	a2,gp,-700 # 12554 <__BSS_END__>
   100ec:	40a60633          	sub	a2,a2,a0
   100f0:	00000593          	li	a1,0
   100f4:	301010ef          	jal	ra,11bf4 <memset>
   100f8:	00002517          	auipc	a0,0x2
   100fc:	d5450513          	addi	a0,a0,-684 # 11e4c <atexit>
   10100:	00050863          	beqz	a0,10110 <_start+0x34>
   10104:	00002517          	auipc	a0,0x2
   10108:	cec50513          	addi	a0,a0,-788 # 11df0 <__libc_fini_array>
   1010c:	541010ef          	jal	ra,11e4c <atexit>
   10110:	121010ef          	jal	ra,11a30 <__libc_init_array>
   10114:	00012503          	lw	a0,0(sp)
   10118:	00410593          	addi	a1,sp,4
   1011c:	00000613          	li	a2,0
   10120:	0a5010ef          	jal	ra,119c4 <main>
   10124:	f71ff06f          	j	10094 <exit>

00010128 <__do_global_dtors_aux>:
   10128:	ff010113          	addi	sp,sp,-16
   1012c:	00812423          	sw	s0,8(sp)
   10130:	ce81c783          	lbu	a5,-792(gp) # 124f8 <completed.1>
   10134:	00112623          	sw	ra,12(sp)
   10138:	02079263          	bnez	a5,1015c <__do_global_dtors_aux+0x34>
   1013c:	00000793          	li	a5,0
   10140:	00078a63          	beqz	a5,10154 <__do_global_dtors_aux+0x2c>
   10144:	00012537          	lui	a0,0x12
   10148:	00050513          	mv	a0,a0
   1014c:	00000097          	auipc	ra,0x0
   10150:	000000e7          	jalr	zero # 0 <exit-0x10094>
   10154:	00100793          	li	a5,1
   10158:	cef18423          	sb	a5,-792(gp) # 124f8 <completed.1>
   1015c:	00c12083          	lw	ra,12(sp)
   10160:	00812403          	lw	s0,8(sp)
   10164:	01010113          	addi	sp,sp,16
   10168:	00008067          	ret

0001016c <frame_dummy>:
   1016c:	00000793          	li	a5,0
   10170:	00078c63          	beqz	a5,10188 <frame_dummy+0x1c>
   10174:	00012537          	lui	a0,0x12
   10178:	cec18593          	addi	a1,gp,-788 # 124fc <object.0>
   1017c:	00050513          	mv	a0,a0
   10180:	00000317          	auipc	t1,0x0
   10184:	00000067          	jr	zero # 0 <exit-0x10094>
   10188:	00008067          	ret

0001018c <interface>:
   1018c:	ff010113          	addi	sp,sp,-16
   10190:	00812623          	sw	s0,12(sp)
   10194:	01010413          	addi	s0,sp,16
   10198:	d0418793          	addi	a5,gp,-764 # 12514 <Bitlist>
   1019c:	0047c783          	lbu	a5,4(a5)
   101a0:	00078663          	beqz	a5,101ac <interface+0x20>
   101a4:	cd01a703          	lw	a4,-816(gp) # 124e0 <time>
   101a8:	c2e1ac23          	sw	a4,-968(gp) # 12448 <tm_entered_WIEDERHOLSPERRE_FH_TUERMODUL_CTRL>
   101ac:	d0418793          	addi	a5,gp,-764 # 12514 <Bitlist>
   101b0:	0047c783          	lbu	a5,4(a5)
   101b4:	00079863          	bnez	a5,101c4 <interface+0x38>
   101b8:	d0418793          	addi	a5,gp,-764 # 12514 <Bitlist>
   101bc:	0067c783          	lbu	a5,6(a5)
   101c0:	00078663          	beqz	a5,101cc <interface+0x40>
   101c4:	cd01a703          	lw	a4,-816(gp) # 124e0 <time>
   101c8:	c2e1aa23          	sw	a4,-972(gp) # 12444 <tm_entered_WIEDERHOLSPERRE_FH_TUERMODUL_CTRLexited_BEREIT_FH_TUERMODUL_CTRL>
   101cc:	c3c1a783          	lw	a5,-964(gp) # 1244c <sc_FH_TUERMODUL_CTRL_2375_2>
   101d0:	00078c63          	beqz	a5,101e8 <interface+0x5c>
   101d4:	cd01a703          	lw	a4,-816(gp) # 124e0 <time>
   101d8:	c3c1a783          	lw	a5,-964(gp) # 1244c <sc_FH_TUERMODUL_CTRL_2375_2>
   101dc:	00f70663          	beq	a4,a5,101e8 <interface+0x5c>
   101e0:	ca018623          	sb	zero,-852(gp) # 124bc <FH_TUERMODUL__MFHA_copy>
   101e4:	c201ae23          	sw	zero,-964(gp) # 1244c <sc_FH_TUERMODUL_CTRL_2375_2>
   101e8:	c401a783          	lw	a5,-960(gp) # 12450 <sc_FH_TUERMODUL_CTRL_2352_1>
   101ec:	00078c63          	beqz	a5,10204 <interface+0x78>
   101f0:	cd01a703          	lw	a4,-816(gp) # 124e0 <time>
   101f4:	c401a783          	lw	a5,-960(gp) # 12450 <sc_FH_TUERMODUL_CTRL_2352_1>
   101f8:	00f70663          	beq	a4,a5,10204 <interface+0x78>
   101fc:	ca0184a3          	sb	zero,-855(gp) # 124b9 <FH_TUERMODUL__MFHZ_copy>
   10200:	c401a023          	sw	zero,-960(gp) # 12450 <sc_FH_TUERMODUL_CTRL_2352_1>
   10204:	c441a783          	lw	a5,-956(gp) # 12454 <sc_FH_TUERMODUL_CTRL_2329_1>
   10208:	00078c63          	beqz	a5,10220 <interface+0x94>
   1020c:	cd01a703          	lw	a4,-816(gp) # 124e0 <time>
   10210:	c441a783          	lw	a5,-956(gp) # 12454 <sc_FH_TUERMODUL_CTRL_2329_1>
   10214:	00f70663          	beq	a4,a5,10220 <interface+0x94>
   10218:	ca0184a3          	sb	zero,-855(gp) # 124b9 <FH_TUERMODUL__MFHZ_copy>
   1021c:	c401a223          	sw	zero,-956(gp) # 12454 <sc_FH_TUERMODUL_CTRL_2329_1>
   10220:	c541a783          	lw	a5,-940(gp) # 12464 <sc_FH_TUERMODUL_CTRL_1781_10>
   10224:	00078a63          	beqz	a5,10238 <interface+0xac>
   10228:	cd01a703          	lw	a4,-816(gp) # 124e0 <time>
   1022c:	c541a783          	lw	a5,-940(gp) # 12464 <sc_FH_TUERMODUL_CTRL_1781_10>
   10230:	00f70463          	beq	a4,a5,10238 <interface+0xac>
   10234:	c401aa23          	sw	zero,-940(gp) # 12464 <sc_FH_TUERMODUL_CTRL_1781_10>
   10238:	c581a783          	lw	a5,-936(gp) # 12468 <sc_FH_TUERMODUL_CTRL_1739_10>
   1023c:	00078a63          	beqz	a5,10250 <interface+0xc4>
   10240:	cd01a703          	lw	a4,-816(gp) # 124e0 <time>
   10244:	c581a783          	lw	a5,-936(gp) # 12468 <sc_FH_TUERMODUL_CTRL_1739_10>
   10248:	00f70463          	beq	a4,a5,10250 <interface+0xc4>
   1024c:	c401ac23          	sw	zero,-936(gp) # 12468 <sc_FH_TUERMODUL_CTRL_1739_10>
   10250:	d0418793          	addi	a5,gp,-764 # 12514 <Bitlist>
   10254:	0007c783          	lbu	a5,0(a5)
   10258:	00079863          	bnez	a5,10268 <interface+0xdc>
   1025c:	c841a703          	lw	a4,-892(gp) # 12494 <BLOCK_ERKENNUNG_CTRL__N>
   10260:	c8c1a783          	lw	a5,-884(gp) # 1249c <BLOCK_ERKENNUNG_CTRL__N_old>
   10264:	00f70663          	beq	a4,a5,10270 <interface+0xe4>
   10268:	cd01a703          	lw	a4,-816(gp) # 124e0 <time>
   1026c:	c2e1a823          	sw	a4,-976(gp) # 12440 <tm_entered_EINSCHALTSTROM_MESSEN_BLOCK_ERKENNUNG_CTRLch_BLOCK_ERKENNUNG_CTRL__N_copy>
   10270:	00000013          	nop
   10274:	00c12403          	lw	s0,12(sp)
   10278:	01010113          	addi	sp,sp,16
   1027c:	00008067          	ret

00010280 <init>:
   10280:	ff010113          	addi	sp,sp,-16
   10284:	00812623          	sw	s0,12(sp)
   10288:	01010413          	addi	s0,sp,16
   1028c:	c201a823          	sw	zero,-976(gp) # 12440 <tm_entered_EINSCHALTSTROM_MESSEN_BLOCK_ERKENNUNG_CTRLch_BLOCK_ERKENNUNG_CTRL__N_copy>
   10290:	c201aa23          	sw	zero,-972(gp) # 12444 <tm_entered_WIEDERHOLSPERRE_FH_TUERMODUL_CTRLexited_BEREIT_FH_TUERMODUL_CTRL>
   10294:	c201ac23          	sw	zero,-968(gp) # 12448 <tm_entered_WIEDERHOLSPERRE_FH_TUERMODUL_CTRL>
   10298:	cc018b23          	sb	zero,-810(gp) # 124e6 <NICHT_INITIALISIERT_NICHT_INITIALISIERT_next_state>
   1029c:	cc018ba3          	sb	zero,-809(gp) # 124e7 <ZENTRAL_KINDERSICHERUNG_CTRL_next_state>
   102a0:	cc018c23          	sb	zero,-808(gp) # 124e8 <MEC_KINDERSICHERUNG_CTRL_next_state>
   102a4:	cc018ca3          	sb	zero,-807(gp) # 124e9 <KINDERSICHERUNG_CTRL_KINDERSICHERUNG_CTRL_next_state>
   102a8:	cc018d23          	sb	zero,-806(gp) # 124ea <B_FH_TUERMODUL_CTRL_next_state>
   102ac:	cc018da3          	sb	zero,-805(gp) # 124eb <A_FH_TUERMODUL_CTRL_next_state>
   102b0:	cc018e23          	sb	zero,-804(gp) # 124ec <WIEDERHOLSPERRE_FH_TUERMODUL_CTRL_next_state>
   102b4:	cc018ea3          	sb	zero,-803(gp) # 124ed <INITIALISIERT_FH_TUERMODUL_CTRL_next_state>
   102b8:	cc018f23          	sb	zero,-802(gp) # 124ee <TIPP_SCHLIESSEN_FH_TUERMODUL_CTRL_next_state>
   102bc:	cc018fa3          	sb	zero,-801(gp) # 124ef <MANUELL_SCHLIESSEN_FH_TUERMODUL_CTRL_next_state>
   102c0:	ce018023          	sb	zero,-800(gp) # 124f0 <OEFFNEN_FH_TUERMODUL_CTRL_next_state>
   102c4:	ce0180a3          	sb	zero,-799(gp) # 124f1 <SCHLIESSEN_FH_TUERMODUL_CTRL_next_state>
   102c8:	ce018123          	sb	zero,-798(gp) # 124f2 <FH_STEUERUNG_DUMMY_FH_STEUERUNG_DUMMY_next_state>
   102cc:	ce0181a3          	sb	zero,-797(gp) # 124f3 <EINKLEMMSCHUTZ_CTRL_EINKLEMMSCHUTZ_CTRL_next_state>
   102d0:	ce018223          	sb	zero,-796(gp) # 124f4 <BEWEGUNG_BLOCK_ERKENNUNG_CTRL_next_state>
   102d4:	ce0182a3          	sb	zero,-795(gp) # 124f5 <BLOCK_ERKENNUNG_CTRL_BLOCK_ERKENNUNG_CTRL_next_state>
   102d8:	00000013          	nop
   102dc:	00c12403          	lw	s0,12(sp)
   102e0:	01010113          	addi	sp,sp,16
   102e4:	00008067          	ret

000102e8 <generic_KINDERSICHERUNG_CTRL>:
   102e8:	ff010113          	addi	sp,sp,-16
   102ec:	00812623          	sw	s0,12(sp)
   102f0:	01010413          	addi	s0,sp,16
   102f4:	d0418793          	addi	a5,gp,-764 # 12514 <Bitlist>
   102f8:	00a7c783          	lbu	a5,10(a5)
   102fc:	32078863          	beqz	a5,1062c <generic_KINDERSICHERUNG_CTRL+0x344>
   10300:	cd91c783          	lbu	a5,-807(gp) # 124e9 <KINDERSICHERUNG_CTRL_KINDERSICHERUNG_CTRL_next_state>
   10304:	00300713          	li	a4,3
   10308:	1ee78463          	beq	a5,a4,104f0 <generic_KINDERSICHERUNG_CTRL+0x208>
   1030c:	00300713          	li	a4,3
   10310:	30f74463          	blt	a4,a5,10618 <generic_KINDERSICHERUNG_CTRL+0x330>
   10314:	00100713          	li	a4,1
   10318:	00e78863          	beq	a5,a4,10328 <generic_KINDERSICHERUNG_CTRL+0x40>
   1031c:	00200713          	li	a4,2
   10320:	0ee78663          	beq	a5,a4,1040c <generic_KINDERSICHERUNG_CTRL+0x124>
   10324:	2f40006f          	j	10618 <generic_KINDERSICHERUNG_CTRL+0x330>
   10328:	c991c783          	lbu	a5,-871(gp) # 124a9 <FH_TUERMODUL__SFHA_ZENTRAL>
   1032c:	02079463          	bnez	a5,10354 <generic_KINDERSICHERUNG_CTRL+0x6c>
   10330:	c951c783          	lbu	a5,-875(gp) # 124a5 <FH_TUERMODUL__SFHZ_ZENTRAL>
   10334:	02079063          	bnez	a5,10354 <generic_KINDERSICHERUNG_CTRL+0x6c>
   10338:	cc018a23          	sb	zero,-812(gp) # 124e4 <stable>
   1033c:	ca0181a3          	sb	zero,-861(gp) # 124b3 <FH_TUERMODUL__SFHZ_copy>
   10340:	ca018323          	sb	zero,-858(gp) # 124b6 <FH_TUERMODUL__SFHA_copy>
   10344:	00300713          	li	a4,3
   10348:	cce18ca3          	sb	a4,-807(gp) # 124e9 <KINDERSICHERUNG_CTRL_KINDERSICHERUNG_CTRL_next_state>
   1034c:	cc018ba3          	sb	zero,-809(gp) # 124e7 <ZENTRAL_KINDERSICHERUNG_CTRL_next_state>
   10350:	2dc0006f          	j	1062c <generic_KINDERSICHERUNG_CTRL+0x344>
   10354:	cd71c783          	lbu	a5,-809(gp) # 124e7 <ZENTRAL_KINDERSICHERUNG_CTRL_next_state>
   10358:	00078713          	mv	a4,a5
   1035c:	00100793          	li	a5,1
   10360:	08f71e63          	bne	a4,a5,103fc <generic_KINDERSICHERUNG_CTRL+0x114>
   10364:	c991c783          	lbu	a5,-871(gp) # 124a9 <FH_TUERMODUL__SFHA_ZENTRAL>
   10368:	02078263          	beqz	a5,1038c <generic_KINDERSICHERUNG_CTRL+0xa4>
   1036c:	c9a1c783          	lbu	a5,-870(gp) # 124aa <FH_TUERMODUL__SFHA_ZENTRAL_old>
   10370:	00079e63          	bnez	a5,1038c <generic_KINDERSICHERUNG_CTRL+0xa4>
   10374:	cc018a23          	sb	zero,-812(gp) # 124e4 <stable>
   10378:	00100713          	li	a4,1
   1037c:	cae18323          	sb	a4,-858(gp) # 124b6 <FH_TUERMODUL__SFHA_copy>
   10380:	00100713          	li	a4,1
   10384:	cce18ba3          	sb	a4,-809(gp) # 124e7 <ZENTRAL_KINDERSICHERUNG_CTRL_next_state>
   10388:	0800006f          	j	10408 <generic_KINDERSICHERUNG_CTRL+0x120>
   1038c:	c951c783          	lbu	a5,-875(gp) # 124a5 <FH_TUERMODUL__SFHZ_ZENTRAL>
   10390:	02078263          	beqz	a5,103b4 <generic_KINDERSICHERUNG_CTRL+0xcc>
   10394:	c961c783          	lbu	a5,-874(gp) # 124a6 <FH_TUERMODUL__SFHZ_ZENTRAL_old>
   10398:	00079e63          	bnez	a5,103b4 <generic_KINDERSICHERUNG_CTRL+0xcc>
   1039c:	cc018a23          	sb	zero,-812(gp) # 124e4 <stable>
   103a0:	00100713          	li	a4,1
   103a4:	cae181a3          	sb	a4,-861(gp) # 124b3 <FH_TUERMODUL__SFHZ_copy>
   103a8:	00100713          	li	a4,1
   103ac:	cce18ba3          	sb	a4,-809(gp) # 124e7 <ZENTRAL_KINDERSICHERUNG_CTRL_next_state>
   103b0:	0580006f          	j	10408 <generic_KINDERSICHERUNG_CTRL+0x120>
   103b4:	c991c783          	lbu	a5,-871(gp) # 124a9 <FH_TUERMODUL__SFHA_ZENTRAL>
   103b8:	02079063          	bnez	a5,103d8 <generic_KINDERSICHERUNG_CTRL+0xf0>
   103bc:	c9a1c783          	lbu	a5,-870(gp) # 124aa <FH_TUERMODUL__SFHA_ZENTRAL_old>
   103c0:	00078c63          	beqz	a5,103d8 <generic_KINDERSICHERUNG_CTRL+0xf0>
   103c4:	cc018a23          	sb	zero,-812(gp) # 124e4 <stable>
   103c8:	ca018323          	sb	zero,-858(gp) # 124b6 <FH_TUERMODUL__SFHA_copy>
   103cc:	00100713          	li	a4,1
   103d0:	cce18ba3          	sb	a4,-809(gp) # 124e7 <ZENTRAL_KINDERSICHERUNG_CTRL_next_state>
   103d4:	0340006f          	j	10408 <generic_KINDERSICHERUNG_CTRL+0x120>
   103d8:	c951c783          	lbu	a5,-875(gp) # 124a5 <FH_TUERMODUL__SFHZ_ZENTRAL>
   103dc:	02079463          	bnez	a5,10404 <generic_KINDERSICHERUNG_CTRL+0x11c>
   103e0:	c961c783          	lbu	a5,-874(gp) # 124a6 <FH_TUERMODUL__SFHZ_ZENTRAL_old>
   103e4:	02078063          	beqz	a5,10404 <generic_KINDERSICHERUNG_CTRL+0x11c>
   103e8:	cc018a23          	sb	zero,-812(gp) # 124e4 <stable>
   103ec:	ca0181a3          	sb	zero,-861(gp) # 124b3 <FH_TUERMODUL__SFHZ_copy>
   103f0:	00100713          	li	a4,1
   103f4:	cce18ba3          	sb	a4,-809(gp) # 124e7 <ZENTRAL_KINDERSICHERUNG_CTRL_next_state>
   103f8:	0100006f          	j	10408 <generic_KINDERSICHERUNG_CTRL+0x120>
   103fc:	cc018a23          	sb	zero,-812(gp) # 124e4 <stable>
   10400:	0080006f          	j	10408 <generic_KINDERSICHERUNG_CTRL+0x120>
   10404:	00000013          	nop
   10408:	2240006f          	j	1062c <generic_KINDERSICHERUNG_CTRL+0x344>
   1040c:	c9b1c783          	lbu	a5,-869(gp) # 124ab <FH_TUERMODUL__SFHA_MEC>
   10410:	02079463          	bnez	a5,10438 <generic_KINDERSICHERUNG_CTRL+0x150>
   10414:	c971c783          	lbu	a5,-873(gp) # 124a7 <FH_TUERMODUL__SFHZ_MEC>
   10418:	02079063          	bnez	a5,10438 <generic_KINDERSICHERUNG_CTRL+0x150>
   1041c:	cc018a23          	sb	zero,-812(gp) # 124e4 <stable>
   10420:	ca0181a3          	sb	zero,-861(gp) # 124b3 <FH_TUERMODUL__SFHZ_copy>
   10424:	ca018323          	sb	zero,-858(gp) # 124b6 <FH_TUERMODUL__SFHA_copy>
   10428:	00300713          	li	a4,3
   1042c:	cce18ca3          	sb	a4,-807(gp) # 124e9 <KINDERSICHERUNG_CTRL_KINDERSICHERUNG_CTRL_next_state>
   10430:	cc018c23          	sb	zero,-808(gp) # 124e8 <MEC_KINDERSICHERUNG_CTRL_next_state>
   10434:	1f80006f          	j	1062c <generic_KINDERSICHERUNG_CTRL+0x344>
   10438:	cd81c783          	lbu	a5,-808(gp) # 124e8 <MEC_KINDERSICHERUNG_CTRL_next_state>
   1043c:	00078713          	mv	a4,a5
   10440:	00100793          	li	a5,1
   10444:	08f71e63          	bne	a4,a5,104e0 <generic_KINDERSICHERUNG_CTRL+0x1f8>
   10448:	c9b1c783          	lbu	a5,-869(gp) # 124ab <FH_TUERMODUL__SFHA_MEC>
   1044c:	02078263          	beqz	a5,10470 <generic_KINDERSICHERUNG_CTRL+0x188>
   10450:	c9c1c783          	lbu	a5,-868(gp) # 124ac <FH_TUERMODUL__SFHA_MEC_old>
   10454:	00079e63          	bnez	a5,10470 <generic_KINDERSICHERUNG_CTRL+0x188>
   10458:	cc018a23          	sb	zero,-812(gp) # 124e4 <stable>
   1045c:	00100713          	li	a4,1
   10460:	cae18323          	sb	a4,-858(gp) # 124b6 <FH_TUERMODUL__SFHA_copy>
   10464:	00100713          	li	a4,1
   10468:	cce18c23          	sb	a4,-808(gp) # 124e8 <MEC_KINDERSICHERUNG_CTRL_next_state>
   1046c:	0800006f          	j	104ec <generic_KINDERSICHERUNG_CTRL+0x204>
   10470:	c971c783          	lbu	a5,-873(gp) # 124a7 <FH_TUERMODUL__SFHZ_MEC>
   10474:	02078263          	beqz	a5,10498 <generic_KINDERSICHERUNG_CTRL+0x1b0>
   10478:	c981c783          	lbu	a5,-872(gp) # 124a8 <FH_TUERMODUL__SFHZ_MEC_old>
   1047c:	00079e63          	bnez	a5,10498 <generic_KINDERSICHERUNG_CTRL+0x1b0>
   10480:	cc018a23          	sb	zero,-812(gp) # 124e4 <stable>
   10484:	00100713          	li	a4,1
   10488:	cae181a3          	sb	a4,-861(gp) # 124b3 <FH_TUERMODUL__SFHZ_copy>
   1048c:	00100713          	li	a4,1
   10490:	cce18c23          	sb	a4,-808(gp) # 124e8 <MEC_KINDERSICHERUNG_CTRL_next_state>
   10494:	0580006f          	j	104ec <generic_KINDERSICHERUNG_CTRL+0x204>
   10498:	c9b1c783          	lbu	a5,-869(gp) # 124ab <FH_TUERMODUL__SFHA_MEC>
   1049c:	02079063          	bnez	a5,104bc <generic_KINDERSICHERUNG_CTRL+0x1d4>
   104a0:	c9c1c783          	lbu	a5,-868(gp) # 124ac <FH_TUERMODUL__SFHA_MEC_old>
   104a4:	00078c63          	beqz	a5,104bc <generic_KINDERSICHERUNG_CTRL+0x1d4>
   104a8:	cc018a23          	sb	zero,-812(gp) # 124e4 <stable>
   104ac:	ca018323          	sb	zero,-858(gp) # 124b6 <FH_TUERMODUL__SFHA_copy>
   104b0:	00100713          	li	a4,1
   104b4:	cce18c23          	sb	a4,-808(gp) # 124e8 <MEC_KINDERSICHERUNG_CTRL_next_state>
   104b8:	0340006f          	j	104ec <generic_KINDERSICHERUNG_CTRL+0x204>
   104bc:	c971c783          	lbu	a5,-873(gp) # 124a7 <FH_TUERMODUL__SFHZ_MEC>
   104c0:	02079463          	bnez	a5,104e8 <generic_KINDERSICHERUNG_CTRL+0x200>
   104c4:	c981c783          	lbu	a5,-872(gp) # 124a8 <FH_TUERMODUL__SFHZ_MEC_old>
   104c8:	02078063          	beqz	a5,104e8 <generic_KINDERSICHERUNG_CTRL+0x200>
   104cc:	cc018a23          	sb	zero,-812(gp) # 124e4 <stable>
   104d0:	ca0181a3          	sb	zero,-861(gp) # 124b3 <FH_TUERMODUL__SFHZ_copy>
   104d4:	00100713          	li	a4,1
   104d8:	cce18c23          	sb	a4,-808(gp) # 124e8 <MEC_KINDERSICHERUNG_CTRL_next_state>
   104dc:	0100006f          	j	104ec <generic_KINDERSICHERUNG_CTRL+0x204>
   104e0:	cc018a23          	sb	zero,-812(gp) # 124e4 <stable>
   104e4:	0080006f          	j	104ec <generic_KINDERSICHERUNG_CTRL+0x204>
   104e8:	00000013          	nop
   104ec:	1400006f          	j	1062c <generic_KINDERSICHERUNG_CTRL+0x344>
   104f0:	c9d1c783          	lbu	a5,-867(gp) # 124ad <FH_TUERMODUL__KL_50>
   104f4:	02079a63          	bnez	a5,10528 <generic_KINDERSICHERUNG_CTRL+0x240>
   104f8:	c971c783          	lbu	a5,-873(gp) # 124a7 <FH_TUERMODUL__SFHZ_MEC>
   104fc:	02078663          	beqz	a5,10528 <generic_KINDERSICHERUNG_CTRL+0x240>
   10500:	c9b1c783          	lbu	a5,-869(gp) # 124ab <FH_TUERMODUL__SFHA_MEC>
   10504:	02078263          	beqz	a5,10528 <generic_KINDERSICHERUNG_CTRL+0x240>
   10508:	cc018a23          	sb	zero,-812(gp) # 124e4 <stable>
   1050c:	00100713          	li	a4,1
   10510:	cae181a3          	sb	a4,-861(gp) # 124b3 <FH_TUERMODUL__SFHZ_copy>
   10514:	00100713          	li	a4,1
   10518:	cae18323          	sb	a4,-858(gp) # 124b6 <FH_TUERMODUL__SFHA_copy>
   1051c:	00200713          	li	a4,2
   10520:	cce18ca3          	sb	a4,-807(gp) # 124e9 <KINDERSICHERUNG_CTRL_KINDERSICHERUNG_CTRL_next_state>
   10524:	1080006f          	j	1062c <generic_KINDERSICHERUNG_CTRL+0x344>
   10528:	c9d1c783          	lbu	a5,-867(gp) # 124ad <FH_TUERMODUL__KL_50>
   1052c:	02079663          	bnez	a5,10558 <generic_KINDERSICHERUNG_CTRL+0x270>
   10530:	c971c783          	lbu	a5,-873(gp) # 124a7 <FH_TUERMODUL__SFHZ_MEC>
   10534:	02078263          	beqz	a5,10558 <generic_KINDERSICHERUNG_CTRL+0x270>
   10538:	c9b1c783          	lbu	a5,-869(gp) # 124ab <FH_TUERMODUL__SFHA_MEC>
   1053c:	00079e63          	bnez	a5,10558 <generic_KINDERSICHERUNG_CTRL+0x270>
   10540:	cc018a23          	sb	zero,-812(gp) # 124e4 <stable>
   10544:	00100713          	li	a4,1
   10548:	cae181a3          	sb	a4,-861(gp) # 124b3 <FH_TUERMODUL__SFHZ_copy>
   1054c:	00200713          	li	a4,2
   10550:	cce18ca3          	sb	a4,-807(gp) # 124e9 <KINDERSICHERUNG_CTRL_KINDERSICHERUNG_CTRL_next_state>
   10554:	0d80006f          	j	1062c <generic_KINDERSICHERUNG_CTRL+0x344>
   10558:	c9d1c783          	lbu	a5,-867(gp) # 124ad <FH_TUERMODUL__KL_50>
   1055c:	02079663          	bnez	a5,10588 <generic_KINDERSICHERUNG_CTRL+0x2a0>
   10560:	c971c783          	lbu	a5,-873(gp) # 124a7 <FH_TUERMODUL__SFHZ_MEC>
   10564:	02079263          	bnez	a5,10588 <generic_KINDERSICHERUNG_CTRL+0x2a0>
   10568:	c9b1c783          	lbu	a5,-869(gp) # 124ab <FH_TUERMODUL__SFHA_MEC>
   1056c:	00078e63          	beqz	a5,10588 <generic_KINDERSICHERUNG_CTRL+0x2a0>
   10570:	cc018a23          	sb	zero,-812(gp) # 124e4 <stable>
   10574:	00100713          	li	a4,1
   10578:	cae18323          	sb	a4,-858(gp) # 124b6 <FH_TUERMODUL__SFHA_copy>
   1057c:	00200713          	li	a4,2
   10580:	cce18ca3          	sb	a4,-807(gp) # 124e9 <KINDERSICHERUNG_CTRL_KINDERSICHERUNG_CTRL_next_state>
   10584:	0a80006f          	j	1062c <generic_KINDERSICHERUNG_CTRL+0x344>
   10588:	c951c783          	lbu	a5,-875(gp) # 124a5 <FH_TUERMODUL__SFHZ_ZENTRAL>
   1058c:	02079663          	bnez	a5,105b8 <generic_KINDERSICHERUNG_CTRL+0x2d0>
   10590:	c991c783          	lbu	a5,-871(gp) # 124a9 <FH_TUERMODUL__SFHA_ZENTRAL>
   10594:	02078263          	beqz	a5,105b8 <generic_KINDERSICHERUNG_CTRL+0x2d0>
   10598:	c9d1c783          	lbu	a5,-867(gp) # 124ad <FH_TUERMODUL__KL_50>
   1059c:	00079e63          	bnez	a5,105b8 <generic_KINDERSICHERUNG_CTRL+0x2d0>
   105a0:	cc018a23          	sb	zero,-812(gp) # 124e4 <stable>
   105a4:	00100713          	li	a4,1
   105a8:	cae18323          	sb	a4,-858(gp) # 124b6 <FH_TUERMODUL__SFHA_copy>
   105ac:	00100713          	li	a4,1
   105b0:	cce18ca3          	sb	a4,-807(gp) # 124e9 <KINDERSICHERUNG_CTRL_KINDERSICHERUNG_CTRL_next_state>
   105b4:	0780006f          	j	1062c <generic_KINDERSICHERUNG_CTRL+0x344>
   105b8:	c951c783          	lbu	a5,-875(gp) # 124a5 <FH_TUERMODUL__SFHZ_ZENTRAL>
   105bc:	02078663          	beqz	a5,105e8 <generic_KINDERSICHERUNG_CTRL+0x300>
   105c0:	c991c783          	lbu	a5,-871(gp) # 124a9 <FH_TUERMODUL__SFHA_ZENTRAL>
   105c4:	02078263          	beqz	a5,105e8 <generic_KINDERSICHERUNG_CTRL+0x300>
   105c8:	cc018a23          	sb	zero,-812(gp) # 124e4 <stable>
   105cc:	00100713          	li	a4,1
   105d0:	cae18323          	sb	a4,-858(gp) # 124b6 <FH_TUERMODUL__SFHA_copy>
   105d4:	00100713          	li	a4,1
   105d8:	cae181a3          	sb	a4,-861(gp) # 124b3 <FH_TUERMODUL__SFHZ_copy>
   105dc:	00100713          	li	a4,1
   105e0:	cce18ca3          	sb	a4,-807(gp) # 124e9 <KINDERSICHERUNG_CTRL_KINDERSICHERUNG_CTRL_next_state>
   105e4:	0480006f          	j	1062c <generic_KINDERSICHERUNG_CTRL+0x344>
   105e8:	c951c783          	lbu	a5,-875(gp) # 124a5 <FH_TUERMODUL__SFHZ_ZENTRAL>
   105ec:	02078e63          	beqz	a5,10628 <generic_KINDERSICHERUNG_CTRL+0x340>
   105f0:	c991c783          	lbu	a5,-871(gp) # 124a9 <FH_TUERMODUL__SFHA_ZENTRAL>
   105f4:	02079a63          	bnez	a5,10628 <generic_KINDERSICHERUNG_CTRL+0x340>
   105f8:	c9d1c783          	lbu	a5,-867(gp) # 124ad <FH_TUERMODUL__KL_50>
   105fc:	02079663          	bnez	a5,10628 <generic_KINDERSICHERUNG_CTRL+0x340>
   10600:	cc018a23          	sb	zero,-812(gp) # 124e4 <stable>
   10604:	00100713          	li	a4,1
   10608:	cae181a3          	sb	a4,-861(gp) # 124b3 <FH_TUERMODUL__SFHZ_copy>
   1060c:	00100713          	li	a4,1
   10610:	cce18ca3          	sb	a4,-807(gp) # 124e9 <KINDERSICHERUNG_CTRL_KINDERSICHERUNG_CTRL_next_state>
   10614:	0180006f          	j	1062c <generic_KINDERSICHERUNG_CTRL+0x344>
   10618:	cc018a23          	sb	zero,-812(gp) # 124e4 <stable>
   1061c:	00300713          	li	a4,3
   10620:	cce18ca3          	sb	a4,-807(gp) # 124e9 <KINDERSICHERUNG_CTRL_KINDERSICHERUNG_CTRL_next_state>
   10624:	0080006f          	j	1062c <generic_KINDERSICHERUNG_CTRL+0x344>
   10628:	00000013          	nop
   1062c:	00000013          	nop
   10630:	00c12403          	lw	s0,12(sp)
   10634:	01010113          	addi	sp,sp,16
   10638:	00008067          	ret

0001063c <generic_FH_TUERMODUL_CTRL>:
   1063c:	ff010113          	addi	sp,sp,-16
   10640:	00812623          	sw	s0,12(sp)
   10644:	01010413          	addi	s0,sp,16
   10648:	d0418793          	addi	a5,gp,-764 # 12514 <Bitlist>
   1064c:	00d7c783          	lbu	a5,13(a5)
   10650:	02079663          	bnez	a5,1067c <generic_FH_TUERMODUL_CTRL+0x40>
   10654:	d0418793          	addi	a5,gp,-764 # 12514 <Bitlist>
   10658:	00f7c783          	lbu	a5,15(a5)
   1065c:	02078063          	beqz	a5,1067c <generic_FH_TUERMODUL_CTRL+0x40>
   10660:	d0418793          	addi	a5,gp,-764 # 12514 <Bitlist>
   10664:	00e7c783          	lbu	a5,14(a5)
   10668:	00079a63          	bnez	a5,1067c <generic_FH_TUERMODUL_CTRL+0x40>
   1066c:	d0418793          	addi	a5,gp,-764 # 12514 <Bitlist>
   10670:	00078223          	sb	zero,4(a5)
   10674:	d0418793          	addi	a5,gp,-764 # 12514 <Bitlist>
   10678:	00078323          	sb	zero,6(a5)
   1067c:	d0418793          	addi	a5,gp,-764 # 12514 <Bitlist>
   10680:	00d7c783          	lbu	a5,13(a5)
   10684:	000782e3          	beqz	a5,10e88 <generic_FH_TUERMODUL_CTRL+0x84c>
   10688:	d0418793          	addi	a5,gp,-764 # 12514 <Bitlist>
   1068c:	00a7c783          	lbu	a5,10(a5)
   10690:	00079663          	bnez	a5,1069c <generic_FH_TUERMODUL_CTRL+0x60>
   10694:	00300713          	li	a4,3
   10698:	cce18ca3          	sb	a4,-807(gp) # 124e9 <KINDERSICHERUNG_CTRL_KINDERSICHERUNG_CTRL_next_state>
   1069c:	d0418793          	addi	a5,gp,-764 # 12514 <Bitlist>
   106a0:	000785a3          	sb	zero,11(a5)
   106a4:	d0418793          	addi	a5,gp,-764 # 12514 <Bitlist>
   106a8:	0137c783          	lbu	a5,19(a5)
   106ac:	00079a63          	bnez	a5,106c0 <generic_FH_TUERMODUL_CTRL+0x84>
   106b0:	d0418793          	addi	a5,gp,-764 # 12514 <Bitlist>
   106b4:	00078023          	sb	zero,0(a5)
   106b8:	00100713          	li	a4,1
   106bc:	cee182a3          	sb	a4,-795(gp) # 124f5 <BLOCK_ERKENNUNG_CTRL_BLOCK_ERKENNUNG_CTRL_next_state>
   106c0:	d0418793          	addi	a5,gp,-764 # 12514 <Bitlist>
   106c4:	00078a23          	sb	zero,20(a5)
   106c8:	d0418793          	addi	a5,gp,-764 # 12514 <Bitlist>
   106cc:	00100713          	li	a4,1
   106d0:	00e785a3          	sb	a4,11(a5)
   106d4:	d0418793          	addi	a5,gp,-764 # 12514 <Bitlist>
   106d8:	00100713          	li	a4,1
   106dc:	00e78a23          	sb	a4,20(a5)
   106e0:	cda1c783          	lbu	a5,-806(gp) # 124ea <B_FH_TUERMODUL_CTRL_next_state>
   106e4:	00300713          	li	a4,3
   106e8:	14e78a63          	beq	a5,a4,1083c <generic_FH_TUERMODUL_CTRL+0x200>
   106ec:	00300713          	li	a4,3
   106f0:	62f74663          	blt	a4,a5,10d1c <generic_FH_TUERMODUL_CTRL+0x6e0>
   106f4:	00100713          	li	a4,1
   106f8:	00e78863          	beq	a5,a4,10708 <generic_FH_TUERMODUL_CTRL+0xcc>
   106fc:	00200713          	li	a4,2
   10700:	02e78c63          	beq	a5,a4,10738 <generic_FH_TUERMODUL_CTRL+0xfc>
   10704:	6180006f          	j	10d1c <generic_FH_TUERMODUL_CTRL+0x6e0>
   10708:	c481a703          	lw	a4,-952(gp) # 12458 <FH_TUERMODUL_CTRL__N>
   1070c:	03b00793          	li	a5,59
   10710:	60f71e63          	bne	a4,a5,10d2c <generic_FH_TUERMODUL_CTRL+0x6f0>
   10714:	c501a703          	lw	a4,-944(gp) # 12460 <FH_TUERMODUL_CTRL__N_old>
   10718:	03b00793          	li	a5,59
   1071c:	60f70863          	beq	a4,a5,10d2c <generic_FH_TUERMODUL_CTRL+0x6f0>
   10720:	cc018a23          	sb	zero,-812(gp) # 124e4 <stable>
   10724:	00300713          	li	a4,3
   10728:	cce18d23          	sb	a4,-806(gp) # 124ea <B_FH_TUERMODUL_CTRL_next_state>
   1072c:	00300713          	li	a4,3
   10730:	cce18ea3          	sb	a4,-803(gp) # 124ed <INITIALISIERT_FH_TUERMODUL_CTRL_next_state>
   10734:	5fc0006f          	j	10d30 <generic_FH_TUERMODUL_CTRL+0x6f4>
   10738:	c9e1c783          	lbu	a5,-866(gp) # 124ae <FH_TUERMODUL__BLOCK>
   1073c:	02078c63          	beqz	a5,10774 <generic_FH_TUERMODUL_CTRL+0x138>
   10740:	ca01c783          	lbu	a5,-864(gp) # 124b0 <FH_TUERMODUL__BLOCK_old>
   10744:	02079863          	bnez	a5,10774 <generic_FH_TUERMODUL_CTRL+0x138>
   10748:	ca81c783          	lbu	a5,-856(gp) # 124b8 <FH_TUERMODUL__MFHZ>
   1074c:	02078463          	beqz	a5,10774 <generic_FH_TUERMODUL_CTRL+0x138>
   10750:	cc018a23          	sb	zero,-812(gp) # 124e4 <stable>
   10754:	ca0184a3          	sb	zero,-855(gp) # 124b9 <FH_TUERMODUL__MFHZ_copy>
   10758:	cd01a703          	lw	a4,-816(gp) # 124e0 <time>
   1075c:	c4e1a223          	sw	a4,-956(gp) # 12454 <sc_FH_TUERMODUL_CTRL_2329_1>
   10760:	00300713          	li	a4,3
   10764:	cce18d23          	sb	a4,-806(gp) # 124ea <B_FH_TUERMODUL_CTRL_next_state>
   10768:	00300713          	li	a4,3
   1076c:	cce18ea3          	sb	a4,-803(gp) # 124ed <INITIALISIERT_FH_TUERMODUL_CTRL_next_state>
   10770:	5c00006f          	j	10d30 <generic_FH_TUERMODUL_CTRL+0x6f4>
   10774:	cd61c783          	lbu	a5,-810(gp) # 124e6 <NICHT_INITIALISIERT_NICHT_INITIALISIERT_next_state>
   10778:	00300713          	li	a4,3
   1077c:	04e78c63          	beq	a5,a4,107d4 <generic_FH_TUERMODUL_CTRL+0x198>
   10780:	00300713          	li	a4,3
   10784:	08f74863          	blt	a4,a5,10814 <generic_FH_TUERMODUL_CTRL+0x1d8>
   10788:	00100713          	li	a4,1
   1078c:	00e78863          	beq	a5,a4,1079c <generic_FH_TUERMODUL_CTRL+0x160>
   10790:	00200713          	li	a4,2
   10794:	02e78263          	beq	a5,a4,107b8 <generic_FH_TUERMODUL_CTRL+0x17c>
   10798:	07c0006f          	j	10814 <generic_FH_TUERMODUL_CTRL+0x1d8>
   1079c:	ca21c783          	lbu	a5,-862(gp) # 124b2 <FH_TUERMODUL__SFHZ>
   107a0:	08079263          	bnez	a5,10824 <generic_FH_TUERMODUL_CTRL+0x1e8>
   107a4:	cc018a23          	sb	zero,-812(gp) # 124e4 <stable>
   107a8:	ca0184a3          	sb	zero,-855(gp) # 124b9 <FH_TUERMODUL__MFHZ_copy>
   107ac:	00300713          	li	a4,3
   107b0:	cce18b23          	sb	a4,-810(gp) # 124e6 <NICHT_INITIALISIERT_NICHT_INITIALISIERT_next_state>
   107b4:	0840006f          	j	10838 <generic_FH_TUERMODUL_CTRL+0x1fc>
   107b8:	ca51c783          	lbu	a5,-859(gp) # 124b5 <FH_TUERMODUL__SFHA>
   107bc:	06079863          	bnez	a5,1082c <generic_FH_TUERMODUL_CTRL+0x1f0>
   107c0:	cc018a23          	sb	zero,-812(gp) # 124e4 <stable>
   107c4:	ca018623          	sb	zero,-852(gp) # 124bc <FH_TUERMODUL__MFHA_copy>
   107c8:	00300713          	li	a4,3
   107cc:	cce18b23          	sb	a4,-810(gp) # 124e6 <NICHT_INITIALISIERT_NICHT_INITIALISIERT_next_state>
   107d0:	0680006f          	j	10838 <generic_FH_TUERMODUL_CTRL+0x1fc>
   107d4:	ca51c783          	lbu	a5,-859(gp) # 124b5 <FH_TUERMODUL__SFHA>
   107d8:	00078e63          	beqz	a5,107f4 <generic_FH_TUERMODUL_CTRL+0x1b8>
   107dc:	cc018a23          	sb	zero,-812(gp) # 124e4 <stable>
   107e0:	00100713          	li	a4,1
   107e4:	cae18623          	sb	a4,-852(gp) # 124bc <FH_TUERMODUL__MFHA_copy>
   107e8:	00200713          	li	a4,2
   107ec:	cce18b23          	sb	a4,-810(gp) # 124e6 <NICHT_INITIALISIERT_NICHT_INITIALISIERT_next_state>
   107f0:	0480006f          	j	10838 <generic_FH_TUERMODUL_CTRL+0x1fc>
   107f4:	ca21c783          	lbu	a5,-862(gp) # 124b2 <FH_TUERMODUL__SFHZ>
   107f8:	02078e63          	beqz	a5,10834 <generic_FH_TUERMODUL_CTRL+0x1f8>
   107fc:	cc018a23          	sb	zero,-812(gp) # 124e4 <stable>
   10800:	00100713          	li	a4,1
   10804:	cae184a3          	sb	a4,-855(gp) # 124b9 <FH_TUERMODUL__MFHZ_copy>
   10808:	00100713          	li	a4,1
   1080c:	cce18b23          	sb	a4,-810(gp) # 124e6 <NICHT_INITIALISIERT_NICHT_INITIALISIERT_next_state>
   10810:	0280006f          	j	10838 <generic_FH_TUERMODUL_CTRL+0x1fc>
   10814:	cc018a23          	sb	zero,-812(gp) # 124e4 <stable>
   10818:	00300713          	li	a4,3
   1081c:	cce18b23          	sb	a4,-810(gp) # 124e6 <NICHT_INITIALISIERT_NICHT_INITIALISIERT_next_state>
   10820:	0180006f          	j	10838 <generic_FH_TUERMODUL_CTRL+0x1fc>
   10824:	00000013          	nop
   10828:	5080006f          	j	10d30 <generic_FH_TUERMODUL_CTRL+0x6f4>
   1082c:	00000013          	nop
   10830:	5000006f          	j	10d30 <generic_FH_TUERMODUL_CTRL+0x6f4>
   10834:	00000013          	nop
   10838:	4f80006f          	j	10d30 <generic_FH_TUERMODUL_CTRL+0x6f4>
   1083c:	c481a703          	lw	a4,-952(gp) # 12458 <FH_TUERMODUL_CTRL__N>
   10840:	03c00793          	li	a5,60
   10844:	02e7dc63          	bge	a5,a4,1087c <generic_FH_TUERMODUL_CTRL+0x240>
   10848:	c501a703          	lw	a4,-944(gp) # 12460 <FH_TUERMODUL_CTRL__N_old>
   1084c:	03c00793          	li	a5,60
   10850:	02e7c663          	blt	a5,a4,1087c <generic_FH_TUERMODUL_CTRL+0x240>
   10854:	c921c783          	lbu	a5,-878(gp) # 124a2 <FH_TUERMODUL_CTRL__INREVERS1>
   10858:	02079263          	bnez	a5,1087c <generic_FH_TUERMODUL_CTRL+0x240>
   1085c:	c901c783          	lbu	a5,-880(gp) # 124a0 <FH_TUERMODUL_CTRL__INREVERS2>
   10860:	00079e63          	bnez	a5,1087c <generic_FH_TUERMODUL_CTRL+0x240>
   10864:	cc018a23          	sb	zero,-812(gp) # 124e4 <stable>
   10868:	ca0184a3          	sb	zero,-855(gp) # 124b9 <FH_TUERMODUL__MFHZ_copy>
   1086c:	ca018623          	sb	zero,-852(gp) # 124bc <FH_TUERMODUL__MFHA_copy>
   10870:	00100713          	li	a4,1
   10874:	cce18d23          	sb	a4,-806(gp) # 124ea <B_FH_TUERMODUL_CTRL_next_state>
   10878:	4b80006f          	j	10d30 <generic_FH_TUERMODUL_CTRL+0x6f4>
   1087c:	c9e1c783          	lbu	a5,-866(gp) # 124ae <FH_TUERMODUL__BLOCK>
   10880:	02078c63          	beqz	a5,108b8 <generic_FH_TUERMODUL_CTRL+0x27c>
   10884:	ca01c783          	lbu	a5,-864(gp) # 124b0 <FH_TUERMODUL__BLOCK_old>
   10888:	02079863          	bnez	a5,108b8 <generic_FH_TUERMODUL_CTRL+0x27c>
   1088c:	cab1c783          	lbu	a5,-853(gp) # 124bb <FH_TUERMODUL__MFHA>
   10890:	02078463          	beqz	a5,108b8 <generic_FH_TUERMODUL_CTRL+0x27c>
   10894:	cc018a23          	sb	zero,-812(gp) # 124e4 <stable>
   10898:	ca018623          	sb	zero,-852(gp) # 124bc <FH_TUERMODUL__MFHA_copy>
   1089c:	cd01a703          	lw	a4,-816(gp) # 124e0 <time>
   108a0:	c2e1ae23          	sw	a4,-964(gp) # 1244c <sc_FH_TUERMODUL_CTRL_2375_2>
   108a4:	00200713          	li	a4,2
   108a8:	cce18d23          	sb	a4,-806(gp) # 124ea <B_FH_TUERMODUL_CTRL_next_state>
   108ac:	00300713          	li	a4,3
   108b0:	cce18b23          	sb	a4,-810(gp) # 124e6 <NICHT_INITIALISIERT_NICHT_INITIALISIERT_next_state>
   108b4:	47c0006f          	j	10d30 <generic_FH_TUERMODUL_CTRL+0x6f4>
   108b8:	c9e1c783          	lbu	a5,-866(gp) # 124ae <FH_TUERMODUL__BLOCK>
   108bc:	02078c63          	beqz	a5,108f4 <generic_FH_TUERMODUL_CTRL+0x2b8>
   108c0:	ca01c783          	lbu	a5,-864(gp) # 124b0 <FH_TUERMODUL__BLOCK_old>
   108c4:	02079863          	bnez	a5,108f4 <generic_FH_TUERMODUL_CTRL+0x2b8>
   108c8:	ca81c783          	lbu	a5,-856(gp) # 124b8 <FH_TUERMODUL__MFHZ>
   108cc:	02078463          	beqz	a5,108f4 <generic_FH_TUERMODUL_CTRL+0x2b8>
   108d0:	cc018a23          	sb	zero,-812(gp) # 124e4 <stable>
   108d4:	ca0184a3          	sb	zero,-855(gp) # 124b9 <FH_TUERMODUL__MFHZ_copy>
   108d8:	cd01a703          	lw	a4,-816(gp) # 124e0 <time>
   108dc:	c4e1a023          	sw	a4,-960(gp) # 12450 <sc_FH_TUERMODUL_CTRL_2352_1>
   108e0:	00200713          	li	a4,2
   108e4:	cce18d23          	sb	a4,-806(gp) # 124ea <B_FH_TUERMODUL_CTRL_next_state>
   108e8:	00300713          	li	a4,3
   108ec:	cce18b23          	sb	a4,-810(gp) # 124e6 <NICHT_INITIALISIERT_NICHT_INITIALISIERT_next_state>
   108f0:	4400006f          	j	10d30 <generic_FH_TUERMODUL_CTRL+0x6f4>
   108f4:	cdd1c783          	lbu	a5,-803(gp) # 124ed <INITIALISIERT_FH_TUERMODUL_CTRL_next_state>
   108f8:	00300713          	li	a4,3
   108fc:	38e78063          	beq	a5,a4,10c7c <generic_FH_TUERMODUL_CTRL+0x640>
   10900:	00300713          	li	a4,3
   10904:	40f74063          	blt	a4,a5,10d04 <generic_FH_TUERMODUL_CTRL+0x6c8>
   10908:	00100713          	li	a4,1
   1090c:	00e78863          	beq	a5,a4,1091c <generic_FH_TUERMODUL_CTRL+0x2e0>
   10910:	00200713          	li	a4,2
   10914:	0ee78063          	beq	a5,a4,109f4 <generic_FH_TUERMODUL_CTRL+0x3b8>
   10918:	3ec0006f          	j	10d04 <generic_FH_TUERMODUL_CTRL+0x6c8>
   1091c:	c5c1a703          	lw	a4,-932(gp) # 1246c <FH_TUERMODUL__POSITION>
   10920:	19400793          	li	a5,404
   10924:	00e7dc63          	bge	a5,a4,1093c <generic_FH_TUERMODUL_CTRL+0x300>
   10928:	cc018a23          	sb	zero,-812(gp) # 124e4 <stable>
   1092c:	ca018623          	sb	zero,-852(gp) # 124bc <FH_TUERMODUL__MFHA_copy>
   10930:	00300713          	li	a4,3
   10934:	cce18ea3          	sb	a4,-803(gp) # 124ed <INITIALISIERT_FH_TUERMODUL_CTRL_next_state>
   10938:	3e00006f          	j	10d18 <generic_FH_TUERMODUL_CTRL+0x6dc>
   1093c:	ce01c783          	lbu	a5,-800(gp) # 124f0 <OEFFNEN_FH_TUERMODUL_CTRL_next_state>
   10940:	00100713          	li	a4,1
   10944:	00e78863          	beq	a5,a4,10954 <generic_FH_TUERMODUL_CTRL+0x318>
   10948:	00200713          	li	a4,2
   1094c:	04e78063          	beq	a5,a4,1098c <generic_FH_TUERMODUL_CTRL+0x350>
   10950:	0840006f          	j	109d4 <generic_FH_TUERMODUL_CTRL+0x398>
   10954:	ca21c783          	lbu	a5,-862(gp) # 124b2 <FH_TUERMODUL__SFHZ>
   10958:	00078663          	beqz	a5,10964 <generic_FH_TUERMODUL_CTRL+0x328>
   1095c:	ca41c783          	lbu	a5,-860(gp) # 124b4 <FH_TUERMODUL__SFHZ_old>
   10960:	00078a63          	beqz	a5,10974 <generic_FH_TUERMODUL_CTRL+0x338>
   10964:	ca51c783          	lbu	a5,-859(gp) # 124b5 <FH_TUERMODUL__SFHA>
   10968:	06078e63          	beqz	a5,109e4 <generic_FH_TUERMODUL_CTRL+0x3a8>
   1096c:	ca71c783          	lbu	a5,-857(gp) # 124b7 <FH_TUERMODUL__SFHA_old>
   10970:	06079a63          	bnez	a5,109e4 <generic_FH_TUERMODUL_CTRL+0x3a8>
   10974:	cc018a23          	sb	zero,-812(gp) # 124e4 <stable>
   10978:	ca018623          	sb	zero,-852(gp) # 124bc <FH_TUERMODUL__MFHA_copy>
   1097c:	00300713          	li	a4,3
   10980:	cce18ea3          	sb	a4,-803(gp) # 124ed <INITIALISIERT_FH_TUERMODUL_CTRL_next_state>
   10984:	ce018023          	sb	zero,-800(gp) # 124f0 <OEFFNEN_FH_TUERMODUL_CTRL_next_state>
   10988:	0680006f          	j	109f0 <generic_FH_TUERMODUL_CTRL+0x3b4>
   1098c:	ca21c783          	lbu	a5,-862(gp) # 124b2 <FH_TUERMODUL__SFHZ>
   10990:	00078e63          	beqz	a5,109ac <generic_FH_TUERMODUL_CTRL+0x370>
   10994:	ca41c783          	lbu	a5,-860(gp) # 124b4 <FH_TUERMODUL__SFHZ_old>
   10998:	00079a63          	bnez	a5,109ac <generic_FH_TUERMODUL_CTRL+0x370>
   1099c:	cc018a23          	sb	zero,-812(gp) # 124e4 <stable>
   109a0:	00100713          	li	a4,1
   109a4:	cee18023          	sb	a4,-800(gp) # 124f0 <OEFFNEN_FH_TUERMODUL_CTRL_next_state>
   109a8:	0480006f          	j	109f0 <generic_FH_TUERMODUL_CTRL+0x3b4>
   109ac:	ca51c783          	lbu	a5,-859(gp) # 124b5 <FH_TUERMODUL__SFHA>
   109b0:	02079e63          	bnez	a5,109ec <generic_FH_TUERMODUL_CTRL+0x3b0>
   109b4:	ca71c783          	lbu	a5,-857(gp) # 124b7 <FH_TUERMODUL__SFHA_old>
   109b8:	02078a63          	beqz	a5,109ec <generic_FH_TUERMODUL_CTRL+0x3b0>
   109bc:	cc018a23          	sb	zero,-812(gp) # 124e4 <stable>
   109c0:	ca018623          	sb	zero,-852(gp) # 124bc <FH_TUERMODUL__MFHA_copy>
   109c4:	00300713          	li	a4,3
   109c8:	cce18ea3          	sb	a4,-803(gp) # 124ed <INITIALISIERT_FH_TUERMODUL_CTRL_next_state>
   109cc:	ce018023          	sb	zero,-800(gp) # 124f0 <OEFFNEN_FH_TUERMODUL_CTRL_next_state>
   109d0:	0200006f          	j	109f0 <generic_FH_TUERMODUL_CTRL+0x3b4>
   109d4:	cc018a23          	sb	zero,-812(gp) # 124e4 <stable>
   109d8:	00200713          	li	a4,2
   109dc:	cee18023          	sb	a4,-800(gp) # 124f0 <OEFFNEN_FH_TUERMODUL_CTRL_next_state>
   109e0:	0100006f          	j	109f0 <generic_FH_TUERMODUL_CTRL+0x3b4>
   109e4:	00000013          	nop
   109e8:	3300006f          	j	10d18 <generic_FH_TUERMODUL_CTRL+0x6dc>
   109ec:	00000013          	nop
   109f0:	3280006f          	j	10d18 <generic_FH_TUERMODUL_CTRL+0x6dc>
   109f4:	c5c1a783          	lw	a5,-932(gp) # 1246c <FH_TUERMODUL__POSITION>
   109f8:	00f04c63          	bgtz	a5,10a10 <generic_FH_TUERMODUL_CTRL+0x3d4>
   109fc:	cc018a23          	sb	zero,-812(gp) # 124e4 <stable>
   10a00:	ca0184a3          	sb	zero,-855(gp) # 124b9 <FH_TUERMODUL__MFHZ_copy>
   10a04:	00300713          	li	a4,3
   10a08:	cce18ea3          	sb	a4,-803(gp) # 124ed <INITIALISIERT_FH_TUERMODUL_CTRL_next_state>
   10a0c:	30c0006f          	j	10d18 <generic_FH_TUERMODUL_CTRL+0x6dc>
   10a10:	ce11c783          	lbu	a5,-799(gp) # 124f1 <SCHLIESSEN_FH_TUERMODUL_CTRL_next_state>
   10a14:	00100713          	li	a4,1
   10a18:	00e78863          	beq	a5,a4,10a28 <generic_FH_TUERMODUL_CTRL+0x3ec>
   10a1c:	00200713          	li	a4,2
   10a20:	10e78663          	beq	a5,a4,10b2c <generic_FH_TUERMODUL_CTRL+0x4f0>
   10a24:	2280006f          	j	10c4c <generic_FH_TUERMODUL_CTRL+0x610>
   10a28:	ca51c783          	lbu	a5,-859(gp) # 124b5 <FH_TUERMODUL__SFHA>
   10a2c:	00078663          	beqz	a5,10a38 <generic_FH_TUERMODUL_CTRL+0x3fc>
   10a30:	ca71c783          	lbu	a5,-857(gp) # 124b7 <FH_TUERMODUL__SFHA_old>
   10a34:	00078a63          	beqz	a5,10a48 <generic_FH_TUERMODUL_CTRL+0x40c>
   10a38:	ca21c783          	lbu	a5,-862(gp) # 124b2 <FH_TUERMODUL__SFHZ>
   10a3c:	02078063          	beqz	a5,10a5c <generic_FH_TUERMODUL_CTRL+0x420>
   10a40:	ca41c783          	lbu	a5,-860(gp) # 124b4 <FH_TUERMODUL__SFHZ_old>
   10a44:	00079c63          	bnez	a5,10a5c <generic_FH_TUERMODUL_CTRL+0x420>
   10a48:	cc018a23          	sb	zero,-812(gp) # 124e4 <stable>
   10a4c:	ca0184a3          	sb	zero,-855(gp) # 124b9 <FH_TUERMODUL__MFHZ_copy>
   10a50:	00300713          	li	a4,3
   10a54:	cce18ea3          	sb	a4,-803(gp) # 124ed <INITIALISIERT_FH_TUERMODUL_CTRL_next_state>
   10a58:	2200006f          	j	10c78 <generic_FH_TUERMODUL_CTRL+0x63c>
   10a5c:	cde1c783          	lbu	a5,-802(gp) # 124ee <TIPP_SCHLIESSEN_FH_TUERMODUL_CTRL_next_state>
   10a60:	00100713          	li	a4,1
   10a64:	00e78863          	beq	a5,a4,10a74 <generic_FH_TUERMODUL_CTRL+0x438>
   10a68:	00200713          	li	a4,2
   10a6c:	04e78463          	beq	a5,a4,10ab4 <generic_FH_TUERMODUL_CTRL+0x478>
   10a70:	0900006f          	j	10b00 <generic_FH_TUERMODUL_CTRL+0x4c4>
   10a74:	d0418793          	addi	a5,gp,-764 # 12514 <Bitlist>
   10a78:	00078ba3          	sb	zero,23(a5)
   10a7c:	d0418793          	addi	a5,gp,-764 # 12514 <Bitlist>
   10a80:	0167c783          	lbu	a5,22(a5)
   10a84:	08078c63          	beqz	a5,10b1c <generic_FH_TUERMODUL_CTRL+0x4e0>
   10a88:	cc018a23          	sb	zero,-812(gp) # 124e4 <stable>
   10a8c:	00100713          	li	a4,1
   10a90:	cae184a3          	sb	a4,-855(gp) # 124b9 <FH_TUERMODUL__MFHZ_copy>
   10a94:	c80188a3          	sb	zero,-879(gp) # 124a1 <FH_TUERMODUL_CTRL__INREVERS2_copy>
   10a98:	00200713          	li	a4,2
   10a9c:	cce18f23          	sb	a4,-802(gp) # 124ee <TIPP_SCHLIESSEN_FH_TUERMODUL_CTRL_next_state>
   10aa0:	ca018623          	sb	zero,-852(gp) # 124bc <FH_TUERMODUL__MFHA_copy>
   10aa4:	d0418793          	addi	a5,gp,-764 # 12514 <Bitlist>
   10aa8:	00100713          	li	a4,1
   10aac:	00e788a3          	sb	a4,17(a5)
   10ab0:	0780006f          	j	10b28 <generic_FH_TUERMODUL_CTRL+0x4ec>
   10ab4:	d0418793          	addi	a5,gp,-764 # 12514 <Bitlist>
   10ab8:	0187c783          	lbu	a5,24(a5)
   10abc:	06078463          	beqz	a5,10b24 <generic_FH_TUERMODUL_CTRL+0x4e8>
   10ac0:	cc018a23          	sb	zero,-812(gp) # 124e4 <stable>
   10ac4:	00100713          	li	a4,1
   10ac8:	c8e188a3          	sb	a4,-879(gp) # 124a1 <FH_TUERMODUL_CTRL__INREVERS2_copy>
   10acc:	d0418793          	addi	a5,gp,-764 # 12514 <Bitlist>
   10ad0:	00100713          	li	a4,1
   10ad4:	00e78ba3          	sb	a4,23(a5)
   10ad8:	00100713          	li	a4,1
   10adc:	cce18f23          	sb	a4,-802(gp) # 124ee <TIPP_SCHLIESSEN_FH_TUERMODUL_CTRL_next_state>
   10ae0:	d0418793          	addi	a5,gp,-764 # 12514 <Bitlist>
   10ae4:	000788a3          	sb	zero,17(a5)
   10ae8:	ca0184a3          	sb	zero,-855(gp) # 124b9 <FH_TUERMODUL__MFHZ_copy>
   10aec:	cd01a703          	lw	a4,-816(gp) # 124e0 <time>
   10af0:	c4e1aa23          	sw	a4,-940(gp) # 12464 <sc_FH_TUERMODUL_CTRL_1781_10>
   10af4:	00100713          	li	a4,1
   10af8:	cae18623          	sb	a4,-852(gp) # 124bc <FH_TUERMODUL__MFHA_copy>
   10afc:	02c0006f          	j	10b28 <generic_FH_TUERMODUL_CTRL+0x4ec>
   10b00:	cc018a23          	sb	zero,-812(gp) # 124e4 <stable>
   10b04:	00200713          	li	a4,2
   10b08:	cce18f23          	sb	a4,-802(gp) # 124ee <TIPP_SCHLIESSEN_FH_TUERMODUL_CTRL_next_state>
   10b0c:	d0418793          	addi	a5,gp,-764 # 12514 <Bitlist>
   10b10:	00100713          	li	a4,1
   10b14:	00e788a3          	sb	a4,17(a5)
   10b18:	0100006f          	j	10b28 <generic_FH_TUERMODUL_CTRL+0x4ec>
   10b1c:	00000013          	nop
   10b20:	1580006f          	j	10c78 <generic_FH_TUERMODUL_CTRL+0x63c>
   10b24:	00000013          	nop
   10b28:	1500006f          	j	10c78 <generic_FH_TUERMODUL_CTRL+0x63c>
   10b2c:	ca21c783          	lbu	a5,-862(gp) # 124b2 <FH_TUERMODUL__SFHZ>
   10b30:	02079063          	bnez	a5,10b50 <generic_FH_TUERMODUL_CTRL+0x514>
   10b34:	ca41c783          	lbu	a5,-860(gp) # 124b4 <FH_TUERMODUL__SFHZ_old>
   10b38:	00078c63          	beqz	a5,10b50 <generic_FH_TUERMODUL_CTRL+0x514>
   10b3c:	cc018a23          	sb	zero,-812(gp) # 124e4 <stable>
   10b40:	ca0184a3          	sb	zero,-855(gp) # 124b9 <FH_TUERMODUL__MFHZ_copy>
   10b44:	00300713          	li	a4,3
   10b48:	cce18ea3          	sb	a4,-803(gp) # 124ed <INITIALISIERT_FH_TUERMODUL_CTRL_next_state>
   10b4c:	12c0006f          	j	10c78 <generic_FH_TUERMODUL_CTRL+0x63c>
   10b50:	cdf1c783          	lbu	a5,-801(gp) # 124ef <MANUELL_SCHLIESSEN_FH_TUERMODUL_CTRL_next_state>
   10b54:	00100713          	li	a4,1
   10b58:	00e78863          	beq	a5,a4,10b68 <generic_FH_TUERMODUL_CTRL+0x52c>
   10b5c:	00200713          	li	a4,2
   10b60:	04e78463          	beq	a5,a4,10ba8 <generic_FH_TUERMODUL_CTRL+0x56c>
   10b64:	0b40006f          	j	10c18 <generic_FH_TUERMODUL_CTRL+0x5dc>
   10b68:	d0418793          	addi	a5,gp,-764 # 12514 <Bitlist>
   10b6c:	00078ba3          	sb	zero,23(a5)
   10b70:	d0418793          	addi	a5,gp,-764 # 12514 <Bitlist>
   10b74:	0167c783          	lbu	a5,22(a5)
   10b78:	0c078263          	beqz	a5,10c3c <generic_FH_TUERMODUL_CTRL+0x600>
   10b7c:	cc018a23          	sb	zero,-812(gp) # 124e4 <stable>
   10b80:	c80189a3          	sb	zero,-877(gp) # 124a3 <FH_TUERMODUL_CTRL__INREVERS1_copy>
   10b84:	00200713          	li	a4,2
   10b88:	cce18fa3          	sb	a4,-801(gp) # 124ef <MANUELL_SCHLIESSEN_FH_TUERMODUL_CTRL_next_state>
   10b8c:	ca018623          	sb	zero,-852(gp) # 124bc <FH_TUERMODUL__MFHA_copy>
   10b90:	d0418793          	addi	a5,gp,-764 # 12514 <Bitlist>
   10b94:	00100713          	li	a4,1
   10b98:	00e788a3          	sb	a4,17(a5)
   10b9c:	00100713          	li	a4,1
   10ba0:	cae184a3          	sb	a4,-855(gp) # 124b9 <FH_TUERMODUL__MFHZ_copy>
   10ba4:	0a40006f          	j	10c48 <generic_FH_TUERMODUL_CTRL+0x60c>
   10ba8:	d0418793          	addi	a5,gp,-764 # 12514 <Bitlist>
   10bac:	0187c783          	lbu	a5,24(a5)
   10bb0:	04078263          	beqz	a5,10bf4 <generic_FH_TUERMODUL_CTRL+0x5b8>
   10bb4:	cc018a23          	sb	zero,-812(gp) # 124e4 <stable>
   10bb8:	ca0184a3          	sb	zero,-855(gp) # 124b9 <FH_TUERMODUL__MFHZ_copy>
   10bbc:	00100713          	li	a4,1
   10bc0:	c8e189a3          	sb	a4,-877(gp) # 124a3 <FH_TUERMODUL_CTRL__INREVERS1_copy>
   10bc4:	d0418793          	addi	a5,gp,-764 # 12514 <Bitlist>
   10bc8:	00100713          	li	a4,1
   10bcc:	00e78ba3          	sb	a4,23(a5)
   10bd0:	00100713          	li	a4,1
   10bd4:	cce18fa3          	sb	a4,-801(gp) # 124ef <MANUELL_SCHLIESSEN_FH_TUERMODUL_CTRL_next_state>
   10bd8:	d0418793          	addi	a5,gp,-764 # 12514 <Bitlist>
   10bdc:	000788a3          	sb	zero,17(a5)
   10be0:	cd01a703          	lw	a4,-816(gp) # 124e0 <time>
   10be4:	c4e1ac23          	sw	a4,-936(gp) # 12468 <sc_FH_TUERMODUL_CTRL_1739_10>
   10be8:	00100713          	li	a4,1
   10bec:	cae18623          	sb	a4,-852(gp) # 124bc <FH_TUERMODUL__MFHA_copy>
   10bf0:	0580006f          	j	10c48 <generic_FH_TUERMODUL_CTRL+0x60c>
   10bf4:	ca51c783          	lbu	a5,-859(gp) # 124b5 <FH_TUERMODUL__SFHA>
   10bf8:	04078663          	beqz	a5,10c44 <generic_FH_TUERMODUL_CTRL+0x608>
   10bfc:	ca71c783          	lbu	a5,-857(gp) # 124b7 <FH_TUERMODUL__SFHA_old>
   10c00:	04079263          	bnez	a5,10c44 <generic_FH_TUERMODUL_CTRL+0x608>
   10c04:	cc018a23          	sb	zero,-812(gp) # 124e4 <stable>
   10c08:	00100713          	li	a4,1
   10c0c:	cee180a3          	sb	a4,-799(gp) # 124f1 <SCHLIESSEN_FH_TUERMODUL_CTRL_next_state>
   10c10:	cc018fa3          	sb	zero,-801(gp) # 124ef <MANUELL_SCHLIESSEN_FH_TUERMODUL_CTRL_next_state>
   10c14:	0340006f          	j	10c48 <generic_FH_TUERMODUL_CTRL+0x60c>
   10c18:	cc018a23          	sb	zero,-812(gp) # 124e4 <stable>
   10c1c:	00200713          	li	a4,2
   10c20:	cce18fa3          	sb	a4,-801(gp) # 124ef <MANUELL_SCHLIESSEN_FH_TUERMODUL_CTRL_next_state>
   10c24:	d0418793          	addi	a5,gp,-764 # 12514 <Bitlist>
   10c28:	00100713          	li	a4,1
   10c2c:	00e788a3          	sb	a4,17(a5)
   10c30:	00100713          	li	a4,1
   10c34:	cae184a3          	sb	a4,-855(gp) # 124b9 <FH_TUERMODUL__MFHZ_copy>
   10c38:	0100006f          	j	10c48 <generic_FH_TUERMODUL_CTRL+0x60c>
   10c3c:	00000013          	nop
   10c40:	0380006f          	j	10c78 <generic_FH_TUERMODUL_CTRL+0x63c>
   10c44:	00000013          	nop
   10c48:	0300006f          	j	10c78 <generic_FH_TUERMODUL_CTRL+0x63c>
   10c4c:	cc018a23          	sb	zero,-812(gp) # 124e4 <stable>
   10c50:	00200713          	li	a4,2
   10c54:	cee180a3          	sb	a4,-799(gp) # 124f1 <SCHLIESSEN_FH_TUERMODUL_CTRL_next_state>
   10c58:	00200713          	li	a4,2
   10c5c:	cce18fa3          	sb	a4,-801(gp) # 124ef <MANUELL_SCHLIESSEN_FH_TUERMODUL_CTRL_next_state>
   10c60:	d0418793          	addi	a5,gp,-764 # 12514 <Bitlist>
   10c64:	00100713          	li	a4,1
   10c68:	00e788a3          	sb	a4,17(a5)
   10c6c:	00100713          	li	a4,1
   10c70:	cae184a3          	sb	a4,-855(gp) # 124b9 <FH_TUERMODUL__MFHZ_copy>
   10c74:	00000013          	nop
   10c78:	0a00006f          	j	10d18 <generic_FH_TUERMODUL_CTRL+0x6dc>
   10c7c:	ca21c783          	lbu	a5,-862(gp) # 124b2 <FH_TUERMODUL__SFHZ>
   10c80:	04078463          	beqz	a5,10cc8 <generic_FH_TUERMODUL_CTRL+0x68c>
   10c84:	ca41c783          	lbu	a5,-860(gp) # 124b4 <FH_TUERMODUL__SFHZ_old>
   10c88:	04079063          	bnez	a5,10cc8 <generic_FH_TUERMODUL_CTRL+0x68c>
   10c8c:	c5c1a783          	lw	a5,-932(gp) # 1246c <FH_TUERMODUL__POSITION>
   10c90:	02f05c63          	blez	a5,10cc8 <generic_FH_TUERMODUL_CTRL+0x68c>
   10c94:	cc018a23          	sb	zero,-812(gp) # 124e4 <stable>
   10c98:	00200713          	li	a4,2
   10c9c:	cce18ea3          	sb	a4,-803(gp) # 124ed <INITIALISIERT_FH_TUERMODUL_CTRL_next_state>
   10ca0:	00200713          	li	a4,2
   10ca4:	cee180a3          	sb	a4,-799(gp) # 124f1 <SCHLIESSEN_FH_TUERMODUL_CTRL_next_state>
   10ca8:	00200713          	li	a4,2
   10cac:	cce18fa3          	sb	a4,-801(gp) # 124ef <MANUELL_SCHLIESSEN_FH_TUERMODUL_CTRL_next_state>
   10cb0:	d0418793          	addi	a5,gp,-764 # 12514 <Bitlist>
   10cb4:	00100713          	li	a4,1
   10cb8:	00e788a3          	sb	a4,17(a5)
   10cbc:	00100713          	li	a4,1
   10cc0:	cae184a3          	sb	a4,-855(gp) # 124b9 <FH_TUERMODUL__MFHZ_copy>
   10cc4:	0540006f          	j	10d18 <generic_FH_TUERMODUL_CTRL+0x6dc>
   10cc8:	ca51c783          	lbu	a5,-859(gp) # 124b5 <FH_TUERMODUL__SFHA>
   10ccc:	04078463          	beqz	a5,10d14 <generic_FH_TUERMODUL_CTRL+0x6d8>
   10cd0:	ca71c783          	lbu	a5,-857(gp) # 124b7 <FH_TUERMODUL__SFHA_old>
   10cd4:	04079063          	bnez	a5,10d14 <generic_FH_TUERMODUL_CTRL+0x6d8>
   10cd8:	c5c1a703          	lw	a4,-932(gp) # 1246c <FH_TUERMODUL__POSITION>
   10cdc:	19400793          	li	a5,404
   10ce0:	02e7ca63          	blt	a5,a4,10d14 <generic_FH_TUERMODUL_CTRL+0x6d8>
   10ce4:	cc018a23          	sb	zero,-812(gp) # 124e4 <stable>
   10ce8:	00100713          	li	a4,1
   10cec:	cae18623          	sb	a4,-852(gp) # 124bc <FH_TUERMODUL__MFHA_copy>
   10cf0:	00100713          	li	a4,1
   10cf4:	cce18ea3          	sb	a4,-803(gp) # 124ed <INITIALISIERT_FH_TUERMODUL_CTRL_next_state>
   10cf8:	00200713          	li	a4,2
   10cfc:	cee18023          	sb	a4,-800(gp) # 124f0 <OEFFNEN_FH_TUERMODUL_CTRL_next_state>
   10d00:	0180006f          	j	10d18 <generic_FH_TUERMODUL_CTRL+0x6dc>
   10d04:	cc018a23          	sb	zero,-812(gp) # 124e4 <stable>
   10d08:	00300713          	li	a4,3
   10d0c:	cce18ea3          	sb	a4,-803(gp) # 124ed <INITIALISIERT_FH_TUERMODUL_CTRL_next_state>
   10d10:	0080006f          	j	10d18 <generic_FH_TUERMODUL_CTRL+0x6dc>
   10d14:	00000013          	nop
   10d18:	0180006f          	j	10d30 <generic_FH_TUERMODUL_CTRL+0x6f4>
   10d1c:	cc018a23          	sb	zero,-812(gp) # 124e4 <stable>
   10d20:	00200713          	li	a4,2
   10d24:	cce18d23          	sb	a4,-806(gp) # 124ea <B_FH_TUERMODUL_CTRL_next_state>
   10d28:	0080006f          	j	10d30 <generic_FH_TUERMODUL_CTRL+0x6f4>
   10d2c:	00000013          	nop
   10d30:	cdb1c783          	lbu	a5,-805(gp) # 124eb <A_FH_TUERMODUL_CTRL_next_state>
   10d34:	00078713          	mv	a4,a5
   10d38:	00100793          	li	a5,1
   10d3c:	10f71263          	bne	a4,a5,10e40 <generic_FH_TUERMODUL_CTRL+0x804>
   10d40:	d0418793          	addi	a5,gp,-764 # 12514 <Bitlist>
   10d44:	000782a3          	sb	zero,5(a5)
   10d48:	cd51c703          	lbu	a4,-811(gp) # 124e5 <step>
   10d4c:	00100793          	li	a5,1
   10d50:	06f71063          	bne	a4,a5,10db0 <generic_FH_TUERMODUL_CTRL+0x774>
   10d54:	c341a783          	lw	a5,-972(gp) # 12444 <tm_entered_WIEDERHOLSPERRE_FH_TUERMODUL_CTRLexited_BEREIT_FH_TUERMODUL_CTRL>
   10d58:	04078c63          	beqz	a5,10db0 <generic_FH_TUERMODUL_CTRL+0x774>
   10d5c:	cd01a703          	lw	a4,-816(gp) # 124e0 <time>
   10d60:	c341a783          	lw	a5,-972(gp) # 12444 <tm_entered_WIEDERHOLSPERRE_FH_TUERMODUL_CTRLexited_BEREIT_FH_TUERMODUL_CTRL>
   10d64:	40f70733          	sub	a4,a4,a5
   10d68:	00100793          	li	a5,1
   10d6c:	04f71263          	bne	a4,a5,10db0 <generic_FH_TUERMODUL_CTRL+0x774>
   10d70:	ca81c783          	lbu	a5,-856(gp) # 124b8 <FH_TUERMODUL__MFHZ>
   10d74:	00079663          	bnez	a5,10d80 <generic_FH_TUERMODUL_CTRL+0x744>
   10d78:	cab1c783          	lbu	a5,-853(gp) # 124bb <FH_TUERMODUL__MFHA>
   10d7c:	02078a63          	beqz	a5,10db0 <generic_FH_TUERMODUL_CTRL+0x774>
   10d80:	cc018a23          	sb	zero,-812(gp) # 124e4 <stable>
   10d84:	c481a783          	lw	a5,-952(gp) # 12458 <FH_TUERMODUL_CTRL__N>
   10d88:	00178713          	addi	a4,a5,1
   10d8c:	c4e1a423          	sw	a4,-952(gp) # 12458 <FH_TUERMODUL_CTRL__N>
   10d90:	00100713          	li	a4,1
   10d94:	cce18da3          	sb	a4,-805(gp) # 124eb <A_FH_TUERMODUL_CTRL_next_state>
   10d98:	d0418793          	addi	a5,gp,-764 # 12514 <Bitlist>
   10d9c:	00100713          	li	a4,1
   10da0:	00e782a3          	sb	a4,5(a5)
   10da4:	00100713          	li	a4,1
   10da8:	cce18e23          	sb	a4,-804(gp) # 124ec <WIEDERHOLSPERRE_FH_TUERMODUL_CTRL_next_state>
   10dac:	0bc0006f          	j	10e68 <generic_FH_TUERMODUL_CTRL+0x82c>
   10db0:	cdc1c783          	lbu	a5,-804(gp) # 124ec <WIEDERHOLSPERRE_FH_TUERMODUL_CTRL_next_state>
   10db4:	00078713          	mv	a4,a5
   10db8:	00100793          	li	a5,1
   10dbc:	06f71063          	bne	a4,a5,10e1c <generic_FH_TUERMODUL_CTRL+0x7e0>
   10dc0:	cd51c703          	lbu	a4,-811(gp) # 124e5 <step>
   10dc4:	00100793          	li	a5,1
   10dc8:	06f71863          	bne	a4,a5,10e38 <generic_FH_TUERMODUL_CTRL+0x7fc>
   10dcc:	c381a783          	lw	a5,-968(gp) # 12448 <tm_entered_WIEDERHOLSPERRE_FH_TUERMODUL_CTRL>
   10dd0:	06078463          	beqz	a5,10e38 <generic_FH_TUERMODUL_CTRL+0x7fc>
   10dd4:	cd01a703          	lw	a4,-816(gp) # 124e0 <time>
   10dd8:	c381a783          	lw	a5,-968(gp) # 12448 <tm_entered_WIEDERHOLSPERRE_FH_TUERMODUL_CTRL>
   10ddc:	40f70733          	sub	a4,a4,a5
   10de0:	00300793          	li	a5,3
   10de4:	04f71a63          	bne	a4,a5,10e38 <generic_FH_TUERMODUL_CTRL+0x7fc>
   10de8:	ca81c783          	lbu	a5,-856(gp) # 124b8 <FH_TUERMODUL__MFHZ>
   10dec:	04079663          	bnez	a5,10e38 <generic_FH_TUERMODUL_CTRL+0x7fc>
   10df0:	cab1c783          	lbu	a5,-853(gp) # 124bb <FH_TUERMODUL__MFHA>
   10df4:	04079263          	bnez	a5,10e38 <generic_FH_TUERMODUL_CTRL+0x7fc>
   10df8:	c481a783          	lw	a5,-952(gp) # 12458 <FH_TUERMODUL_CTRL__N>
   10dfc:	02f05e63          	blez	a5,10e38 <generic_FH_TUERMODUL_CTRL+0x7fc>
   10e00:	cc018a23          	sb	zero,-812(gp) # 124e4 <stable>
   10e04:	c481a783          	lw	a5,-952(gp) # 12458 <FH_TUERMODUL_CTRL__N>
   10e08:	fff78713          	addi	a4,a5,-1
   10e0c:	c4e1a423          	sw	a4,-952(gp) # 12458 <FH_TUERMODUL_CTRL__N>
   10e10:	00100713          	li	a4,1
   10e14:	cce18e23          	sb	a4,-804(gp) # 124ec <WIEDERHOLSPERRE_FH_TUERMODUL_CTRL_next_state>
   10e18:	0240006f          	j	10e3c <generic_FH_TUERMODUL_CTRL+0x800>
   10e1c:	cc018a23          	sb	zero,-812(gp) # 124e4 <stable>
   10e20:	d0418793          	addi	a5,gp,-764 # 12514 <Bitlist>
   10e24:	00100713          	li	a4,1
   10e28:	00e782a3          	sb	a4,5(a5)
   10e2c:	00100713          	li	a4,1
   10e30:	cce18e23          	sb	a4,-804(gp) # 124ec <WIEDERHOLSPERRE_FH_TUERMODUL_CTRL_next_state>
   10e34:	0080006f          	j	10e3c <generic_FH_TUERMODUL_CTRL+0x800>
   10e38:	00000013          	nop
   10e3c:	02c0006f          	j	10e68 <generic_FH_TUERMODUL_CTRL+0x82c>
   10e40:	cc018a23          	sb	zero,-812(gp) # 124e4 <stable>
   10e44:	c401a423          	sw	zero,-952(gp) # 12458 <FH_TUERMODUL_CTRL__N>
   10e48:	00100713          	li	a4,1
   10e4c:	cce18da3          	sb	a4,-805(gp) # 124eb <A_FH_TUERMODUL_CTRL_next_state>
   10e50:	d0418793          	addi	a5,gp,-764 # 12514 <Bitlist>
   10e54:	00100713          	li	a4,1
   10e58:	00e782a3          	sb	a4,5(a5)
   10e5c:	00100713          	li	a4,1
   10e60:	cce18e23          	sb	a4,-804(gp) # 124ec <WIEDERHOLSPERRE_FH_TUERMODUL_CTRL_next_state>
   10e64:	00000013          	nop
   10e68:	d0418793          	addi	a5,gp,-764 # 12514 <Bitlist>
   10e6c:	0047c703          	lbu	a4,4(a5)
   10e70:	d0418793          	addi	a5,gp,-764 # 12514 <Bitlist>
   10e74:	00e782a3          	sb	a4,5(a5)
   10e78:	d0418793          	addi	a5,gp,-764 # 12514 <Bitlist>
   10e7c:	0067c703          	lbu	a4,6(a5)
   10e80:	d0418793          	addi	a5,gp,-764 # 12514 <Bitlist>
   10e84:	00e783a3          	sb	a4,7(a5)
   10e88:	00000013          	nop
   10e8c:	00c12403          	lw	s0,12(sp)
   10e90:	01010113          	addi	sp,sp,16
   10e94:	00008067          	ret

00010e98 <generic_EINKLEMMSCHUTZ_CTRL>:
   10e98:	ff010113          	addi	sp,sp,-16
   10e9c:	00812623          	sw	s0,12(sp)
   10ea0:	01010413          	addi	s0,sp,16
   10ea4:	d0418793          	addi	a5,gp,-764 # 12514 <Bitlist>
   10ea8:	0107c783          	lbu	a5,16(a5)
   10eac:	08078e63          	beqz	a5,10f48 <generic_EINKLEMMSCHUTZ_CTRL+0xb0>
   10eb0:	ce31c783          	lbu	a5,-797(gp) # 124f3 <EINKLEMMSCHUTZ_CTRL_EINKLEMMSCHUTZ_CTRL_next_state>
   10eb4:	00100713          	li	a4,1
   10eb8:	00e78863          	beq	a5,a4,10ec8 <generic_EINKLEMMSCHUTZ_CTRL+0x30>
   10ebc:	00200713          	li	a4,2
   10ec0:	04e78263          	beq	a5,a4,10f04 <generic_EINKLEMMSCHUTZ_CTRL+0x6c>
   10ec4:	0680006f          	j	10f2c <generic_EINKLEMMSCHUTZ_CTRL+0x94>
   10ec8:	cae1c783          	lbu	a5,-850(gp) # 124be <FH_TUERMODUL__EKS_LEISTE_AKTIV>
   10ecc:	06078863          	beqz	a5,10f3c <generic_EINKLEMMSCHUTZ_CTRL+0xa4>
   10ed0:	caf1c783          	lbu	a5,-849(gp) # 124bf <FH_TUERMODUL__EKS_LEISTE_AKTIV_old>
   10ed4:	06079463          	bnez	a5,10f3c <generic_EINKLEMMSCHUTZ_CTRL+0xa4>
   10ed8:	ca21c783          	lbu	a5,-862(gp) # 124b2 <FH_TUERMODUL__SFHZ>
   10edc:	00078663          	beqz	a5,10ee8 <generic_EINKLEMMSCHUTZ_CTRL+0x50>
   10ee0:	ca51c783          	lbu	a5,-859(gp) # 124b5 <FH_TUERMODUL__SFHA>
   10ee4:	04079c63          	bnez	a5,10f3c <generic_EINKLEMMSCHUTZ_CTRL+0xa4>
   10ee8:	cc018a23          	sb	zero,-812(gp) # 124e4 <stable>
   10eec:	d0418793          	addi	a5,gp,-764 # 12514 <Bitlist>
   10ef0:	00100713          	li	a4,1
   10ef4:	00e78c23          	sb	a4,24(a5)
   10ef8:	00200713          	li	a4,2
   10efc:	cee181a3          	sb	a4,-797(gp) # 124f3 <EINKLEMMSCHUTZ_CTRL_EINKLEMMSCHUTZ_CTRL_next_state>
   10f00:	0480006f          	j	10f48 <generic_EINKLEMMSCHUTZ_CTRL+0xb0>
   10f04:	d0418793          	addi	a5,gp,-764 # 12514 <Bitlist>
   10f08:	00078c23          	sb	zero,24(a5)
   10f0c:	cae1c783          	lbu	a5,-850(gp) # 124be <FH_TUERMODUL__EKS_LEISTE_AKTIV>
   10f10:	02079a63          	bnez	a5,10f44 <generic_EINKLEMMSCHUTZ_CTRL+0xac>
   10f14:	caf1c783          	lbu	a5,-849(gp) # 124bf <FH_TUERMODUL__EKS_LEISTE_AKTIV_old>
   10f18:	02078663          	beqz	a5,10f44 <generic_EINKLEMMSCHUTZ_CTRL+0xac>
   10f1c:	cc018a23          	sb	zero,-812(gp) # 124e4 <stable>
   10f20:	00100713          	li	a4,1
   10f24:	cee181a3          	sb	a4,-797(gp) # 124f3 <EINKLEMMSCHUTZ_CTRL_EINKLEMMSCHUTZ_CTRL_next_state>
   10f28:	0200006f          	j	10f48 <generic_EINKLEMMSCHUTZ_CTRL+0xb0>
   10f2c:	cc018a23          	sb	zero,-812(gp) # 124e4 <stable>
   10f30:	00100713          	li	a4,1
   10f34:	cee181a3          	sb	a4,-797(gp) # 124f3 <EINKLEMMSCHUTZ_CTRL_EINKLEMMSCHUTZ_CTRL_next_state>
   10f38:	0100006f          	j	10f48 <generic_EINKLEMMSCHUTZ_CTRL+0xb0>
   10f3c:	00000013          	nop
   10f40:	0080006f          	j	10f48 <generic_EINKLEMMSCHUTZ_CTRL+0xb0>
   10f44:	00000013          	nop
   10f48:	00000013          	nop
   10f4c:	00c12403          	lw	s0,12(sp)
   10f50:	01010113          	addi	sp,sp,16
   10f54:	00008067          	ret

00010f58 <generic_BLOCK_ERKENNUNG_CTRL>:
   10f58:	ff010113          	addi	sp,sp,-16
   10f5c:	00812623          	sw	s0,12(sp)
   10f60:	01010413          	addi	s0,sp,16
   10f64:	d0418793          	addi	a5,gp,-764 # 12514 <Bitlist>
   10f68:	0137c783          	lbu	a5,19(a5)
   10f6c:	02079263          	bnez	a5,10f90 <generic_BLOCK_ERKENNUNG_CTRL+0x38>
   10f70:	d0418793          	addi	a5,gp,-764 # 12514 <Bitlist>
   10f74:	0157c783          	lbu	a5,21(a5)
   10f78:	00078c63          	beqz	a5,10f90 <generic_BLOCK_ERKENNUNG_CTRL+0x38>
   10f7c:	d0418793          	addi	a5,gp,-764 # 12514 <Bitlist>
   10f80:	0147c783          	lbu	a5,20(a5)
   10f84:	00079663          	bnez	a5,10f90 <generic_BLOCK_ERKENNUNG_CTRL+0x38>
   10f88:	d0418793          	addi	a5,gp,-764 # 12514 <Bitlist>
   10f8c:	00078023          	sb	zero,0(a5)
   10f90:	d0418793          	addi	a5,gp,-764 # 12514 <Bitlist>
   10f94:	0137c783          	lbu	a5,19(a5)
   10f98:	16078463          	beqz	a5,11100 <generic_BLOCK_ERKENNUNG_CTRL+0x1a8>
   10f9c:	ce51c783          	lbu	a5,-795(gp) # 124f5 <BLOCK_ERKENNUNG_CTRL_BLOCK_ERKENNUNG_CTRL_next_state>
   10fa0:	00100713          	li	a4,1
   10fa4:	00e78863          	beq	a5,a4,10fb4 <generic_BLOCK_ERKENNUNG_CTRL+0x5c>
   10fa8:	00200713          	li	a4,2
   10fac:	04e78863          	beq	a5,a4,10ffc <generic_BLOCK_ERKENNUNG_CTRL+0xa4>
   10fb0:	13c0006f          	j	110ec <generic_BLOCK_ERKENNUNG_CTRL+0x194>
   10fb4:	c601a703          	lw	a4,-928(gp) # 12470 <FH_TUERMODUL__I_EIN>
   10fb8:	c641a783          	lw	a5,-924(gp) # 12474 <FH_TUERMODUL__I_EIN_old>
   10fbc:	14f70063          	beq	a4,a5,110fc <generic_BLOCK_ERKENNUNG_CTRL+0x1a4>
   10fc0:	c601a783          	lw	a5,-928(gp) # 12470 <FH_TUERMODUL__I_EIN>
   10fc4:	12f05c63          	blez	a5,110fc <generic_BLOCK_ERKENNUNG_CTRL+0x1a4>
   10fc8:	cc018a23          	sb	zero,-812(gp) # 124e4 <stable>
   10fcc:	c8018fa3          	sb	zero,-865(gp) # 124af <FH_TUERMODUL__BLOCK_copy>
   10fd0:	00200713          	li	a4,2
   10fd4:	cee182a3          	sb	a4,-795(gp) # 124f5 <BLOCK_ERKENNUNG_CTRL_BLOCK_ERKENNUNG_CTRL_next_state>
   10fd8:	c801a223          	sw	zero,-892(gp) # 12494 <BLOCK_ERKENNUNG_CTRL__N>
   10fdc:	00200713          	li	a4,2
   10fe0:	c6e1ae23          	sw	a4,-900(gp) # 1248c <BLOCK_ERKENNUNG_CTRL__I_EIN_MAX>
   10fe4:	00300713          	li	a4,3
   10fe8:	cee18223          	sb	a4,-796(gp) # 124f4 <BEWEGUNG_BLOCK_ERKENNUNG_CTRL_next_state>
   10fec:	d0418793          	addi	a5,gp,-764 # 12514 <Bitlist>
   10ff0:	00100713          	li	a4,1
   10ff4:	00e78023          	sb	a4,0(a5)
   10ff8:	1080006f          	j	11100 <generic_BLOCK_ERKENNUNG_CTRL+0x1a8>
   10ffc:	cab1c783          	lbu	a5,-853(gp) # 124bb <FH_TUERMODUL__MFHA>
   11000:	00079663          	bnez	a5,1100c <generic_BLOCK_ERKENNUNG_CTRL+0xb4>
   11004:	cad1c783          	lbu	a5,-851(gp) # 124bd <FH_TUERMODUL__MFHA_old>
   11008:	00079a63          	bnez	a5,1101c <generic_BLOCK_ERKENNUNG_CTRL+0xc4>
   1100c:	ca81c783          	lbu	a5,-856(gp) # 124b8 <FH_TUERMODUL__MFHZ>
   11010:	02079063          	bnez	a5,11030 <generic_BLOCK_ERKENNUNG_CTRL+0xd8>
   11014:	caa1c783          	lbu	a5,-854(gp) # 124ba <FH_TUERMODUL__MFHZ_old>
   11018:	00078c63          	beqz	a5,11030 <generic_BLOCK_ERKENNUNG_CTRL+0xd8>
   1101c:	cc018a23          	sb	zero,-812(gp) # 124e4 <stable>
   11020:	00100713          	li	a4,1
   11024:	cee182a3          	sb	a4,-795(gp) # 124f5 <BLOCK_ERKENNUNG_CTRL_BLOCK_ERKENNUNG_CTRL_next_state>
   11028:	ce018223          	sb	zero,-796(gp) # 124f4 <BEWEGUNG_BLOCK_ERKENNUNG_CTRL_next_state>
   1102c:	0d40006f          	j	11100 <generic_BLOCK_ERKENNUNG_CTRL+0x1a8>
   11030:	ce41c783          	lbu	a5,-796(gp) # 124f4 <BEWEGUNG_BLOCK_ERKENNUNG_CTRL_next_state>
   11034:	00300713          	li	a4,3
   11038:	04e78263          	beq	a5,a4,1107c <generic_BLOCK_ERKENNUNG_CTRL+0x124>
   1103c:	00300713          	li	a4,3
   11040:	06f74663          	blt	a4,a5,110ac <generic_BLOCK_ERKENNUNG_CTRL+0x154>
   11044:	00100713          	li	a4,1
   11048:	08e78663          	beq	a5,a4,110d4 <generic_BLOCK_ERKENNUNG_CTRL+0x17c>
   1104c:	00200713          	li	a4,2
   11050:	04e79e63          	bne	a5,a4,110ac <generic_BLOCK_ERKENNUNG_CTRL+0x154>
   11054:	c7c1a783          	lw	a5,-900(gp) # 1248c <BLOCK_ERKENNUNG_CTRL__I_EIN_MAX>
   11058:	fff78713          	addi	a4,a5,-1
   1105c:	c601a783          	lw	a5,-928(gp) # 12470 <FH_TUERMODUL__I_EIN>
   11060:	06e7ce63          	blt	a5,a4,110dc <generic_BLOCK_ERKENNUNG_CTRL+0x184>
   11064:	cc018a23          	sb	zero,-812(gp) # 124e4 <stable>
   11068:	00100713          	li	a4,1
   1106c:	c8e18fa3          	sb	a4,-865(gp) # 124af <FH_TUERMODUL__BLOCK_copy>
   11070:	00100713          	li	a4,1
   11074:	cee18223          	sb	a4,-796(gp) # 124f4 <BEWEGUNG_BLOCK_ERKENNUNG_CTRL_next_state>
   11078:	0700006f          	j	110e8 <generic_BLOCK_ERKENNUNG_CTRL+0x190>
   1107c:	d0418793          	addi	a5,gp,-764 # 12514 <Bitlist>
   11080:	00078023          	sb	zero,0(a5)
   11084:	c841a703          	lw	a4,-892(gp) # 12494 <BLOCK_ERKENNUNG_CTRL__N>
   11088:	00b00793          	li	a5,11
   1108c:	04f71c63          	bne	a4,a5,110e4 <generic_BLOCK_ERKENNUNG_CTRL+0x18c>
   11090:	c8c1a703          	lw	a4,-884(gp) # 1249c <BLOCK_ERKENNUNG_CTRL__N_old>
   11094:	00b00793          	li	a5,11
   11098:	04f70663          	beq	a4,a5,110e4 <generic_BLOCK_ERKENNUNG_CTRL+0x18c>
   1109c:	cc018a23          	sb	zero,-812(gp) # 124e4 <stable>
   110a0:	00200713          	li	a4,2
   110a4:	cee18223          	sb	a4,-796(gp) # 124f4 <BEWEGUNG_BLOCK_ERKENNUNG_CTRL_next_state>
   110a8:	0400006f          	j	110e8 <generic_BLOCK_ERKENNUNG_CTRL+0x190>
   110ac:	cc018a23          	sb	zero,-812(gp) # 124e4 <stable>
   110b0:	c801a223          	sw	zero,-892(gp) # 12494 <BLOCK_ERKENNUNG_CTRL__N>
   110b4:	00200713          	li	a4,2
   110b8:	c6e1ae23          	sw	a4,-900(gp) # 1248c <BLOCK_ERKENNUNG_CTRL__I_EIN_MAX>
   110bc:	00300713          	li	a4,3
   110c0:	cee18223          	sb	a4,-796(gp) # 124f4 <BEWEGUNG_BLOCK_ERKENNUNG_CTRL_next_state>
   110c4:	d0418793          	addi	a5,gp,-764 # 12514 <Bitlist>
   110c8:	00100713          	li	a4,1
   110cc:	00e78023          	sb	a4,0(a5)
   110d0:	0180006f          	j	110e8 <generic_BLOCK_ERKENNUNG_CTRL+0x190>
   110d4:	00000013          	nop
   110d8:	0280006f          	j	11100 <generic_BLOCK_ERKENNUNG_CTRL+0x1a8>
   110dc:	00000013          	nop
   110e0:	0200006f          	j	11100 <generic_BLOCK_ERKENNUNG_CTRL+0x1a8>
   110e4:	00000013          	nop
   110e8:	0180006f          	j	11100 <generic_BLOCK_ERKENNUNG_CTRL+0x1a8>
   110ec:	cc018a23          	sb	zero,-812(gp) # 124e4 <stable>
   110f0:	00100713          	li	a4,1
   110f4:	cee182a3          	sb	a4,-795(gp) # 124f5 <BLOCK_ERKENNUNG_CTRL_BLOCK_ERKENNUNG_CTRL_next_state>
   110f8:	0080006f          	j	11100 <generic_BLOCK_ERKENNUNG_CTRL+0x1a8>
   110fc:	00000013          	nop
   11100:	00000013          	nop
   11104:	00c12403          	lw	s0,12(sp)
   11108:	01010113          	addi	sp,sp,16
   1110c:	00008067          	ret

00011110 <FH_DU>:
   11110:	ff010113          	addi	sp,sp,-16
   11114:	00112623          	sw	ra,12(sp)
   11118:	00812423          	sw	s0,8(sp)
   1111c:	01010413          	addi	s0,sp,16
   11120:	00100713          	li	a4,1
   11124:	cce1a823          	sw	a4,-816(gp) # 124e0 <time>
   11128:	cc018a23          	sb	zero,-812(gp) # 124e4 <stable>
   1112c:	cc018aa3          	sb	zero,-811(gp) # 124e5 <step>
   11130:	5d40006f          	j	11704 <FH_DU+0x5f4>
   11134:	00100713          	li	a4,1
   11138:	cce18a23          	sb	a4,-812(gp) # 124e4 <stable>
   1113c:	cd51c783          	lbu	a5,-811(gp) # 124e5 <step>
   11140:	00178793          	addi	a5,a5,1
   11144:	0ff7f713          	zext.b	a4,a5
   11148:	cce18aa3          	sb	a4,-811(gp) # 124e5 <step>
   1114c:	ce21c783          	lbu	a5,-798(gp) # 124f2 <FH_STEUERUNG_DUMMY_FH_STEUERUNG_DUMMY_next_state>
   11150:	00300713          	li	a4,3
   11154:	08e78a63          	beq	a5,a4,111e8 <FH_DU+0xd8>
   11158:	00300713          	li	a4,3
   1115c:	0af74863          	blt	a4,a5,1120c <FH_DU+0xfc>
   11160:	00100713          	li	a4,1
   11164:	00e78863          	beq	a5,a4,11174 <FH_DU+0x64>
   11168:	00200713          	li	a4,2
   1116c:	02e78663          	beq	a5,a4,11198 <FH_DU+0x88>
   11170:	09c0006f          	j	1120c <FH_DU+0xfc>
   11174:	cc81c783          	lbu	a5,-824(gp) # 124d8 <FH_DU__MFHZ>
   11178:	0a079463          	bnez	a5,11220 <FH_DU+0x110>
   1117c:	cca1c783          	lbu	a5,-822(gp) # 124da <FH_DU__MFHZ_old>
   11180:	0a078063          	beqz	a5,11220 <FH_DU+0x110>
   11184:	cc018a23          	sb	zero,-812(gp) # 124e4 <stable>
   11188:	c601a423          	sw	zero,-920(gp) # 12478 <FH_DU__MFH>
   1118c:	00200713          	li	a4,2
   11190:	cee18123          	sb	a4,-798(gp) # 124f2 <FH_STEUERUNG_DUMMY_FH_STEUERUNG_DUMMY_next_state>
   11194:	0a00006f          	j	11234 <FH_DU+0x124>
   11198:	cc81c783          	lbu	a5,-824(gp) # 124d8 <FH_DU__MFHZ>
   1119c:	02078263          	beqz	a5,111c0 <FH_DU+0xb0>
   111a0:	cca1c783          	lbu	a5,-822(gp) # 124da <FH_DU__MFHZ_old>
   111a4:	00079e63          	bnez	a5,111c0 <FH_DU+0xb0>
   111a8:	cc018a23          	sb	zero,-812(gp) # 124e4 <stable>
   111ac:	f9c00713          	li	a4,-100
   111b0:	c6e1a423          	sw	a4,-920(gp) # 12478 <FH_DU__MFH>
   111b4:	00100713          	li	a4,1
   111b8:	cee18123          	sb	a4,-798(gp) # 124f2 <FH_STEUERUNG_DUMMY_FH_STEUERUNG_DUMMY_next_state>
   111bc:	0780006f          	j	11234 <FH_DU+0x124>
   111c0:	ccb1c783          	lbu	a5,-821(gp) # 124db <FH_DU__MFHA>
   111c4:	06078263          	beqz	a5,11228 <FH_DU+0x118>
   111c8:	ccd1c783          	lbu	a5,-819(gp) # 124dd <FH_DU__MFHA_old>
   111cc:	04079e63          	bnez	a5,11228 <FH_DU+0x118>
   111d0:	cc018a23          	sb	zero,-812(gp) # 124e4 <stable>
   111d4:	06400713          	li	a4,100
   111d8:	c6e1a423          	sw	a4,-920(gp) # 12478 <FH_DU__MFH>
   111dc:	00300713          	li	a4,3
   111e0:	cee18123          	sb	a4,-798(gp) # 124f2 <FH_STEUERUNG_DUMMY_FH_STEUERUNG_DUMMY_next_state>
   111e4:	0500006f          	j	11234 <FH_DU+0x124>
   111e8:	ccb1c783          	lbu	a5,-821(gp) # 124db <FH_DU__MFHA>
   111ec:	04079263          	bnez	a5,11230 <FH_DU+0x120>
   111f0:	ccd1c783          	lbu	a5,-819(gp) # 124dd <FH_DU__MFHA_old>
   111f4:	02078e63          	beqz	a5,11230 <FH_DU+0x120>
   111f8:	cc018a23          	sb	zero,-812(gp) # 124e4 <stable>
   111fc:	c601a423          	sw	zero,-920(gp) # 12478 <FH_DU__MFH>
   11200:	00200713          	li	a4,2
   11204:	cee18123          	sb	a4,-798(gp) # 124f2 <FH_STEUERUNG_DUMMY_FH_STEUERUNG_DUMMY_next_state>
   11208:	02c0006f          	j	11234 <FH_DU+0x124>
   1120c:	cc018a23          	sb	zero,-812(gp) # 124e4 <stable>
   11210:	c601a423          	sw	zero,-920(gp) # 12478 <FH_DU__MFH>
   11214:	00200713          	li	a4,2
   11218:	cee18123          	sb	a4,-798(gp) # 124f2 <FH_STEUERUNG_DUMMY_FH_STEUERUNG_DUMMY_next_state>
   1121c:	0180006f          	j	11234 <FH_DU+0x124>
   11220:	00000013          	nop
   11224:	0100006f          	j	11234 <FH_DU+0x124>
   11228:	00000013          	nop
   1122c:	0080006f          	j	11234 <FH_DU+0x124>
   11230:	00000013          	nop
   11234:	d0418793          	addi	a5,gp,-764 # 12514 <Bitlist>
   11238:	00a7c783          	lbu	a5,10(a5)
   1123c:	00079663          	bnez	a5,11248 <FH_DU+0x138>
   11240:	00300713          	li	a4,3
   11244:	cce18ca3          	sb	a4,-807(gp) # 124e9 <KINDERSICHERUNG_CTRL_KINDERSICHERUNG_CTRL_next_state>
   11248:	d0418793          	addi	a5,gp,-764 # 12514 <Bitlist>
   1124c:	000785a3          	sb	zero,11(a5)
   11250:	d0418793          	addi	a5,gp,-764 # 12514 <Bitlist>
   11254:	0107c783          	lbu	a5,16(a5)
   11258:	00079663          	bnez	a5,11264 <FH_DU+0x154>
   1125c:	00100713          	li	a4,1
   11260:	cee181a3          	sb	a4,-797(gp) # 124f3 <EINKLEMMSCHUTZ_CTRL_EINKLEMMSCHUTZ_CTRL_next_state>
   11264:	d0418793          	addi	a5,gp,-764 # 12514 <Bitlist>
   11268:	000788a3          	sb	zero,17(a5)
   1126c:	d0418793          	addi	a5,gp,-764 # 12514 <Bitlist>
   11270:	0137c783          	lbu	a5,19(a5)
   11274:	00079a63          	bnez	a5,11288 <FH_DU+0x178>
   11278:	d0418793          	addi	a5,gp,-764 # 12514 <Bitlist>
   1127c:	00078023          	sb	zero,0(a5)
   11280:	00100713          	li	a4,1
   11284:	cee182a3          	sb	a4,-795(gp) # 124f5 <BLOCK_ERKENNUNG_CTRL_BLOCK_ERKENNUNG_CTRL_next_state>
   11288:	d0418793          	addi	a5,gp,-764 # 12514 <Bitlist>
   1128c:	00078a23          	sb	zero,20(a5)
   11290:	d0418793          	addi	a5,gp,-764 # 12514 <Bitlist>
   11294:	00d7c783          	lbu	a5,13(a5)
   11298:	02079e63          	bnez	a5,112d4 <FH_DU+0x1c4>
   1129c:	d0418793          	addi	a5,gp,-764 # 12514 <Bitlist>
   112a0:	00078223          	sb	zero,4(a5)
   112a4:	d0418793          	addi	a5,gp,-764 # 12514 <Bitlist>
   112a8:	00078323          	sb	zero,6(a5)
   112ac:	00200713          	li	a4,2
   112b0:	cce18d23          	sb	a4,-806(gp) # 124ea <B_FH_TUERMODUL_CTRL_next_state>
   112b4:	c401a423          	sw	zero,-952(gp) # 12458 <FH_TUERMODUL_CTRL__N>
   112b8:	00100713          	li	a4,1
   112bc:	cce18da3          	sb	a4,-805(gp) # 124eb <A_FH_TUERMODUL_CTRL_next_state>
   112c0:	d0418793          	addi	a5,gp,-764 # 12514 <Bitlist>
   112c4:	00100713          	li	a4,1
   112c8:	00e782a3          	sb	a4,5(a5)
   112cc:	00100713          	li	a4,1
   112d0:	cce18e23          	sb	a4,-804(gp) # 124ec <WIEDERHOLSPERRE_FH_TUERMODUL_CTRL_next_state>
   112d4:	d0418793          	addi	a5,gp,-764 # 12514 <Bitlist>
   112d8:	00078723          	sb	zero,14(a5)
   112dc:	d0418793          	addi	a5,gp,-764 # 12514 <Bitlist>
   112e0:	00100713          	li	a4,1
   112e4:	00e785a3          	sb	a4,11(a5)
   112e8:	d0418793          	addi	a5,gp,-764 # 12514 <Bitlist>
   112ec:	00100713          	li	a4,1
   112f0:	00e788a3          	sb	a4,17(a5)
   112f4:	d0418793          	addi	a5,gp,-764 # 12514 <Bitlist>
   112f8:	00100713          	li	a4,1
   112fc:	00e78a23          	sb	a4,20(a5)
   11300:	d0418793          	addi	a5,gp,-764 # 12514 <Bitlist>
   11304:	00100713          	li	a4,1
   11308:	00e78723          	sb	a4,14(a5)
   1130c:	cbb1c703          	lbu	a4,-837(gp) # 124cb <FH_DU__S_FH_TMBFZUCAN>
   11310:	cbd1c783          	lbu	a5,-835(gp) # 124cd <FH_DU__S_FH_TMBFZUCAN_old>
   11314:	00f70a63          	beq	a4,a5,11328 <FH_DU+0x218>
   11318:	cc41c783          	lbu	a5,-828(gp) # 124d4 <FH_DU__DOOR_ID>
   1131c:	00079663          	bnez	a5,11328 <FH_DU+0x218>
   11320:	cbb1c703          	lbu	a4,-837(gp) # 124cb <FH_DU__S_FH_TMBFZUCAN>
   11324:	cae189a3          	sb	a4,-845(gp) # 124c3 <FH_DU__S_FH_FTZU>
   11328:	cbe1c703          	lbu	a4,-834(gp) # 124ce <FH_DU__S_FH_TMBFZUDISC>
   1132c:	cbf1c783          	lbu	a5,-833(gp) # 124cf <FH_DU__S_FH_TMBFZUDISC_old>
   11330:	00f70a63          	beq	a4,a5,11344 <FH_DU+0x234>
   11334:	cc41c783          	lbu	a5,-828(gp) # 124d4 <FH_DU__DOOR_ID>
   11338:	00078663          	beqz	a5,11344 <FH_DU+0x234>
   1133c:	cbe1c703          	lbu	a4,-834(gp) # 124ce <FH_DU__S_FH_TMBFZUDISC>
   11340:	cae18da3          	sb	a4,-837(gp) # 124cb <FH_DU__S_FH_TMBFZUCAN>
   11344:	cb81c703          	lbu	a4,-840(gp) # 124c8 <FH_DU__S_FH_TMBFAUFCAN>
   11348:	cba1c783          	lbu	a5,-838(gp) # 124ca <FH_DU__S_FH_TMBFAUFCAN_old>
   1134c:	00f70a63          	beq	a4,a5,11360 <FH_DU+0x250>
   11350:	cc41c783          	lbu	a5,-828(gp) # 124d4 <FH_DU__DOOR_ID>
   11354:	00079663          	bnez	a5,11360 <FH_DU+0x250>
   11358:	cb81c703          	lbu	a4,-840(gp) # 124c8 <FH_DU__S_FH_TMBFAUFCAN>
   1135c:	cae18a23          	sb	a4,-844(gp) # 124c4 <FH_DU__S_FH_FTAUF>
   11360:	cc01c703          	lbu	a4,-832(gp) # 124d0 <FH_DU__S_FH_TMBFAUFDISC>
   11364:	cc11c783          	lbu	a5,-831(gp) # 124d1 <FH_DU__S_FH_TMBFAUFDISC_old>
   11368:	00f70a63          	beq	a4,a5,1137c <FH_DU+0x26c>
   1136c:	cc41c783          	lbu	a5,-828(gp) # 124d4 <FH_DU__DOOR_ID>
   11370:	00078663          	beqz	a5,1137c <FH_DU+0x26c>
   11374:	cc01c703          	lbu	a4,-832(gp) # 124d0 <FH_DU__S_FH_TMBFAUFDISC>
   11378:	cae18c23          	sb	a4,-840(gp) # 124c8 <FH_DU__S_FH_TMBFAUFCAN>
   1137c:	d0418793          	addi	a5,gp,-764 # 12514 <Bitlist>
   11380:	00c7c703          	lbu	a4,12(a5)
   11384:	d0418793          	addi	a5,gp,-764 # 12514 <Bitlist>
   11388:	00e78523          	sb	a4,10(a5)
   1138c:	d0418793          	addi	a5,gp,-764 # 12514 <Bitlist>
   11390:	00f7c703          	lbu	a4,15(a5)
   11394:	d0418793          	addi	a5,gp,-764 # 12514 <Bitlist>
   11398:	00e786a3          	sb	a4,13(a5)
   1139c:	d0418793          	addi	a5,gp,-764 # 12514 <Bitlist>
   113a0:	0127c703          	lbu	a4,18(a5)
   113a4:	d0418793          	addi	a5,gp,-764 # 12514 <Bitlist>
   113a8:	00e78823          	sb	a4,16(a5)
   113ac:	d0418793          	addi	a5,gp,-764 # 12514 <Bitlist>
   113b0:	0157c703          	lbu	a4,21(a5)
   113b4:	d0418793          	addi	a5,gp,-764 # 12514 <Bitlist>
   113b8:	00e789a3          	sb	a4,19(a5)
   113bc:	cc31c703          	lbu	a4,-829(gp) # 124d3 <FH_DU__S_FH_AUFDISC>
   113c0:	c8e18da3          	sb	a4,-869(gp) # 124ab <FH_TUERMODUL__SFHA_MEC>
   113c4:	cb41c703          	lbu	a4,-844(gp) # 124c4 <FH_DU__S_FH_FTAUF>
   113c8:	c8e18ca3          	sb	a4,-871(gp) # 124a9 <FH_TUERMODUL__SFHA_ZENTRAL>
   113cc:	cc21c703          	lbu	a4,-830(gp) # 124d2 <FH_DU__S_FH_ZUDISC>
   113d0:	c8e18ba3          	sb	a4,-873(gp) # 124a7 <FH_TUERMODUL__SFHZ_MEC>
   113d4:	cb31c703          	lbu	a4,-845(gp) # 124c3 <FH_DU__S_FH_FTZU>
   113d8:	c8e18aa3          	sb	a4,-875(gp) # 124a5 <FH_TUERMODUL__SFHZ_ZENTRAL>
   113dc:	f0dfe0ef          	jal	ra,102e8 <generic_KINDERSICHERUNG_CTRL>
   113e0:	cab1c703          	lbu	a4,-853(gp) # 124bb <FH_TUERMODUL__MFHA>
   113e4:	cce185a3          	sb	a4,-821(gp) # 124db <FH_DU__MFHA>
   113e8:	ca81c703          	lbu	a4,-856(gp) # 124b8 <FH_TUERMODUL__MFHZ>
   113ec:	cce18423          	sb	a4,-824(gp) # 124d8 <FH_DU__MFHZ>
   113f0:	c601a703          	lw	a4,-928(gp) # 12470 <FH_TUERMODUL__I_EIN>
   113f4:	c6e1aa23          	sw	a4,-908(gp) # 12484 <FH_DU__I_EIN>
   113f8:	cae1c703          	lbu	a4,-850(gp) # 124be <FH_TUERMODUL__EKS_LEISTE_AKTIV>
   113fc:	cae18b23          	sb	a4,-842(gp) # 124c6 <FH_DU__EKS_LEISTE_AKTIV>
   11400:	c5c1a703          	lw	a4,-932(gp) # 1246c <FH_TUERMODUL__POSITION>
   11404:	c6e1a823          	sw	a4,-912(gp) # 12480 <FH_DU__POSITION>
   11408:	ca11c703          	lbu	a4,-863(gp) # 124b1 <FH_TUERMODUL__FT>
   1140c:	cae18aa3          	sb	a4,-843(gp) # 124c5 <FH_DU__FT>
   11410:	c9b1c703          	lbu	a4,-869(gp) # 124ab <FH_TUERMODUL__SFHA_MEC>
   11414:	cce181a3          	sb	a4,-829(gp) # 124d3 <FH_DU__S_FH_AUFDISC>
   11418:	c991c703          	lbu	a4,-871(gp) # 124a9 <FH_TUERMODUL__SFHA_ZENTRAL>
   1141c:	cae18a23          	sb	a4,-844(gp) # 124c4 <FH_DU__S_FH_FTAUF>
   11420:	c971c703          	lbu	a4,-873(gp) # 124a7 <FH_TUERMODUL__SFHZ_MEC>
   11424:	cce18123          	sb	a4,-830(gp) # 124d2 <FH_DU__S_FH_ZUDISC>
   11428:	c951c703          	lbu	a4,-875(gp) # 124a5 <FH_TUERMODUL__SFHZ_ZENTRAL>
   1142c:	cae189a3          	sb	a4,-845(gp) # 124c3 <FH_DU__S_FH_FTZU>
   11430:	c9d1c703          	lbu	a4,-867(gp) # 124ad <FH_TUERMODUL__KL_50>
   11434:	cae18923          	sb	a4,-846(gp) # 124c2 <FH_DU__KL_50>
   11438:	c9e1c703          	lbu	a4,-866(gp) # 124ae <FH_TUERMODUL__BLOCK>
   1143c:	cce182a3          	sb	a4,-827(gp) # 124d5 <FH_DU__BLOCK>
   11440:	cc31c703          	lbu	a4,-829(gp) # 124d3 <FH_DU__S_FH_AUFDISC>
   11444:	c8e18da3          	sb	a4,-869(gp) # 124ab <FH_TUERMODUL__SFHA_MEC>
   11448:	cb41c703          	lbu	a4,-844(gp) # 124c4 <FH_DU__S_FH_FTAUF>
   1144c:	c8e18ca3          	sb	a4,-871(gp) # 124a9 <FH_TUERMODUL__SFHA_ZENTRAL>
   11450:	cc21c703          	lbu	a4,-830(gp) # 124d2 <FH_DU__S_FH_ZUDISC>
   11454:	c8e18ba3          	sb	a4,-873(gp) # 124a7 <FH_TUERMODUL__SFHZ_MEC>
   11458:	cb31c703          	lbu	a4,-845(gp) # 124c3 <FH_DU__S_FH_FTZU>
   1145c:	c8e18aa3          	sb	a4,-875(gp) # 124a5 <FH_TUERMODUL__SFHZ_ZENTRAL>
   11460:	9dcff0ef          	jal	ra,1063c <generic_FH_TUERMODUL_CTRL>
   11464:	cab1c703          	lbu	a4,-853(gp) # 124bb <FH_TUERMODUL__MFHA>
   11468:	cce185a3          	sb	a4,-821(gp) # 124db <FH_DU__MFHA>
   1146c:	ca81c703          	lbu	a4,-856(gp) # 124b8 <FH_TUERMODUL__MFHZ>
   11470:	cce18423          	sb	a4,-824(gp) # 124d8 <FH_DU__MFHZ>
   11474:	c601a703          	lw	a4,-928(gp) # 12470 <FH_TUERMODUL__I_EIN>
   11478:	c6e1aa23          	sw	a4,-908(gp) # 12484 <FH_DU__I_EIN>
   1147c:	cae1c703          	lbu	a4,-850(gp) # 124be <FH_TUERMODUL__EKS_LEISTE_AKTIV>
   11480:	cae18b23          	sb	a4,-842(gp) # 124c6 <FH_DU__EKS_LEISTE_AKTIV>
   11484:	c5c1a703          	lw	a4,-932(gp) # 1246c <FH_TUERMODUL__POSITION>
   11488:	c6e1a823          	sw	a4,-912(gp) # 12480 <FH_DU__POSITION>
   1148c:	ca11c703          	lbu	a4,-863(gp) # 124b1 <FH_TUERMODUL__FT>
   11490:	cae18aa3          	sb	a4,-843(gp) # 124c5 <FH_DU__FT>
   11494:	c9b1c703          	lbu	a4,-869(gp) # 124ab <FH_TUERMODUL__SFHA_MEC>
   11498:	cce181a3          	sb	a4,-829(gp) # 124d3 <FH_DU__S_FH_AUFDISC>
   1149c:	c991c703          	lbu	a4,-871(gp) # 124a9 <FH_TUERMODUL__SFHA_ZENTRAL>
   114a0:	cae18a23          	sb	a4,-844(gp) # 124c4 <FH_DU__S_FH_FTAUF>
   114a4:	c971c703          	lbu	a4,-873(gp) # 124a7 <FH_TUERMODUL__SFHZ_MEC>
   114a8:	cce18123          	sb	a4,-830(gp) # 124d2 <FH_DU__S_FH_ZUDISC>
   114ac:	c951c703          	lbu	a4,-875(gp) # 124a5 <FH_TUERMODUL__SFHZ_ZENTRAL>
   114b0:	cae189a3          	sb	a4,-845(gp) # 124c3 <FH_DU__S_FH_FTZU>
   114b4:	c9d1c703          	lbu	a4,-867(gp) # 124ad <FH_TUERMODUL__KL_50>
   114b8:	cae18923          	sb	a4,-846(gp) # 124c2 <FH_DU__KL_50>
   114bc:	c9e1c703          	lbu	a4,-866(gp) # 124ae <FH_TUERMODUL__BLOCK>
   114c0:	cce182a3          	sb	a4,-827(gp) # 124d5 <FH_DU__BLOCK>
   114c4:	cc31c703          	lbu	a4,-829(gp) # 124d3 <FH_DU__S_FH_AUFDISC>
   114c8:	c8e18da3          	sb	a4,-869(gp) # 124ab <FH_TUERMODUL__SFHA_MEC>
   114cc:	cb41c703          	lbu	a4,-844(gp) # 124c4 <FH_DU__S_FH_FTAUF>
   114d0:	c8e18ca3          	sb	a4,-871(gp) # 124a9 <FH_TUERMODUL__SFHA_ZENTRAL>
   114d4:	cc21c703          	lbu	a4,-830(gp) # 124d2 <FH_DU__S_FH_ZUDISC>
   114d8:	c8e18ba3          	sb	a4,-873(gp) # 124a7 <FH_TUERMODUL__SFHZ_MEC>
   114dc:	cb31c703          	lbu	a4,-845(gp) # 124c3 <FH_DU__S_FH_FTZU>
   114e0:	c8e18aa3          	sb	a4,-875(gp) # 124a5 <FH_TUERMODUL__SFHZ_ZENTRAL>
   114e4:	9b5ff0ef          	jal	ra,10e98 <generic_EINKLEMMSCHUTZ_CTRL>
   114e8:	cab1c703          	lbu	a4,-853(gp) # 124bb <FH_TUERMODUL__MFHA>
   114ec:	cce185a3          	sb	a4,-821(gp) # 124db <FH_DU__MFHA>
   114f0:	ca81c703          	lbu	a4,-856(gp) # 124b8 <FH_TUERMODUL__MFHZ>
   114f4:	cce18423          	sb	a4,-824(gp) # 124d8 <FH_DU__MFHZ>
   114f8:	c601a703          	lw	a4,-928(gp) # 12470 <FH_TUERMODUL__I_EIN>
   114fc:	c6e1aa23          	sw	a4,-908(gp) # 12484 <FH_DU__I_EIN>
   11500:	cae1c703          	lbu	a4,-850(gp) # 124be <FH_TUERMODUL__EKS_LEISTE_AKTIV>
   11504:	cae18b23          	sb	a4,-842(gp) # 124c6 <FH_DU__EKS_LEISTE_AKTIV>
   11508:	c5c1a703          	lw	a4,-932(gp) # 1246c <FH_TUERMODUL__POSITION>
   1150c:	c6e1a823          	sw	a4,-912(gp) # 12480 <FH_DU__POSITION>
   11510:	ca11c703          	lbu	a4,-863(gp) # 124b1 <FH_TUERMODUL__FT>
   11514:	cae18aa3          	sb	a4,-843(gp) # 124c5 <FH_DU__FT>
   11518:	c9b1c703          	lbu	a4,-869(gp) # 124ab <FH_TUERMODUL__SFHA_MEC>
   1151c:	cce181a3          	sb	a4,-829(gp) # 124d3 <FH_DU__S_FH_AUFDISC>
   11520:	c991c703          	lbu	a4,-871(gp) # 124a9 <FH_TUERMODUL__SFHA_ZENTRAL>
   11524:	cae18a23          	sb	a4,-844(gp) # 124c4 <FH_DU__S_FH_FTAUF>
   11528:	c971c703          	lbu	a4,-873(gp) # 124a7 <FH_TUERMODUL__SFHZ_MEC>
   1152c:	cce18123          	sb	a4,-830(gp) # 124d2 <FH_DU__S_FH_ZUDISC>
   11530:	c951c703          	lbu	a4,-875(gp) # 124a5 <FH_TUERMODUL__SFHZ_ZENTRAL>
   11534:	cae189a3          	sb	a4,-845(gp) # 124c3 <FH_DU__S_FH_FTZU>
   11538:	c9d1c703          	lbu	a4,-867(gp) # 124ad <FH_TUERMODUL__KL_50>
   1153c:	cae18923          	sb	a4,-846(gp) # 124c2 <FH_DU__KL_50>
   11540:	c9e1c703          	lbu	a4,-866(gp) # 124ae <FH_TUERMODUL__BLOCK>
   11544:	cce182a3          	sb	a4,-827(gp) # 124d5 <FH_DU__BLOCK>
   11548:	cc31c703          	lbu	a4,-829(gp) # 124d3 <FH_DU__S_FH_AUFDISC>
   1154c:	c8e18da3          	sb	a4,-869(gp) # 124ab <FH_TUERMODUL__SFHA_MEC>
   11550:	cb41c703          	lbu	a4,-844(gp) # 124c4 <FH_DU__S_FH_FTAUF>
   11554:	c8e18ca3          	sb	a4,-871(gp) # 124a9 <FH_TUERMODUL__SFHA_ZENTRAL>
   11558:	cc21c703          	lbu	a4,-830(gp) # 124d2 <FH_DU__S_FH_ZUDISC>
   1155c:	c8e18ba3          	sb	a4,-873(gp) # 124a7 <FH_TUERMODUL__SFHZ_MEC>
   11560:	cb31c703          	lbu	a4,-845(gp) # 124c3 <FH_DU__S_FH_FTZU>
   11564:	c8e18aa3          	sb	a4,-875(gp) # 124a5 <FH_TUERMODUL__SFHZ_ZENTRAL>
   11568:	9f1ff0ef          	jal	ra,10f58 <generic_BLOCK_ERKENNUNG_CTRL>
   1156c:	cab1c703          	lbu	a4,-853(gp) # 124bb <FH_TUERMODUL__MFHA>
   11570:	cce185a3          	sb	a4,-821(gp) # 124db <FH_DU__MFHA>
   11574:	ca81c703          	lbu	a4,-856(gp) # 124b8 <FH_TUERMODUL__MFHZ>
   11578:	cce18423          	sb	a4,-824(gp) # 124d8 <FH_DU__MFHZ>
   1157c:	c601a703          	lw	a4,-928(gp) # 12470 <FH_TUERMODUL__I_EIN>
   11580:	c6e1aa23          	sw	a4,-908(gp) # 12484 <FH_DU__I_EIN>
   11584:	cae1c703          	lbu	a4,-850(gp) # 124be <FH_TUERMODUL__EKS_LEISTE_AKTIV>
   11588:	cae18b23          	sb	a4,-842(gp) # 124c6 <FH_DU__EKS_LEISTE_AKTIV>
   1158c:	c5c1a703          	lw	a4,-932(gp) # 1246c <FH_TUERMODUL__POSITION>
   11590:	c6e1a823          	sw	a4,-912(gp) # 12480 <FH_DU__POSITION>
   11594:	ca11c703          	lbu	a4,-863(gp) # 124b1 <FH_TUERMODUL__FT>
   11598:	cae18aa3          	sb	a4,-843(gp) # 124c5 <FH_DU__FT>
   1159c:	c9b1c703          	lbu	a4,-869(gp) # 124ab <FH_TUERMODUL__SFHA_MEC>
   115a0:	cce181a3          	sb	a4,-829(gp) # 124d3 <FH_DU__S_FH_AUFDISC>
   115a4:	c991c703          	lbu	a4,-871(gp) # 124a9 <FH_TUERMODUL__SFHA_ZENTRAL>
   115a8:	cae18a23          	sb	a4,-844(gp) # 124c4 <FH_DU__S_FH_FTAUF>
   115ac:	c971c703          	lbu	a4,-873(gp) # 124a7 <FH_TUERMODUL__SFHZ_MEC>
   115b0:	cce18123          	sb	a4,-830(gp) # 124d2 <FH_DU__S_FH_ZUDISC>
   115b4:	c951c703          	lbu	a4,-875(gp) # 124a5 <FH_TUERMODUL__SFHZ_ZENTRAL>
   115b8:	cae189a3          	sb	a4,-845(gp) # 124c3 <FH_DU__S_FH_FTZU>
   115bc:	c9d1c703          	lbu	a4,-867(gp) # 124ad <FH_TUERMODUL__KL_50>
   115c0:	cae18923          	sb	a4,-846(gp) # 124c2 <FH_DU__KL_50>
   115c4:	c9e1c703          	lbu	a4,-866(gp) # 124ae <FH_TUERMODUL__BLOCK>
   115c8:	cce182a3          	sb	a4,-827(gp) # 124d5 <FH_DU__BLOCK>
   115cc:	d0418793          	addi	a5,gp,-764 # 12514 <Bitlist>
   115d0:	00a7c703          	lbu	a4,10(a5)
   115d4:	d0418793          	addi	a5,gp,-764 # 12514 <Bitlist>
   115d8:	00e785a3          	sb	a4,11(a5)
   115dc:	d0418793          	addi	a5,gp,-764 # 12514 <Bitlist>
   115e0:	00d7c703          	lbu	a4,13(a5)
   115e4:	d0418793          	addi	a5,gp,-764 # 12514 <Bitlist>
   115e8:	00e78723          	sb	a4,14(a5)
   115ec:	d0418793          	addi	a5,gp,-764 # 12514 <Bitlist>
   115f0:	0107c703          	lbu	a4,16(a5)
   115f4:	d0418793          	addi	a5,gp,-764 # 12514 <Bitlist>
   115f8:	00e788a3          	sb	a4,17(a5)
   115fc:	d0418793          	addi	a5,gp,-764 # 12514 <Bitlist>
   11600:	0137c703          	lbu	a4,19(a5)
   11604:	d0418793          	addi	a5,gp,-764 # 12514 <Bitlist>
   11608:	00e78a23          	sb	a4,20(a5)
   1160c:	c481a703          	lw	a4,-952(gp) # 12458 <FH_TUERMODUL_CTRL__N>
   11610:	c4e1a823          	sw	a4,-944(gp) # 12460 <FH_TUERMODUL_CTRL__N_old>
   11614:	c601a703          	lw	a4,-928(gp) # 12470 <FH_TUERMODUL__I_EIN>
   11618:	c6e1a223          	sw	a4,-924(gp) # 12474 <FH_TUERMODUL__I_EIN_old>
   1161c:	c6c1a703          	lw	a4,-916(gp) # 1247c <FH_DU__MFH_copy>
   11620:	c6e1a423          	sw	a4,-920(gp) # 12478 <FH_DU__MFH>
   11624:	c741a703          	lw	a4,-908(gp) # 12484 <FH_DU__I_EIN>
   11628:	c6e1ac23          	sw	a4,-904(gp) # 12488 <FH_DU__I_EIN_old>
   1162c:	c841a703          	lw	a4,-892(gp) # 12494 <BLOCK_ERKENNUNG_CTRL__N>
   11630:	c8e1a623          	sw	a4,-884(gp) # 1249c <BLOCK_ERKENNUNG_CTRL__N_old>
   11634:	c951c703          	lbu	a4,-875(gp) # 124a5 <FH_TUERMODUL__SFHZ_ZENTRAL>
   11638:	c8e18b23          	sb	a4,-874(gp) # 124a6 <FH_TUERMODUL__SFHZ_ZENTRAL_old>
   1163c:	c971c703          	lbu	a4,-873(gp) # 124a7 <FH_TUERMODUL__SFHZ_MEC>
   11640:	c8e18c23          	sb	a4,-872(gp) # 124a8 <FH_TUERMODUL__SFHZ_MEC_old>
   11644:	c991c703          	lbu	a4,-871(gp) # 124a9 <FH_TUERMODUL__SFHA_ZENTRAL>
   11648:	c8e18d23          	sb	a4,-870(gp) # 124aa <FH_TUERMODUL__SFHA_ZENTRAL_old>
   1164c:	c9b1c703          	lbu	a4,-869(gp) # 124ab <FH_TUERMODUL__SFHA_MEC>
   11650:	c8e18e23          	sb	a4,-868(gp) # 124ac <FH_TUERMODUL__SFHA_MEC_old>
   11654:	c9f1c703          	lbu	a4,-865(gp) # 124af <FH_TUERMODUL__BLOCK_copy>
   11658:	c8e18f23          	sb	a4,-866(gp) # 124ae <FH_TUERMODUL__BLOCK>
   1165c:	c9e1c703          	lbu	a4,-866(gp) # 124ae <FH_TUERMODUL__BLOCK>
   11660:	cae18023          	sb	a4,-864(gp) # 124b0 <FH_TUERMODUL__BLOCK_old>
   11664:	ca31c703          	lbu	a4,-861(gp) # 124b3 <FH_TUERMODUL__SFHZ_copy>
   11668:	cae18123          	sb	a4,-862(gp) # 124b2 <FH_TUERMODUL__SFHZ>
   1166c:	ca21c703          	lbu	a4,-862(gp) # 124b2 <FH_TUERMODUL__SFHZ>
   11670:	cae18223          	sb	a4,-860(gp) # 124b4 <FH_TUERMODUL__SFHZ_old>
   11674:	ca61c703          	lbu	a4,-858(gp) # 124b6 <FH_TUERMODUL__SFHA_copy>
   11678:	cae182a3          	sb	a4,-859(gp) # 124b5 <FH_TUERMODUL__SFHA>
   1167c:	ca51c703          	lbu	a4,-859(gp) # 124b5 <FH_TUERMODUL__SFHA>
   11680:	cae183a3          	sb	a4,-857(gp) # 124b7 <FH_TUERMODUL__SFHA_old>
   11684:	ca91c703          	lbu	a4,-855(gp) # 124b9 <FH_TUERMODUL__MFHZ_copy>
   11688:	cae18423          	sb	a4,-856(gp) # 124b8 <FH_TUERMODUL__MFHZ>
   1168c:	ca81c703          	lbu	a4,-856(gp) # 124b8 <FH_TUERMODUL__MFHZ>
   11690:	cae18523          	sb	a4,-854(gp) # 124ba <FH_TUERMODUL__MFHZ_old>
   11694:	cac1c703          	lbu	a4,-852(gp) # 124bc <FH_TUERMODUL__MFHA_copy>
   11698:	cae185a3          	sb	a4,-853(gp) # 124bb <FH_TUERMODUL__MFHA>
   1169c:	cab1c703          	lbu	a4,-853(gp) # 124bb <FH_TUERMODUL__MFHA>
   116a0:	cae186a3          	sb	a4,-851(gp) # 124bd <FH_TUERMODUL__MFHA_old>
   116a4:	cae1c703          	lbu	a4,-850(gp) # 124be <FH_TUERMODUL__EKS_LEISTE_AKTIV>
   116a8:	cae187a3          	sb	a4,-849(gp) # 124bf <FH_TUERMODUL__EKS_LEISTE_AKTIV_old>
   116ac:	cb61c703          	lbu	a4,-842(gp) # 124c6 <FH_DU__EKS_LEISTE_AKTIV>
   116b0:	cae18ba3          	sb	a4,-841(gp) # 124c7 <FH_DU__EKS_LEISTE_AKTIV_old>
   116b4:	cb81c703          	lbu	a4,-840(gp) # 124c8 <FH_DU__S_FH_TMBFAUFCAN>
   116b8:	cae18d23          	sb	a4,-838(gp) # 124ca <FH_DU__S_FH_TMBFAUFCAN_old>
   116bc:	cbb1c703          	lbu	a4,-837(gp) # 124cb <FH_DU__S_FH_TMBFZUCAN>
   116c0:	cae18ea3          	sb	a4,-835(gp) # 124cd <FH_DU__S_FH_TMBFZUCAN_old>
   116c4:	cbe1c703          	lbu	a4,-834(gp) # 124ce <FH_DU__S_FH_TMBFZUDISC>
   116c8:	cae18fa3          	sb	a4,-833(gp) # 124cf <FH_DU__S_FH_TMBFZUDISC_old>
   116cc:	cc01c703          	lbu	a4,-832(gp) # 124d0 <FH_DU__S_FH_TMBFAUFDISC>
   116d0:	cce180a3          	sb	a4,-831(gp) # 124d1 <FH_DU__S_FH_TMBFAUFDISC_old>
   116d4:	cc61c703          	lbu	a4,-826(gp) # 124d6 <FH_DU__BLOCK_copy>
   116d8:	cce182a3          	sb	a4,-827(gp) # 124d5 <FH_DU__BLOCK>
   116dc:	cc51c703          	lbu	a4,-827(gp) # 124d5 <FH_DU__BLOCK>
   116e0:	cce183a3          	sb	a4,-825(gp) # 124d7 <FH_DU__BLOCK_old>
   116e4:	cc91c703          	lbu	a4,-823(gp) # 124d9 <FH_DU__MFHZ_copy>
   116e8:	cce18423          	sb	a4,-824(gp) # 124d8 <FH_DU__MFHZ>
   116ec:	cc81c703          	lbu	a4,-824(gp) # 124d8 <FH_DU__MFHZ>
   116f0:	cce18523          	sb	a4,-822(gp) # 124da <FH_DU__MFHZ_old>
   116f4:	ccc1c703          	lbu	a4,-820(gp) # 124dc <FH_DU__MFHA_copy>
   116f8:	cce185a3          	sb	a4,-821(gp) # 124db <FH_DU__MFHA>
   116fc:	ccb1c703          	lbu	a4,-821(gp) # 124db <FH_DU__MFHA>
   11700:	cce186a3          	sb	a4,-819(gp) # 124dd <FH_DU__MFHA_old>
   11704:	cd41c783          	lbu	a5,-812(gp) # 124e4 <stable>
   11708:	a20786e3          	beqz	a5,11134 <FH_DU+0x24>
   1170c:	00000013          	nop
   11710:	00000013          	nop
   11714:	00c12083          	lw	ra,12(sp)
   11718:	00812403          	lw	s0,8(sp)
   1171c:	01010113          	addi	sp,sp,16
   11720:	00008067          	ret

00011724 <warm_caches>:
   11724:	fd010113          	addi	sp,sp,-48
   11728:	02112623          	sw	ra,44(sp)
   1172c:	02812423          	sw	s0,40(sp)
   11730:	03010413          	addi	s0,sp,48
   11734:	fca42e23          	sw	a0,-36(s0)
   11738:	fdc42503          	lw	a0,-36(s0)
   1173c:	04c000ef          	jal	ra,11788 <benchmark_body>
   11740:	fea42623          	sw	a0,-20(s0)
   11744:	00000013          	nop
   11748:	02c12083          	lw	ra,44(sp)
   1174c:	02812403          	lw	s0,40(sp)
   11750:	03010113          	addi	sp,sp,48
   11754:	00008067          	ret

00011758 <benchmark>:
   11758:	ff010113          	addi	sp,sp,-16
   1175c:	00112623          	sw	ra,12(sp)
   11760:	00812423          	sw	s0,8(sp)
   11764:	01010413          	addi	s0,sp,16
   11768:	7ac00513          	li	a0,1964
   1176c:	01c000ef          	jal	ra,11788 <benchmark_body>
   11770:	00050793          	mv	a5,a0
   11774:	00078513          	mv	a0,a5
   11778:	00c12083          	lw	ra,12(sp)
   1177c:	00812403          	lw	s0,8(sp)
   11780:	01010113          	addi	sp,sp,16
   11784:	00008067          	ret

00011788 <benchmark_body>:
   11788:	fd010113          	addi	sp,sp,-48
   1178c:	02112623          	sw	ra,44(sp)
   11790:	02812423          	sw	s0,40(sp)
   11794:	03010413          	addi	s0,sp,48
   11798:	fca42e23          	sw	a0,-36(s0)
   1179c:	fe042623          	sw	zero,-20(s0)
   117a0:	02c0006f          	j	117cc <benchmark_body+0x44>
   117a4:	04000613          	li	a2,64
   117a8:	00000593          	li	a1,0
   117ac:	d0418513          	addi	a0,gp,-764 # 12514 <Bitlist>
   117b0:	444000ef          	jal	ra,11bf4 <memset>
   117b4:	acdfe0ef          	jal	ra,10280 <init>
   117b8:	9d5fe0ef          	jal	ra,1018c <interface>
   117bc:	955ff0ef          	jal	ra,11110 <FH_DU>
   117c0:	fec42783          	lw	a5,-20(s0)
   117c4:	00178793          	addi	a5,a5,1
   117c8:	fef42623          	sw	a5,-20(s0)
   117cc:	fec42703          	lw	a4,-20(s0)
   117d0:	fdc42783          	lw	a5,-36(s0)
   117d4:	fcf748e3          	blt	a4,a5,117a4 <benchmark_body+0x1c>
   117d8:	00000793          	li	a5,0
   117dc:	00078513          	mv	a0,a5
   117e0:	02c12083          	lw	ra,44(sp)
   117e4:	02812403          	lw	s0,40(sp)
   117e8:	03010113          	addi	sp,sp,48
   117ec:	00008067          	ret

000117f0 <initialise_benchmark>:
   117f0:	ff010113          	addi	sp,sp,-16
   117f4:	00812623          	sw	s0,12(sp)
   117f8:	01010413          	addi	s0,sp,16
   117fc:	00000013          	nop
   11800:	00c12403          	lw	s0,12(sp)
   11804:	01010113          	addi	sp,sp,16
   11808:	00008067          	ret

0001180c <verify_benchmark>:
   1180c:	f9010113          	addi	sp,sp,-112
   11810:	06112623          	sw	ra,108(sp)
   11814:	06812423          	sw	s0,104(sp)
   11818:	07010413          	addi	s0,sp,112
   1181c:	f8a42e23          	sw	a0,-100(s0)
   11820:	000127b7          	lui	a5,0x12
   11824:	f3078713          	addi	a4,a5,-208 # 11f30 <__errno+0x8>
   11828:	fac40793          	addi	a5,s0,-84
   1182c:	00070693          	mv	a3,a4
   11830:	04000713          	li	a4,64
   11834:	00070613          	mv	a2,a4
   11838:	00068593          	mv	a1,a3
   1183c:	00078513          	mv	a0,a5
   11840:	28c000ef          	jal	ra,11acc <memcpy>
   11844:	fe042623          	sw	zero,-20(s0)
   11848:	03c0006f          	j	11884 <verify_benchmark+0x78>
   1184c:	d0418713          	addi	a4,gp,-764 # 12514 <Bitlist>
   11850:	fec42783          	lw	a5,-20(s0)
   11854:	00f707b3          	add	a5,a4,a5
   11858:	0007c703          	lbu	a4,0(a5)
   1185c:	fec42783          	lw	a5,-20(s0)
   11860:	ff078793          	addi	a5,a5,-16
   11864:	008787b3          	add	a5,a5,s0
   11868:	fbc7c783          	lbu	a5,-68(a5)
   1186c:	00f70663          	beq	a4,a5,11878 <verify_benchmark+0x6c>
   11870:	00000793          	li	a5,0
   11874:	0dc0006f          	j	11950 <verify_benchmark+0x144>
   11878:	fec42783          	lw	a5,-20(s0)
   1187c:	00178793          	addi	a5,a5,1
   11880:	fef42623          	sw	a5,-20(s0)
   11884:	fec42703          	lw	a4,-20(s0)
   11888:	03f00793          	li	a5,63
   1188c:	fce7d0e3          	bge	a5,a4,1184c <verify_benchmark+0x40>
   11890:	c301a783          	lw	a5,-976(gp) # 12440 <tm_entered_EINSCHALTSTROM_MESSEN_BLOCK_ERKENNUNG_CTRLch_BLOCK_ERKENNUNG_CTRL__N_copy>
   11894:	0a079863          	bnez	a5,11944 <verify_benchmark+0x138>
   11898:	c341a783          	lw	a5,-972(gp) # 12444 <tm_entered_WIEDERHOLSPERRE_FH_TUERMODUL_CTRLexited_BEREIT_FH_TUERMODUL_CTRL>
   1189c:	0a079463          	bnez	a5,11944 <verify_benchmark+0x138>
   118a0:	c381a783          	lw	a5,-968(gp) # 12448 <tm_entered_WIEDERHOLSPERRE_FH_TUERMODUL_CTRL>
   118a4:	0a079063          	bnez	a5,11944 <verify_benchmark+0x138>
   118a8:	cd61c783          	lbu	a5,-810(gp) # 124e6 <NICHT_INITIALISIERT_NICHT_INITIALISIERT_next_state>
   118ac:	08079c63          	bnez	a5,11944 <verify_benchmark+0x138>
   118b0:	cd71c783          	lbu	a5,-809(gp) # 124e7 <ZENTRAL_KINDERSICHERUNG_CTRL_next_state>
   118b4:	08079863          	bnez	a5,11944 <verify_benchmark+0x138>
   118b8:	cd81c783          	lbu	a5,-808(gp) # 124e8 <MEC_KINDERSICHERUNG_CTRL_next_state>
   118bc:	08079463          	bnez	a5,11944 <verify_benchmark+0x138>
   118c0:	cd91c703          	lbu	a4,-807(gp) # 124e9 <KINDERSICHERUNG_CTRL_KINDERSICHERUNG_CTRL_next_state>
   118c4:	00300793          	li	a5,3
   118c8:	06f71e63          	bne	a4,a5,11944 <verify_benchmark+0x138>
   118cc:	cda1c703          	lbu	a4,-806(gp) # 124ea <B_FH_TUERMODUL_CTRL_next_state>
   118d0:	00200793          	li	a5,2
   118d4:	06f71863          	bne	a4,a5,11944 <verify_benchmark+0x138>
   118d8:	cdb1c703          	lbu	a4,-805(gp) # 124eb <A_FH_TUERMODUL_CTRL_next_state>
   118dc:	00100793          	li	a5,1
   118e0:	06f71263          	bne	a4,a5,11944 <verify_benchmark+0x138>
   118e4:	cdc1c703          	lbu	a4,-804(gp) # 124ec <WIEDERHOLSPERRE_FH_TUERMODUL_CTRL_next_state>
   118e8:	00100793          	li	a5,1
   118ec:	04f71c63          	bne	a4,a5,11944 <verify_benchmark+0x138>
   118f0:	cdd1c783          	lbu	a5,-803(gp) # 124ed <INITIALISIERT_FH_TUERMODUL_CTRL_next_state>
   118f4:	04079863          	bnez	a5,11944 <verify_benchmark+0x138>
   118f8:	cde1c783          	lbu	a5,-802(gp) # 124ee <TIPP_SCHLIESSEN_FH_TUERMODUL_CTRL_next_state>
   118fc:	04079463          	bnez	a5,11944 <verify_benchmark+0x138>
   11900:	cdf1c783          	lbu	a5,-801(gp) # 124ef <MANUELL_SCHLIESSEN_FH_TUERMODUL_CTRL_next_state>
   11904:	04079063          	bnez	a5,11944 <verify_benchmark+0x138>
   11908:	ce01c783          	lbu	a5,-800(gp) # 124f0 <OEFFNEN_FH_TUERMODUL_CTRL_next_state>
   1190c:	02079c63          	bnez	a5,11944 <verify_benchmark+0x138>
   11910:	ce11c783          	lbu	a5,-799(gp) # 124f1 <SCHLIESSEN_FH_TUERMODUL_CTRL_next_state>
   11914:	02079863          	bnez	a5,11944 <verify_benchmark+0x138>
   11918:	ce21c703          	lbu	a4,-798(gp) # 124f2 <FH_STEUERUNG_DUMMY_FH_STEUERUNG_DUMMY_next_state>
   1191c:	00200793          	li	a5,2
   11920:	02f71263          	bne	a4,a5,11944 <verify_benchmark+0x138>
   11924:	ce31c703          	lbu	a4,-797(gp) # 124f3 <EINKLEMMSCHUTZ_CTRL_EINKLEMMSCHUTZ_CTRL_next_state>
   11928:	00100793          	li	a5,1
   1192c:	00f71c63          	bne	a4,a5,11944 <verify_benchmark+0x138>
   11930:	ce41c783          	lbu	a5,-796(gp) # 124f4 <BEWEGUNG_BLOCK_ERKENNUNG_CTRL_next_state>
   11934:	00079863          	bnez	a5,11944 <verify_benchmark+0x138>
   11938:	ce51c703          	lbu	a4,-795(gp) # 124f5 <BLOCK_ERKENNUNG_CTRL_BLOCK_ERKENNUNG_CTRL_next_state>
   1193c:	00100793          	li	a5,1
   11940:	00f70663          	beq	a4,a5,1194c <verify_benchmark+0x140>
   11944:	00000793          	li	a5,0
   11948:	0080006f          	j	11950 <verify_benchmark+0x144>
   1194c:	00100793          	li	a5,1
   11950:	00078513          	mv	a0,a5
   11954:	06c12083          	lw	ra,108(sp)
   11958:	06812403          	lw	s0,104(sp)
   1195c:	07010113          	addi	sp,sp,112
   11960:	00008067          	ret

00011964 <initialise_board>:
   11964:	ff010113          	addi	sp,sp,-16
   11968:	00812623          	sw	s0,12(sp)
   1196c:	01010413          	addi	s0,sp,16
   11970:	00000513          	li	a0,0
   11974:	00000013          	nop
   11978:	00c12403          	lw	s0,12(sp)
   1197c:	01010113          	addi	sp,sp,16
   11980:	00008067          	ret

00011984 <start_trigger>:
   11984:	ff010113          	addi	sp,sp,-16
   11988:	00812623          	sw	s0,12(sp)
   1198c:	01010413          	addi	s0,sp,16
   11990:	00000513          	li	a0,0
   11994:	00000013          	nop
   11998:	00c12403          	lw	s0,12(sp)
   1199c:	01010113          	addi	sp,sp,16
   119a0:	00008067          	ret

000119a4 <stop_trigger>:
   119a4:	ff010113          	addi	sp,sp,-16
   119a8:	00812623          	sw	s0,12(sp)
   119ac:	01010413          	addi	s0,sp,16
   119b0:	00000513          	li	a0,0
   119b4:	00000013          	nop
   119b8:	00c12403          	lw	s0,12(sp)
   119bc:	01010113          	addi	sp,sp,16
   119c0:	00008067          	ret

000119c4 <main>:
   119c4:	fd010113          	addi	sp,sp,-48
   119c8:	02112623          	sw	ra,44(sp)
   119cc:	02812423          	sw	s0,40(sp)
   119d0:	03010413          	addi	s0,sp,48
   119d4:	fca42e23          	sw	a0,-36(s0)
   119d8:	fcb42c23          	sw	a1,-40(s0)
   119dc:	f89ff0ef          	jal	ra,11964 <initialise_board>
   119e0:	e11ff0ef          	jal	ra,117f0 <initialise_benchmark>
   119e4:	00100513          	li	a0,1
   119e8:	d3dff0ef          	jal	ra,11724 <warm_caches>
   119ec:	f99ff0ef          	jal	ra,11984 <start_trigger>
   119f0:	d69ff0ef          	jal	ra,11758 <benchmark>
   119f4:	00050793          	mv	a5,a0
   119f8:	fef42423          	sw	a5,-24(s0)
   119fc:	fa9ff0ef          	jal	ra,119a4 <stop_trigger>
   11a00:	fe842783          	lw	a5,-24(s0)
   11a04:	00078513          	mv	a0,a5
   11a08:	e05ff0ef          	jal	ra,1180c <verify_benchmark>
   11a0c:	fea42623          	sw	a0,-20(s0)
   11a10:	fec42783          	lw	a5,-20(s0)
   11a14:	0017b793          	seqz	a5,a5
   11a18:	0ff7f793          	zext.b	a5,a5
   11a1c:	00078513          	mv	a0,a5
   11a20:	02c12083          	lw	ra,44(sp)
   11a24:	02812403          	lw	s0,40(sp)
   11a28:	03010113          	addi	sp,sp,48
   11a2c:	00008067          	ret

00011a30 <__libc_init_array>:
   11a30:	ff010113          	addi	sp,sp,-16
   11a34:	00812423          	sw	s0,8(sp)
   11a38:	01212023          	sw	s2,0(sp)
   11a3c:	00012437          	lui	s0,0x12
   11a40:	00012937          	lui	s2,0x12
   11a44:	00440793          	addi	a5,s0,4 # 12004 <__init_array_start>
   11a48:	00490913          	addi	s2,s2,4 # 12004 <__init_array_start>
   11a4c:	40f90933          	sub	s2,s2,a5
   11a50:	00112623          	sw	ra,12(sp)
   11a54:	00912223          	sw	s1,4(sp)
   11a58:	40295913          	srai	s2,s2,0x2
   11a5c:	02090063          	beqz	s2,11a7c <__libc_init_array+0x4c>
   11a60:	00440413          	addi	s0,s0,4
   11a64:	00000493          	li	s1,0
   11a68:	00042783          	lw	a5,0(s0)
   11a6c:	00148493          	addi	s1,s1,1
   11a70:	00440413          	addi	s0,s0,4
   11a74:	000780e7          	jalr	a5
   11a78:	fe9918e3          	bne	s2,s1,11a68 <__libc_init_array+0x38>
   11a7c:	00012437          	lui	s0,0x12
   11a80:	00012937          	lui	s2,0x12
   11a84:	00440793          	addi	a5,s0,4 # 12004 <__init_array_start>
   11a88:	00c90913          	addi	s2,s2,12 # 1200c <__do_global_dtors_aux_fini_array_entry>
   11a8c:	40f90933          	sub	s2,s2,a5
   11a90:	40295913          	srai	s2,s2,0x2
   11a94:	02090063          	beqz	s2,11ab4 <__libc_init_array+0x84>
   11a98:	00440413          	addi	s0,s0,4
   11a9c:	00000493          	li	s1,0
   11aa0:	00042783          	lw	a5,0(s0)
   11aa4:	00148493          	addi	s1,s1,1
   11aa8:	00440413          	addi	s0,s0,4
   11aac:	000780e7          	jalr	a5
   11ab0:	fe9918e3          	bne	s2,s1,11aa0 <__libc_init_array+0x70>
   11ab4:	00c12083          	lw	ra,12(sp)
   11ab8:	00812403          	lw	s0,8(sp)
   11abc:	00412483          	lw	s1,4(sp)
   11ac0:	00012903          	lw	s2,0(sp)
   11ac4:	01010113          	addi	sp,sp,16
   11ac8:	00008067          	ret

00011acc <memcpy>:
   11acc:	00b547b3          	xor	a5,a0,a1
   11ad0:	0037f793          	andi	a5,a5,3
   11ad4:	00c508b3          	add	a7,a0,a2
   11ad8:	06079663          	bnez	a5,11b44 <memcpy+0x78>
   11adc:	00300793          	li	a5,3
   11ae0:	06c7f263          	bgeu	a5,a2,11b44 <memcpy+0x78>
   11ae4:	00357793          	andi	a5,a0,3
   11ae8:	00050713          	mv	a4,a0
   11aec:	0c079a63          	bnez	a5,11bc0 <memcpy+0xf4>
   11af0:	ffc8f613          	andi	a2,a7,-4
   11af4:	40e606b3          	sub	a3,a2,a4
   11af8:	02000793          	li	a5,32
   11afc:	02000293          	li	t0,32
   11b00:	06d7c263          	blt	a5,a3,11b64 <memcpy+0x98>
   11b04:	00058693          	mv	a3,a1
   11b08:	00070793          	mv	a5,a4
   11b0c:	02c77863          	bgeu	a4,a2,11b3c <memcpy+0x70>
   11b10:	0006a803          	lw	a6,0(a3)
   11b14:	00478793          	addi	a5,a5,4
   11b18:	00468693          	addi	a3,a3,4
   11b1c:	ff07ae23          	sw	a6,-4(a5)
   11b20:	fec7e8e3          	bltu	a5,a2,11b10 <memcpy+0x44>
   11b24:	fff60793          	addi	a5,a2,-1
   11b28:	40e787b3          	sub	a5,a5,a4
   11b2c:	ffc7f793          	andi	a5,a5,-4
   11b30:	00478793          	addi	a5,a5,4
   11b34:	00f70733          	add	a4,a4,a5
   11b38:	00f585b3          	add	a1,a1,a5
   11b3c:	01176863          	bltu	a4,a7,11b4c <memcpy+0x80>
   11b40:	00008067          	ret
   11b44:	00050713          	mv	a4,a0
   11b48:	ff157ce3          	bgeu	a0,a7,11b40 <memcpy+0x74>
   11b4c:	0005c783          	lbu	a5,0(a1)
   11b50:	00170713          	addi	a4,a4,1
   11b54:	00158593          	addi	a1,a1,1
   11b58:	fef70fa3          	sb	a5,-1(a4)
   11b5c:	ff1768e3          	bltu	a4,a7,11b4c <memcpy+0x80>
   11b60:	00008067          	ret
   11b64:	0045a683          	lw	a3,4(a1)
   11b68:	01c5a783          	lw	a5,28(a1)
   11b6c:	0005af83          	lw	t6,0(a1)
   11b70:	0085af03          	lw	t5,8(a1)
   11b74:	00c5ae83          	lw	t4,12(a1)
   11b78:	0105ae03          	lw	t3,16(a1)
   11b7c:	0145a303          	lw	t1,20(a1)
   11b80:	0185a803          	lw	a6,24(a1)
   11b84:	00d72223          	sw	a3,4(a4)
   11b88:	0205a683          	lw	a3,32(a1)
   11b8c:	01f72023          	sw	t6,0(a4)
   11b90:	01e72423          	sw	t5,8(a4)
   11b94:	01d72623          	sw	t4,12(a4)
   11b98:	01c72823          	sw	t3,16(a4)
   11b9c:	00672a23          	sw	t1,20(a4)
   11ba0:	01072c23          	sw	a6,24(a4)
   11ba4:	00f72e23          	sw	a5,28(a4)
   11ba8:	02470713          	addi	a4,a4,36
   11bac:	40e607b3          	sub	a5,a2,a4
   11bb0:	fed72e23          	sw	a3,-4(a4)
   11bb4:	02458593          	addi	a1,a1,36
   11bb8:	faf2c6e3          	blt	t0,a5,11b64 <memcpy+0x98>
   11bbc:	f49ff06f          	j	11b04 <memcpy+0x38>
   11bc0:	0005c683          	lbu	a3,0(a1)
   11bc4:	00170713          	addi	a4,a4,1
   11bc8:	00377793          	andi	a5,a4,3
   11bcc:	fed70fa3          	sb	a3,-1(a4)
   11bd0:	00158593          	addi	a1,a1,1
   11bd4:	f0078ee3          	beqz	a5,11af0 <memcpy+0x24>
   11bd8:	0005c683          	lbu	a3,0(a1)
   11bdc:	00170713          	addi	a4,a4,1
   11be0:	00377793          	andi	a5,a4,3
   11be4:	fed70fa3          	sb	a3,-1(a4)
   11be8:	00158593          	addi	a1,a1,1
   11bec:	fc079ae3          	bnez	a5,11bc0 <memcpy+0xf4>
   11bf0:	f01ff06f          	j	11af0 <memcpy+0x24>

00011bf4 <memset>:
   11bf4:	00f00313          	li	t1,15
   11bf8:	00050713          	mv	a4,a0
   11bfc:	02c37e63          	bgeu	t1,a2,11c38 <memset+0x44>
   11c00:	00f77793          	andi	a5,a4,15
   11c04:	0a079063          	bnez	a5,11ca4 <memset+0xb0>
   11c08:	08059263          	bnez	a1,11c8c <memset+0x98>
   11c0c:	ff067693          	andi	a3,a2,-16
   11c10:	00f67613          	andi	a2,a2,15
   11c14:	00e686b3          	add	a3,a3,a4
   11c18:	00b72023          	sw	a1,0(a4)
   11c1c:	00b72223          	sw	a1,4(a4)
   11c20:	00b72423          	sw	a1,8(a4)
   11c24:	00b72623          	sw	a1,12(a4)
   11c28:	01070713          	addi	a4,a4,16
   11c2c:	fed766e3          	bltu	a4,a3,11c18 <memset+0x24>
   11c30:	00061463          	bnez	a2,11c38 <memset+0x44>
   11c34:	00008067          	ret
   11c38:	40c306b3          	sub	a3,t1,a2
   11c3c:	00269693          	slli	a3,a3,0x2
   11c40:	00000297          	auipc	t0,0x0
   11c44:	005686b3          	add	a3,a3,t0
   11c48:	00c68067          	jr	12(a3)
   11c4c:	00b70723          	sb	a1,14(a4)
   11c50:	00b706a3          	sb	a1,13(a4)
   11c54:	00b70623          	sb	a1,12(a4)
   11c58:	00b705a3          	sb	a1,11(a4)
   11c5c:	00b70523          	sb	a1,10(a4)
   11c60:	00b704a3          	sb	a1,9(a4)
   11c64:	00b70423          	sb	a1,8(a4)
   11c68:	00b703a3          	sb	a1,7(a4)
   11c6c:	00b70323          	sb	a1,6(a4)
   11c70:	00b702a3          	sb	a1,5(a4)
   11c74:	00b70223          	sb	a1,4(a4)
   11c78:	00b701a3          	sb	a1,3(a4)
   11c7c:	00b70123          	sb	a1,2(a4)
   11c80:	00b700a3          	sb	a1,1(a4)
   11c84:	00b70023          	sb	a1,0(a4)
   11c88:	00008067          	ret
   11c8c:	0ff5f593          	zext.b	a1,a1
   11c90:	00859693          	slli	a3,a1,0x8
   11c94:	00d5e5b3          	or	a1,a1,a3
   11c98:	01059693          	slli	a3,a1,0x10
   11c9c:	00d5e5b3          	or	a1,a1,a3
   11ca0:	f6dff06f          	j	11c0c <memset+0x18>
   11ca4:	00279693          	slli	a3,a5,0x2
   11ca8:	00000297          	auipc	t0,0x0
   11cac:	005686b3          	add	a3,a3,t0
   11cb0:	00008293          	mv	t0,ra
   11cb4:	fa0680e7          	jalr	-96(a3)
   11cb8:	00028093          	mv	ra,t0
   11cbc:	ff078793          	addi	a5,a5,-16
   11cc0:	40f70733          	sub	a4,a4,a5
   11cc4:	00f60633          	add	a2,a2,a5
   11cc8:	f6c378e3          	bgeu	t1,a2,11c38 <memset+0x44>
   11ccc:	f3dff06f          	j	11c08 <memset+0x14>

00011cd0 <__call_exitprocs>:
   11cd0:	fd010113          	addi	sp,sp,-48
   11cd4:	01412c23          	sw	s4,24(sp)
   11cd8:	c281aa03          	lw	s4,-984(gp) # 12438 <_global_impure_ptr>
   11cdc:	03212023          	sw	s2,32(sp)
   11ce0:	02112623          	sw	ra,44(sp)
   11ce4:	148a2903          	lw	s2,328(s4)
   11ce8:	02812423          	sw	s0,40(sp)
   11cec:	02912223          	sw	s1,36(sp)
   11cf0:	01312e23          	sw	s3,28(sp)
   11cf4:	01512a23          	sw	s5,20(sp)
   11cf8:	01612823          	sw	s6,16(sp)
   11cfc:	01712623          	sw	s7,12(sp)
   11d00:	01812423          	sw	s8,8(sp)
   11d04:	04090063          	beqz	s2,11d44 <__call_exitprocs+0x74>
   11d08:	00050b13          	mv	s6,a0
   11d0c:	00058b93          	mv	s7,a1
   11d10:	00100a93          	li	s5,1
   11d14:	fff00993          	li	s3,-1
   11d18:	00492483          	lw	s1,4(s2)
   11d1c:	fff48413          	addi	s0,s1,-1
   11d20:	02044263          	bltz	s0,11d44 <__call_exitprocs+0x74>
   11d24:	00249493          	slli	s1,s1,0x2
   11d28:	009904b3          	add	s1,s2,s1
   11d2c:	040b8463          	beqz	s7,11d74 <__call_exitprocs+0xa4>
   11d30:	1044a783          	lw	a5,260(s1)
   11d34:	05778063          	beq	a5,s7,11d74 <__call_exitprocs+0xa4>
   11d38:	fff40413          	addi	s0,s0,-1
   11d3c:	ffc48493          	addi	s1,s1,-4
   11d40:	ff3416e3          	bne	s0,s3,11d2c <__call_exitprocs+0x5c>
   11d44:	02c12083          	lw	ra,44(sp)
   11d48:	02812403          	lw	s0,40(sp)
   11d4c:	02412483          	lw	s1,36(sp)
   11d50:	02012903          	lw	s2,32(sp)
   11d54:	01c12983          	lw	s3,28(sp)
   11d58:	01812a03          	lw	s4,24(sp)
   11d5c:	01412a83          	lw	s5,20(sp)
   11d60:	01012b03          	lw	s6,16(sp)
   11d64:	00c12b83          	lw	s7,12(sp)
   11d68:	00812c03          	lw	s8,8(sp)
   11d6c:	03010113          	addi	sp,sp,48
   11d70:	00008067          	ret
   11d74:	00492783          	lw	a5,4(s2)
   11d78:	0044a683          	lw	a3,4(s1)
   11d7c:	fff78793          	addi	a5,a5,-1
   11d80:	04878e63          	beq	a5,s0,11ddc <__call_exitprocs+0x10c>
   11d84:	0004a223          	sw	zero,4(s1)
   11d88:	fa0688e3          	beqz	a3,11d38 <__call_exitprocs+0x68>
   11d8c:	18892783          	lw	a5,392(s2)
   11d90:	008a9733          	sll	a4,s5,s0
   11d94:	00492c03          	lw	s8,4(s2)
   11d98:	00f777b3          	and	a5,a4,a5
   11d9c:	02079263          	bnez	a5,11dc0 <__call_exitprocs+0xf0>
   11da0:	000680e7          	jalr	a3
   11da4:	00492703          	lw	a4,4(s2)
   11da8:	148a2783          	lw	a5,328(s4)
   11dac:	01871463          	bne	a4,s8,11db4 <__call_exitprocs+0xe4>
   11db0:	f92784e3          	beq	a5,s2,11d38 <__call_exitprocs+0x68>
   11db4:	f80788e3          	beqz	a5,11d44 <__call_exitprocs+0x74>
   11db8:	00078913          	mv	s2,a5
   11dbc:	f5dff06f          	j	11d18 <__call_exitprocs+0x48>
   11dc0:	18c92783          	lw	a5,396(s2)
   11dc4:	0844a583          	lw	a1,132(s1)
   11dc8:	00f77733          	and	a4,a4,a5
   11dcc:	00071c63          	bnez	a4,11de4 <__call_exitprocs+0x114>
   11dd0:	000b0513          	mv	a0,s6
   11dd4:	000680e7          	jalr	a3
   11dd8:	fcdff06f          	j	11da4 <__call_exitprocs+0xd4>
   11ddc:	00892223          	sw	s0,4(s2)
   11de0:	fa9ff06f          	j	11d88 <__call_exitprocs+0xb8>
   11de4:	00058513          	mv	a0,a1
   11de8:	000680e7          	jalr	a3
   11dec:	fb9ff06f          	j	11da4 <__call_exitprocs+0xd4>

00011df0 <__libc_fini_array>:
   11df0:	ff010113          	addi	sp,sp,-16
   11df4:	00812423          	sw	s0,8(sp)
   11df8:	000127b7          	lui	a5,0x12
   11dfc:	00012437          	lui	s0,0x12
   11e00:	00c78793          	addi	a5,a5,12 # 1200c <__do_global_dtors_aux_fini_array_entry>
   11e04:	01040413          	addi	s0,s0,16 # 12010 <impure_data>
   11e08:	40f40433          	sub	s0,s0,a5
   11e0c:	00912223          	sw	s1,4(sp)
   11e10:	00112623          	sw	ra,12(sp)
   11e14:	40245493          	srai	s1,s0,0x2
   11e18:	02048063          	beqz	s1,11e38 <__libc_fini_array+0x48>
   11e1c:	ffc40413          	addi	s0,s0,-4
   11e20:	00f40433          	add	s0,s0,a5
   11e24:	00042783          	lw	a5,0(s0)
   11e28:	fff48493          	addi	s1,s1,-1
   11e2c:	ffc40413          	addi	s0,s0,-4
   11e30:	000780e7          	jalr	a5
   11e34:	fe0498e3          	bnez	s1,11e24 <__libc_fini_array+0x34>
   11e38:	00c12083          	lw	ra,12(sp)
   11e3c:	00812403          	lw	s0,8(sp)
   11e40:	00412483          	lw	s1,4(sp)
   11e44:	01010113          	addi	sp,sp,16
   11e48:	00008067          	ret

00011e4c <atexit>:
   11e4c:	00050593          	mv	a1,a0
   11e50:	00000693          	li	a3,0
   11e54:	00000613          	li	a2,0
   11e58:	00000513          	li	a0,0
   11e5c:	0040006f          	j	11e60 <__register_exitproc>

00011e60 <__register_exitproc>:
   11e60:	c281a703          	lw	a4,-984(gp) # 12438 <_global_impure_ptr>
   11e64:	14872783          	lw	a5,328(a4)
   11e68:	04078c63          	beqz	a5,11ec0 <__register_exitproc+0x60>
   11e6c:	0047a703          	lw	a4,4(a5)
   11e70:	01f00813          	li	a6,31
   11e74:	06e84e63          	blt	a6,a4,11ef0 <__register_exitproc+0x90>
   11e78:	00271813          	slli	a6,a4,0x2
   11e7c:	02050663          	beqz	a0,11ea8 <__register_exitproc+0x48>
   11e80:	01078333          	add	t1,a5,a6
   11e84:	08c32423          	sw	a2,136(t1) # 10208 <interface+0x7c>
   11e88:	1887a883          	lw	a7,392(a5)
   11e8c:	00100613          	li	a2,1
   11e90:	00e61633          	sll	a2,a2,a4
   11e94:	00c8e8b3          	or	a7,a7,a2
   11e98:	1917a423          	sw	a7,392(a5)
   11e9c:	10d32423          	sw	a3,264(t1)
   11ea0:	00200693          	li	a3,2
   11ea4:	02d50463          	beq	a0,a3,11ecc <__register_exitproc+0x6c>
   11ea8:	00170713          	addi	a4,a4,1
   11eac:	00e7a223          	sw	a4,4(a5)
   11eb0:	010787b3          	add	a5,a5,a6
   11eb4:	00b7a423          	sw	a1,8(a5)
   11eb8:	00000513          	li	a0,0
   11ebc:	00008067          	ret
   11ec0:	14c70793          	addi	a5,a4,332
   11ec4:	14f72423          	sw	a5,328(a4)
   11ec8:	fa5ff06f          	j	11e6c <__register_exitproc+0xc>
   11ecc:	18c7a683          	lw	a3,396(a5)
   11ed0:	00170713          	addi	a4,a4,1
   11ed4:	00e7a223          	sw	a4,4(a5)
   11ed8:	00c6e6b3          	or	a3,a3,a2
   11edc:	18d7a623          	sw	a3,396(a5)
   11ee0:	010787b3          	add	a5,a5,a6
   11ee4:	00b7a423          	sw	a1,8(a5)
   11ee8:	00000513          	li	a0,0
   11eec:	00008067          	ret
   11ef0:	fff00513          	li	a0,-1
   11ef4:	00008067          	ret

00011ef8 <_exit>:
   11ef8:	05d00893          	li	a7,93
   11efc:	00000073          	ecall
   11f00:	00054463          	bltz	a0,11f08 <_exit+0x10>
   11f04:	0000006f          	j	11f04 <_exit+0xc>
   11f08:	ff010113          	addi	sp,sp,-16
   11f0c:	00812423          	sw	s0,8(sp)
   11f10:	00050413          	mv	s0,a0
   11f14:	00112623          	sw	ra,12(sp)
   11f18:	40800433          	neg	s0,s0
   11f1c:	00c000ef          	jal	ra,11f28 <__errno>
   11f20:	00852023          	sw	s0,0(a0) # 12000 <__FRAME_END__>
   11f24:	0000006f          	j	11f24 <_exit+0x2c>

00011f28 <__errno>:
   11f28:	c2c1a503          	lw	a0,-980(gp) # 1243c <_impure_ptr>
   11f2c:	00008067          	ret
