
./riscv32-benchmarks-customtoolchain/src/matmult-int/matmult-int:     file format elf32-littleriscv


Disassembly of section .text:

00010094 <exit>:
   10094:	ff010113          	addi	sp,sp,-16
   10098:	00000593          	li	a1,0
   1009c:	00812423          	sw	s0,8(sp)
   100a0:	00112623          	sw	ra,12(sp)
   100a4:	00050413          	mv	s0,a0
   100a8:	195000ef          	jal	ra,10a3c <__call_exitprocs>
   100ac:	000127b7          	lui	a5,0x12
   100b0:	7207a503          	lw	a0,1824(a5) # 12720 <_global_impure_ptr>
   100b4:	03c52783          	lw	a5,60(a0)
   100b8:	00078463          	beqz	a5,100c0 <exit+0x2c>
   100bc:	000780e7          	jalr	a5
   100c0:	00040513          	mv	a0,s0
   100c4:	3a9000ef          	jal	ra,10c6c <_exit>

000100c8 <register_fini>:
   100c8:	00000793          	li	a5,0
   100cc:	00078863          	beqz	a5,100dc <register_fini+0x14>
   100d0:	00011537          	lui	a0,0x11
   100d4:	b6050513          	addi	a0,a0,-1184 # 10b60 <__libc_fini_array>
   100d8:	2e50006f          	j	10bbc <atexit>
   100dc:	00008067          	ret

000100e0 <_start>:
   100e0:	00003197          	auipc	gp,0x3
   100e4:	e4018193          	addi	gp,gp,-448 # 12f20 <__global_pointer$>
   100e8:	80818513          	addi	a0,gp,-2040 # 12728 <Seed>
   100ec:	00004617          	auipc	a2,0x4
   100f0:	59c60613          	addi	a2,a2,1436 # 14688 <__BSS_END__>
   100f4:	40a60633          	sub	a2,a2,a0
   100f8:	00000593          	li	a1,0
   100fc:	065000ef          	jal	ra,10960 <memset>
   10100:	00001517          	auipc	a0,0x1
   10104:	abc50513          	addi	a0,a0,-1348 # 10bbc <atexit>
   10108:	00050863          	beqz	a0,10118 <_start+0x38>
   1010c:	00001517          	auipc	a0,0x1
   10110:	a5450513          	addi	a0,a0,-1452 # 10b60 <__libc_fini_array>
   10114:	2a9000ef          	jal	ra,10bbc <atexit>
   10118:	60c000ef          	jal	ra,10724 <__libc_init_array>
   1011c:	00012503          	lw	a0,0(sp)
   10120:	00410593          	addi	a1,sp,4
   10124:	00000613          	li	a2,0
   10128:	590000ef          	jal	ra,106b8 <main>
   1012c:	f69ff06f          	j	10094 <exit>

00010130 <__do_global_dtors_aux>:
   10130:	ff010113          	addi	sp,sp,-16
   10134:	00812423          	sw	s0,8(sp)
   10138:	80c1c783          	lbu	a5,-2036(gp) # 1272c <completed.1>
   1013c:	00112623          	sw	ra,12(sp)
   10140:	02079263          	bnez	a5,10164 <__do_global_dtors_aux+0x34>
   10144:	00000793          	li	a5,0
   10148:	00078a63          	beqz	a5,1015c <__do_global_dtors_aux+0x2c>
   1014c:	00012537          	lui	a0,0x12
   10150:	2e850513          	addi	a0,a0,744 # 122e8 <__FRAME_END__>
   10154:	00000097          	auipc	ra,0x0
   10158:	000000e7          	jalr	zero # 0 <exit-0x10094>
   1015c:	00100793          	li	a5,1
   10160:	80f18623          	sb	a5,-2036(gp) # 1272c <completed.1>
   10164:	00c12083          	lw	ra,12(sp)
   10168:	00812403          	lw	s0,8(sp)
   1016c:	01010113          	addi	sp,sp,16
   10170:	00008067          	ret

00010174 <frame_dummy>:
   10174:	00000793          	li	a5,0
   10178:	00078e63          	beqz	a5,10194 <frame_dummy+0x20>
   1017c:	000125b7          	lui	a1,0x12
   10180:	00012537          	lui	a0,0x12
   10184:	73058593          	addi	a1,a1,1840 # 12730 <object.0>
   10188:	2e850513          	addi	a0,a0,744 # 122e8 <__FRAME_END__>
   1018c:	00000317          	auipc	t1,0x0
   10190:	00000067          	jr	zero # 0 <exit-0x10094>
   10194:	00008067          	ret

00010198 <warm_caches>:
   10198:	fd010113          	addi	sp,sp,-48
   1019c:	02112623          	sw	ra,44(sp)
   101a0:	02812423          	sw	s0,40(sp)
   101a4:	03010413          	addi	s0,sp,48
   101a8:	fca42e23          	sw	a0,-36(s0)
   101ac:	fdc42503          	lw	a0,-36(s0)
   101b0:	04c000ef          	jal	ra,101fc <benchmark_body>
   101b4:	fea42623          	sw	a0,-20(s0)
   101b8:	00000013          	nop
   101bc:	02c12083          	lw	ra,44(sp)
   101c0:	02812403          	lw	s0,40(sp)
   101c4:	03010113          	addi	sp,sp,48
   101c8:	00008067          	ret

000101cc <benchmark>:
   101cc:	ff010113          	addi	sp,sp,-16
   101d0:	00112623          	sw	ra,12(sp)
   101d4:	00812423          	sw	s0,8(sp)
   101d8:	01010413          	addi	s0,sp,16
   101dc:	02e00513          	li	a0,46
   101e0:	01c000ef          	jal	ra,101fc <benchmark_body>
   101e4:	00050793          	mv	a5,a0
   101e8:	00078513          	mv	a0,a5
   101ec:	00c12083          	lw	ra,12(sp)
   101f0:	00812403          	lw	s0,8(sp)
   101f4:	01010113          	addi	sp,sp,16
   101f8:	00008067          	ret

000101fc <benchmark_body>:
   101fc:	fd010113          	addi	sp,sp,-48
   10200:	02112623          	sw	ra,44(sp)
   10204:	02812423          	sw	s0,40(sp)
   10208:	03010413          	addi	s0,sp,48
   1020c:	fca42e23          	sw	a0,-36(s0)
   10210:	fe042623          	sw	zero,-20(s0)
   10214:	0740006f          	j	10288 <benchmark_body+0x8c>
   10218:	e6818713          	addi	a4,gp,-408 # 12d88 <ArrayA>
   1021c:	000127b7          	lui	a5,0x12
   10220:	74878793          	addi	a5,a5,1864 # 12748 <ArrayA_ref>
   10224:	00078693          	mv	a3,a5
   10228:	64000793          	li	a5,1600
   1022c:	00078613          	mv	a2,a5
   10230:	00068593          	mv	a1,a3
   10234:	00070513          	mv	a0,a4
   10238:	600000ef          	jal	ra,10838 <memcpy>
   1023c:	000147b7          	lui	a5,0x14
   10240:	a0878713          	addi	a4,a5,-1528 # 13a08 <ArrayB>
   10244:	000137b7          	lui	a5,0x13
   10248:	3c878793          	addi	a5,a5,968 # 133c8 <ArrayB_ref>
   1024c:	00078693          	mv	a3,a5
   10250:	64000793          	li	a5,1600
   10254:	00078613          	mv	a2,a5
   10258:	00068593          	mv	a1,a3
   1025c:	00070513          	mv	a0,a4
   10260:	5d8000ef          	jal	ra,10838 <memcpy>
   10264:	000147b7          	lui	a5,0x14
   10268:	04878613          	addi	a2,a5,72 # 14048 <ResultArray>
   1026c:	000147b7          	lui	a5,0x14
   10270:	a0878593          	addi	a1,a5,-1528 # 13a08 <ArrayB>
   10274:	e6818513          	addi	a0,gp,-408 # 12d88 <ArrayA>
   10278:	058000ef          	jal	ra,102d0 <Test>
   1027c:	fec42783          	lw	a5,-20(s0)
   10280:	00178793          	addi	a5,a5,1
   10284:	fef42623          	sw	a5,-20(s0)
   10288:	fec42703          	lw	a4,-20(s0)
   1028c:	fdc42783          	lw	a5,-36(s0)
   10290:	f8f744e3          	blt	a4,a5,10218 <benchmark_body+0x1c>
   10294:	00000793          	li	a5,0
   10298:	00078513          	mv	a0,a5
   1029c:	02c12083          	lw	ra,44(sp)
   102a0:	02812403          	lw	s0,40(sp)
   102a4:	03010113          	addi	sp,sp,48
   102a8:	00008067          	ret

000102ac <InitSeed>:
   102ac:	ff010113          	addi	sp,sp,-16
   102b0:	00812623          	sw	s0,12(sp)
   102b4:	01010413          	addi	s0,sp,16
   102b8:	000127b7          	lui	a5,0x12
   102bc:	7207a423          	sw	zero,1832(a5) # 12728 <Seed>
   102c0:	00000013          	nop
   102c4:	00c12403          	lw	s0,12(sp)
   102c8:	01010113          	addi	sp,sp,16
   102cc:	00008067          	ret

000102d0 <Test>:
   102d0:	fe010113          	addi	sp,sp,-32
   102d4:	00112e23          	sw	ra,28(sp)
   102d8:	00812c23          	sw	s0,24(sp)
   102dc:	02010413          	addi	s0,sp,32
   102e0:	fea42623          	sw	a0,-20(s0)
   102e4:	feb42423          	sw	a1,-24(s0)
   102e8:	fec42223          	sw	a2,-28(s0)
   102ec:	fe442603          	lw	a2,-28(s0)
   102f0:	fe842583          	lw	a1,-24(s0)
   102f4:	fec42503          	lw	a0,-20(s0)
   102f8:	070000ef          	jal	ra,10368 <Multiply>
   102fc:	00000013          	nop
   10300:	01c12083          	lw	ra,28(sp)
   10304:	01812403          	lw	s0,24(sp)
   10308:	02010113          	addi	sp,sp,32
   1030c:	00008067          	ret

00010310 <RandomInteger>:
   10310:	ff010113          	addi	sp,sp,-16
   10314:	00812623          	sw	s0,12(sp)
   10318:	01010413          	addi	s0,sp,16
   1031c:	000127b7          	lui	a5,0x12
   10320:	7287a703          	lw	a4,1832(a5) # 12728 <Seed>
   10324:	00070793          	mv	a5,a4
   10328:	00579793          	slli	a5,a5,0x5
   1032c:	00e787b3          	add	a5,a5,a4
   10330:	00279793          	slli	a5,a5,0x2
   10334:	00e787b3          	add	a5,a5,a4
   10338:	05178713          	addi	a4,a5,81
   1033c:	000027b7          	lui	a5,0x2
   10340:	f9f78793          	addi	a5,a5,-97 # 1f9f <exit-0xe0f5>
   10344:	02f76733          	rem	a4,a4,a5
   10348:	000127b7          	lui	a5,0x12
   1034c:	72e7a423          	sw	a4,1832(a5) # 12728 <Seed>
   10350:	000127b7          	lui	a5,0x12
   10354:	7287a783          	lw	a5,1832(a5) # 12728 <Seed>
   10358:	00078513          	mv	a0,a5
   1035c:	00c12403          	lw	s0,12(sp)
   10360:	01010113          	addi	sp,sp,16
   10364:	00008067          	ret

00010368 <Multiply>:
   10368:	fe010113          	addi	sp,sp,-32
   1036c:	00812e23          	sw	s0,28(sp)
   10370:	00912c23          	sw	s1,24(sp)
   10374:	01212a23          	sw	s2,20(sp)
   10378:	01312823          	sw	s3,16(sp)
   1037c:	02010413          	addi	s0,sp,32
   10380:	fea42623          	sw	a0,-20(s0)
   10384:	feb42423          	sw	a1,-24(s0)
   10388:	fec42223          	sw	a2,-28(s0)
   1038c:	00000913          	li	s2,0
   10390:	1140006f          	j	104a4 <Multiply+0x13c>
   10394:	00000493          	li	s1,0
   10398:	1000006f          	j	10498 <Multiply+0x130>
   1039c:	00090713          	mv	a4,s2
   103a0:	00070793          	mv	a5,a4
   103a4:	00279793          	slli	a5,a5,0x2
   103a8:	00e787b3          	add	a5,a5,a4
   103ac:	00479793          	slli	a5,a5,0x4
   103b0:	00078713          	mv	a4,a5
   103b4:	fe442783          	lw	a5,-28(s0)
   103b8:	00e78733          	add	a4,a5,a4
   103bc:	00249793          	slli	a5,s1,0x2
   103c0:	00f707b3          	add	a5,a4,a5
   103c4:	0007a023          	sw	zero,0(a5)
   103c8:	00000993          	li	s3,0
   103cc:	0c00006f          	j	1048c <Multiply+0x124>
   103d0:	00090713          	mv	a4,s2
   103d4:	00070793          	mv	a5,a4
   103d8:	00279793          	slli	a5,a5,0x2
   103dc:	00e787b3          	add	a5,a5,a4
   103e0:	00479793          	slli	a5,a5,0x4
   103e4:	00078713          	mv	a4,a5
   103e8:	fe442783          	lw	a5,-28(s0)
   103ec:	00e78733          	add	a4,a5,a4
   103f0:	00249793          	slli	a5,s1,0x2
   103f4:	00f707b3          	add	a5,a4,a5
   103f8:	0007a603          	lw	a2,0(a5)
   103fc:	00090713          	mv	a4,s2
   10400:	00070793          	mv	a5,a4
   10404:	00279793          	slli	a5,a5,0x2
   10408:	00e787b3          	add	a5,a5,a4
   1040c:	00479793          	slli	a5,a5,0x4
   10410:	00078713          	mv	a4,a5
   10414:	fec42783          	lw	a5,-20(s0)
   10418:	00e78733          	add	a4,a5,a4
   1041c:	00299793          	slli	a5,s3,0x2
   10420:	00f707b3          	add	a5,a4,a5
   10424:	0007a703          	lw	a4,0(a5)
   10428:	00098693          	mv	a3,s3
   1042c:	00068793          	mv	a5,a3
   10430:	00279793          	slli	a5,a5,0x2
   10434:	00d787b3          	add	a5,a5,a3
   10438:	00479793          	slli	a5,a5,0x4
   1043c:	00078693          	mv	a3,a5
   10440:	fe842783          	lw	a5,-24(s0)
   10444:	00d786b3          	add	a3,a5,a3
   10448:	00249793          	slli	a5,s1,0x2
   1044c:	00f687b3          	add	a5,a3,a5
   10450:	0007a783          	lw	a5,0(a5)
   10454:	02f70733          	mul	a4,a4,a5
   10458:	00090693          	mv	a3,s2
   1045c:	00068793          	mv	a5,a3
   10460:	00279793          	slli	a5,a5,0x2
   10464:	00d787b3          	add	a5,a5,a3
   10468:	00479793          	slli	a5,a5,0x4
   1046c:	00078693          	mv	a3,a5
   10470:	fe442783          	lw	a5,-28(s0)
   10474:	00d786b3          	add	a3,a5,a3
   10478:	00e60733          	add	a4,a2,a4
   1047c:	00249793          	slli	a5,s1,0x2
   10480:	00f687b3          	add	a5,a3,a5
   10484:	00e7a023          	sw	a4,0(a5)
   10488:	00198993          	addi	s3,s3,1
   1048c:	01300793          	li	a5,19
   10490:	f537d0e3          	bge	a5,s3,103d0 <Multiply+0x68>
   10494:	00148493          	addi	s1,s1,1
   10498:	01300793          	li	a5,19
   1049c:	f097d0e3          	bge	a5,s1,1039c <Multiply+0x34>
   104a0:	00190913          	addi	s2,s2,1
   104a4:	01300793          	li	a5,19
   104a8:	ef27d6e3          	bge	a5,s2,10394 <Multiply+0x2c>
   104ac:	00000013          	nop
   104b0:	00000013          	nop
   104b4:	01c12403          	lw	s0,28(sp)
   104b8:	01812483          	lw	s1,24(sp)
   104bc:	01412903          	lw	s2,20(sp)
   104c0:	01012983          	lw	s3,16(sp)
   104c4:	02010113          	addi	sp,sp,32
   104c8:	00008067          	ret

000104cc <initialise_benchmark>:
   104cc:	fe010113          	addi	sp,sp,-32
   104d0:	00112e23          	sw	ra,28(sp)
   104d4:	00812c23          	sw	s0,24(sp)
   104d8:	02010413          	addi	s0,sp,32
   104dc:	dd1ff0ef          	jal	ra,102ac <InitSeed>
   104e0:	fe042623          	sw	zero,-20(s0)
   104e4:	0680006f          	j	1054c <initialise_benchmark+0x80>
   104e8:	fe042423          	sw	zero,-24(s0)
   104ec:	0480006f          	j	10534 <initialise_benchmark+0x68>
   104f0:	e21ff0ef          	jal	ra,10310 <RandomInteger>
   104f4:	00050613          	mv	a2,a0
   104f8:	000127b7          	lui	a5,0x12
   104fc:	74878693          	addi	a3,a5,1864 # 12748 <ArrayA_ref>
   10500:	fec42703          	lw	a4,-20(s0)
   10504:	00070793          	mv	a5,a4
   10508:	00279793          	slli	a5,a5,0x2
   1050c:	00e787b3          	add	a5,a5,a4
   10510:	00279793          	slli	a5,a5,0x2
   10514:	fe842703          	lw	a4,-24(s0)
   10518:	00e787b3          	add	a5,a5,a4
   1051c:	00279793          	slli	a5,a5,0x2
   10520:	00f687b3          	add	a5,a3,a5
   10524:	00c7a023          	sw	a2,0(a5)
   10528:	fe842783          	lw	a5,-24(s0)
   1052c:	00178793          	addi	a5,a5,1
   10530:	fef42423          	sw	a5,-24(s0)
   10534:	fe842703          	lw	a4,-24(s0)
   10538:	01300793          	li	a5,19
   1053c:	fae7dae3          	bge	a5,a4,104f0 <initialise_benchmark+0x24>
   10540:	fec42783          	lw	a5,-20(s0)
   10544:	00178793          	addi	a5,a5,1
   10548:	fef42623          	sw	a5,-20(s0)
   1054c:	fec42703          	lw	a4,-20(s0)
   10550:	01300793          	li	a5,19
   10554:	f8e7dae3          	bge	a5,a4,104e8 <initialise_benchmark+0x1c>
   10558:	fe042623          	sw	zero,-20(s0)
   1055c:	0680006f          	j	105c4 <initialise_benchmark+0xf8>
   10560:	fe042423          	sw	zero,-24(s0)
   10564:	0480006f          	j	105ac <initialise_benchmark+0xe0>
   10568:	da9ff0ef          	jal	ra,10310 <RandomInteger>
   1056c:	00050613          	mv	a2,a0
   10570:	000137b7          	lui	a5,0x13
   10574:	3c878693          	addi	a3,a5,968 # 133c8 <ArrayB_ref>
   10578:	fec42703          	lw	a4,-20(s0)
   1057c:	00070793          	mv	a5,a4
   10580:	00279793          	slli	a5,a5,0x2
   10584:	00e787b3          	add	a5,a5,a4
   10588:	00279793          	slli	a5,a5,0x2
   1058c:	fe842703          	lw	a4,-24(s0)
   10590:	00e787b3          	add	a5,a5,a4
   10594:	00279793          	slli	a5,a5,0x2
   10598:	00f687b3          	add	a5,a3,a5
   1059c:	00c7a023          	sw	a2,0(a5)
   105a0:	fe842783          	lw	a5,-24(s0)
   105a4:	00178793          	addi	a5,a5,1
   105a8:	fef42423          	sw	a5,-24(s0)
   105ac:	fe842703          	lw	a4,-24(s0)
   105b0:	01300793          	li	a5,19
   105b4:	fae7dae3          	bge	a5,a4,10568 <initialise_benchmark+0x9c>
   105b8:	fec42783          	lw	a5,-20(s0)
   105bc:	00178793          	addi	a5,a5,1
   105c0:	fef42623          	sw	a5,-20(s0)
   105c4:	fec42703          	lw	a4,-20(s0)
   105c8:	01300793          	li	a5,19
   105cc:	f8e7dae3          	bge	a5,a4,10560 <initialise_benchmark+0x94>
   105d0:	00000013          	nop
   105d4:	00000013          	nop
   105d8:	01c12083          	lw	ra,28(sp)
   105dc:	01812403          	lw	s0,24(sp)
   105e0:	02010113          	addi	sp,sp,32
   105e4:	00008067          	ret

000105e8 <verify_benchmark>:
   105e8:	9a010113          	addi	sp,sp,-1632
   105ec:	64112e23          	sw	ra,1628(sp)
   105f0:	64812c23          	sw	s0,1624(sp)
   105f4:	66010413          	addi	s0,sp,1632
   105f8:	9aa42623          	sw	a0,-1620(s0)
   105fc:	000117b7          	lui	a5,0x11
   10600:	ca878713          	addi	a4,a5,-856 # 10ca8 <__errno+0xc>
   10604:	9b040793          	addi	a5,s0,-1616
   10608:	00070693          	mv	a3,a4
   1060c:	64000713          	li	a4,1600
   10610:	00070613          	mv	a2,a4
   10614:	00068593          	mv	a1,a3
   10618:	00078513          	mv	a0,a5
   1061c:	21c000ef          	jal	ra,10838 <memcpy>
   10620:	9b040793          	addi	a5,s0,-1616
   10624:	64000613          	li	a2,1600
   10628:	00078593          	mv	a1,a5
   1062c:	000147b7          	lui	a5,0x14
   10630:	04878513          	addi	a0,a5,72 # 14048 <ResultArray>
   10634:	18c000ef          	jal	ra,107c0 <memcmp>
   10638:	00050793          	mv	a5,a0
   1063c:	0017b793          	seqz	a5,a5
   10640:	0ff7f793          	zext.b	a5,a5
   10644:	00078513          	mv	a0,a5
   10648:	65c12083          	lw	ra,1628(sp)
   1064c:	65812403          	lw	s0,1624(sp)
   10650:	66010113          	addi	sp,sp,1632
   10654:	00008067          	ret

00010658 <initialise_board>:
   10658:	ff010113          	addi	sp,sp,-16
   1065c:	00812623          	sw	s0,12(sp)
   10660:	01010413          	addi	s0,sp,16
   10664:	00000513          	li	a0,0
   10668:	00000013          	nop
   1066c:	00c12403          	lw	s0,12(sp)
   10670:	01010113          	addi	sp,sp,16
   10674:	00008067          	ret

00010678 <start_trigger>:
   10678:	ff010113          	addi	sp,sp,-16
   1067c:	00812623          	sw	s0,12(sp)
   10680:	01010413          	addi	s0,sp,16
   10684:	00000513          	li	a0,0
   10688:	00000013          	nop
   1068c:	00c12403          	lw	s0,12(sp)
   10690:	01010113          	addi	sp,sp,16
   10694:	00008067          	ret

00010698 <stop_trigger>:
   10698:	ff010113          	addi	sp,sp,-16
   1069c:	00812623          	sw	s0,12(sp)
   106a0:	01010413          	addi	s0,sp,16
   106a4:	00000513          	li	a0,0
   106a8:	00000013          	nop
   106ac:	00c12403          	lw	s0,12(sp)
   106b0:	01010113          	addi	sp,sp,16
   106b4:	00008067          	ret

000106b8 <main>:
   106b8:	fd010113          	addi	sp,sp,-48
   106bc:	02112623          	sw	ra,44(sp)
   106c0:	02812423          	sw	s0,40(sp)
   106c4:	03010413          	addi	s0,sp,48
   106c8:	fca42e23          	sw	a0,-36(s0)
   106cc:	fcb42c23          	sw	a1,-40(s0)
   106d0:	f89ff0ef          	jal	ra,10658 <initialise_board>
   106d4:	df9ff0ef          	jal	ra,104cc <initialise_benchmark>
   106d8:	00100513          	li	a0,1
   106dc:	abdff0ef          	jal	ra,10198 <warm_caches>
   106e0:	f99ff0ef          	jal	ra,10678 <start_trigger>
   106e4:	ae9ff0ef          	jal	ra,101cc <benchmark>
   106e8:	00050793          	mv	a5,a0
   106ec:	fef42423          	sw	a5,-24(s0)
   106f0:	fa9ff0ef          	jal	ra,10698 <stop_trigger>
   106f4:	fe842783          	lw	a5,-24(s0)
   106f8:	00078513          	mv	a0,a5
   106fc:	eedff0ef          	jal	ra,105e8 <verify_benchmark>
   10700:	fea42623          	sw	a0,-20(s0)
   10704:	fec42783          	lw	a5,-20(s0)
   10708:	0017b793          	seqz	a5,a5
   1070c:	0ff7f793          	zext.b	a5,a5
   10710:	00078513          	mv	a0,a5
   10714:	02c12083          	lw	ra,44(sp)
   10718:	02812403          	lw	s0,40(sp)
   1071c:	03010113          	addi	sp,sp,48
   10720:	00008067          	ret

00010724 <__libc_init_array>:
   10724:	ff010113          	addi	sp,sp,-16
   10728:	00812423          	sw	s0,8(sp)
   1072c:	01212023          	sw	s2,0(sp)
   10730:	00012437          	lui	s0,0x12
   10734:	00012937          	lui	s2,0x12
   10738:	2ec40793          	addi	a5,s0,748 # 122ec <__init_array_start>
   1073c:	2ec90913          	addi	s2,s2,748 # 122ec <__init_array_start>
   10740:	40f90933          	sub	s2,s2,a5
   10744:	00112623          	sw	ra,12(sp)
   10748:	00912223          	sw	s1,4(sp)
   1074c:	40295913          	srai	s2,s2,0x2
   10750:	02090063          	beqz	s2,10770 <__libc_init_array+0x4c>
   10754:	2ec40413          	addi	s0,s0,748
   10758:	00000493          	li	s1,0
   1075c:	00042783          	lw	a5,0(s0)
   10760:	00148493          	addi	s1,s1,1
   10764:	00440413          	addi	s0,s0,4
   10768:	000780e7          	jalr	a5
   1076c:	fe9918e3          	bne	s2,s1,1075c <__libc_init_array+0x38>
   10770:	00012437          	lui	s0,0x12
   10774:	00012937          	lui	s2,0x12
   10778:	2ec40793          	addi	a5,s0,748 # 122ec <__init_array_start>
   1077c:	2f490913          	addi	s2,s2,756 # 122f4 <__do_global_dtors_aux_fini_array_entry>
   10780:	40f90933          	sub	s2,s2,a5
   10784:	40295913          	srai	s2,s2,0x2
   10788:	02090063          	beqz	s2,107a8 <__libc_init_array+0x84>
   1078c:	2ec40413          	addi	s0,s0,748
   10790:	00000493          	li	s1,0
   10794:	00042783          	lw	a5,0(s0)
   10798:	00148493          	addi	s1,s1,1
   1079c:	00440413          	addi	s0,s0,4
   107a0:	000780e7          	jalr	a5
   107a4:	fe9918e3          	bne	s2,s1,10794 <__libc_init_array+0x70>
   107a8:	00c12083          	lw	ra,12(sp)
   107ac:	00812403          	lw	s0,8(sp)
   107b0:	00412483          	lw	s1,4(sp)
   107b4:	00012903          	lw	s2,0(sp)
   107b8:	01010113          	addi	sp,sp,16
   107bc:	00008067          	ret

000107c0 <memcmp>:
   107c0:	00300793          	li	a5,3
   107c4:	02c7f863          	bgeu	a5,a2,107f4 <memcmp+0x34>
   107c8:	00b567b3          	or	a5,a0,a1
   107cc:	0037f793          	andi	a5,a5,3
   107d0:	00300693          	li	a3,3
   107d4:	04079e63          	bnez	a5,10830 <memcmp+0x70>
   107d8:	00052703          	lw	a4,0(a0)
   107dc:	0005a783          	lw	a5,0(a1)
   107e0:	04f71863          	bne	a4,a5,10830 <memcmp+0x70>
   107e4:	ffc60613          	addi	a2,a2,-4
   107e8:	00450513          	addi	a0,a0,4
   107ec:	00458593          	addi	a1,a1,4
   107f0:	fec6e4e3          	bltu	a3,a2,107d8 <memcmp+0x18>
   107f4:	fff60693          	addi	a3,a2,-1
   107f8:	02060863          	beqz	a2,10828 <memcmp+0x68>
   107fc:	00168693          	addi	a3,a3,1
   10800:	00d506b3          	add	a3,a0,a3
   10804:	0080006f          	j	1080c <memcmp+0x4c>
   10808:	02d50063          	beq	a0,a3,10828 <memcmp+0x68>
   1080c:	00054783          	lbu	a5,0(a0)
   10810:	0005c703          	lbu	a4,0(a1)
   10814:	00150513          	addi	a0,a0,1
   10818:	00158593          	addi	a1,a1,1
   1081c:	fee786e3          	beq	a5,a4,10808 <memcmp+0x48>
   10820:	40e78533          	sub	a0,a5,a4
   10824:	00008067          	ret
   10828:	00000513          	li	a0,0
   1082c:	00008067          	ret
   10830:	fff60693          	addi	a3,a2,-1
   10834:	fc9ff06f          	j	107fc <memcmp+0x3c>

00010838 <memcpy>:
   10838:	00b547b3          	xor	a5,a0,a1
   1083c:	0037f793          	andi	a5,a5,3
   10840:	00c508b3          	add	a7,a0,a2
   10844:	06079663          	bnez	a5,108b0 <memcpy+0x78>
   10848:	00300793          	li	a5,3
   1084c:	06c7f263          	bgeu	a5,a2,108b0 <memcpy+0x78>
   10850:	00357793          	andi	a5,a0,3
   10854:	00050713          	mv	a4,a0
   10858:	0c079a63          	bnez	a5,1092c <memcpy+0xf4>
   1085c:	ffc8f613          	andi	a2,a7,-4
   10860:	40e606b3          	sub	a3,a2,a4
   10864:	02000793          	li	a5,32
   10868:	02000293          	li	t0,32
   1086c:	06d7c263          	blt	a5,a3,108d0 <memcpy+0x98>
   10870:	00058693          	mv	a3,a1
   10874:	00070793          	mv	a5,a4
   10878:	02c77863          	bgeu	a4,a2,108a8 <memcpy+0x70>
   1087c:	0006a803          	lw	a6,0(a3)
   10880:	00478793          	addi	a5,a5,4
   10884:	00468693          	addi	a3,a3,4
   10888:	ff07ae23          	sw	a6,-4(a5)
   1088c:	fec7e8e3          	bltu	a5,a2,1087c <memcpy+0x44>
   10890:	fff60793          	addi	a5,a2,-1
   10894:	40e787b3          	sub	a5,a5,a4
   10898:	ffc7f793          	andi	a5,a5,-4
   1089c:	00478793          	addi	a5,a5,4
   108a0:	00f70733          	add	a4,a4,a5
   108a4:	00f585b3          	add	a1,a1,a5
   108a8:	01176863          	bltu	a4,a7,108b8 <memcpy+0x80>
   108ac:	00008067          	ret
   108b0:	00050713          	mv	a4,a0
   108b4:	ff157ce3          	bgeu	a0,a7,108ac <memcpy+0x74>
   108b8:	0005c783          	lbu	a5,0(a1)
   108bc:	00170713          	addi	a4,a4,1
   108c0:	00158593          	addi	a1,a1,1
   108c4:	fef70fa3          	sb	a5,-1(a4)
   108c8:	ff1768e3          	bltu	a4,a7,108b8 <memcpy+0x80>
   108cc:	00008067          	ret
   108d0:	0045a683          	lw	a3,4(a1)
   108d4:	01c5a783          	lw	a5,28(a1)
   108d8:	0005af83          	lw	t6,0(a1)
   108dc:	0085af03          	lw	t5,8(a1)
   108e0:	00c5ae83          	lw	t4,12(a1)
   108e4:	0105ae03          	lw	t3,16(a1)
   108e8:	0145a303          	lw	t1,20(a1)
   108ec:	0185a803          	lw	a6,24(a1)
   108f0:	00d72223          	sw	a3,4(a4)
   108f4:	0205a683          	lw	a3,32(a1)
   108f8:	01f72023          	sw	t6,0(a4)
   108fc:	01e72423          	sw	t5,8(a4)
   10900:	01d72623          	sw	t4,12(a4)
   10904:	01c72823          	sw	t3,16(a4)
   10908:	00672a23          	sw	t1,20(a4)
   1090c:	01072c23          	sw	a6,24(a4)
   10910:	00f72e23          	sw	a5,28(a4)
   10914:	02470713          	addi	a4,a4,36
   10918:	40e607b3          	sub	a5,a2,a4
   1091c:	fed72e23          	sw	a3,-4(a4)
   10920:	02458593          	addi	a1,a1,36
   10924:	faf2c6e3          	blt	t0,a5,108d0 <memcpy+0x98>
   10928:	f49ff06f          	j	10870 <memcpy+0x38>
   1092c:	0005c683          	lbu	a3,0(a1)
   10930:	00170713          	addi	a4,a4,1
   10934:	00377793          	andi	a5,a4,3
   10938:	fed70fa3          	sb	a3,-1(a4)
   1093c:	00158593          	addi	a1,a1,1
   10940:	f0078ee3          	beqz	a5,1085c <memcpy+0x24>
   10944:	0005c683          	lbu	a3,0(a1)
   10948:	00170713          	addi	a4,a4,1
   1094c:	00377793          	andi	a5,a4,3
   10950:	fed70fa3          	sb	a3,-1(a4)
   10954:	00158593          	addi	a1,a1,1
   10958:	fc079ae3          	bnez	a5,1092c <memcpy+0xf4>
   1095c:	f01ff06f          	j	1085c <memcpy+0x24>

00010960 <memset>:
   10960:	00f00313          	li	t1,15
   10964:	00050713          	mv	a4,a0
   10968:	02c37e63          	bgeu	t1,a2,109a4 <memset+0x44>
   1096c:	00f77793          	andi	a5,a4,15
   10970:	0a079063          	bnez	a5,10a10 <memset+0xb0>
   10974:	08059263          	bnez	a1,109f8 <memset+0x98>
   10978:	ff067693          	andi	a3,a2,-16
   1097c:	00f67613          	andi	a2,a2,15
   10980:	00e686b3          	add	a3,a3,a4
   10984:	00b72023          	sw	a1,0(a4)
   10988:	00b72223          	sw	a1,4(a4)
   1098c:	00b72423          	sw	a1,8(a4)
   10990:	00b72623          	sw	a1,12(a4)
   10994:	01070713          	addi	a4,a4,16
   10998:	fed766e3          	bltu	a4,a3,10984 <memset+0x24>
   1099c:	00061463          	bnez	a2,109a4 <memset+0x44>
   109a0:	00008067          	ret
   109a4:	40c306b3          	sub	a3,t1,a2
   109a8:	00269693          	slli	a3,a3,0x2
   109ac:	00000297          	auipc	t0,0x0
   109b0:	005686b3          	add	a3,a3,t0
   109b4:	00c68067          	jr	12(a3)
   109b8:	00b70723          	sb	a1,14(a4)
   109bc:	00b706a3          	sb	a1,13(a4)
   109c0:	00b70623          	sb	a1,12(a4)
   109c4:	00b705a3          	sb	a1,11(a4)
   109c8:	00b70523          	sb	a1,10(a4)
   109cc:	00b704a3          	sb	a1,9(a4)
   109d0:	00b70423          	sb	a1,8(a4)
   109d4:	00b703a3          	sb	a1,7(a4)
   109d8:	00b70323          	sb	a1,6(a4)
   109dc:	00b702a3          	sb	a1,5(a4)
   109e0:	00b70223          	sb	a1,4(a4)
   109e4:	00b701a3          	sb	a1,3(a4)
   109e8:	00b70123          	sb	a1,2(a4)
   109ec:	00b700a3          	sb	a1,1(a4)
   109f0:	00b70023          	sb	a1,0(a4)
   109f4:	00008067          	ret
   109f8:	0ff5f593          	zext.b	a1,a1
   109fc:	00859693          	slli	a3,a1,0x8
   10a00:	00d5e5b3          	or	a1,a1,a3
   10a04:	01059693          	slli	a3,a1,0x10
   10a08:	00d5e5b3          	or	a1,a1,a3
   10a0c:	f6dff06f          	j	10978 <memset+0x18>
   10a10:	00279693          	slli	a3,a5,0x2
   10a14:	00000297          	auipc	t0,0x0
   10a18:	005686b3          	add	a3,a3,t0
   10a1c:	00008293          	mv	t0,ra
   10a20:	fa0680e7          	jalr	-96(a3)
   10a24:	00028093          	mv	ra,t0
   10a28:	ff078793          	addi	a5,a5,-16
   10a2c:	40f70733          	sub	a4,a4,a5
   10a30:	00f60633          	add	a2,a2,a5
   10a34:	f6c378e3          	bgeu	t1,a2,109a4 <memset+0x44>
   10a38:	f3dff06f          	j	10974 <memset+0x14>

00010a3c <__call_exitprocs>:
   10a3c:	fd010113          	addi	sp,sp,-48
   10a40:	000127b7          	lui	a5,0x12
   10a44:	01412c23          	sw	s4,24(sp)
   10a48:	7207aa03          	lw	s4,1824(a5) # 12720 <_global_impure_ptr>
   10a4c:	03212023          	sw	s2,32(sp)
   10a50:	02112623          	sw	ra,44(sp)
   10a54:	148a2903          	lw	s2,328(s4)
   10a58:	02812423          	sw	s0,40(sp)
   10a5c:	02912223          	sw	s1,36(sp)
   10a60:	01312e23          	sw	s3,28(sp)
   10a64:	01512a23          	sw	s5,20(sp)
   10a68:	01612823          	sw	s6,16(sp)
   10a6c:	01712623          	sw	s7,12(sp)
   10a70:	01812423          	sw	s8,8(sp)
   10a74:	04090063          	beqz	s2,10ab4 <__call_exitprocs+0x78>
   10a78:	00050b13          	mv	s6,a0
   10a7c:	00058b93          	mv	s7,a1
   10a80:	00100a93          	li	s5,1
   10a84:	fff00993          	li	s3,-1
   10a88:	00492483          	lw	s1,4(s2)
   10a8c:	fff48413          	addi	s0,s1,-1
   10a90:	02044263          	bltz	s0,10ab4 <__call_exitprocs+0x78>
   10a94:	00249493          	slli	s1,s1,0x2
   10a98:	009904b3          	add	s1,s2,s1
   10a9c:	040b8463          	beqz	s7,10ae4 <__call_exitprocs+0xa8>
   10aa0:	1044a783          	lw	a5,260(s1)
   10aa4:	05778063          	beq	a5,s7,10ae4 <__call_exitprocs+0xa8>
   10aa8:	fff40413          	addi	s0,s0,-1
   10aac:	ffc48493          	addi	s1,s1,-4
   10ab0:	ff3416e3          	bne	s0,s3,10a9c <__call_exitprocs+0x60>
   10ab4:	02c12083          	lw	ra,44(sp)
   10ab8:	02812403          	lw	s0,40(sp)
   10abc:	02412483          	lw	s1,36(sp)
   10ac0:	02012903          	lw	s2,32(sp)
   10ac4:	01c12983          	lw	s3,28(sp)
   10ac8:	01812a03          	lw	s4,24(sp)
   10acc:	01412a83          	lw	s5,20(sp)
   10ad0:	01012b03          	lw	s6,16(sp)
   10ad4:	00c12b83          	lw	s7,12(sp)
   10ad8:	00812c03          	lw	s8,8(sp)
   10adc:	03010113          	addi	sp,sp,48
   10ae0:	00008067          	ret
   10ae4:	00492783          	lw	a5,4(s2)
   10ae8:	0044a683          	lw	a3,4(s1)
   10aec:	fff78793          	addi	a5,a5,-1
   10af0:	04878e63          	beq	a5,s0,10b4c <__call_exitprocs+0x110>
   10af4:	0004a223          	sw	zero,4(s1)
   10af8:	fa0688e3          	beqz	a3,10aa8 <__call_exitprocs+0x6c>
   10afc:	18892783          	lw	a5,392(s2)
   10b00:	008a9733          	sll	a4,s5,s0
   10b04:	00492c03          	lw	s8,4(s2)
   10b08:	00f777b3          	and	a5,a4,a5
   10b0c:	02079263          	bnez	a5,10b30 <__call_exitprocs+0xf4>
   10b10:	000680e7          	jalr	a3
   10b14:	00492703          	lw	a4,4(s2)
   10b18:	148a2783          	lw	a5,328(s4)
   10b1c:	01871463          	bne	a4,s8,10b24 <__call_exitprocs+0xe8>
   10b20:	f92784e3          	beq	a5,s2,10aa8 <__call_exitprocs+0x6c>
   10b24:	f80788e3          	beqz	a5,10ab4 <__call_exitprocs+0x78>
   10b28:	00078913          	mv	s2,a5
   10b2c:	f5dff06f          	j	10a88 <__call_exitprocs+0x4c>
   10b30:	18c92783          	lw	a5,396(s2)
   10b34:	0844a583          	lw	a1,132(s1)
   10b38:	00f77733          	and	a4,a4,a5
   10b3c:	00071c63          	bnez	a4,10b54 <__call_exitprocs+0x118>
   10b40:	000b0513          	mv	a0,s6
   10b44:	000680e7          	jalr	a3
   10b48:	fcdff06f          	j	10b14 <__call_exitprocs+0xd8>
   10b4c:	00892223          	sw	s0,4(s2)
   10b50:	fa9ff06f          	j	10af8 <__call_exitprocs+0xbc>
   10b54:	00058513          	mv	a0,a1
   10b58:	000680e7          	jalr	a3
   10b5c:	fb9ff06f          	j	10b14 <__call_exitprocs+0xd8>

00010b60 <__libc_fini_array>:
   10b60:	ff010113          	addi	sp,sp,-16
   10b64:	00812423          	sw	s0,8(sp)
   10b68:	000127b7          	lui	a5,0x12
   10b6c:	00012437          	lui	s0,0x12
   10b70:	2f478793          	addi	a5,a5,756 # 122f4 <__do_global_dtors_aux_fini_array_entry>
   10b74:	2f840413          	addi	s0,s0,760 # 122f8 <impure_data>
   10b78:	40f40433          	sub	s0,s0,a5
   10b7c:	00912223          	sw	s1,4(sp)
   10b80:	00112623          	sw	ra,12(sp)
   10b84:	40245493          	srai	s1,s0,0x2
   10b88:	02048063          	beqz	s1,10ba8 <__libc_fini_array+0x48>
   10b8c:	ffc40413          	addi	s0,s0,-4
   10b90:	00f40433          	add	s0,s0,a5
   10b94:	00042783          	lw	a5,0(s0)
   10b98:	fff48493          	addi	s1,s1,-1
   10b9c:	ffc40413          	addi	s0,s0,-4
   10ba0:	000780e7          	jalr	a5
   10ba4:	fe0498e3          	bnez	s1,10b94 <__libc_fini_array+0x34>
   10ba8:	00c12083          	lw	ra,12(sp)
   10bac:	00812403          	lw	s0,8(sp)
   10bb0:	00412483          	lw	s1,4(sp)
   10bb4:	01010113          	addi	sp,sp,16
   10bb8:	00008067          	ret

00010bbc <atexit>:
   10bbc:	00050593          	mv	a1,a0
   10bc0:	00000693          	li	a3,0
   10bc4:	00000613          	li	a2,0
   10bc8:	00000513          	li	a0,0
   10bcc:	0040006f          	j	10bd0 <__register_exitproc>

00010bd0 <__register_exitproc>:
   10bd0:	000127b7          	lui	a5,0x12
   10bd4:	7207a703          	lw	a4,1824(a5) # 12720 <_global_impure_ptr>
   10bd8:	14872783          	lw	a5,328(a4)
   10bdc:	04078c63          	beqz	a5,10c34 <__register_exitproc+0x64>
   10be0:	0047a703          	lw	a4,4(a5)
   10be4:	01f00813          	li	a6,31
   10be8:	06e84e63          	blt	a6,a4,10c64 <__register_exitproc+0x94>
   10bec:	00271813          	slli	a6,a4,0x2
   10bf0:	02050663          	beqz	a0,10c1c <__register_exitproc+0x4c>
   10bf4:	01078333          	add	t1,a5,a6
   10bf8:	08c32423          	sw	a2,136(t1) # 10214 <benchmark_body+0x18>
   10bfc:	1887a883          	lw	a7,392(a5)
   10c00:	00100613          	li	a2,1
   10c04:	00e61633          	sll	a2,a2,a4
   10c08:	00c8e8b3          	or	a7,a7,a2
   10c0c:	1917a423          	sw	a7,392(a5)
   10c10:	10d32423          	sw	a3,264(t1)
   10c14:	00200693          	li	a3,2
   10c18:	02d50463          	beq	a0,a3,10c40 <__register_exitproc+0x70>
   10c1c:	00170713          	addi	a4,a4,1
   10c20:	00e7a223          	sw	a4,4(a5)
   10c24:	010787b3          	add	a5,a5,a6
   10c28:	00b7a423          	sw	a1,8(a5)
   10c2c:	00000513          	li	a0,0
   10c30:	00008067          	ret
   10c34:	14c70793          	addi	a5,a4,332
   10c38:	14f72423          	sw	a5,328(a4)
   10c3c:	fa5ff06f          	j	10be0 <__register_exitproc+0x10>
   10c40:	18c7a683          	lw	a3,396(a5)
   10c44:	00170713          	addi	a4,a4,1
   10c48:	00e7a223          	sw	a4,4(a5)
   10c4c:	00c6e6b3          	or	a3,a3,a2
   10c50:	18d7a623          	sw	a3,396(a5)
   10c54:	010787b3          	add	a5,a5,a6
   10c58:	00b7a423          	sw	a1,8(a5)
   10c5c:	00000513          	li	a0,0
   10c60:	00008067          	ret
   10c64:	fff00513          	li	a0,-1
   10c68:	00008067          	ret

00010c6c <_exit>:
   10c6c:	05d00893          	li	a7,93
   10c70:	00000073          	ecall
   10c74:	00054463          	bltz	a0,10c7c <_exit+0x10>
   10c78:	0000006f          	j	10c78 <_exit+0xc>
   10c7c:	ff010113          	addi	sp,sp,-16
   10c80:	00812423          	sw	s0,8(sp)
   10c84:	00050413          	mv	s0,a0
   10c88:	00112623          	sw	ra,12(sp)
   10c8c:	40800433          	neg	s0,s0
   10c90:	00c000ef          	jal	ra,10c9c <__errno>
   10c94:	00852023          	sw	s0,0(a0)
   10c98:	0000006f          	j	10c98 <_exit+0x2c>

00010c9c <__errno>:
   10c9c:	000127b7          	lui	a5,0x12
   10ca0:	7247a503          	lw	a0,1828(a5) # 12724 <_impure_ptr>
   10ca4:	00008067          	ret
