
./riscv32-benchmarks-customtoolchain/src/slre/slre:     file format elf32-littleriscv


Disassembly of section .text:

00010094 <exit>:
   10094:	ff010113          	addi	sp,sp,-16
   10098:	00000593          	li	a1,0
   1009c:	00812423          	sw	s0,8(sp)
   100a0:	00112623          	sw	ra,12(sp)
   100a4:	00050413          	mv	s0,a0
   100a8:	28c020ef          	jal	ra,12334 <__call_exitprocs>
   100ac:	c681a503          	lw	a0,-920(gp) # 13b50 <_global_impure_ptr>
   100b0:	03c52783          	lw	a5,60(a0)
   100b4:	00078463          	beqz	a5,100bc <exit+0x28>
   100b8:	000780e7          	jalr	a5
   100bc:	00040513          	mv	a0,s0
   100c0:	49c020ef          	jal	ra,1255c <_exit>

000100c4 <register_fini>:
   100c4:	00000793          	li	a5,0
   100c8:	00078863          	beqz	a5,100d8 <register_fini+0x14>
   100cc:	00012537          	lui	a0,0x12
   100d0:	45450513          	addi	a0,a0,1108 # 12454 <__libc_fini_array>
   100d4:	3dc0206f          	j	124b0 <atexit>
   100d8:	00008067          	ret

000100dc <_start>:
   100dc:	00004197          	auipc	gp,0x4
   100e0:	e0c18193          	addi	gp,gp,-500 # 13ee8 <__global_pointer$>
   100e4:	c7418513          	addi	a0,gp,-908 # 13b5c <completed.1>
   100e8:	c9018613          	addi	a2,gp,-880 # 13b78 <__BSS_END__>
   100ec:	40a60633          	sub	a2,a2,a0
   100f0:	00000593          	li	a1,0
   100f4:	799010ef          	jal	ra,1208c <memset>
   100f8:	00002517          	auipc	a0,0x2
   100fc:	3b850513          	addi	a0,a0,952 # 124b0 <atexit>
   10100:	00050863          	beqz	a0,10110 <_start+0x34>
   10104:	00002517          	auipc	a0,0x2
   10108:	35050513          	addi	a0,a0,848 # 12454 <__libc_fini_array>
   1010c:	3a4020ef          	jal	ra,124b0 <atexit>
   10110:	669010ef          	jal	ra,11f78 <__libc_init_array>
   10114:	00012503          	lw	a0,0(sp)
   10118:	00410593          	addi	a1,sp,4
   1011c:	00000613          	li	a2,0
   10120:	5ed010ef          	jal	ra,11f0c <main>
   10124:	f71ff06f          	j	10094 <exit>

00010128 <__do_global_dtors_aux>:
   10128:	ff010113          	addi	sp,sp,-16
   1012c:	00812423          	sw	s0,8(sp)
   10130:	c741c783          	lbu	a5,-908(gp) # 13b5c <completed.1>
   10134:	00112623          	sw	ra,12(sp)
   10138:	02079263          	bnez	a5,1015c <__do_global_dtors_aux+0x34>
   1013c:	00000793          	li	a5,0
   10140:	00078a63          	beqz	a5,10154 <__do_global_dtors_aux+0x2c>
   10144:	00013537          	lui	a0,0x13
   10148:	6d850513          	addi	a0,a0,1752 # 136d8 <__FRAME_END__>
   1014c:	00000097          	auipc	ra,0x0
   10150:	000000e7          	jalr	zero # 0 <exit-0x10094>
   10154:	00100793          	li	a5,1
   10158:	c6f18a23          	sb	a5,-908(gp) # 13b5c <completed.1>
   1015c:	00c12083          	lw	ra,12(sp)
   10160:	00812403          	lw	s0,8(sp)
   10164:	01010113          	addi	sp,sp,16
   10168:	00008067          	ret

0001016c <frame_dummy>:
   1016c:	00000793          	li	a5,0
   10170:	00078c63          	beqz	a5,10188 <frame_dummy+0x1c>
   10174:	00013537          	lui	a0,0x13
   10178:	c7818593          	addi	a1,gp,-904 # 13b60 <object.0>
   1017c:	6d850513          	addi	a0,a0,1752 # 136d8 <__FRAME_END__>
   10180:	00000317          	auipc	t1,0x0
   10184:	00000067          	jr	zero # 0 <exit-0x10094>
   10188:	00008067          	ret

0001018c <is_metacharacter>:
   1018c:	fe010113          	addi	sp,sp,-32
   10190:	00112e23          	sw	ra,28(sp)
   10194:	00812c23          	sw	s0,24(sp)
   10198:	02010413          	addi	s0,sp,32
   1019c:	fea42623          	sw	a0,-20(s0)
   101a0:	c6c1a703          	lw	a4,-916(gp) # 13b54 <metacharacters.0>
   101a4:	fec42783          	lw	a5,-20(s0)
   101a8:	0007c783          	lbu	a5,0(a5)
   101ac:	00078593          	mv	a1,a5
   101b0:	00070513          	mv	a0,a4
   101b4:	7b5010ef          	jal	ra,12168 <strchr>
   101b8:	00050793          	mv	a5,a0
   101bc:	00f037b3          	snez	a5,a5
   101c0:	0ff7f793          	zext.b	a5,a5
   101c4:	00078513          	mv	a0,a5
   101c8:	01c12083          	lw	ra,28(sp)
   101cc:	01812403          	lw	s0,24(sp)
   101d0:	02010113          	addi	sp,sp,32
   101d4:	00008067          	ret

000101d8 <op_len>:
   101d8:	fe010113          	addi	sp,sp,-32
   101dc:	00812e23          	sw	s0,28(sp)
   101e0:	02010413          	addi	s0,sp,32
   101e4:	fea42623          	sw	a0,-20(s0)
   101e8:	fec42783          	lw	a5,-20(s0)
   101ec:	0007c703          	lbu	a4,0(a5)
   101f0:	05c00793          	li	a5,92
   101f4:	00f71c63          	bne	a4,a5,1020c <op_len+0x34>
   101f8:	fec42783          	lw	a5,-20(s0)
   101fc:	00178793          	addi	a5,a5,1
   10200:	0007c703          	lbu	a4,0(a5)
   10204:	07800793          	li	a5,120
   10208:	02f70263          	beq	a4,a5,1022c <op_len+0x54>
   1020c:	fec42783          	lw	a5,-20(s0)
   10210:	0007c703          	lbu	a4,0(a5)
   10214:	05c00793          	li	a5,92
   10218:	00f71663          	bne	a4,a5,10224 <op_len+0x4c>
   1021c:	00200793          	li	a5,2
   10220:	0100006f          	j	10230 <op_len+0x58>
   10224:	00100793          	li	a5,1
   10228:	0080006f          	j	10230 <op_len+0x58>
   1022c:	00400793          	li	a5,4
   10230:	00078513          	mv	a0,a5
   10234:	01c12403          	lw	s0,28(sp)
   10238:	02010113          	addi	sp,sp,32
   1023c:	00008067          	ret

00010240 <set_len>:
   10240:	fd010113          	addi	sp,sp,-48
   10244:	02112623          	sw	ra,44(sp)
   10248:	02812423          	sw	s0,40(sp)
   1024c:	03010413          	addi	s0,sp,48
   10250:	fca42e23          	sw	a0,-36(s0)
   10254:	fcb42c23          	sw	a1,-40(s0)
   10258:	fe042623          	sw	zero,-20(s0)
   1025c:	0280006f          	j	10284 <set_len+0x44>
   10260:	fec42783          	lw	a5,-20(s0)
   10264:	fdc42703          	lw	a4,-36(s0)
   10268:	00f707b3          	add	a5,a4,a5
   1026c:	00078513          	mv	a0,a5
   10270:	f69ff0ef          	jal	ra,101d8 <op_len>
   10274:	00050713          	mv	a4,a0
   10278:	fec42783          	lw	a5,-20(s0)
   1027c:	00e787b3          	add	a5,a5,a4
   10280:	fef42623          	sw	a5,-20(s0)
   10284:	fec42703          	lw	a4,-20(s0)
   10288:	fd842783          	lw	a5,-40(s0)
   1028c:	00f75e63          	bge	a4,a5,102a8 <set_len+0x68>
   10290:	fec42783          	lw	a5,-20(s0)
   10294:	fdc42703          	lw	a4,-36(s0)
   10298:	00f707b3          	add	a5,a4,a5
   1029c:	0007c703          	lbu	a4,0(a5)
   102a0:	05d00793          	li	a5,93
   102a4:	faf71ee3          	bne	a4,a5,10260 <set_len+0x20>
   102a8:	fec42703          	lw	a4,-20(s0)
   102ac:	fd842783          	lw	a5,-40(s0)
   102b0:	00e7c863          	blt	a5,a4,102c0 <set_len+0x80>
   102b4:	fec42783          	lw	a5,-20(s0)
   102b8:	00178793          	addi	a5,a5,1
   102bc:	0080006f          	j	102c4 <set_len+0x84>
   102c0:	fff00793          	li	a5,-1
   102c4:	00078513          	mv	a0,a5
   102c8:	02c12083          	lw	ra,44(sp)
   102cc:	02812403          	lw	s0,40(sp)
   102d0:	03010113          	addi	sp,sp,48
   102d4:	00008067          	ret

000102d8 <get_op_len>:
   102d8:	fe010113          	addi	sp,sp,-32
   102dc:	00112e23          	sw	ra,28(sp)
   102e0:	00812c23          	sw	s0,24(sp)
   102e4:	02010413          	addi	s0,sp,32
   102e8:	fea42623          	sw	a0,-20(s0)
   102ec:	feb42423          	sw	a1,-24(s0)
   102f0:	fec42783          	lw	a5,-20(s0)
   102f4:	0007c703          	lbu	a4,0(a5)
   102f8:	05b00793          	li	a5,91
   102fc:	02f71663          	bne	a4,a5,10328 <get_op_len+0x50>
   10300:	fec42783          	lw	a5,-20(s0)
   10304:	00178713          	addi	a4,a5,1
   10308:	fe842783          	lw	a5,-24(s0)
   1030c:	fff78793          	addi	a5,a5,-1
   10310:	00078593          	mv	a1,a5
   10314:	00070513          	mv	a0,a4
   10318:	f29ff0ef          	jal	ra,10240 <set_len>
   1031c:	00050793          	mv	a5,a0
   10320:	00178793          	addi	a5,a5,1
   10324:	0100006f          	j	10334 <get_op_len+0x5c>
   10328:	fec42503          	lw	a0,-20(s0)
   1032c:	eadff0ef          	jal	ra,101d8 <op_len>
   10330:	00050793          	mv	a5,a0
   10334:	00078513          	mv	a0,a5
   10338:	01c12083          	lw	ra,28(sp)
   1033c:	01812403          	lw	s0,24(sp)
   10340:	02010113          	addi	sp,sp,32
   10344:	00008067          	ret

00010348 <is_quantifier>:
   10348:	fe010113          	addi	sp,sp,-32
   1034c:	00812e23          	sw	s0,28(sp)
   10350:	02010413          	addi	s0,sp,32
   10354:	fea42623          	sw	a0,-20(s0)
   10358:	fec42783          	lw	a5,-20(s0)
   1035c:	0007c703          	lbu	a4,0(a5)
   10360:	02a00793          	li	a5,42
   10364:	02f70263          	beq	a4,a5,10388 <is_quantifier+0x40>
   10368:	fec42783          	lw	a5,-20(s0)
   1036c:	0007c703          	lbu	a4,0(a5)
   10370:	02b00793          	li	a5,43
   10374:	00f70a63          	beq	a4,a5,10388 <is_quantifier+0x40>
   10378:	fec42783          	lw	a5,-20(s0)
   1037c:	0007c703          	lbu	a4,0(a5)
   10380:	03f00793          	li	a5,63
   10384:	00f71663          	bne	a4,a5,10390 <is_quantifier+0x48>
   10388:	00100793          	li	a5,1
   1038c:	0080006f          	j	10394 <is_quantifier+0x4c>
   10390:	00000793          	li	a5,0
   10394:	00078513          	mv	a0,a5
   10398:	01c12403          	lw	s0,28(sp)
   1039c:	02010113          	addi	sp,sp,32
   103a0:	00008067          	ret

000103a4 <toi>:
   103a4:	fe010113          	addi	sp,sp,-32
   103a8:	00812e23          	sw	s0,28(sp)
   103ac:	02010413          	addi	s0,sp,32
   103b0:	fea42623          	sw	a0,-20(s0)
   103b4:	fec42783          	lw	a5,-20(s0)
   103b8:	00178713          	addi	a4,a5,1
   103bc:	000127b7          	lui	a5,0x12
   103c0:	5d478793          	addi	a5,a5,1492 # 125d4 <_ctype_>
   103c4:	00f707b3          	add	a5,a4,a5
   103c8:	0007c783          	lbu	a5,0(a5)
   103cc:	0047f793          	andi	a5,a5,4
   103d0:	00078863          	beqz	a5,103e0 <toi+0x3c>
   103d4:	fec42783          	lw	a5,-20(s0)
   103d8:	fd078793          	addi	a5,a5,-48
   103dc:	00c0006f          	j	103e8 <toi+0x44>
   103e0:	fec42783          	lw	a5,-20(s0)
   103e4:	fa978793          	addi	a5,a5,-87
   103e8:	00078513          	mv	a0,a5
   103ec:	01c12403          	lw	s0,28(sp)
   103f0:	02010113          	addi	sp,sp,32
   103f4:	00008067          	ret

000103f8 <hextoi>:
   103f8:	fd010113          	addi	sp,sp,-48
   103fc:	02112623          	sw	ra,44(sp)
   10400:	02812423          	sw	s0,40(sp)
   10404:	02912223          	sw	s1,36(sp)
   10408:	03010413          	addi	s0,sp,48
   1040c:	fca42e23          	sw	a0,-36(s0)
   10410:	fdc42783          	lw	a5,-36(s0)
   10414:	0007c783          	lbu	a5,0(a5)
   10418:	fef407a3          	sb	a5,-17(s0)
   1041c:	fef44783          	lbu	a5,-17(s0)
   10420:	00178713          	addi	a4,a5,1
   10424:	000127b7          	lui	a5,0x12
   10428:	5d478793          	addi	a5,a5,1492 # 125d4 <_ctype_>
   1042c:	00f707b3          	add	a5,a4,a5
   10430:	0007c783          	lbu	a5,0(a5)
   10434:	0037f713          	andi	a4,a5,3
   10438:	00100793          	li	a5,1
   1043c:	00f71863          	bne	a4,a5,1044c <hextoi+0x54>
   10440:	fef44783          	lbu	a5,-17(s0)
   10444:	02078793          	addi	a5,a5,32
   10448:	0080006f          	j	10450 <hextoi+0x58>
   1044c:	fef44783          	lbu	a5,-17(s0)
   10450:	00078513          	mv	a0,a5
   10454:	f51ff0ef          	jal	ra,103a4 <toi>
   10458:	00050793          	mv	a5,a0
   1045c:	00479493          	slli	s1,a5,0x4
   10460:	fdc42783          	lw	a5,-36(s0)
   10464:	00178793          	addi	a5,a5,1
   10468:	0007c783          	lbu	a5,0(a5)
   1046c:	fef40723          	sb	a5,-18(s0)
   10470:	fee44783          	lbu	a5,-18(s0)
   10474:	00178713          	addi	a4,a5,1
   10478:	000127b7          	lui	a5,0x12
   1047c:	5d478793          	addi	a5,a5,1492 # 125d4 <_ctype_>
   10480:	00f707b3          	add	a5,a4,a5
   10484:	0007c783          	lbu	a5,0(a5)
   10488:	0037f713          	andi	a4,a5,3
   1048c:	00100793          	li	a5,1
   10490:	00f71863          	bne	a4,a5,104a0 <hextoi+0xa8>
   10494:	fee44783          	lbu	a5,-18(s0)
   10498:	02078793          	addi	a5,a5,32
   1049c:	0080006f          	j	104a4 <hextoi+0xac>
   104a0:	fee44783          	lbu	a5,-18(s0)
   104a4:	00078513          	mv	a0,a5
   104a8:	efdff0ef          	jal	ra,103a4 <toi>
   104ac:	00050793          	mv	a5,a0
   104b0:	00f4e7b3          	or	a5,s1,a5
   104b4:	00078513          	mv	a0,a5
   104b8:	02c12083          	lw	ra,44(sp)
   104bc:	02812403          	lw	s0,40(sp)
   104c0:	02412483          	lw	s1,36(sp)
   104c4:	03010113          	addi	sp,sp,48
   104c8:	00008067          	ret

000104cc <match_op>:
   104cc:	fd010113          	addi	sp,sp,-48
   104d0:	02112623          	sw	ra,44(sp)
   104d4:	02812423          	sw	s0,40(sp)
   104d8:	03010413          	addi	s0,sp,48
   104dc:	fca42e23          	sw	a0,-36(s0)
   104e0:	fcb42c23          	sw	a1,-40(s0)
   104e4:	fcc42a23          	sw	a2,-44(s0)
   104e8:	fe042623          	sw	zero,-20(s0)
   104ec:	fdc42783          	lw	a5,-36(s0)
   104f0:	0007c783          	lbu	a5,0(a5)
   104f4:	07c00713          	li	a4,124
   104f8:	18e78863          	beq	a5,a4,10688 <match_op+0x1bc>
   104fc:	07c00713          	li	a4,124
   10500:	1af74463          	blt	a4,a5,106a8 <match_op+0x1dc>
   10504:	05c00713          	li	a4,92
   10508:	02e78063          	beq	a5,a4,10528 <match_op+0x5c>
   1050c:	05c00713          	li	a4,92
   10510:	18f74c63          	blt	a4,a5,106a8 <match_op+0x1dc>
   10514:	02400713          	li	a4,36
   10518:	16e78c63          	beq	a5,a4,10690 <match_op+0x1c4>
   1051c:	02e00713          	li	a4,46
   10520:	16e78c63          	beq	a5,a4,10698 <match_op+0x1cc>
   10524:	1840006f          	j	106a8 <match_op+0x1dc>
   10528:	fdc42783          	lw	a5,-36(s0)
   1052c:	00178793          	addi	a5,a5,1
   10530:	0007c783          	lbu	a5,0(a5)
   10534:	07800713          	li	a4,120
   10538:	0ee78263          	beq	a5,a4,1061c <match_op+0x150>
   1053c:	07800713          	li	a4,120
   10540:	10f74a63          	blt	a4,a5,10654 <match_op+0x188>
   10544:	07300713          	li	a4,115
   10548:	04e78e63          	beq	a5,a4,105a4 <match_op+0xd8>
   1054c:	07300713          	li	a4,115
   10550:	10f74263          	blt	a4,a5,10654 <match_op+0x188>
   10554:	05300713          	li	a4,83
   10558:	00e78863          	beq	a5,a4,10568 <match_op+0x9c>
   1055c:	06400713          	li	a4,100
   10560:	08e78063          	beq	a5,a4,105e0 <match_op+0x114>
   10564:	0f00006f          	j	10654 <match_op+0x188>
   10568:	fd842783          	lw	a5,-40(s0)
   1056c:	0007c783          	lbu	a5,0(a5)
   10570:	00178713          	addi	a4,a5,1
   10574:	000127b7          	lui	a5,0x12
   10578:	5d478793          	addi	a5,a5,1492 # 125d4 <_ctype_>
   1057c:	00f707b3          	add	a5,a4,a5
   10580:	0007c783          	lbu	a5,0(a5)
   10584:	0087f793          	andi	a5,a5,8
   10588:	00078663          	beqz	a5,10594 <match_op+0xc8>
   1058c:	fff00793          	li	a5,-1
   10590:	1ec0006f          	j	1077c <match_op+0x2b0>
   10594:	fec42783          	lw	a5,-20(s0)
   10598:	00178793          	addi	a5,a5,1
   1059c:	fef42623          	sw	a5,-20(s0)
   105a0:	0e40006f          	j	10684 <match_op+0x1b8>
   105a4:	fd842783          	lw	a5,-40(s0)
   105a8:	0007c783          	lbu	a5,0(a5)
   105ac:	00178713          	addi	a4,a5,1
   105b0:	000127b7          	lui	a5,0x12
   105b4:	5d478793          	addi	a5,a5,1492 # 125d4 <_ctype_>
   105b8:	00f707b3          	add	a5,a4,a5
   105bc:	0007c783          	lbu	a5,0(a5)
   105c0:	0087f793          	andi	a5,a5,8
   105c4:	00079663          	bnez	a5,105d0 <match_op+0x104>
   105c8:	fff00793          	li	a5,-1
   105cc:	1b00006f          	j	1077c <match_op+0x2b0>
   105d0:	fec42783          	lw	a5,-20(s0)
   105d4:	00178793          	addi	a5,a5,1
   105d8:	fef42623          	sw	a5,-20(s0)
   105dc:	0a80006f          	j	10684 <match_op+0x1b8>
   105e0:	fd842783          	lw	a5,-40(s0)
   105e4:	0007c783          	lbu	a5,0(a5)
   105e8:	00178713          	addi	a4,a5,1
   105ec:	000127b7          	lui	a5,0x12
   105f0:	5d478793          	addi	a5,a5,1492 # 125d4 <_ctype_>
   105f4:	00f707b3          	add	a5,a4,a5
   105f8:	0007c783          	lbu	a5,0(a5)
   105fc:	0047f793          	andi	a5,a5,4
   10600:	00079663          	bnez	a5,1060c <match_op+0x140>
   10604:	fff00793          	li	a5,-1
   10608:	1740006f          	j	1077c <match_op+0x2b0>
   1060c:	fec42783          	lw	a5,-20(s0)
   10610:	00178793          	addi	a5,a5,1
   10614:	fef42623          	sw	a5,-20(s0)
   10618:	06c0006f          	j	10684 <match_op+0x1b8>
   1061c:	fdc42783          	lw	a5,-36(s0)
   10620:	00278793          	addi	a5,a5,2
   10624:	00078513          	mv	a0,a5
   10628:	dd1ff0ef          	jal	ra,103f8 <hextoi>
   1062c:	00050713          	mv	a4,a0
   10630:	fd842783          	lw	a5,-40(s0)
   10634:	0007c783          	lbu	a5,0(a5)
   10638:	00f70663          	beq	a4,a5,10644 <match_op+0x178>
   1063c:	fff00793          	li	a5,-1
   10640:	13c0006f          	j	1077c <match_op+0x2b0>
   10644:	fec42783          	lw	a5,-20(s0)
   10648:	00178793          	addi	a5,a5,1
   1064c:	fef42623          	sw	a5,-20(s0)
   10650:	0340006f          	j	10684 <match_op+0x1b8>
   10654:	fdc42783          	lw	a5,-36(s0)
   10658:	00178793          	addi	a5,a5,1
   1065c:	0007c703          	lbu	a4,0(a5)
   10660:	fd842783          	lw	a5,-40(s0)
   10664:	0007c783          	lbu	a5,0(a5)
   10668:	00f70663          	beq	a4,a5,10674 <match_op+0x1a8>
   1066c:	fff00793          	li	a5,-1
   10670:	10c0006f          	j	1077c <match_op+0x2b0>
   10674:	fec42783          	lw	a5,-20(s0)
   10678:	00178793          	addi	a5,a5,1
   1067c:	fef42623          	sw	a5,-20(s0)
   10680:	00000013          	nop
   10684:	0f40006f          	j	10778 <match_op+0x2ac>
   10688:	ffc00793          	li	a5,-4
   1068c:	0f00006f          	j	1077c <match_op+0x2b0>
   10690:	fff00793          	li	a5,-1
   10694:	0e80006f          	j	1077c <match_op+0x2b0>
   10698:	fec42783          	lw	a5,-20(s0)
   1069c:	00178793          	addi	a5,a5,1
   106a0:	fef42623          	sw	a5,-20(s0)
   106a4:	0d40006f          	j	10778 <match_op+0x2ac>
   106a8:	fd442703          	lw	a4,-44(s0)
   106ac:	000017b7          	lui	a5,0x1
   106b0:	00f707b3          	add	a5,a4,a5
   106b4:	9707a783          	lw	a5,-1680(a5) # 970 <exit-0xf724>
   106b8:	0017f793          	andi	a5,a5,1
   106bc:	08078863          	beqz	a5,1074c <match_op+0x280>
   106c0:	fdc42783          	lw	a5,-36(s0)
   106c4:	0007c783          	lbu	a5,0(a5)
   106c8:	fef405a3          	sb	a5,-21(s0)
   106cc:	feb44783          	lbu	a5,-21(s0)
   106d0:	00178713          	addi	a4,a5,1
   106d4:	000127b7          	lui	a5,0x12
   106d8:	5d478793          	addi	a5,a5,1492 # 125d4 <_ctype_>
   106dc:	00f707b3          	add	a5,a4,a5
   106e0:	0007c783          	lbu	a5,0(a5)
   106e4:	0037f713          	andi	a4,a5,3
   106e8:	00100793          	li	a5,1
   106ec:	00f71863          	bne	a4,a5,106fc <match_op+0x230>
   106f0:	feb44783          	lbu	a5,-21(s0)
   106f4:	02078713          	addi	a4,a5,32
   106f8:	0080006f          	j	10700 <match_op+0x234>
   106fc:	feb44703          	lbu	a4,-21(s0)
   10700:	fd842783          	lw	a5,-40(s0)
   10704:	0007c783          	lbu	a5,0(a5)
   10708:	fef40523          	sb	a5,-22(s0)
   1070c:	fea44783          	lbu	a5,-22(s0)
   10710:	00178693          	addi	a3,a5,1
   10714:	000127b7          	lui	a5,0x12
   10718:	5d478793          	addi	a5,a5,1492 # 125d4 <_ctype_>
   1071c:	00f687b3          	add	a5,a3,a5
   10720:	0007c783          	lbu	a5,0(a5)
   10724:	0037f693          	andi	a3,a5,3
   10728:	00100793          	li	a5,1
   1072c:	00f69863          	bne	a3,a5,1073c <match_op+0x270>
   10730:	fea44783          	lbu	a5,-22(s0)
   10734:	02078793          	addi	a5,a5,32
   10738:	0080006f          	j	10740 <match_op+0x274>
   1073c:	fea44783          	lbu	a5,-22(s0)
   10740:	02f70463          	beq	a4,a5,10768 <match_op+0x29c>
   10744:	fff00793          	li	a5,-1
   10748:	0340006f          	j	1077c <match_op+0x2b0>
   1074c:	fdc42783          	lw	a5,-36(s0)
   10750:	0007c703          	lbu	a4,0(a5)
   10754:	fd842783          	lw	a5,-40(s0)
   10758:	0007c783          	lbu	a5,0(a5)
   1075c:	00f70663          	beq	a4,a5,10768 <match_op+0x29c>
   10760:	fff00793          	li	a5,-1
   10764:	0180006f          	j	1077c <match_op+0x2b0>
   10768:	fec42783          	lw	a5,-20(s0)
   1076c:	00178793          	addi	a5,a5,1
   10770:	fef42623          	sw	a5,-20(s0)
   10774:	00000013          	nop
   10778:	fec42783          	lw	a5,-20(s0)
   1077c:	00078513          	mv	a0,a5
   10780:	02c12083          	lw	ra,44(sp)
   10784:	02812403          	lw	s0,40(sp)
   10788:	03010113          	addi	sp,sp,48
   1078c:	00008067          	ret

00010790 <match_set>:
   10790:	fc010113          	addi	sp,sp,-64
   10794:	02112e23          	sw	ra,60(sp)
   10798:	02812c23          	sw	s0,56(sp)
   1079c:	04010413          	addi	s0,sp,64
   107a0:	fca42623          	sw	a0,-52(s0)
   107a4:	fcb42423          	sw	a1,-56(s0)
   107a8:	fcc42223          	sw	a2,-60(s0)
   107ac:	fcd42023          	sw	a3,-64(s0)
   107b0:	fe042623          	sw	zero,-20(s0)
   107b4:	fff00793          	li	a5,-1
   107b8:	fef42423          	sw	a5,-24(s0)
   107bc:	fcc42783          	lw	a5,-52(s0)
   107c0:	0007c783          	lbu	a5,0(a5)
   107c4:	fa278793          	addi	a5,a5,-94
   107c8:	0017b793          	seqz	a5,a5
   107cc:	0ff7f793          	zext.b	a5,a5
   107d0:	fef42223          	sw	a5,-28(s0)
   107d4:	fe442783          	lw	a5,-28(s0)
   107d8:	26078463          	beqz	a5,10a40 <match_set+0x2b0>
   107dc:	fcc42783          	lw	a5,-52(s0)
   107e0:	00178793          	addi	a5,a5,1
   107e4:	fcf42623          	sw	a5,-52(s0)
   107e8:	fc842783          	lw	a5,-56(s0)
   107ec:	fff78793          	addi	a5,a5,-1
   107f0:	fcf42423          	sw	a5,-56(s0)
   107f4:	24c0006f          	j	10a40 <match_set+0x2b0>
   107f8:	fec42783          	lw	a5,-20(s0)
   107fc:	fcc42703          	lw	a4,-52(s0)
   10800:	00f707b3          	add	a5,a4,a5
   10804:	0007c703          	lbu	a4,0(a5)
   10808:	02d00793          	li	a5,45
   1080c:	1ef70863          	beq	a4,a5,109fc <match_set+0x26c>
   10810:	fec42783          	lw	a5,-20(s0)
   10814:	00178793          	addi	a5,a5,1
   10818:	fcc42703          	lw	a4,-52(s0)
   1081c:	00f707b3          	add	a5,a4,a5
   10820:	0007c703          	lbu	a4,0(a5)
   10824:	02d00793          	li	a5,45
   10828:	1cf71a63          	bne	a4,a5,109fc <match_set+0x26c>
   1082c:	fec42783          	lw	a5,-20(s0)
   10830:	00278793          	addi	a5,a5,2
   10834:	fcc42703          	lw	a4,-52(s0)
   10838:	00f707b3          	add	a5,a4,a5
   1083c:	0007c703          	lbu	a4,0(a5)
   10840:	05d00793          	li	a5,93
   10844:	1af70c63          	beq	a4,a5,109fc <match_set+0x26c>
   10848:	fec42783          	lw	a5,-20(s0)
   1084c:	00278793          	addi	a5,a5,2
   10850:	fcc42703          	lw	a4,-52(s0)
   10854:	00f707b3          	add	a5,a4,a5
   10858:	0007c783          	lbu	a5,0(a5)
   1085c:	1a078063          	beqz	a5,109fc <match_set+0x26c>
   10860:	fc042703          	lw	a4,-64(s0)
   10864:	000017b7          	lui	a5,0x1
   10868:	00f707b3          	add	a5,a4,a5
   1086c:	9707a783          	lw	a5,-1680(a5) # 970 <exit-0xf724>
   10870:	04078863          	beqz	a5,108c0 <match_set+0x130>
   10874:	fc442783          	lw	a5,-60(s0)
   10878:	0007c703          	lbu	a4,0(a5)
   1087c:	fec42783          	lw	a5,-20(s0)
   10880:	fcc42683          	lw	a3,-52(s0)
   10884:	00f687b3          	add	a5,a3,a5
   10888:	0007c783          	lbu	a5,0(a5)
   1088c:	02f76663          	bltu	a4,a5,108b8 <match_set+0x128>
   10890:	fc442783          	lw	a5,-60(s0)
   10894:	0007c703          	lbu	a4,0(a5)
   10898:	fec42783          	lw	a5,-20(s0)
   1089c:	00278793          	addi	a5,a5,2
   108a0:	fcc42683          	lw	a3,-52(s0)
   108a4:	00f687b3          	add	a5,a3,a5
   108a8:	0007c783          	lbu	a5,0(a5)
   108ac:	00e7e663          	bltu	a5,a4,108b8 <match_set+0x128>
   108b0:	00100793          	li	a5,1
   108b4:	1340006f          	j	109e8 <match_set+0x258>
   108b8:	00000793          	li	a5,0
   108bc:	12c0006f          	j	109e8 <match_set+0x258>
   108c0:	fc442783          	lw	a5,-60(s0)
   108c4:	0007c783          	lbu	a5,0(a5)
   108c8:	fef42023          	sw	a5,-32(s0)
   108cc:	fe042783          	lw	a5,-32(s0)
   108d0:	00178713          	addi	a4,a5,1
   108d4:	000127b7          	lui	a5,0x12
   108d8:	5d478793          	addi	a5,a5,1492 # 125d4 <_ctype_>
   108dc:	00f707b3          	add	a5,a4,a5
   108e0:	0007c783          	lbu	a5,0(a5)
   108e4:	0037f713          	andi	a4,a5,3
   108e8:	00100793          	li	a5,1
   108ec:	00f71863          	bne	a4,a5,108fc <match_set+0x16c>
   108f0:	fe042783          	lw	a5,-32(s0)
   108f4:	02078713          	addi	a4,a5,32
   108f8:	0080006f          	j	10900 <match_set+0x170>
   108fc:	fe042703          	lw	a4,-32(s0)
   10900:	fec42783          	lw	a5,-20(s0)
   10904:	fcc42683          	lw	a3,-52(s0)
   10908:	00f687b3          	add	a5,a3,a5
   1090c:	0007c783          	lbu	a5,0(a5)
   10910:	fcf42e23          	sw	a5,-36(s0)
   10914:	fdc42783          	lw	a5,-36(s0)
   10918:	00178693          	addi	a3,a5,1
   1091c:	000127b7          	lui	a5,0x12
   10920:	5d478793          	addi	a5,a5,1492 # 125d4 <_ctype_>
   10924:	00f687b3          	add	a5,a3,a5
   10928:	0007c783          	lbu	a5,0(a5)
   1092c:	0037f693          	andi	a3,a5,3
   10930:	00100793          	li	a5,1
   10934:	00f69863          	bne	a3,a5,10944 <match_set+0x1b4>
   10938:	fdc42783          	lw	a5,-36(s0)
   1093c:	02078793          	addi	a5,a5,32
   10940:	0080006f          	j	10948 <match_set+0x1b8>
   10944:	fdc42783          	lw	a5,-36(s0)
   10948:	08f74e63          	blt	a4,a5,109e4 <match_set+0x254>
   1094c:	fc442783          	lw	a5,-60(s0)
   10950:	0007c783          	lbu	a5,0(a5)
   10954:	fcf42c23          	sw	a5,-40(s0)
   10958:	fd842783          	lw	a5,-40(s0)
   1095c:	00178713          	addi	a4,a5,1
   10960:	000127b7          	lui	a5,0x12
   10964:	5d478793          	addi	a5,a5,1492 # 125d4 <_ctype_>
   10968:	00f707b3          	add	a5,a4,a5
   1096c:	0007c783          	lbu	a5,0(a5)
   10970:	0037f713          	andi	a4,a5,3
   10974:	00100793          	li	a5,1
   10978:	00f71863          	bne	a4,a5,10988 <match_set+0x1f8>
   1097c:	fd842783          	lw	a5,-40(s0)
   10980:	02078713          	addi	a4,a5,32
   10984:	0080006f          	j	1098c <match_set+0x1fc>
   10988:	fd842703          	lw	a4,-40(s0)
   1098c:	fec42783          	lw	a5,-20(s0)
   10990:	00278793          	addi	a5,a5,2
   10994:	fcc42683          	lw	a3,-52(s0)
   10998:	00f687b3          	add	a5,a3,a5
   1099c:	0007c783          	lbu	a5,0(a5)
   109a0:	fcf42a23          	sw	a5,-44(s0)
   109a4:	fd442783          	lw	a5,-44(s0)
   109a8:	00178693          	addi	a3,a5,1
   109ac:	000127b7          	lui	a5,0x12
   109b0:	5d478793          	addi	a5,a5,1492 # 125d4 <_ctype_>
   109b4:	00f687b3          	add	a5,a3,a5
   109b8:	0007c783          	lbu	a5,0(a5)
   109bc:	0037f693          	andi	a3,a5,3
   109c0:	00100793          	li	a5,1
   109c4:	00f69863          	bne	a3,a5,109d4 <match_set+0x244>
   109c8:	fd442783          	lw	a5,-44(s0)
   109cc:	02078793          	addi	a5,a5,32
   109d0:	0080006f          	j	109d8 <match_set+0x248>
   109d4:	fd442783          	lw	a5,-44(s0)
   109d8:	00e7c663          	blt	a5,a4,109e4 <match_set+0x254>
   109dc:	00100793          	li	a5,1
   109e0:	0080006f          	j	109e8 <match_set+0x258>
   109e4:	00000793          	li	a5,0
   109e8:	fef42423          	sw	a5,-24(s0)
   109ec:	fec42783          	lw	a5,-20(s0)
   109f0:	00378793          	addi	a5,a5,3
   109f4:	fef42623          	sw	a5,-20(s0)
   109f8:	0480006f          	j	10a40 <match_set+0x2b0>
   109fc:	fec42783          	lw	a5,-20(s0)
   10a00:	fcc42703          	lw	a4,-52(s0)
   10a04:	00f707b3          	add	a5,a4,a5
   10a08:	fc042603          	lw	a2,-64(s0)
   10a0c:	fc442583          	lw	a1,-60(s0)
   10a10:	00078513          	mv	a0,a5
   10a14:	ab9ff0ef          	jal	ra,104cc <match_op>
   10a18:	fea42423          	sw	a0,-24(s0)
   10a1c:	fec42783          	lw	a5,-20(s0)
   10a20:	fcc42703          	lw	a4,-52(s0)
   10a24:	00f707b3          	add	a5,a4,a5
   10a28:	00078513          	mv	a0,a5
   10a2c:	facff0ef          	jal	ra,101d8 <op_len>
   10a30:	00050713          	mv	a4,a0
   10a34:	fec42783          	lw	a5,-20(s0)
   10a38:	00e787b3          	add	a5,a5,a4
   10a3c:	fef42623          	sw	a5,-20(s0)
   10a40:	fec42703          	lw	a4,-20(s0)
   10a44:	fc842783          	lw	a5,-56(s0)
   10a48:	02e7c263          	blt	a5,a4,10a6c <match_set+0x2dc>
   10a4c:	fec42783          	lw	a5,-20(s0)
   10a50:	fcc42703          	lw	a4,-52(s0)
   10a54:	00f707b3          	add	a5,a4,a5
   10a58:	0007c703          	lbu	a4,0(a5)
   10a5c:	05d00793          	li	a5,93
   10a60:	00f70663          	beq	a4,a5,10a6c <match_set+0x2dc>
   10a64:	fe842783          	lw	a5,-24(s0)
   10a68:	d8f058e3          	blez	a5,107f8 <match_set+0x68>
   10a6c:	fe442783          	lw	a5,-28(s0)
   10a70:	00079663          	bnez	a5,10a7c <match_set+0x2ec>
   10a74:	fe842783          	lw	a5,-24(s0)
   10a78:	00f04a63          	bgtz	a5,10a8c <match_set+0x2fc>
   10a7c:	fe442783          	lw	a5,-28(s0)
   10a80:	00078a63          	beqz	a5,10a94 <match_set+0x304>
   10a84:	fe842783          	lw	a5,-24(s0)
   10a88:	00f04663          	bgtz	a5,10a94 <match_set+0x304>
   10a8c:	00100793          	li	a5,1
   10a90:	0080006f          	j	10a98 <match_set+0x308>
   10a94:	fff00793          	li	a5,-1
   10a98:	00078513          	mv	a0,a5
   10a9c:	03c12083          	lw	ra,60(sp)
   10aa0:	03812403          	lw	s0,56(sp)
   10aa4:	04010113          	addi	sp,sp,64
   10aa8:	00008067          	ret

00010aac <bar>:
   10aac:	fa010113          	addi	sp,sp,-96
   10ab0:	04112e23          	sw	ra,92(sp)
   10ab4:	04812c23          	sw	s0,88(sp)
   10ab8:	06010413          	addi	s0,sp,96
   10abc:	faa42e23          	sw	a0,-68(s0)
   10ac0:	fab42c23          	sw	a1,-72(s0)
   10ac4:	fac42a23          	sw	a2,-76(s0)
   10ac8:	fad42823          	sw	a3,-80(s0)
   10acc:	fae42623          	sw	a4,-84(s0)
   10ad0:	faf42423          	sw	a5,-88(s0)
   10ad4:	fe042423          	sw	zero,-24(s0)
   10ad8:	fe842783          	lw	a5,-24(s0)
   10adc:	fef42623          	sw	a5,-20(s0)
   10ae0:	74c0006f          	j	1122c <bar+0x780>
   10ae4:	fec42783          	lw	a5,-20(s0)
   10ae8:	fbc42703          	lw	a4,-68(s0)
   10aec:	00f707b3          	add	a5,a4,a5
   10af0:	0007c703          	lbu	a4,0(a5)
   10af4:	02800793          	li	a5,40
   10af8:	02f71263          	bne	a4,a5,10b1c <bar+0x70>
   10afc:	fa842783          	lw	a5,-88(s0)
   10b00:	00178793          	addi	a5,a5,1
   10b04:	fac42703          	lw	a4,-84(s0)
   10b08:	00479793          	slli	a5,a5,0x4
   10b0c:	00f707b3          	add	a5,a4,a5
   10b10:	0047a783          	lw	a5,4(a5)
   10b14:	00278793          	addi	a5,a5,2
   10b18:	02c0006f          	j	10b44 <bar+0x98>
   10b1c:	fec42783          	lw	a5,-20(s0)
   10b20:	fbc42703          	lw	a4,-68(s0)
   10b24:	00f706b3          	add	a3,a4,a5
   10b28:	fb842703          	lw	a4,-72(s0)
   10b2c:	fec42783          	lw	a5,-20(s0)
   10b30:	40f707b3          	sub	a5,a4,a5
   10b34:	00078593          	mv	a1,a5
   10b38:	00068513          	mv	a0,a3
   10b3c:	f9cff0ef          	jal	ra,102d8 <get_op_len>
   10b40:	00050793          	mv	a5,a0
   10b44:	fcf42423          	sw	a5,-56(s0)
   10b48:	fec42783          	lw	a5,-20(s0)
   10b4c:	fbc42703          	lw	a4,-68(s0)
   10b50:	00f707b3          	add	a5,a4,a5
   10b54:	00078513          	mv	a0,a5
   10b58:	ff0ff0ef          	jal	ra,10348 <is_quantifier>
   10b5c:	00050793          	mv	a5,a0
   10b60:	00078663          	beqz	a5,10b6c <bar+0xc0>
   10b64:	ffe00793          	li	a5,-2
   10b68:	6e00006f          	j	11248 <bar+0x79c>
   10b6c:	fc842783          	lw	a5,-56(s0)
   10b70:	00f04663          	bgtz	a5,10b7c <bar+0xd0>
   10b74:	ffb00793          	li	a5,-5
   10b78:	6d00006f          	j	11248 <bar+0x79c>
   10b7c:	fec42703          	lw	a4,-20(s0)
   10b80:	fc842783          	lw	a5,-56(s0)
   10b84:	00f707b3          	add	a5,a4,a5
   10b88:	fb842703          	lw	a4,-72(s0)
   10b8c:	36e7d063          	bge	a5,a4,10eec <bar+0x440>
   10b90:	fec42703          	lw	a4,-20(s0)
   10b94:	fc842783          	lw	a5,-56(s0)
   10b98:	00f707b3          	add	a5,a4,a5
   10b9c:	fbc42703          	lw	a4,-68(s0)
   10ba0:	00f707b3          	add	a5,a4,a5
   10ba4:	00078513          	mv	a0,a5
   10ba8:	fa0ff0ef          	jal	ra,10348 <is_quantifier>
   10bac:	00050793          	mv	a5,a0
   10bb0:	32078e63          	beqz	a5,10eec <bar+0x440>
   10bb4:	fec42703          	lw	a4,-20(s0)
   10bb8:	fc842783          	lw	a5,-56(s0)
   10bbc:	00f707b3          	add	a5,a4,a5
   10bc0:	00078713          	mv	a4,a5
   10bc4:	fbc42783          	lw	a5,-68(s0)
   10bc8:	00e787b3          	add	a5,a5,a4
   10bcc:	0007c703          	lbu	a4,0(a5)
   10bd0:	03f00793          	li	a5,63
   10bd4:	06f71263          	bne	a4,a5,10c38 <bar+0x18c>
   10bd8:	fec42783          	lw	a5,-20(s0)
   10bdc:	fbc42703          	lw	a4,-68(s0)
   10be0:	00f70533          	add	a0,a4,a5
   10be4:	fe842783          	lw	a5,-24(s0)
   10be8:	fb442703          	lw	a4,-76(s0)
   10bec:	00f70633          	add	a2,a4,a5
   10bf0:	fb042703          	lw	a4,-80(s0)
   10bf4:	fe842783          	lw	a5,-24(s0)
   10bf8:	40f706b3          	sub	a3,a4,a5
   10bfc:	fa842783          	lw	a5,-88(s0)
   10c00:	fac42703          	lw	a4,-84(s0)
   10c04:	fc842583          	lw	a1,-56(s0)
   10c08:	ea5ff0ef          	jal	ra,10aac <bar>
   10c0c:	fca42023          	sw	a0,-64(s0)
   10c10:	fc042783          	lw	a5,-64(s0)
   10c14:	0007d463          	bgez	a5,10c1c <bar+0x170>
   10c18:	00000793          	li	a5,0
   10c1c:	fe842703          	lw	a4,-24(s0)
   10c20:	00f707b3          	add	a5,a4,a5
   10c24:	fef42423          	sw	a5,-24(s0)
   10c28:	fec42783          	lw	a5,-20(s0)
   10c2c:	00178793          	addi	a5,a5,1
   10c30:	fef42623          	sw	a5,-20(s0)
   10c34:	5e40006f          	j	11218 <bar+0x76c>
   10c38:	fec42703          	lw	a4,-20(s0)
   10c3c:	fc842783          	lw	a5,-56(s0)
   10c40:	00f707b3          	add	a5,a4,a5
   10c44:	00078713          	mv	a4,a5
   10c48:	fbc42783          	lw	a5,-68(s0)
   10c4c:	00e787b3          	add	a5,a5,a4
   10c50:	0007c703          	lbu	a4,0(a5)
   10c54:	02b00793          	li	a5,43
   10c58:	02f70463          	beq	a4,a5,10c80 <bar+0x1d4>
   10c5c:	fec42703          	lw	a4,-20(s0)
   10c60:	fc842783          	lw	a5,-56(s0)
   10c64:	00f707b3          	add	a5,a4,a5
   10c68:	00078713          	mv	a4,a5
   10c6c:	fbc42783          	lw	a5,-68(s0)
   10c70:	00e787b3          	add	a5,a5,a4
   10c74:	0007c703          	lbu	a4,0(a5)
   10c78:	02a00793          	li	a5,42
   10c7c:	58f71e63          	bne	a4,a5,11218 <bar+0x76c>
   10c80:	fe842783          	lw	a5,-24(s0)
   10c84:	fef42023          	sw	a5,-32(s0)
   10c88:	fe842783          	lw	a5,-24(s0)
   10c8c:	fcf42e23          	sw	a5,-36(s0)
   10c90:	fff00793          	li	a5,-1
   10c94:	fcf42c23          	sw	a5,-40(s0)
   10c98:	fc042823          	sw	zero,-48(s0)
   10c9c:	fec42703          	lw	a4,-20(s0)
   10ca0:	fc842783          	lw	a5,-56(s0)
   10ca4:	00f707b3          	add	a5,a4,a5
   10ca8:	00178793          	addi	a5,a5,1
   10cac:	fcf42a23          	sw	a5,-44(s0)
   10cb0:	fd442703          	lw	a4,-44(s0)
   10cb4:	fb842783          	lw	a5,-72(s0)
   10cb8:	02f75863          	bge	a4,a5,10ce8 <bar+0x23c>
   10cbc:	fd442783          	lw	a5,-44(s0)
   10cc0:	fbc42703          	lw	a4,-68(s0)
   10cc4:	00f707b3          	add	a5,a4,a5
   10cc8:	0007c703          	lbu	a4,0(a5)
   10ccc:	03f00793          	li	a5,63
   10cd0:	00f71c63          	bne	a4,a5,10ce8 <bar+0x23c>
   10cd4:	00100793          	li	a5,1
   10cd8:	fcf42823          	sw	a5,-48(s0)
   10cdc:	fd442783          	lw	a5,-44(s0)
   10ce0:	00178793          	addi	a5,a5,1
   10ce4:	fcf42a23          	sw	a5,-44(s0)
   10ce8:	fec42783          	lw	a5,-20(s0)
   10cec:	fbc42703          	lw	a4,-68(s0)
   10cf0:	00f70533          	add	a0,a4,a5
   10cf4:	fe042783          	lw	a5,-32(s0)
   10cf8:	fb442703          	lw	a4,-76(s0)
   10cfc:	00f70633          	add	a2,a4,a5
   10d00:	fb042703          	lw	a4,-80(s0)
   10d04:	fe042783          	lw	a5,-32(s0)
   10d08:	40f706b3          	sub	a3,a4,a5
   10d0c:	fa842783          	lw	a5,-88(s0)
   10d10:	fac42703          	lw	a4,-84(s0)
   10d14:	fc842583          	lw	a1,-56(s0)
   10d18:	d95ff0ef          	jal	ra,10aac <bar>
   10d1c:	fca42223          	sw	a0,-60(s0)
   10d20:	fc442783          	lw	a5,-60(s0)
   10d24:	00f05a63          	blez	a5,10d38 <bar+0x28c>
   10d28:	fe042703          	lw	a4,-32(s0)
   10d2c:	fc442783          	lw	a5,-60(s0)
   10d30:	00f707b3          	add	a5,a4,a5
   10d34:	fef42023          	sw	a5,-32(s0)
   10d38:	fec42703          	lw	a4,-20(s0)
   10d3c:	fc842783          	lw	a5,-56(s0)
   10d40:	00f707b3          	add	a5,a4,a5
   10d44:	00078713          	mv	a4,a5
   10d48:	fbc42783          	lw	a5,-68(s0)
   10d4c:	00e787b3          	add	a5,a5,a4
   10d50:	0007c703          	lbu	a4,0(a5)
   10d54:	02b00793          	li	a5,43
   10d58:	00f71663          	bne	a4,a5,10d64 <bar+0x2b8>
   10d5c:	fc442783          	lw	a5,-60(s0)
   10d60:	0807ca63          	bltz	a5,10df4 <bar+0x348>
   10d64:	fd442703          	lw	a4,-44(s0)
   10d68:	fb842783          	lw	a5,-72(s0)
   10d6c:	00f74863          	blt	a4,a5,10d7c <bar+0x2d0>
   10d70:	fe042783          	lw	a5,-32(s0)
   10d74:	fcf42e23          	sw	a5,-36(s0)
   10d78:	05c0006f          	j	10dd4 <bar+0x328>
   10d7c:	fd442783          	lw	a5,-44(s0)
   10d80:	fbc42703          	lw	a4,-68(s0)
   10d84:	00f70533          	add	a0,a4,a5
   10d88:	fb842703          	lw	a4,-72(s0)
   10d8c:	fd442783          	lw	a5,-44(s0)
   10d90:	40f705b3          	sub	a1,a4,a5
   10d94:	fe042783          	lw	a5,-32(s0)
   10d98:	fb442703          	lw	a4,-76(s0)
   10d9c:	00f70633          	add	a2,a4,a5
   10da0:	fb042703          	lw	a4,-80(s0)
   10da4:	fe042783          	lw	a5,-32(s0)
   10da8:	40f706b3          	sub	a3,a4,a5
   10dac:	fa842783          	lw	a5,-88(s0)
   10db0:	fac42703          	lw	a4,-84(s0)
   10db4:	cf9ff0ef          	jal	ra,10aac <bar>
   10db8:	fca42c23          	sw	a0,-40(s0)
   10dbc:	fd842783          	lw	a5,-40(s0)
   10dc0:	0007ca63          	bltz	a5,10dd4 <bar+0x328>
   10dc4:	fe042703          	lw	a4,-32(s0)
   10dc8:	fd842783          	lw	a5,-40(s0)
   10dcc:	00f707b3          	add	a5,a4,a5
   10dd0:	fcf42e23          	sw	a5,-36(s0)
   10dd4:	fdc42703          	lw	a4,-36(s0)
   10dd8:	fe842783          	lw	a5,-24(s0)
   10ddc:	00e7d663          	bge	a5,a4,10de8 <bar+0x33c>
   10de0:	fd042783          	lw	a5,-48(s0)
   10de4:	00079c63          	bnez	a5,10dfc <bar+0x350>
   10de8:	fc442783          	lw	a5,-60(s0)
   10dec:	eef04ee3          	bgtz	a5,10ce8 <bar+0x23c>
   10df0:	0100006f          	j	10e00 <bar+0x354>
   10df4:	00000013          	nop
   10df8:	0080006f          	j	10e00 <bar+0x354>
   10dfc:	00000013          	nop
   10e00:	fc442783          	lw	a5,-60(s0)
   10e04:	0807d063          	bgez	a5,10e84 <bar+0x3d8>
   10e08:	fec42703          	lw	a4,-20(s0)
   10e0c:	fc842783          	lw	a5,-56(s0)
   10e10:	00f707b3          	add	a5,a4,a5
   10e14:	00078713          	mv	a4,a5
   10e18:	fbc42783          	lw	a5,-68(s0)
   10e1c:	00e787b3          	add	a5,a5,a4
   10e20:	0007c703          	lbu	a4,0(a5)
   10e24:	02a00793          	li	a5,42
   10e28:	04f71e63          	bne	a4,a5,10e84 <bar+0x3d8>
   10e2c:	fd442783          	lw	a5,-44(s0)
   10e30:	fbc42703          	lw	a4,-68(s0)
   10e34:	00f70533          	add	a0,a4,a5
   10e38:	fb842703          	lw	a4,-72(s0)
   10e3c:	fd442783          	lw	a5,-44(s0)
   10e40:	40f705b3          	sub	a1,a4,a5
   10e44:	fe842783          	lw	a5,-24(s0)
   10e48:	fb442703          	lw	a4,-76(s0)
   10e4c:	00f70633          	add	a2,a4,a5
   10e50:	fb042703          	lw	a4,-80(s0)
   10e54:	fe842783          	lw	a5,-24(s0)
   10e58:	40f706b3          	sub	a3,a4,a5
   10e5c:	fa842783          	lw	a5,-88(s0)
   10e60:	fac42703          	lw	a4,-84(s0)
   10e64:	c49ff0ef          	jal	ra,10aac <bar>
   10e68:	fca42c23          	sw	a0,-40(s0)
   10e6c:	fd842783          	lw	a5,-40(s0)
   10e70:	00f05a63          	blez	a5,10e84 <bar+0x3d8>
   10e74:	fe842703          	lw	a4,-24(s0)
   10e78:	fd842783          	lw	a5,-40(s0)
   10e7c:	00f707b3          	add	a5,a4,a5
   10e80:	fcf42e23          	sw	a5,-36(s0)
   10e84:	fec42703          	lw	a4,-20(s0)
   10e88:	fc842783          	lw	a5,-56(s0)
   10e8c:	00f707b3          	add	a5,a4,a5
   10e90:	00078713          	mv	a4,a5
   10e94:	fbc42783          	lw	a5,-68(s0)
   10e98:	00e787b3          	add	a5,a5,a4
   10e9c:	0007c703          	lbu	a4,0(a5)
   10ea0:	02b00793          	li	a5,43
   10ea4:	00f71c63          	bne	a4,a5,10ebc <bar+0x410>
   10ea8:	fdc42703          	lw	a4,-36(s0)
   10eac:	fe842783          	lw	a5,-24(s0)
   10eb0:	00f71663          	bne	a4,a5,10ebc <bar+0x410>
   10eb4:	fff00793          	li	a5,-1
   10eb8:	3900006f          	j	11248 <bar+0x79c>
   10ebc:	fdc42703          	lw	a4,-36(s0)
   10ec0:	fe842783          	lw	a5,-24(s0)
   10ec4:	02f71063          	bne	a4,a5,10ee4 <bar+0x438>
   10ec8:	fd442703          	lw	a4,-44(s0)
   10ecc:	fb842783          	lw	a5,-72(s0)
   10ed0:	00f75a63          	bge	a4,a5,10ee4 <bar+0x438>
   10ed4:	fd842783          	lw	a5,-40(s0)
   10ed8:	0007d663          	bgez	a5,10ee4 <bar+0x438>
   10edc:	fff00793          	li	a5,-1
   10ee0:	3680006f          	j	11248 <bar+0x79c>
   10ee4:	fdc42783          	lw	a5,-36(s0)
   10ee8:	3600006f          	j	11248 <bar+0x79c>
   10eec:	fec42783          	lw	a5,-20(s0)
   10ef0:	fbc42703          	lw	a4,-68(s0)
   10ef4:	00f707b3          	add	a5,a4,a5
   10ef8:	0007c703          	lbu	a4,0(a5)
   10efc:	05b00793          	li	a5,91
   10f00:	06f71263          	bne	a4,a5,10f64 <bar+0x4b8>
   10f04:	fec42783          	lw	a5,-20(s0)
   10f08:	00178793          	addi	a5,a5,1
   10f0c:	fbc42703          	lw	a4,-68(s0)
   10f10:	00f70533          	add	a0,a4,a5
   10f14:	fec42783          	lw	a5,-20(s0)
   10f18:	00278793          	addi	a5,a5,2
   10f1c:	fb842703          	lw	a4,-72(s0)
   10f20:	40f705b3          	sub	a1,a4,a5
   10f24:	fe842783          	lw	a5,-24(s0)
   10f28:	fb442703          	lw	a4,-76(s0)
   10f2c:	00f707b3          	add	a5,a4,a5
   10f30:	fac42683          	lw	a3,-84(s0)
   10f34:	00078613          	mv	a2,a5
   10f38:	859ff0ef          	jal	ra,10790 <match_set>
   10f3c:	fea42223          	sw	a0,-28(s0)
   10f40:	fe442783          	lw	a5,-28(s0)
   10f44:	00f04663          	bgtz	a5,10f50 <bar+0x4a4>
   10f48:	fff00793          	li	a5,-1
   10f4c:	2fc0006f          	j	11248 <bar+0x79c>
   10f50:	fe842703          	lw	a4,-24(s0)
   10f54:	fe442783          	lw	a5,-28(s0)
   10f58:	00f707b3          	add	a5,a4,a5
   10f5c:	fef42423          	sw	a5,-24(s0)
   10f60:	2bc0006f          	j	1121c <bar+0x770>
   10f64:	fec42783          	lw	a5,-20(s0)
   10f68:	fbc42703          	lw	a4,-68(s0)
   10f6c:	00f707b3          	add	a5,a4,a5
   10f70:	0007c703          	lbu	a4,0(a5)
   10f74:	02800793          	li	a5,40
   10f78:	1ef71463          	bne	a4,a5,11160 <bar+0x6b4>
   10f7c:	fff00793          	li	a5,-1
   10f80:	fef42223          	sw	a5,-28(s0)
   10f84:	fa842783          	lw	a5,-88(s0)
   10f88:	00178793          	addi	a5,a5,1
   10f8c:	faf42423          	sw	a5,-88(s0)
   10f90:	fac42783          	lw	a5,-84(s0)
   10f94:	6407a783          	lw	a5,1600(a5)
   10f98:	fa842703          	lw	a4,-88(s0)
   10f9c:	00f74663          	blt	a4,a5,10fa8 <bar+0x4fc>
   10fa0:	ffc00793          	li	a5,-4
   10fa4:	2a40006f          	j	11248 <bar+0x79c>
   10fa8:	fec42703          	lw	a4,-20(s0)
   10fac:	fc842783          	lw	a5,-56(s0)
   10fb0:	00f707b3          	add	a5,a4,a5
   10fb4:	fb842703          	lw	a4,-72(s0)
   10fb8:	40f707b3          	sub	a5,a4,a5
   10fbc:	02f04a63          	bgtz	a5,10ff0 <bar+0x544>
   10fc0:	fe842783          	lw	a5,-24(s0)
   10fc4:	fb442703          	lw	a4,-76(s0)
   10fc8:	00f70533          	add	a0,a4,a5
   10fcc:	fb042703          	lw	a4,-80(s0)
   10fd0:	fe842783          	lw	a5,-24(s0)
   10fd4:	40f707b3          	sub	a5,a4,a5
   10fd8:	fa842683          	lw	a3,-88(s0)
   10fdc:	fac42603          	lw	a2,-84(s0)
   10fe0:	00078593          	mv	a1,a5
   10fe4:	278000ef          	jal	ra,1125c <doh>
   10fe8:	fea42223          	sw	a0,-28(s0)
   10fec:	0d40006f          	j	110c0 <bar+0x614>
   10ff0:	fc042623          	sw	zero,-52(s0)
   10ff4:	0b00006f          	j	110a4 <bar+0x5f8>
   10ff8:	fe842783          	lw	a5,-24(s0)
   10ffc:	fb442703          	lw	a4,-76(s0)
   11000:	00f70533          	add	a0,a4,a5
   11004:	fe842703          	lw	a4,-24(s0)
   11008:	fcc42783          	lw	a5,-52(s0)
   1100c:	00f707b3          	add	a5,a4,a5
   11010:	fb042703          	lw	a4,-80(s0)
   11014:	40f707b3          	sub	a5,a4,a5
   11018:	fa842683          	lw	a3,-88(s0)
   1101c:	fac42603          	lw	a2,-84(s0)
   11020:	00078593          	mv	a1,a5
   11024:	238000ef          	jal	ra,1125c <doh>
   11028:	fea42223          	sw	a0,-28(s0)
   1102c:	fe442783          	lw	a5,-28(s0)
   11030:	0607c463          	bltz	a5,11098 <bar+0x5ec>
   11034:	fec42703          	lw	a4,-20(s0)
   11038:	fc842783          	lw	a5,-56(s0)
   1103c:	00f707b3          	add	a5,a4,a5
   11040:	fbc42703          	lw	a4,-68(s0)
   11044:	00f70533          	add	a0,a4,a5
   11048:	fec42703          	lw	a4,-20(s0)
   1104c:	fc842783          	lw	a5,-56(s0)
   11050:	00f707b3          	add	a5,a4,a5
   11054:	fb842703          	lw	a4,-72(s0)
   11058:	40f705b3          	sub	a1,a4,a5
   1105c:	fe842703          	lw	a4,-24(s0)
   11060:	fe442783          	lw	a5,-28(s0)
   11064:	00f707b3          	add	a5,a4,a5
   11068:	fb442703          	lw	a4,-76(s0)
   1106c:	00f70633          	add	a2,a4,a5
   11070:	fe842703          	lw	a4,-24(s0)
   11074:	fe442783          	lw	a5,-28(s0)
   11078:	00f707b3          	add	a5,a4,a5
   1107c:	fb042703          	lw	a4,-80(s0)
   11080:	40f706b3          	sub	a3,a4,a5
   11084:	fa842783          	lw	a5,-88(s0)
   11088:	fac42703          	lw	a4,-84(s0)
   1108c:	a21ff0ef          	jal	ra,10aac <bar>
   11090:	00050793          	mv	a5,a0
   11094:	0207d463          	bgez	a5,110bc <bar+0x610>
   11098:	fcc42783          	lw	a5,-52(s0)
   1109c:	00178793          	addi	a5,a5,1
   110a0:	fcf42623          	sw	a5,-52(s0)
   110a4:	fb042703          	lw	a4,-80(s0)
   110a8:	fe842783          	lw	a5,-24(s0)
   110ac:	40f707b3          	sub	a5,a4,a5
   110b0:	fcc42703          	lw	a4,-52(s0)
   110b4:	f4e7d2e3          	bge	a5,a4,10ff8 <bar+0x54c>
   110b8:	0080006f          	j	110c0 <bar+0x614>
   110bc:	00000013          	nop
   110c0:	fe442783          	lw	a5,-28(s0)
   110c4:	0007d663          	bgez	a5,110d0 <bar+0x624>
   110c8:	fe442783          	lw	a5,-28(s0)
   110cc:	17c0006f          	j	11248 <bar+0x79c>
   110d0:	fac42703          	lw	a4,-84(s0)
   110d4:	000017b7          	lui	a5,0x1
   110d8:	00f707b3          	add	a5,a4,a5
   110dc:	9687a783          	lw	a5,-1688(a5) # 968 <exit-0xf72c>
   110e0:	06078663          	beqz	a5,1114c <bar+0x6a0>
   110e4:	fe842703          	lw	a4,-24(s0)
   110e8:	fac42683          	lw	a3,-84(s0)
   110ec:	000017b7          	lui	a5,0x1
   110f0:	00f687b3          	add	a5,a3,a5
   110f4:	9687a683          	lw	a3,-1688(a5) # 968 <exit-0xf72c>
   110f8:	fa842603          	lw	a2,-88(s0)
   110fc:	200007b7          	lui	a5,0x20000
   11100:	fff78793          	addi	a5,a5,-1 # 1fffffff <__global_pointer$+0x1ffec117>
   11104:	00f607b3          	add	a5,a2,a5
   11108:	00379793          	slli	a5,a5,0x3
   1110c:	00f687b3          	add	a5,a3,a5
   11110:	fb442683          	lw	a3,-76(s0)
   11114:	00e68733          	add	a4,a3,a4
   11118:	00e7a023          	sw	a4,0(a5)
   1111c:	fac42703          	lw	a4,-84(s0)
   11120:	000017b7          	lui	a5,0x1
   11124:	00f707b3          	add	a5,a4,a5
   11128:	9687a703          	lw	a4,-1688(a5) # 968 <exit-0xf72c>
   1112c:	fa842683          	lw	a3,-88(s0)
   11130:	200007b7          	lui	a5,0x20000
   11134:	fff78793          	addi	a5,a5,-1 # 1fffffff <__global_pointer$+0x1ffec117>
   11138:	00f687b3          	add	a5,a3,a5
   1113c:	00379793          	slli	a5,a5,0x3
   11140:	00f707b3          	add	a5,a4,a5
   11144:	fe442703          	lw	a4,-28(s0)
   11148:	00e7a223          	sw	a4,4(a5)
   1114c:	fe842703          	lw	a4,-24(s0)
   11150:	fe442783          	lw	a5,-28(s0)
   11154:	00f707b3          	add	a5,a4,a5
   11158:	fef42423          	sw	a5,-24(s0)
   1115c:	0c00006f          	j	1121c <bar+0x770>
   11160:	fec42783          	lw	a5,-20(s0)
   11164:	fbc42703          	lw	a4,-68(s0)
   11168:	00f707b3          	add	a5,a4,a5
   1116c:	0007c703          	lbu	a4,0(a5)
   11170:	05e00793          	li	a5,94
   11174:	00f71a63          	bne	a4,a5,11188 <bar+0x6dc>
   11178:	fe842783          	lw	a5,-24(s0)
   1117c:	0a078063          	beqz	a5,1121c <bar+0x770>
   11180:	fff00793          	li	a5,-1
   11184:	0c40006f          	j	11248 <bar+0x79c>
   11188:	fec42783          	lw	a5,-20(s0)
   1118c:	fbc42703          	lw	a4,-68(s0)
   11190:	00f707b3          	add	a5,a4,a5
   11194:	0007c703          	lbu	a4,0(a5)
   11198:	02400793          	li	a5,36
   1119c:	00f71c63          	bne	a4,a5,111b4 <bar+0x708>
   111a0:	fe842703          	lw	a4,-24(s0)
   111a4:	fb042783          	lw	a5,-80(s0)
   111a8:	06f70a63          	beq	a4,a5,1121c <bar+0x770>
   111ac:	fff00793          	li	a5,-1
   111b0:	0980006f          	j	11248 <bar+0x79c>
   111b4:	fe842703          	lw	a4,-24(s0)
   111b8:	fb042783          	lw	a5,-80(s0)
   111bc:	00f74663          	blt	a4,a5,111c8 <bar+0x71c>
   111c0:	fff00793          	li	a5,-1
   111c4:	0840006f          	j	11248 <bar+0x79c>
   111c8:	fec42783          	lw	a5,-20(s0)
   111cc:	fbc42703          	lw	a4,-68(s0)
   111d0:	00f706b3          	add	a3,a4,a5
   111d4:	fe842783          	lw	a5,-24(s0)
   111d8:	fb442703          	lw	a4,-76(s0)
   111dc:	00f707b3          	add	a5,a4,a5
   111e0:	fac42603          	lw	a2,-84(s0)
   111e4:	00078593          	mv	a1,a5
   111e8:	00068513          	mv	a0,a3
   111ec:	ae0ff0ef          	jal	ra,104cc <match_op>
   111f0:	fea42223          	sw	a0,-28(s0)
   111f4:	fe442783          	lw	a5,-28(s0)
   111f8:	00f04663          	bgtz	a5,11204 <bar+0x758>
   111fc:	fe442783          	lw	a5,-28(s0)
   11200:	0480006f          	j	11248 <bar+0x79c>
   11204:	fe842703          	lw	a4,-24(s0)
   11208:	fe442783          	lw	a5,-28(s0)
   1120c:	00f707b3          	add	a5,a4,a5
   11210:	fef42423          	sw	a5,-24(s0)
   11214:	0080006f          	j	1121c <bar+0x770>
   11218:	00000013          	nop
   1121c:	fec42703          	lw	a4,-20(s0)
   11220:	fc842783          	lw	a5,-56(s0)
   11224:	00f707b3          	add	a5,a4,a5
   11228:	fef42623          	sw	a5,-20(s0)
   1122c:	fec42703          	lw	a4,-20(s0)
   11230:	fb842783          	lw	a5,-72(s0)
   11234:	00f75863          	bge	a4,a5,11244 <bar+0x798>
   11238:	fe842703          	lw	a4,-24(s0)
   1123c:	fb042783          	lw	a5,-80(s0)
   11240:	8ae7d2e3          	bge	a5,a4,10ae4 <bar+0x38>
   11244:	fe842783          	lw	a5,-24(s0)
   11248:	00078513          	mv	a0,a5
   1124c:	05c12083          	lw	ra,92(sp)
   11250:	05812403          	lw	s0,88(sp)
   11254:	06010113          	addi	sp,sp,96
   11258:	00008067          	ret

0001125c <doh>:
   1125c:	fc010113          	addi	sp,sp,-64
   11260:	02112e23          	sw	ra,60(sp)
   11264:	02812c23          	sw	s0,56(sp)
   11268:	04010413          	addi	s0,sp,64
   1126c:	fca42623          	sw	a0,-52(s0)
   11270:	fcb42423          	sw	a1,-56(s0)
   11274:	fcc42223          	sw	a2,-60(s0)
   11278:	fcd42023          	sw	a3,-64(s0)
   1127c:	fc042783          	lw	a5,-64(s0)
   11280:	00479793          	slli	a5,a5,0x4
   11284:	fc442703          	lw	a4,-60(s0)
   11288:	00f707b3          	add	a5,a4,a5
   1128c:	fef42423          	sw	a5,-24(s0)
   11290:	fe042623          	sw	zero,-20(s0)
   11294:	fec42783          	lw	a5,-20(s0)
   11298:	00079863          	bnez	a5,112a8 <doh+0x4c>
   1129c:	fe842783          	lw	a5,-24(s0)
   112a0:	0007a783          	lw	a5,0(a5)
   112a4:	0300006f          	j	112d4 <doh+0x78>
   112a8:	fe842783          	lw	a5,-24(s0)
   112ac:	0087a703          	lw	a4,8(a5)
   112b0:	fec42783          	lw	a5,-20(s0)
   112b4:	00f707b3          	add	a5,a4,a5
   112b8:	fff78793          	addi	a5,a5,-1
   112bc:	fc442703          	lw	a4,-60(s0)
   112c0:	0c878793          	addi	a5,a5,200
   112c4:	00379793          	slli	a5,a5,0x3
   112c8:	00f707b3          	add	a5,a4,a5
   112cc:	0087a783          	lw	a5,8(a5)
   112d0:	00178793          	addi	a5,a5,1
   112d4:	fef42223          	sw	a5,-28(s0)
   112d8:	fe842783          	lw	a5,-24(s0)
   112dc:	00c7a783          	lw	a5,12(a5)
   112e0:	00079863          	bnez	a5,112f0 <doh+0x94>
   112e4:	fe842783          	lw	a5,-24(s0)
   112e8:	0047a783          	lw	a5,4(a5)
   112ec:	0600006f          	j	1134c <doh+0xf0>
   112f0:	fe842783          	lw	a5,-24(s0)
   112f4:	00c7a783          	lw	a5,12(a5)
   112f8:	fec42703          	lw	a4,-20(s0)
   112fc:	02f71263          	bne	a4,a5,11320 <doh+0xc4>
   11300:	fe842783          	lw	a5,-24(s0)
   11304:	0007a783          	lw	a5,0(a5)
   11308:	fe842703          	lw	a4,-24(s0)
   1130c:	00472703          	lw	a4,4(a4)
   11310:	00e78733          	add	a4,a5,a4
   11314:	fe442783          	lw	a5,-28(s0)
   11318:	40f707b3          	sub	a5,a4,a5
   1131c:	0300006f          	j	1134c <doh+0xf0>
   11320:	fe842783          	lw	a5,-24(s0)
   11324:	0087a703          	lw	a4,8(a5)
   11328:	fec42783          	lw	a5,-20(s0)
   1132c:	00f707b3          	add	a5,a4,a5
   11330:	fc442703          	lw	a4,-60(s0)
   11334:	0c878793          	addi	a5,a5,200
   11338:	00379793          	slli	a5,a5,0x3
   1133c:	00f707b3          	add	a5,a4,a5
   11340:	0087a703          	lw	a4,8(a5)
   11344:	fe442783          	lw	a5,-28(s0)
   11348:	40f707b3          	sub	a5,a4,a5
   1134c:	fef42023          	sw	a5,-32(s0)
   11350:	fc042783          	lw	a5,-64(s0)
   11354:	fc442703          	lw	a4,-60(s0)
   11358:	fc842683          	lw	a3,-56(s0)
   1135c:	fcc42603          	lw	a2,-52(s0)
   11360:	fe042583          	lw	a1,-32(s0)
   11364:	fe442503          	lw	a0,-28(s0)
   11368:	f44ff0ef          	jal	ra,10aac <bar>
   1136c:	fca42e23          	sw	a0,-36(s0)
   11370:	fdc42783          	lw	a5,-36(s0)
   11374:	00f04e63          	bgtz	a5,11390 <doh+0x134>
   11378:	fec42783          	lw	a5,-20(s0)
   1137c:	00178713          	addi	a4,a5,1
   11380:	fee42623          	sw	a4,-20(s0)
   11384:	fe842703          	lw	a4,-24(s0)
   11388:	00c72703          	lw	a4,12(a4)
   1138c:	f0e7c4e3          	blt	a5,a4,11294 <doh+0x38>
   11390:	fdc42783          	lw	a5,-36(s0)
   11394:	00078513          	mv	a0,a5
   11398:	03c12083          	lw	ra,60(sp)
   1139c:	03812403          	lw	s0,56(sp)
   113a0:	04010113          	addi	sp,sp,64
   113a4:	00008067          	ret

000113a8 <baz>:
   113a8:	fd010113          	addi	sp,sp,-48
   113ac:	02112623          	sw	ra,44(sp)
   113b0:	02812423          	sw	s0,40(sp)
   113b4:	03010413          	addi	s0,sp,48
   113b8:	fca42e23          	sw	a0,-36(s0)
   113bc:	fcb42c23          	sw	a1,-40(s0)
   113c0:	fcc42a23          	sw	a2,-44(s0)
   113c4:	fff00793          	li	a5,-1
   113c8:	fef42423          	sw	a5,-24(s0)
   113cc:	fd442783          	lw	a5,-44(s0)
   113d0:	0007a783          	lw	a5,0(a5)
   113d4:	0007c783          	lbu	a5,0(a5)
   113d8:	fa278793          	addi	a5,a5,-94
   113dc:	0017b793          	seqz	a5,a5
   113e0:	0ff7f793          	zext.b	a5,a5
   113e4:	fef42223          	sw	a5,-28(s0)
   113e8:	fe042623          	sw	zero,-20(s0)
   113ec:	0600006f          	j	1144c <baz+0xa4>
   113f0:	fec42783          	lw	a5,-20(s0)
   113f4:	fdc42703          	lw	a4,-36(s0)
   113f8:	00f70533          	add	a0,a4,a5
   113fc:	fd842703          	lw	a4,-40(s0)
   11400:	fec42783          	lw	a5,-20(s0)
   11404:	40f707b3          	sub	a5,a4,a5
   11408:	00000693          	li	a3,0
   1140c:	fd442603          	lw	a2,-44(s0)
   11410:	00078593          	mv	a1,a5
   11414:	e49ff0ef          	jal	ra,1125c <doh>
   11418:	fea42423          	sw	a0,-24(s0)
   1141c:	fe842783          	lw	a5,-24(s0)
   11420:	0007cc63          	bltz	a5,11438 <baz+0x90>
   11424:	fe842703          	lw	a4,-24(s0)
   11428:	fec42783          	lw	a5,-20(s0)
   1142c:	00f707b3          	add	a5,a4,a5
   11430:	fef42423          	sw	a5,-24(s0)
   11434:	02c0006f          	j	11460 <baz+0xb8>
   11438:	fe442783          	lw	a5,-28(s0)
   1143c:	02079063          	bnez	a5,1145c <baz+0xb4>
   11440:	fec42783          	lw	a5,-20(s0)
   11444:	00178793          	addi	a5,a5,1
   11448:	fef42623          	sw	a5,-20(s0)
   1144c:	fec42703          	lw	a4,-20(s0)
   11450:	fd842783          	lw	a5,-40(s0)
   11454:	f8e7dee3          	bge	a5,a4,113f0 <baz+0x48>
   11458:	0080006f          	j	11460 <baz+0xb8>
   1145c:	00000013          	nop
   11460:	fe842783          	lw	a5,-24(s0)
   11464:	00078513          	mv	a0,a5
   11468:	02c12083          	lw	ra,44(sp)
   1146c:	02812403          	lw	s0,40(sp)
   11470:	03010113          	addi	sp,sp,48
   11474:	00008067          	ret

00011478 <setup_branch_points>:
   11478:	fd010113          	addi	sp,sp,-48
   1147c:	02812623          	sw	s0,44(sp)
   11480:	03010413          	addi	s0,sp,48
   11484:	fca42e23          	sw	a0,-36(s0)
   11488:	fe042623          	sw	zero,-20(s0)
   1148c:	0f80006f          	j	11584 <setup_branch_points+0x10c>
   11490:	fec42783          	lw	a5,-20(s0)
   11494:	00178793          	addi	a5,a5,1
   11498:	fef42423          	sw	a5,-24(s0)
   1149c:	0c40006f          	j	11560 <setup_branch_points+0xe8>
   114a0:	fdc42703          	lw	a4,-36(s0)
   114a4:	fec42783          	lw	a5,-20(s0)
   114a8:	0c878793          	addi	a5,a5,200
   114ac:	00379793          	slli	a5,a5,0x3
   114b0:	00f707b3          	add	a5,a4,a5
   114b4:	0047a703          	lw	a4,4(a5)
   114b8:	fdc42683          	lw	a3,-36(s0)
   114bc:	fe842783          	lw	a5,-24(s0)
   114c0:	0c878793          	addi	a5,a5,200
   114c4:	00379793          	slli	a5,a5,0x3
   114c8:	00f687b3          	add	a5,a3,a5
   114cc:	0047a783          	lw	a5,4(a5)
   114d0:	08e7d263          	bge	a5,a4,11554 <setup_branch_points+0xdc>
   114d4:	fdc42703          	lw	a4,-36(s0)
   114d8:	fec42783          	lw	a5,-20(s0)
   114dc:	0c878793          	addi	a5,a5,200
   114e0:	00379793          	slli	a5,a5,0x3
   114e4:	00f707b3          	add	a5,a4,a5
   114e8:	0047a703          	lw	a4,4(a5)
   114ec:	fee42023          	sw	a4,-32(s0)
   114f0:	0087a783          	lw	a5,8(a5)
   114f4:	fef42223          	sw	a5,-28(s0)
   114f8:	fdc42703          	lw	a4,-36(s0)
   114fc:	fec42783          	lw	a5,-20(s0)
   11500:	0c878793          	addi	a5,a5,200
   11504:	00379793          	slli	a5,a5,0x3
   11508:	00f707b3          	add	a5,a4,a5
   1150c:	fdc42683          	lw	a3,-36(s0)
   11510:	fe842703          	lw	a4,-24(s0)
   11514:	0c870713          	addi	a4,a4,200
   11518:	00371713          	slli	a4,a4,0x3
   1151c:	00e68733          	add	a4,a3,a4
   11520:	00472683          	lw	a3,4(a4)
   11524:	00d7a223          	sw	a3,4(a5)
   11528:	00872703          	lw	a4,8(a4)
   1152c:	00e7a423          	sw	a4,8(a5)
   11530:	fdc42703          	lw	a4,-36(s0)
   11534:	fe842783          	lw	a5,-24(s0)
   11538:	0c878793          	addi	a5,a5,200
   1153c:	00379793          	slli	a5,a5,0x3
   11540:	00f707b3          	add	a5,a4,a5
   11544:	fe042703          	lw	a4,-32(s0)
   11548:	00e7a223          	sw	a4,4(a5)
   1154c:	fe442703          	lw	a4,-28(s0)
   11550:	00e7a423          	sw	a4,8(a5)
   11554:	fe842783          	lw	a5,-24(s0)
   11558:	00178793          	addi	a5,a5,1
   1155c:	fef42423          	sw	a5,-24(s0)
   11560:	fdc42703          	lw	a4,-36(s0)
   11564:	000017b7          	lui	a5,0x1
   11568:	00f707b3          	add	a5,a4,a5
   1156c:	9647a783          	lw	a5,-1692(a5) # 964 <exit-0xf730>
   11570:	fe842703          	lw	a4,-24(s0)
   11574:	f2f746e3          	blt	a4,a5,114a0 <setup_branch_points+0x28>
   11578:	fec42783          	lw	a5,-20(s0)
   1157c:	00178793          	addi	a5,a5,1
   11580:	fef42623          	sw	a5,-20(s0)
   11584:	fdc42703          	lw	a4,-36(s0)
   11588:	000017b7          	lui	a5,0x1
   1158c:	00f707b3          	add	a5,a4,a5
   11590:	9647a783          	lw	a5,-1692(a5) # 964 <exit-0xf730>
   11594:	fec42703          	lw	a4,-20(s0)
   11598:	eef74ce3          	blt	a4,a5,11490 <setup_branch_points+0x18>
   1159c:	fe042423          	sw	zero,-24(s0)
   115a0:	fe842783          	lw	a5,-24(s0)
   115a4:	fef42623          	sw	a5,-20(s0)
   115a8:	0b00006f          	j	11658 <setup_branch_points+0x1e0>
   115ac:	fdc42703          	lw	a4,-36(s0)
   115b0:	fec42783          	lw	a5,-20(s0)
   115b4:	00479793          	slli	a5,a5,0x4
   115b8:	00f707b3          	add	a5,a4,a5
   115bc:	0007a623          	sw	zero,12(a5)
   115c0:	fdc42703          	lw	a4,-36(s0)
   115c4:	fec42783          	lw	a5,-20(s0)
   115c8:	00479793          	slli	a5,a5,0x4
   115cc:	00f707b3          	add	a5,a4,a5
   115d0:	fe842703          	lw	a4,-24(s0)
   115d4:	00e7a423          	sw	a4,8(a5)
   115d8:	03c0006f          	j	11614 <setup_branch_points+0x19c>
   115dc:	fdc42703          	lw	a4,-36(s0)
   115e0:	fec42783          	lw	a5,-20(s0)
   115e4:	00479793          	slli	a5,a5,0x4
   115e8:	00f707b3          	add	a5,a4,a5
   115ec:	00c7a783          	lw	a5,12(a5)
   115f0:	00178713          	addi	a4,a5,1
   115f4:	fdc42683          	lw	a3,-36(s0)
   115f8:	fec42783          	lw	a5,-20(s0)
   115fc:	00479793          	slli	a5,a5,0x4
   11600:	00f687b3          	add	a5,a3,a5
   11604:	00e7a623          	sw	a4,12(a5)
   11608:	fe842783          	lw	a5,-24(s0)
   1160c:	00178793          	addi	a5,a5,1
   11610:	fef42423          	sw	a5,-24(s0)
   11614:	fdc42703          	lw	a4,-36(s0)
   11618:	000017b7          	lui	a5,0x1
   1161c:	00f707b3          	add	a5,a4,a5
   11620:	9647a783          	lw	a5,-1692(a5) # 964 <exit-0xf730>
   11624:	fe842703          	lw	a4,-24(s0)
   11628:	02f75263          	bge	a4,a5,1164c <setup_branch_points+0x1d4>
   1162c:	fdc42703          	lw	a4,-36(s0)
   11630:	fe842783          	lw	a5,-24(s0)
   11634:	0c878793          	addi	a5,a5,200
   11638:	00379793          	slli	a5,a5,0x3
   1163c:	00f707b3          	add	a5,a4,a5
   11640:	0047a783          	lw	a5,4(a5)
   11644:	fec42703          	lw	a4,-20(s0)
   11648:	f8f70ae3          	beq	a4,a5,115dc <setup_branch_points+0x164>
   1164c:	fec42783          	lw	a5,-20(s0)
   11650:	00178793          	addi	a5,a5,1
   11654:	fef42623          	sw	a5,-20(s0)
   11658:	fdc42783          	lw	a5,-36(s0)
   1165c:	6407a783          	lw	a5,1600(a5)
   11660:	fec42703          	lw	a4,-20(s0)
   11664:	f4f744e3          	blt	a4,a5,115ac <setup_branch_points+0x134>
   11668:	00000013          	nop
   1166c:	00000013          	nop
   11670:	02c12403          	lw	s0,44(sp)
   11674:	03010113          	addi	sp,sp,48
   11678:	00008067          	ret

0001167c <foo>:
   1167c:	fc010113          	addi	sp,sp,-64
   11680:	02112e23          	sw	ra,60(sp)
   11684:	02812c23          	sw	s0,56(sp)
   11688:	04010413          	addi	s0,sp,64
   1168c:	fca42e23          	sw	a0,-36(s0)
   11690:	fcb42c23          	sw	a1,-40(s0)
   11694:	fcc42a23          	sw	a2,-44(s0)
   11698:	fcd42823          	sw	a3,-48(s0)
   1169c:	fce42623          	sw	a4,-52(s0)
   116a0:	fe042423          	sw	zero,-24(s0)
   116a4:	fcc42783          	lw	a5,-52(s0)
   116a8:	fdc42703          	lw	a4,-36(s0)
   116ac:	00e7a023          	sw	a4,0(a5)
   116b0:	fcc42783          	lw	a5,-52(s0)
   116b4:	fd842703          	lw	a4,-40(s0)
   116b8:	00e7a223          	sw	a4,4(a5)
   116bc:	fcc42783          	lw	a5,-52(s0)
   116c0:	00100713          	li	a4,1
   116c4:	64e7a023          	sw	a4,1600(a5)
   116c8:	fe042623          	sw	zero,-20(s0)
   116cc:	3f80006f          	j	11ac4 <foo+0x448>
   116d0:	fec42783          	lw	a5,-20(s0)
   116d4:	fdc42703          	lw	a4,-36(s0)
   116d8:	00f706b3          	add	a3,a4,a5
   116dc:	fd842703          	lw	a4,-40(s0)
   116e0:	fec42783          	lw	a5,-20(s0)
   116e4:	40f707b3          	sub	a5,a4,a5
   116e8:	00078593          	mv	a1,a5
   116ec:	00068513          	mv	a0,a3
   116f0:	be9fe0ef          	jal	ra,102d8 <get_op_len>
   116f4:	fea42223          	sw	a0,-28(s0)
   116f8:	fec42783          	lw	a5,-20(s0)
   116fc:	fdc42703          	lw	a4,-36(s0)
   11700:	00f707b3          	add	a5,a4,a5
   11704:	0007c703          	lbu	a4,0(a5)
   11708:	07c00793          	li	a5,124
   1170c:	0cf71c63          	bne	a4,a5,117e4 <foo+0x168>
   11710:	fcc42703          	lw	a4,-52(s0)
   11714:	000017b7          	lui	a5,0x1
   11718:	00f707b3          	add	a5,a4,a5
   1171c:	9647a703          	lw	a4,-1692(a5) # 964 <exit-0xf730>
   11720:	06300793          	li	a5,99
   11724:	00e7d663          	bge	a5,a4,11730 <foo+0xb4>
   11728:	ff800793          	li	a5,-8
   1172c:	3d00006f          	j	11afc <foo+0x480>
   11730:	fcc42783          	lw	a5,-52(s0)
   11734:	6407a783          	lw	a5,1600(a5)
   11738:	fff78793          	addi	a5,a5,-1
   1173c:	fcc42703          	lw	a4,-52(s0)
   11740:	00479793          	slli	a5,a5,0x4
   11744:	00f707b3          	add	a5,a4,a5
   11748:	0047a703          	lw	a4,4(a5)
   1174c:	fff00793          	li	a5,-1
   11750:	00f71a63          	bne	a4,a5,11764 <foo+0xe8>
   11754:	fcc42783          	lw	a5,-52(s0)
   11758:	6407a783          	lw	a5,1600(a5)
   1175c:	fff78713          	addi	a4,a5,-1
   11760:	0080006f          	j	11768 <foo+0xec>
   11764:	fe842703          	lw	a4,-24(s0)
   11768:	fcc42683          	lw	a3,-52(s0)
   1176c:	000017b7          	lui	a5,0x1
   11770:	00f687b3          	add	a5,a3,a5
   11774:	9647a783          	lw	a5,-1692(a5) # 964 <exit-0xf730>
   11778:	fcc42683          	lw	a3,-52(s0)
   1177c:	0c878793          	addi	a5,a5,200
   11780:	00379793          	slli	a5,a5,0x3
   11784:	00f687b3          	add	a5,a3,a5
   11788:	00e7a223          	sw	a4,4(a5)
   1178c:	fec42703          	lw	a4,-20(s0)
   11790:	fcc42683          	lw	a3,-52(s0)
   11794:	000017b7          	lui	a5,0x1
   11798:	00f687b3          	add	a5,a3,a5
   1179c:	9647a783          	lw	a5,-1692(a5) # 964 <exit-0xf730>
   117a0:	fdc42683          	lw	a3,-36(s0)
   117a4:	00e68733          	add	a4,a3,a4
   117a8:	fcc42683          	lw	a3,-52(s0)
   117ac:	0c878793          	addi	a5,a5,200
   117b0:	00379793          	slli	a5,a5,0x3
   117b4:	00f687b3          	add	a5,a3,a5
   117b8:	00e7a423          	sw	a4,8(a5)
   117bc:	fcc42703          	lw	a4,-52(s0)
   117c0:	000017b7          	lui	a5,0x1
   117c4:	00f707b3          	add	a5,a4,a5
   117c8:	9647a783          	lw	a5,-1692(a5) # 964 <exit-0xf730>
   117cc:	00178713          	addi	a4,a5,1
   117d0:	fcc42683          	lw	a3,-52(s0)
   117d4:	000017b7          	lui	a5,0x1
   117d8:	00f687b3          	add	a5,a3,a5
   117dc:	96e7a223          	sw	a4,-1692(a5) # 964 <exit-0xf730>
   117e0:	2d40006f          	j	11ab4 <foo+0x438>
   117e4:	fec42783          	lw	a5,-20(s0)
   117e8:	fdc42703          	lw	a4,-36(s0)
   117ec:	00f707b3          	add	a5,a4,a5
   117f0:	0007c703          	lbu	a4,0(a5)
   117f4:	05c00793          	li	a5,92
   117f8:	10f71c63          	bne	a4,a5,11910 <foo+0x294>
   117fc:	fd842783          	lw	a5,-40(s0)
   11800:	fff78793          	addi	a5,a5,-1
   11804:	fec42703          	lw	a4,-20(s0)
   11808:	00f74663          	blt	a4,a5,11814 <foo+0x198>
   1180c:	ffa00793          	li	a5,-6
   11810:	2ec0006f          	j	11afc <foo+0x480>
   11814:	fec42783          	lw	a5,-20(s0)
   11818:	00178793          	addi	a5,a5,1
   1181c:	fdc42703          	lw	a4,-36(s0)
   11820:	00f707b3          	add	a5,a4,a5
   11824:	0007c703          	lbu	a4,0(a5)
   11828:	07800793          	li	a5,120
   1182c:	0af71e63          	bne	a4,a5,118e8 <foo+0x26c>
   11830:	fec42783          	lw	a5,-20(s0)
   11834:	00178793          	addi	a5,a5,1
   11838:	fdc42703          	lw	a4,-36(s0)
   1183c:	00f707b3          	add	a5,a4,a5
   11840:	0007c703          	lbu	a4,0(a5)
   11844:	07800793          	li	a5,120
   11848:	00f71e63          	bne	a4,a5,11864 <foo+0x1e8>
   1184c:	fd842783          	lw	a5,-40(s0)
   11850:	ffd78793          	addi	a5,a5,-3
   11854:	fec42703          	lw	a4,-20(s0)
   11858:	00f74663          	blt	a4,a5,11864 <foo+0x1e8>
   1185c:	ffa00793          	li	a5,-6
   11860:	29c0006f          	j	11afc <foo+0x480>
   11864:	fec42783          	lw	a5,-20(s0)
   11868:	00178793          	addi	a5,a5,1
   1186c:	fdc42703          	lw	a4,-36(s0)
   11870:	00f707b3          	add	a5,a4,a5
   11874:	0007c703          	lbu	a4,0(a5)
   11878:	07800793          	li	a5,120
   1187c:	22f71c63          	bne	a4,a5,11ab4 <foo+0x438>
   11880:	fec42783          	lw	a5,-20(s0)
   11884:	00278793          	addi	a5,a5,2
   11888:	fdc42703          	lw	a4,-36(s0)
   1188c:	00f707b3          	add	a5,a4,a5
   11890:	0007c783          	lbu	a5,0(a5)
   11894:	00178713          	addi	a4,a5,1
   11898:	000127b7          	lui	a5,0x12
   1189c:	5d478793          	addi	a5,a5,1492 # 125d4 <_ctype_>
   118a0:	00f707b3          	add	a5,a4,a5
   118a4:	0007c783          	lbu	a5,0(a5)
   118a8:	0447f793          	andi	a5,a5,68
   118ac:	02078a63          	beqz	a5,118e0 <foo+0x264>
   118b0:	fec42783          	lw	a5,-20(s0)
   118b4:	00378793          	addi	a5,a5,3
   118b8:	fdc42703          	lw	a4,-36(s0)
   118bc:	00f707b3          	add	a5,a4,a5
   118c0:	0007c783          	lbu	a5,0(a5)
   118c4:	00178713          	addi	a4,a5,1
   118c8:	000127b7          	lui	a5,0x12
   118cc:	5d478793          	addi	a5,a5,1492 # 125d4 <_ctype_>
   118d0:	00f707b3          	add	a5,a4,a5
   118d4:	0007c783          	lbu	a5,0(a5)
   118d8:	0447f793          	andi	a5,a5,68
   118dc:	1c079c63          	bnez	a5,11ab4 <foo+0x438>
   118e0:	ffa00793          	li	a5,-6
   118e4:	2180006f          	j	11afc <foo+0x480>
   118e8:	fec42783          	lw	a5,-20(s0)
   118ec:	00178793          	addi	a5,a5,1
   118f0:	fdc42703          	lw	a4,-36(s0)
   118f4:	00f707b3          	add	a5,a4,a5
   118f8:	00078513          	mv	a0,a5
   118fc:	891fe0ef          	jal	ra,1018c <is_metacharacter>
   11900:	00050793          	mv	a5,a0
   11904:	1a079863          	bnez	a5,11ab4 <foo+0x438>
   11908:	ffa00793          	li	a5,-6
   1190c:	1f00006f          	j	11afc <foo+0x480>
   11910:	fec42783          	lw	a5,-20(s0)
   11914:	fdc42703          	lw	a4,-36(s0)
   11918:	00f707b3          	add	a5,a4,a5
   1191c:	0007c703          	lbu	a4,0(a5)
   11920:	02800793          	li	a5,40
   11924:	0af71e63          	bne	a4,a5,119e0 <foo+0x364>
   11928:	fcc42783          	lw	a5,-52(s0)
   1192c:	6407a703          	lw	a4,1600(a5)
   11930:	06300793          	li	a5,99
   11934:	00e7d663          	bge	a5,a4,11940 <foo+0x2c4>
   11938:	ff700793          	li	a5,-9
   1193c:	1c00006f          	j	11afc <foo+0x480>
   11940:	fe842783          	lw	a5,-24(s0)
   11944:	00178793          	addi	a5,a5,1
   11948:	fef42423          	sw	a5,-24(s0)
   1194c:	fec42783          	lw	a5,-20(s0)
   11950:	00178713          	addi	a4,a5,1
   11954:	fcc42783          	lw	a5,-52(s0)
   11958:	6407a783          	lw	a5,1600(a5)
   1195c:	fdc42683          	lw	a3,-36(s0)
   11960:	00e68733          	add	a4,a3,a4
   11964:	fcc42683          	lw	a3,-52(s0)
   11968:	00479793          	slli	a5,a5,0x4
   1196c:	00f687b3          	add	a5,a3,a5
   11970:	00e7a023          	sw	a4,0(a5)
   11974:	fcc42783          	lw	a5,-52(s0)
   11978:	6407a783          	lw	a5,1600(a5)
   1197c:	fcc42703          	lw	a4,-52(s0)
   11980:	00479793          	slli	a5,a5,0x4
   11984:	00f707b3          	add	a5,a4,a5
   11988:	fff00713          	li	a4,-1
   1198c:	00e7a223          	sw	a4,4(a5)
   11990:	fcc42783          	lw	a5,-52(s0)
   11994:	6407a783          	lw	a5,1600(a5)
   11998:	00178713          	addi	a4,a5,1
   1199c:	fcc42783          	lw	a5,-52(s0)
   119a0:	64e7a023          	sw	a4,1600(a5)
   119a4:	fcc42703          	lw	a4,-52(s0)
   119a8:	000017b7          	lui	a5,0x1
   119ac:	00f707b3          	add	a5,a4,a5
   119b0:	96c7a783          	lw	a5,-1684(a5) # 96c <exit-0xf728>
   119b4:	10f05063          	blez	a5,11ab4 <foo+0x438>
   119b8:	fcc42783          	lw	a5,-52(s0)
   119bc:	6407a783          	lw	a5,1600(a5)
   119c0:	fff78713          	addi	a4,a5,-1
   119c4:	fcc42683          	lw	a3,-52(s0)
   119c8:	000017b7          	lui	a5,0x1
   119cc:	00f687b3          	add	a5,a3,a5
   119d0:	96c7a783          	lw	a5,-1684(a5) # 96c <exit-0xf728>
   119d4:	0ee7d063          	bge	a5,a4,11ab4 <foo+0x438>
   119d8:	ff900793          	li	a5,-7
   119dc:	1200006f          	j	11afc <foo+0x480>
   119e0:	fec42783          	lw	a5,-20(s0)
   119e4:	fdc42703          	lw	a4,-36(s0)
   119e8:	00f707b3          	add	a5,a4,a5
   119ec:	0007c703          	lbu	a4,0(a5)
   119f0:	02900793          	li	a5,41
   119f4:	0cf71063          	bne	a4,a5,11ab4 <foo+0x438>
   119f8:	fcc42783          	lw	a5,-52(s0)
   119fc:	6407a783          	lw	a5,1600(a5)
   11a00:	fff78793          	addi	a5,a5,-1
   11a04:	fcc42703          	lw	a4,-52(s0)
   11a08:	00479793          	slli	a5,a5,0x4
   11a0c:	00f707b3          	add	a5,a4,a5
   11a10:	0047a703          	lw	a4,4(a5)
   11a14:	fff00793          	li	a5,-1
   11a18:	00f71a63          	bne	a4,a5,11a2c <foo+0x3b0>
   11a1c:	fcc42783          	lw	a5,-52(s0)
   11a20:	6407a783          	lw	a5,1600(a5)
   11a24:	fff78793          	addi	a5,a5,-1
   11a28:	0080006f          	j	11a30 <foo+0x3b4>
   11a2c:	fe842783          	lw	a5,-24(s0)
   11a30:	fef42023          	sw	a5,-32(s0)
   11a34:	fec42783          	lw	a5,-20(s0)
   11a38:	fdc42703          	lw	a4,-36(s0)
   11a3c:	00f70733          	add	a4,a4,a5
   11a40:	fcc42683          	lw	a3,-52(s0)
   11a44:	fe042783          	lw	a5,-32(s0)
   11a48:	00479793          	slli	a5,a5,0x4
   11a4c:	00f687b3          	add	a5,a3,a5
   11a50:	0007a783          	lw	a5,0(a5)
   11a54:	40f70733          	sub	a4,a4,a5
   11a58:	fcc42683          	lw	a3,-52(s0)
   11a5c:	fe042783          	lw	a5,-32(s0)
   11a60:	00479793          	slli	a5,a5,0x4
   11a64:	00f687b3          	add	a5,a3,a5
   11a68:	00e7a223          	sw	a4,4(a5)
   11a6c:	fe842783          	lw	a5,-24(s0)
   11a70:	fff78793          	addi	a5,a5,-1
   11a74:	fef42423          	sw	a5,-24(s0)
   11a78:	fe842783          	lw	a5,-24(s0)
   11a7c:	0007d663          	bgez	a5,11a88 <foo+0x40c>
   11a80:	ffd00793          	li	a5,-3
   11a84:	0780006f          	j	11afc <foo+0x480>
   11a88:	fec42783          	lw	a5,-20(s0)
   11a8c:	02f05463          	blez	a5,11ab4 <foo+0x438>
   11a90:	fec42783          	lw	a5,-20(s0)
   11a94:	fff78793          	addi	a5,a5,-1
   11a98:	fdc42703          	lw	a4,-36(s0)
   11a9c:	00f707b3          	add	a5,a4,a5
   11aa0:	0007c703          	lbu	a4,0(a5)
   11aa4:	02800793          	li	a5,40
   11aa8:	00f71663          	bne	a4,a5,11ab4 <foo+0x438>
   11aac:	fff00793          	li	a5,-1
   11ab0:	04c0006f          	j	11afc <foo+0x480>
   11ab4:	fec42703          	lw	a4,-20(s0)
   11ab8:	fe442783          	lw	a5,-28(s0)
   11abc:	00f707b3          	add	a5,a4,a5
   11ac0:	fef42623          	sw	a5,-20(s0)
   11ac4:	fec42703          	lw	a4,-20(s0)
   11ac8:	fd842783          	lw	a5,-40(s0)
   11acc:	c0f742e3          	blt	a4,a5,116d0 <foo+0x54>
   11ad0:	fe842783          	lw	a5,-24(s0)
   11ad4:	00078663          	beqz	a5,11ae0 <foo+0x464>
   11ad8:	ffd00793          	li	a5,-3
   11adc:	0200006f          	j	11afc <foo+0x480>
   11ae0:	fcc42503          	lw	a0,-52(s0)
   11ae4:	995ff0ef          	jal	ra,11478 <setup_branch_points>
   11ae8:	fcc42603          	lw	a2,-52(s0)
   11aec:	fd042583          	lw	a1,-48(s0)
   11af0:	fd442503          	lw	a0,-44(s0)
   11af4:	8b5ff0ef          	jal	ra,113a8 <baz>
   11af8:	00050793          	mv	a5,a0
   11afc:	00078513          	mv	a0,a5
   11b00:	03c12083          	lw	ra,60(sp)
   11b04:	03812403          	lw	s0,56(sp)
   11b08:	04010113          	addi	sp,sp,64
   11b0c:	00008067          	ret

00011b10 <slre_match>:
   11b10:	81010113          	addi	sp,sp,-2032
   11b14:	7e112623          	sw	ra,2028(sp)
   11b18:	7e812423          	sw	s0,2024(sp)
   11b1c:	7f010413          	addi	s0,sp,2032
   11b20:	e4010113          	addi	sp,sp,-448
   11b24:	fffff7b7          	lui	a5,0xfffff
   11b28:	ff078793          	addi	a5,a5,-16 # ffffeff0 <__global_pointer$+0xfffeb108>
   11b2c:	008787b3          	add	a5,a5,s0
   11b30:	66a7ae23          	sw	a0,1660(a5)
   11b34:	fffff7b7          	lui	a5,0xfffff
   11b38:	ff078793          	addi	a5,a5,-16 # ffffeff0 <__global_pointer$+0xfffeb108>
   11b3c:	008787b3          	add	a5,a5,s0
   11b40:	66b7ac23          	sw	a1,1656(a5)
   11b44:	fffff7b7          	lui	a5,0xfffff
   11b48:	ff078793          	addi	a5,a5,-16 # ffffeff0 <__global_pointer$+0xfffeb108>
   11b4c:	008787b3          	add	a5,a5,s0
   11b50:	66c7aa23          	sw	a2,1652(a5)
   11b54:	fffff7b7          	lui	a5,0xfffff
   11b58:	ff078793          	addi	a5,a5,-16 # ffffeff0 <__global_pointer$+0xfffeb108>
   11b5c:	008787b3          	add	a5,a5,s0
   11b60:	66d7a823          	sw	a3,1648(a5)
   11b64:	fffff7b7          	lui	a5,0xfffff
   11b68:	ff078793          	addi	a5,a5,-16 # ffffeff0 <__global_pointer$+0xfffeb108>
   11b6c:	008787b3          	add	a5,a5,s0
   11b70:	66e7a623          	sw	a4,1644(a5)
   11b74:	fffff7b7          	lui	a5,0xfffff
   11b78:	ff078793          	addi	a5,a5,-16 # ffffeff0 <__global_pointer$+0xfffeb108>
   11b7c:	00878733          	add	a4,a5,s0
   11b80:	000017b7          	lui	a5,0x1
   11b84:	00f707b3          	add	a5,a4,a5
   11b88:	fe07a823          	sw	zero,-16(a5) # ff0 <exit-0xf0a4>
   11b8c:	fffff7b7          	lui	a5,0xfffff
   11b90:	ff078793          	addi	a5,a5,-16 # ffffeff0 <__global_pointer$+0xfffeb108>
   11b94:	00878733          	add	a4,a5,s0
   11b98:	000017b7          	lui	a5,0x1
   11b9c:	00f707b3          	add	a5,a4,a5
   11ba0:	ff07a703          	lw	a4,-16(a5) # ff0 <exit-0xf0a4>
   11ba4:	fffff7b7          	lui	a5,0xfffff
   11ba8:	ff078793          	addi	a5,a5,-16 # ffffeff0 <__global_pointer$+0xfffeb108>
   11bac:	008786b3          	add	a3,a5,s0
   11bb0:	000017b7          	lui	a5,0x1
   11bb4:	00f687b3          	add	a5,a3,a5
   11bb8:	cce7a623          	sw	a4,-820(a5) # ccc <exit-0xf3c8>
   11bbc:	fffff7b7          	lui	a5,0xfffff
   11bc0:	ff078793          	addi	a5,a5,-16 # ffffeff0 <__global_pointer$+0xfffeb108>
   11bc4:	00878733          	add	a4,a5,s0
   11bc8:	000017b7          	lui	a5,0x1
   11bcc:	00f707b3          	add	a5,a4,a5
   11bd0:	ccc7a703          	lw	a4,-820(a5) # ccc <exit-0xf3c8>
   11bd4:	fffff7b7          	lui	a5,0xfffff
   11bd8:	ff078793          	addi	a5,a5,-16 # ffffeff0 <__global_pointer$+0xfffeb108>
   11bdc:	008786b3          	add	a3,a5,s0
   11be0:	000017b7          	lui	a5,0x1
   11be4:	00f687b3          	add	a5,a3,a5
   11be8:	fee7ae23          	sw	a4,-4(a5) # ffc <exit-0xf098>
   11bec:	fffff7b7          	lui	a5,0xfffff
   11bf0:	ff078793          	addi	a5,a5,-16 # ffffeff0 <__global_pointer$+0xfffeb108>
   11bf4:	00878733          	add	a4,a5,s0
   11bf8:	000017b7          	lui	a5,0x1
   11bfc:	00f707b3          	add	a5,a4,a5
   11c00:	fffff737          	lui	a4,0xfffff
   11c04:	ff070713          	addi	a4,a4,-16 # ffffeff0 <__global_pointer$+0xfffeb108>
   11c08:	00870733          	add	a4,a4,s0
   11c0c:	66c72703          	lw	a4,1644(a4)
   11c10:	fee7ac23          	sw	a4,-8(a5) # ff8 <exit-0xf09c>
   11c14:	fffff7b7          	lui	a5,0xfffff
   11c18:	ff078793          	addi	a5,a5,-16 # ffffeff0 <__global_pointer$+0xfffeb108>
   11c1c:	00878733          	add	a4,a5,s0
   11c20:	000017b7          	lui	a5,0x1
   11c24:	00f707b3          	add	a5,a4,a5
   11c28:	fffff737          	lui	a4,0xfffff
   11c2c:	ff070713          	addi	a4,a4,-16 # ffffeff0 <__global_pointer$+0xfffeb108>
   11c30:	00870733          	add	a4,a4,s0
   11c34:	67072703          	lw	a4,1648(a4)
   11c38:	fee7aa23          	sw	a4,-12(a5) # ff4 <exit-0xf0a0>
   11c3c:	fffff7b7          	lui	a5,0xfffff
   11c40:	ff078793          	addi	a5,a5,-16 # ffffeff0 <__global_pointer$+0xfffeb108>
   11c44:	008787b3          	add	a5,a5,s0
   11c48:	00400613          	li	a2,4
   11c4c:	00012737          	lui	a4,0x12
   11c50:	59470593          	addi	a1,a4,1428 # 12594 <__errno+0x8>
   11c54:	67c7a503          	lw	a0,1660(a5)
   11c58:	3bc000ef          	jal	ra,12014 <memcmp>
   11c5c:	00050793          	mv	a5,a0
   11c60:	04079e63          	bnez	a5,11cbc <slre_match+0x1ac>
   11c64:	fffff7b7          	lui	a5,0xfffff
   11c68:	ff078793          	addi	a5,a5,-16 # ffffeff0 <__global_pointer$+0xfffeb108>
   11c6c:	00878733          	add	a4,a5,s0
   11c70:	000017b7          	lui	a5,0x1
   11c74:	00f707b3          	add	a5,a4,a5
   11c78:	ffc7a783          	lw	a5,-4(a5) # ffc <exit-0xf098>
   11c7c:	0017e713          	ori	a4,a5,1
   11c80:	fffff7b7          	lui	a5,0xfffff
   11c84:	ff078793          	addi	a5,a5,-16 # ffffeff0 <__global_pointer$+0xfffeb108>
   11c88:	008786b3          	add	a3,a5,s0
   11c8c:	000017b7          	lui	a5,0x1
   11c90:	00f687b3          	add	a5,a3,a5
   11c94:	fee7ae23          	sw	a4,-4(a5) # ffc <exit-0xf098>
   11c98:	fffff7b7          	lui	a5,0xfffff
   11c9c:	ff078793          	addi	a5,a5,-16 # ffffeff0 <__global_pointer$+0xfffeb108>
   11ca0:	008787b3          	add	a5,a5,s0
   11ca4:	fffff737          	lui	a4,0xfffff
   11ca8:	ff070713          	addi	a4,a4,-16 # ffffeff0 <__global_pointer$+0xfffeb108>
   11cac:	00870733          	add	a4,a4,s0
   11cb0:	67c72703          	lw	a4,1660(a4)
   11cb4:	00470713          	addi	a4,a4,4
   11cb8:	66e7ae23          	sw	a4,1660(a5)
   11cbc:	fffff7b7          	lui	a5,0xfffff
   11cc0:	ff078793          	addi	a5,a5,-16 # ffffeff0 <__global_pointer$+0xfffeb108>
   11cc4:	008787b3          	add	a5,a5,s0
   11cc8:	67c7a503          	lw	a0,1660(a5)
   11ccc:	5dc000ef          	jal	ra,122a8 <strlen>
   11cd0:	00050793          	mv	a5,a0
   11cd4:	00078593          	mv	a1,a5
   11cd8:	fffff7b7          	lui	a5,0xfffff
   11cdc:	68c78793          	addi	a5,a5,1676 # fffff68c <__global_pointer$+0xfffeb7a4>
   11ce0:	ff078793          	addi	a5,a5,-16
   11ce4:	00878733          	add	a4,a5,s0
   11ce8:	fffff7b7          	lui	a5,0xfffff
   11cec:	ff078793          	addi	a5,a5,-16 # ffffeff0 <__global_pointer$+0xfffeb108>
   11cf0:	008786b3          	add	a3,a5,s0
   11cf4:	fffff7b7          	lui	a5,0xfffff
   11cf8:	ff078793          	addi	a5,a5,-16 # ffffeff0 <__global_pointer$+0xfffeb108>
   11cfc:	00878633          	add	a2,a5,s0
   11d00:	fffff7b7          	lui	a5,0xfffff
   11d04:	ff078793          	addi	a5,a5,-16 # ffffeff0 <__global_pointer$+0xfffeb108>
   11d08:	008787b3          	add	a5,a5,s0
   11d0c:	6746a683          	lw	a3,1652(a3)
   11d10:	67862603          	lw	a2,1656(a2)
   11d14:	67c7a503          	lw	a0,1660(a5)
   11d18:	965ff0ef          	jal	ra,1167c <foo>
   11d1c:	00050793          	mv	a5,a0
   11d20:	00078513          	mv	a0,a5
   11d24:	1c010113          	addi	sp,sp,448
   11d28:	7ec12083          	lw	ra,2028(sp)
   11d2c:	7e812403          	lw	s0,2024(sp)
   11d30:	7f010113          	addi	sp,sp,2032
   11d34:	00008067          	ret

00011d38 <initialise_benchmark>:
   11d38:	ff010113          	addi	sp,sp,-16
   11d3c:	00812623          	sw	s0,12(sp)
   11d40:	01010413          	addi	s0,sp,16
   11d44:	00000013          	nop
   11d48:	00c12403          	lw	s0,12(sp)
   11d4c:	01010113          	addi	sp,sp,16
   11d50:	00008067          	ret

00011d54 <warm_caches>:
   11d54:	fd010113          	addi	sp,sp,-48
   11d58:	02112623          	sw	ra,44(sp)
   11d5c:	02812423          	sw	s0,40(sp)
   11d60:	03010413          	addi	s0,sp,48
   11d64:	fca42e23          	sw	a0,-36(s0)
   11d68:	fdc42503          	lw	a0,-36(s0)
   11d6c:	04c000ef          	jal	ra,11db8 <benchmark_body>
   11d70:	fea42623          	sw	a0,-20(s0)
   11d74:	00000013          	nop
   11d78:	02c12083          	lw	ra,44(sp)
   11d7c:	02812403          	lw	s0,40(sp)
   11d80:	03010113          	addi	sp,sp,48
   11d84:	00008067          	ret

00011d88 <benchmark>:
   11d88:	ff010113          	addi	sp,sp,-16
   11d8c:	00112623          	sw	ra,12(sp)
   11d90:	00812423          	sw	s0,8(sp)
   11d94:	01010413          	addi	s0,sp,16
   11d98:	06e00513          	li	a0,110
   11d9c:	01c000ef          	jal	ra,11db8 <benchmark_body>
   11da0:	00050793          	mv	a5,a0
   11da4:	00078513          	mv	a0,a5
   11da8:	00c12083          	lw	ra,12(sp)
   11dac:	00812403          	lw	s0,8(sp)
   11db0:	01010113          	addi	sp,sp,16
   11db4:	00008067          	ret

00011db8 <benchmark_body>:
   11db8:	fc010113          	addi	sp,sp,-64
   11dbc:	02112e23          	sw	ra,60(sp)
   11dc0:	02812c23          	sw	s0,56(sp)
   11dc4:	04010413          	addi	s0,sp,64
   11dc8:	fca42623          	sw	a0,-52(s0)
   11dcc:	fe042623          	sw	zero,-20(s0)
   11dd0:	0880006f          	j	11e58 <benchmark_body+0xa0>
   11dd4:	000137b7          	lui	a5,0x13
   11dd8:	6e878513          	addi	a0,a5,1768 # 136e8 <text>
   11ddc:	4cc000ef          	jal	ra,122a8 <strlen>
   11de0:	00050793          	mv	a5,a0
   11de4:	fef42223          	sw	a5,-28(s0)
   11de8:	fe042023          	sw	zero,-32(s0)
   11dec:	fe042423          	sw	zero,-24(s0)
   11df0:	0500006f          	j	11e40 <benchmark_body+0x88>
   11df4:	83018713          	addi	a4,gp,-2000 # 13718 <regexes>
   11df8:	fe842783          	lw	a5,-24(s0)
   11dfc:	00279793          	slli	a5,a5,0x2
   11e00:	00f707b3          	add	a5,a4,a5
   11e04:	0007a503          	lw	a0,0(a5)
   11e08:	fd840793          	addi	a5,s0,-40
   11e0c:	00100713          	li	a4,1
   11e10:	00078693          	mv	a3,a5
   11e14:	fe442603          	lw	a2,-28(s0)
   11e18:	000137b7          	lui	a5,0x13
   11e1c:	6e878593          	addi	a1,a5,1768 # 136e8 <text>
   11e20:	cf1ff0ef          	jal	ra,11b10 <slre_match>
   11e24:	00050713          	mv	a4,a0
   11e28:	fe042783          	lw	a5,-32(s0)
   11e2c:	00f707b3          	add	a5,a4,a5
   11e30:	fef42023          	sw	a5,-32(s0)
   11e34:	fe842783          	lw	a5,-24(s0)
   11e38:	00178793          	addi	a5,a5,1
   11e3c:	fef42423          	sw	a5,-24(s0)
   11e40:	fe842703          	lw	a4,-24(s0)
   11e44:	00300793          	li	a5,3
   11e48:	fae7d6e3          	bge	a5,a4,11df4 <benchmark_body+0x3c>
   11e4c:	fec42783          	lw	a5,-20(s0)
   11e50:	00178793          	addi	a5,a5,1
   11e54:	fef42623          	sw	a5,-20(s0)
   11e58:	fec42703          	lw	a4,-20(s0)
   11e5c:	fcc42783          	lw	a5,-52(s0)
   11e60:	f6f74ae3          	blt	a4,a5,11dd4 <benchmark_body+0x1c>
   11e64:	fe042783          	lw	a5,-32(s0)
   11e68:	00078513          	mv	a0,a5
   11e6c:	03c12083          	lw	ra,60(sp)
   11e70:	03812403          	lw	s0,56(sp)
   11e74:	04010113          	addi	sp,sp,64
   11e78:	00008067          	ret

00011e7c <verify_benchmark>:
   11e7c:	fe010113          	addi	sp,sp,-32
   11e80:	00812e23          	sw	s0,28(sp)
   11e84:	02010413          	addi	s0,sp,32
   11e88:	fea42623          	sw	a0,-20(s0)
   11e8c:	fec42783          	lw	a5,-20(s0)
   11e90:	f9a78793          	addi	a5,a5,-102
   11e94:	0017b793          	seqz	a5,a5
   11e98:	0ff7f793          	zext.b	a5,a5
   11e9c:	00078513          	mv	a0,a5
   11ea0:	01c12403          	lw	s0,28(sp)
   11ea4:	02010113          	addi	sp,sp,32
   11ea8:	00008067          	ret

00011eac <initialise_board>:
   11eac:	ff010113          	addi	sp,sp,-16
   11eb0:	00812623          	sw	s0,12(sp)
   11eb4:	01010413          	addi	s0,sp,16
   11eb8:	00000513          	li	a0,0
   11ebc:	00000013          	nop
   11ec0:	00c12403          	lw	s0,12(sp)
   11ec4:	01010113          	addi	sp,sp,16
   11ec8:	00008067          	ret

00011ecc <start_trigger>:
   11ecc:	ff010113          	addi	sp,sp,-16
   11ed0:	00812623          	sw	s0,12(sp)
   11ed4:	01010413          	addi	s0,sp,16
   11ed8:	00000513          	li	a0,0
   11edc:	00000013          	nop
   11ee0:	00c12403          	lw	s0,12(sp)
   11ee4:	01010113          	addi	sp,sp,16
   11ee8:	00008067          	ret

00011eec <stop_trigger>:
   11eec:	ff010113          	addi	sp,sp,-16
   11ef0:	00812623          	sw	s0,12(sp)
   11ef4:	01010413          	addi	s0,sp,16
   11ef8:	00000513          	li	a0,0
   11efc:	00000013          	nop
   11f00:	00c12403          	lw	s0,12(sp)
   11f04:	01010113          	addi	sp,sp,16
   11f08:	00008067          	ret

00011f0c <main>:
   11f0c:	fd010113          	addi	sp,sp,-48
   11f10:	02112623          	sw	ra,44(sp)
   11f14:	02812423          	sw	s0,40(sp)
   11f18:	03010413          	addi	s0,sp,48
   11f1c:	fca42e23          	sw	a0,-36(s0)
   11f20:	fcb42c23          	sw	a1,-40(s0)
   11f24:	f89ff0ef          	jal	ra,11eac <initialise_board>
   11f28:	e11ff0ef          	jal	ra,11d38 <initialise_benchmark>
   11f2c:	00100513          	li	a0,1
   11f30:	e25ff0ef          	jal	ra,11d54 <warm_caches>
   11f34:	f99ff0ef          	jal	ra,11ecc <start_trigger>
   11f38:	e51ff0ef          	jal	ra,11d88 <benchmark>
   11f3c:	00050793          	mv	a5,a0
   11f40:	fef42423          	sw	a5,-24(s0)
   11f44:	fa9ff0ef          	jal	ra,11eec <stop_trigger>
   11f48:	fe842783          	lw	a5,-24(s0)
   11f4c:	00078513          	mv	a0,a5
   11f50:	f2dff0ef          	jal	ra,11e7c <verify_benchmark>
   11f54:	fea42623          	sw	a0,-20(s0)
   11f58:	fec42783          	lw	a5,-20(s0)
   11f5c:	0017b793          	seqz	a5,a5
   11f60:	0ff7f793          	zext.b	a5,a5
   11f64:	00078513          	mv	a0,a5
   11f68:	02c12083          	lw	ra,44(sp)
   11f6c:	02812403          	lw	s0,40(sp)
   11f70:	03010113          	addi	sp,sp,48
   11f74:	00008067          	ret

00011f78 <__libc_init_array>:
   11f78:	ff010113          	addi	sp,sp,-16
   11f7c:	00812423          	sw	s0,8(sp)
   11f80:	01212023          	sw	s2,0(sp)
   11f84:	00013437          	lui	s0,0x13
   11f88:	00013937          	lui	s2,0x13
   11f8c:	6dc40793          	addi	a5,s0,1756 # 136dc <__init_array_start>
   11f90:	6dc90913          	addi	s2,s2,1756 # 136dc <__init_array_start>
   11f94:	40f90933          	sub	s2,s2,a5
   11f98:	00112623          	sw	ra,12(sp)
   11f9c:	00912223          	sw	s1,4(sp)
   11fa0:	40295913          	srai	s2,s2,0x2
   11fa4:	02090063          	beqz	s2,11fc4 <__libc_init_array+0x4c>
   11fa8:	6dc40413          	addi	s0,s0,1756
   11fac:	00000493          	li	s1,0
   11fb0:	00042783          	lw	a5,0(s0)
   11fb4:	00148493          	addi	s1,s1,1
   11fb8:	00440413          	addi	s0,s0,4
   11fbc:	000780e7          	jalr	a5
   11fc0:	fe9918e3          	bne	s2,s1,11fb0 <__libc_init_array+0x38>
   11fc4:	00013437          	lui	s0,0x13
   11fc8:	00013937          	lui	s2,0x13
   11fcc:	6dc40793          	addi	a5,s0,1756 # 136dc <__init_array_start>
   11fd0:	6e490913          	addi	s2,s2,1764 # 136e4 <__do_global_dtors_aux_fini_array_entry>
   11fd4:	40f90933          	sub	s2,s2,a5
   11fd8:	40295913          	srai	s2,s2,0x2
   11fdc:	02090063          	beqz	s2,11ffc <__libc_init_array+0x84>
   11fe0:	6dc40413          	addi	s0,s0,1756
   11fe4:	00000493          	li	s1,0
   11fe8:	00042783          	lw	a5,0(s0)
   11fec:	00148493          	addi	s1,s1,1
   11ff0:	00440413          	addi	s0,s0,4
   11ff4:	000780e7          	jalr	a5
   11ff8:	fe9918e3          	bne	s2,s1,11fe8 <__libc_init_array+0x70>
   11ffc:	00c12083          	lw	ra,12(sp)
   12000:	00812403          	lw	s0,8(sp)
   12004:	00412483          	lw	s1,4(sp)
   12008:	00012903          	lw	s2,0(sp)
   1200c:	01010113          	addi	sp,sp,16
   12010:	00008067          	ret

00012014 <memcmp>:
   12014:	00300793          	li	a5,3
   12018:	02c7f863          	bgeu	a5,a2,12048 <memcmp+0x34>
   1201c:	00b567b3          	or	a5,a0,a1
   12020:	0037f793          	andi	a5,a5,3
   12024:	00300693          	li	a3,3
   12028:	04079e63          	bnez	a5,12084 <memcmp+0x70>
   1202c:	00052703          	lw	a4,0(a0)
   12030:	0005a783          	lw	a5,0(a1)
   12034:	04f71863          	bne	a4,a5,12084 <memcmp+0x70>
   12038:	ffc60613          	addi	a2,a2,-4
   1203c:	00450513          	addi	a0,a0,4
   12040:	00458593          	addi	a1,a1,4
   12044:	fec6e4e3          	bltu	a3,a2,1202c <memcmp+0x18>
   12048:	fff60693          	addi	a3,a2,-1
   1204c:	02060863          	beqz	a2,1207c <memcmp+0x68>
   12050:	00168693          	addi	a3,a3,1
   12054:	00d506b3          	add	a3,a0,a3
   12058:	0080006f          	j	12060 <memcmp+0x4c>
   1205c:	02d50063          	beq	a0,a3,1207c <memcmp+0x68>
   12060:	00054783          	lbu	a5,0(a0)
   12064:	0005c703          	lbu	a4,0(a1)
   12068:	00150513          	addi	a0,a0,1
   1206c:	00158593          	addi	a1,a1,1
   12070:	fee786e3          	beq	a5,a4,1205c <memcmp+0x48>
   12074:	40e78533          	sub	a0,a5,a4
   12078:	00008067          	ret
   1207c:	00000513          	li	a0,0
   12080:	00008067          	ret
   12084:	fff60693          	addi	a3,a2,-1
   12088:	fc9ff06f          	j	12050 <memcmp+0x3c>

0001208c <memset>:
   1208c:	00f00313          	li	t1,15
   12090:	00050713          	mv	a4,a0
   12094:	02c37e63          	bgeu	t1,a2,120d0 <memset+0x44>
   12098:	00f77793          	andi	a5,a4,15
   1209c:	0a079063          	bnez	a5,1213c <memset+0xb0>
   120a0:	08059263          	bnez	a1,12124 <memset+0x98>
   120a4:	ff067693          	andi	a3,a2,-16
   120a8:	00f67613          	andi	a2,a2,15
   120ac:	00e686b3          	add	a3,a3,a4
   120b0:	00b72023          	sw	a1,0(a4)
   120b4:	00b72223          	sw	a1,4(a4)
   120b8:	00b72423          	sw	a1,8(a4)
   120bc:	00b72623          	sw	a1,12(a4)
   120c0:	01070713          	addi	a4,a4,16
   120c4:	fed766e3          	bltu	a4,a3,120b0 <memset+0x24>
   120c8:	00061463          	bnez	a2,120d0 <memset+0x44>
   120cc:	00008067          	ret
   120d0:	40c306b3          	sub	a3,t1,a2
   120d4:	00269693          	slli	a3,a3,0x2
   120d8:	00000297          	auipc	t0,0x0
   120dc:	005686b3          	add	a3,a3,t0
   120e0:	00c68067          	jr	12(a3)
   120e4:	00b70723          	sb	a1,14(a4)
   120e8:	00b706a3          	sb	a1,13(a4)
   120ec:	00b70623          	sb	a1,12(a4)
   120f0:	00b705a3          	sb	a1,11(a4)
   120f4:	00b70523          	sb	a1,10(a4)
   120f8:	00b704a3          	sb	a1,9(a4)
   120fc:	00b70423          	sb	a1,8(a4)
   12100:	00b703a3          	sb	a1,7(a4)
   12104:	00b70323          	sb	a1,6(a4)
   12108:	00b702a3          	sb	a1,5(a4)
   1210c:	00b70223          	sb	a1,4(a4)
   12110:	00b701a3          	sb	a1,3(a4)
   12114:	00b70123          	sb	a1,2(a4)
   12118:	00b700a3          	sb	a1,1(a4)
   1211c:	00b70023          	sb	a1,0(a4)
   12120:	00008067          	ret
   12124:	0ff5f593          	zext.b	a1,a1
   12128:	00859693          	slli	a3,a1,0x8
   1212c:	00d5e5b3          	or	a1,a1,a3
   12130:	01059693          	slli	a3,a1,0x10
   12134:	00d5e5b3          	or	a1,a1,a3
   12138:	f6dff06f          	j	120a4 <memset+0x18>
   1213c:	00279693          	slli	a3,a5,0x2
   12140:	00000297          	auipc	t0,0x0
   12144:	005686b3          	add	a3,a3,t0
   12148:	00008293          	mv	t0,ra
   1214c:	fa0680e7          	jalr	-96(a3)
   12150:	00028093          	mv	ra,t0
   12154:	ff078793          	addi	a5,a5,-16
   12158:	40f70733          	sub	a4,a4,a5
   1215c:	00f60633          	add	a2,a2,a5
   12160:	f6c378e3          	bgeu	t1,a2,120d0 <memset+0x44>
   12164:	f3dff06f          	j	120a0 <memset+0x14>

00012168 <strchr>:
   12168:	0ff5f693          	zext.b	a3,a1
   1216c:	00357793          	andi	a5,a0,3
   12170:	0c068063          	beqz	a3,12230 <strchr+0xc8>
   12174:	00078e63          	beqz	a5,12190 <strchr+0x28>
   12178:	00054783          	lbu	a5,0(a0)
   1217c:	0a078663          	beqz	a5,12228 <strchr+0xc0>
   12180:	0ad78663          	beq	a5,a3,1222c <strchr+0xc4>
   12184:	00150513          	addi	a0,a0,1
   12188:	00357793          	andi	a5,a0,3
   1218c:	fe0796e3          	bnez	a5,12178 <strchr+0x10>
   12190:	0ff5f593          	zext.b	a1,a1
   12194:	00859793          	slli	a5,a1,0x8
   12198:	00f5e5b3          	or	a1,a1,a5
   1219c:	00052703          	lw	a4,0(a0)
   121a0:	01059313          	slli	t1,a1,0x10
   121a4:	00b36333          	or	t1,t1,a1
   121a8:	feff0837          	lui	a6,0xfeff0
   121ac:	00e34633          	xor	a2,t1,a4
   121b0:	eff80813          	addi	a6,a6,-257 # fefefeff <__global_pointer$+0xfefdc017>
   121b4:	010607b3          	add	a5,a2,a6
   121b8:	010705b3          	add	a1,a4,a6
   121bc:	fff64613          	not	a2,a2
   121c0:	fff74713          	not	a4,a4
   121c4:	00c7f7b3          	and	a5,a5,a2
   121c8:	00e5f733          	and	a4,a1,a4
   121cc:	808088b7          	lui	a7,0x80808
   121d0:	00e7e7b3          	or	a5,a5,a4
   121d4:	08088893          	addi	a7,a7,128 # 80808080 <__global_pointer$+0x807f4198>
   121d8:	0117f7b3          	and	a5,a5,a7
   121dc:	02079a63          	bnez	a5,12210 <strchr+0xa8>
   121e0:	00452703          	lw	a4,4(a0)
   121e4:	00450513          	addi	a0,a0,4
   121e8:	00674633          	xor	a2,a4,t1
   121ec:	010707b3          	add	a5,a4,a6
   121f0:	010605b3          	add	a1,a2,a6
   121f4:	fff74713          	not	a4,a4
   121f8:	fff64613          	not	a2,a2
   121fc:	00e7f7b3          	and	a5,a5,a4
   12200:	00c5f733          	and	a4,a1,a2
   12204:	00e7e7b3          	or	a5,a5,a4
   12208:	0117f7b3          	and	a5,a5,a7
   1220c:	fc078ae3          	beqz	a5,121e0 <strchr+0x78>
   12210:	00054783          	lbu	a5,0(a0)
   12214:	00078a63          	beqz	a5,12228 <strchr+0xc0>
   12218:	08f68663          	beq	a3,a5,122a4 <strchr+0x13c>
   1221c:	00154783          	lbu	a5,1(a0)
   12220:	00150513          	addi	a0,a0,1
   12224:	fe079ae3          	bnez	a5,12218 <strchr+0xb0>
   12228:	00000513          	li	a0,0
   1222c:	00008067          	ret
   12230:	00078c63          	beqz	a5,12248 <strchr+0xe0>
   12234:	00054783          	lbu	a5,0(a0)
   12238:	fe078ae3          	beqz	a5,1222c <strchr+0xc4>
   1223c:	00150513          	addi	a0,a0,1
   12240:	00357793          	andi	a5,a0,3
   12244:	fe0798e3          	bnez	a5,12234 <strchr+0xcc>
   12248:	00052703          	lw	a4,0(a0)
   1224c:	feff0637          	lui	a2,0xfeff0
   12250:	eff60613          	addi	a2,a2,-257 # fefefeff <__global_pointer$+0xfefdc017>
   12254:	00c707b3          	add	a5,a4,a2
   12258:	808086b7          	lui	a3,0x80808
   1225c:	fff74713          	not	a4,a4
   12260:	00e7f7b3          	and	a5,a5,a4
   12264:	08068693          	addi	a3,a3,128 # 80808080 <__global_pointer$+0x807f4198>
   12268:	00d7f7b3          	and	a5,a5,a3
   1226c:	02079063          	bnez	a5,1228c <strchr+0x124>
   12270:	00452703          	lw	a4,4(a0)
   12274:	00450513          	addi	a0,a0,4
   12278:	00c707b3          	add	a5,a4,a2
   1227c:	fff74713          	not	a4,a4
   12280:	00e7f7b3          	and	a5,a5,a4
   12284:	00d7f7b3          	and	a5,a5,a3
   12288:	fe0784e3          	beqz	a5,12270 <strchr+0x108>
   1228c:	00054783          	lbu	a5,0(a0)
   12290:	f8078ee3          	beqz	a5,1222c <strchr+0xc4>
   12294:	00154783          	lbu	a5,1(a0)
   12298:	00150513          	addi	a0,a0,1
   1229c:	fe079ce3          	bnez	a5,12294 <strchr+0x12c>
   122a0:	00008067          	ret
   122a4:	00008067          	ret

000122a8 <strlen>:
   122a8:	00357793          	andi	a5,a0,3
   122ac:	00050713          	mv	a4,a0
   122b0:	04079c63          	bnez	a5,12308 <strlen+0x60>
   122b4:	7f7f86b7          	lui	a3,0x7f7f8
   122b8:	f7f68693          	addi	a3,a3,-129 # 7f7f7f7f <__global_pointer$+0x7f7e4097>
   122bc:	fff00593          	li	a1,-1
   122c0:	00072603          	lw	a2,0(a4)
   122c4:	00470713          	addi	a4,a4,4
   122c8:	00d677b3          	and	a5,a2,a3
   122cc:	00d787b3          	add	a5,a5,a3
   122d0:	00c7e7b3          	or	a5,a5,a2
   122d4:	00d7e7b3          	or	a5,a5,a3
   122d8:	feb784e3          	beq	a5,a1,122c0 <strlen+0x18>
   122dc:	ffc74683          	lbu	a3,-4(a4)
   122e0:	40a707b3          	sub	a5,a4,a0
   122e4:	04068463          	beqz	a3,1232c <strlen+0x84>
   122e8:	ffd74683          	lbu	a3,-3(a4)
   122ec:	02068c63          	beqz	a3,12324 <strlen+0x7c>
   122f0:	ffe74503          	lbu	a0,-2(a4)
   122f4:	00a03533          	snez	a0,a0
   122f8:	00f50533          	add	a0,a0,a5
   122fc:	ffe50513          	addi	a0,a0,-2
   12300:	00008067          	ret
   12304:	fa0688e3          	beqz	a3,122b4 <strlen+0xc>
   12308:	00074783          	lbu	a5,0(a4)
   1230c:	00170713          	addi	a4,a4,1
   12310:	00377693          	andi	a3,a4,3
   12314:	fe0798e3          	bnez	a5,12304 <strlen+0x5c>
   12318:	40a70733          	sub	a4,a4,a0
   1231c:	fff70513          	addi	a0,a4,-1
   12320:	00008067          	ret
   12324:	ffd78513          	addi	a0,a5,-3
   12328:	00008067          	ret
   1232c:	ffc78513          	addi	a0,a5,-4
   12330:	00008067          	ret

00012334 <__call_exitprocs>:
   12334:	fd010113          	addi	sp,sp,-48
   12338:	01412c23          	sw	s4,24(sp)
   1233c:	c681aa03          	lw	s4,-920(gp) # 13b50 <_global_impure_ptr>
   12340:	03212023          	sw	s2,32(sp)
   12344:	02112623          	sw	ra,44(sp)
   12348:	148a2903          	lw	s2,328(s4)
   1234c:	02812423          	sw	s0,40(sp)
   12350:	02912223          	sw	s1,36(sp)
   12354:	01312e23          	sw	s3,28(sp)
   12358:	01512a23          	sw	s5,20(sp)
   1235c:	01612823          	sw	s6,16(sp)
   12360:	01712623          	sw	s7,12(sp)
   12364:	01812423          	sw	s8,8(sp)
   12368:	04090063          	beqz	s2,123a8 <__call_exitprocs+0x74>
   1236c:	00050b13          	mv	s6,a0
   12370:	00058b93          	mv	s7,a1
   12374:	00100a93          	li	s5,1
   12378:	fff00993          	li	s3,-1
   1237c:	00492483          	lw	s1,4(s2)
   12380:	fff48413          	addi	s0,s1,-1
   12384:	02044263          	bltz	s0,123a8 <__call_exitprocs+0x74>
   12388:	00249493          	slli	s1,s1,0x2
   1238c:	009904b3          	add	s1,s2,s1
   12390:	040b8463          	beqz	s7,123d8 <__call_exitprocs+0xa4>
   12394:	1044a783          	lw	a5,260(s1)
   12398:	05778063          	beq	a5,s7,123d8 <__call_exitprocs+0xa4>
   1239c:	fff40413          	addi	s0,s0,-1
   123a0:	ffc48493          	addi	s1,s1,-4
   123a4:	ff3416e3          	bne	s0,s3,12390 <__call_exitprocs+0x5c>
   123a8:	02c12083          	lw	ra,44(sp)
   123ac:	02812403          	lw	s0,40(sp)
   123b0:	02412483          	lw	s1,36(sp)
   123b4:	02012903          	lw	s2,32(sp)
   123b8:	01c12983          	lw	s3,28(sp)
   123bc:	01812a03          	lw	s4,24(sp)
   123c0:	01412a83          	lw	s5,20(sp)
   123c4:	01012b03          	lw	s6,16(sp)
   123c8:	00c12b83          	lw	s7,12(sp)
   123cc:	00812c03          	lw	s8,8(sp)
   123d0:	03010113          	addi	sp,sp,48
   123d4:	00008067          	ret
   123d8:	00492783          	lw	a5,4(s2)
   123dc:	0044a683          	lw	a3,4(s1)
   123e0:	fff78793          	addi	a5,a5,-1
   123e4:	04878e63          	beq	a5,s0,12440 <__call_exitprocs+0x10c>
   123e8:	0004a223          	sw	zero,4(s1)
   123ec:	fa0688e3          	beqz	a3,1239c <__call_exitprocs+0x68>
   123f0:	18892783          	lw	a5,392(s2)
   123f4:	008a9733          	sll	a4,s5,s0
   123f8:	00492c03          	lw	s8,4(s2)
   123fc:	00f777b3          	and	a5,a4,a5
   12400:	02079263          	bnez	a5,12424 <__call_exitprocs+0xf0>
   12404:	000680e7          	jalr	a3
   12408:	00492703          	lw	a4,4(s2)
   1240c:	148a2783          	lw	a5,328(s4)
   12410:	01871463          	bne	a4,s8,12418 <__call_exitprocs+0xe4>
   12414:	f92784e3          	beq	a5,s2,1239c <__call_exitprocs+0x68>
   12418:	f80788e3          	beqz	a5,123a8 <__call_exitprocs+0x74>
   1241c:	00078913          	mv	s2,a5
   12420:	f5dff06f          	j	1237c <__call_exitprocs+0x48>
   12424:	18c92783          	lw	a5,396(s2)
   12428:	0844a583          	lw	a1,132(s1)
   1242c:	00f77733          	and	a4,a4,a5
   12430:	00071c63          	bnez	a4,12448 <__call_exitprocs+0x114>
   12434:	000b0513          	mv	a0,s6
   12438:	000680e7          	jalr	a3
   1243c:	fcdff06f          	j	12408 <__call_exitprocs+0xd4>
   12440:	00892223          	sw	s0,4(s2)
   12444:	fa9ff06f          	j	123ec <__call_exitprocs+0xb8>
   12448:	00058513          	mv	a0,a1
   1244c:	000680e7          	jalr	a3
   12450:	fb9ff06f          	j	12408 <__call_exitprocs+0xd4>

00012454 <__libc_fini_array>:
   12454:	ff010113          	addi	sp,sp,-16
   12458:	00812423          	sw	s0,8(sp)
   1245c:	000137b7          	lui	a5,0x13
   12460:	00013437          	lui	s0,0x13
   12464:	6e478793          	addi	a5,a5,1764 # 136e4 <__do_global_dtors_aux_fini_array_entry>
   12468:	6e840413          	addi	s0,s0,1768 # 136e8 <text>
   1246c:	40f40433          	sub	s0,s0,a5
   12470:	00912223          	sw	s1,4(sp)
   12474:	00112623          	sw	ra,12(sp)
   12478:	40245493          	srai	s1,s0,0x2
   1247c:	02048063          	beqz	s1,1249c <__libc_fini_array+0x48>
   12480:	ffc40413          	addi	s0,s0,-4
   12484:	00f40433          	add	s0,s0,a5
   12488:	00042783          	lw	a5,0(s0)
   1248c:	fff48493          	addi	s1,s1,-1
   12490:	ffc40413          	addi	s0,s0,-4
   12494:	000780e7          	jalr	a5
   12498:	fe0498e3          	bnez	s1,12488 <__libc_fini_array+0x34>
   1249c:	00c12083          	lw	ra,12(sp)
   124a0:	00812403          	lw	s0,8(sp)
   124a4:	00412483          	lw	s1,4(sp)
   124a8:	01010113          	addi	sp,sp,16
   124ac:	00008067          	ret

000124b0 <atexit>:
   124b0:	00050593          	mv	a1,a0
   124b4:	00000693          	li	a3,0
   124b8:	00000613          	li	a2,0
   124bc:	00000513          	li	a0,0
   124c0:	0040006f          	j	124c4 <__register_exitproc>

000124c4 <__register_exitproc>:
   124c4:	c681a703          	lw	a4,-920(gp) # 13b50 <_global_impure_ptr>
   124c8:	14872783          	lw	a5,328(a4)
   124cc:	04078c63          	beqz	a5,12524 <__register_exitproc+0x60>
   124d0:	0047a703          	lw	a4,4(a5)
   124d4:	01f00813          	li	a6,31
   124d8:	06e84e63          	blt	a6,a4,12554 <__register_exitproc+0x90>
   124dc:	00271813          	slli	a6,a4,0x2
   124e0:	02050663          	beqz	a0,1250c <__register_exitproc+0x48>
   124e4:	01078333          	add	t1,a5,a6
   124e8:	08c32423          	sw	a2,136(t1) # 10208 <op_len+0x30>
   124ec:	1887a883          	lw	a7,392(a5)
   124f0:	00100613          	li	a2,1
   124f4:	00e61633          	sll	a2,a2,a4
   124f8:	00c8e8b3          	or	a7,a7,a2
   124fc:	1917a423          	sw	a7,392(a5)
   12500:	10d32423          	sw	a3,264(t1)
   12504:	00200693          	li	a3,2
   12508:	02d50463          	beq	a0,a3,12530 <__register_exitproc+0x6c>
   1250c:	00170713          	addi	a4,a4,1
   12510:	00e7a223          	sw	a4,4(a5)
   12514:	010787b3          	add	a5,a5,a6
   12518:	00b7a423          	sw	a1,8(a5)
   1251c:	00000513          	li	a0,0
   12520:	00008067          	ret
   12524:	14c70793          	addi	a5,a4,332
   12528:	14f72423          	sw	a5,328(a4)
   1252c:	fa5ff06f          	j	124d0 <__register_exitproc+0xc>
   12530:	18c7a683          	lw	a3,396(a5)
   12534:	00170713          	addi	a4,a4,1
   12538:	00e7a223          	sw	a4,4(a5)
   1253c:	00c6e6b3          	or	a3,a3,a2
   12540:	18d7a623          	sw	a3,396(a5)
   12544:	010787b3          	add	a5,a5,a6
   12548:	00b7a423          	sw	a1,8(a5)
   1254c:	00000513          	li	a0,0
   12550:	00008067          	ret
   12554:	fff00513          	li	a0,-1
   12558:	00008067          	ret

0001255c <_exit>:
   1255c:	05d00893          	li	a7,93
   12560:	00000073          	ecall
   12564:	00054463          	bltz	a0,1256c <_exit+0x10>
   12568:	0000006f          	j	12568 <_exit+0xc>
   1256c:	ff010113          	addi	sp,sp,-16
   12570:	00812423          	sw	s0,8(sp)
   12574:	00050413          	mv	s0,a0
   12578:	00112623          	sw	ra,12(sp)
   1257c:	40800433          	neg	s0,s0
   12580:	00c000ef          	jal	ra,1258c <__errno>
   12584:	00852023          	sw	s0,0(a0)
   12588:	0000006f          	j	12588 <_exit+0x2c>

0001258c <__errno>:
   1258c:	c701a503          	lw	a0,-912(gp) # 13b58 <_impure_ptr>
   12590:	00008067          	ret
