
./arm-benchmarks/src/statemate/statemate:     file format elf32-littlearm


Disassembly of section .init:

00008000 <_init>:
    8000:	b5f8      	push	{r3, r4, r5, r6, r7, lr}
    8002:	bf00      	nop
    8004:	bcf8      	pop	{r3, r4, r5, r6, r7}
    8006:	bc08      	pop	{r3}
    8008:	469e      	mov	lr, r3
    800a:	4770      	bx	lr

Disassembly of section .text:

0000800c <exit>:
    800c:	b508      	push	{r3, lr}
    800e:	2100      	movs	r1, #0
    8010:	4604      	mov	r4, r0
    8012:	f001 fd4f 	bl	9ab4 <__call_exitprocs>
    8016:	4b04      	ldr	r3, [pc, #16]	; (8028 <exit+0x1c>)
    8018:	6818      	ldr	r0, [r3, #0]
    801a:	6bc3      	ldr	r3, [r0, #60]	; 0x3c
    801c:	b103      	cbz	r3, 8020 <exit+0x14>
    801e:	4798      	blx	r3
    8020:	4620      	mov	r0, r4
    8022:	f001 fe0f 	bl	9c44 <_exit>
    8026:	bf00      	nop
    8028:	00009c94 	.word	0x00009c94

0000802c <register_fini>:
    802c:	4b02      	ldr	r3, [pc, #8]	; (8038 <register_fini+0xc>)
    802e:	b113      	cbz	r3, 8036 <register_fini+0xa>
    8030:	4802      	ldr	r0, [pc, #8]	; (803c <register_fini+0x10>)
    8032:	f001 bda1 	b.w	9b78 <atexit>
    8036:	4770      	bx	lr
    8038:	00000000 	.word	0x00000000
    803c:	00009b85 	.word	0x00009b85

00008040 <__do_global_dtors_aux>:
    8040:	b510      	push	{r4, lr}
    8042:	4c05      	ldr	r4, [pc, #20]	; (8058 <__do_global_dtors_aux+0x18>)
    8044:	7823      	ldrb	r3, [r4, #0]
    8046:	b933      	cbnz	r3, 8056 <__do_global_dtors_aux+0x16>
    8048:	4b04      	ldr	r3, [pc, #16]	; (805c <__do_global_dtors_aux+0x1c>)
    804a:	b113      	cbz	r3, 8052 <__do_global_dtors_aux+0x12>
    804c:	4804      	ldr	r0, [pc, #16]	; (8060 <__do_global_dtors_aux+0x20>)
    804e:	f3af 8000 	nop.w
    8052:	2301      	movs	r3, #1
    8054:	7023      	strb	r3, [r4, #0]
    8056:	bd10      	pop	{r4, pc}
    8058:	0001a0dc 	.word	0x0001a0dc
    805c:	00000000 	.word	0x00000000
    8060:	00009ca0 	.word	0x00009ca0

00008064 <frame_dummy>:
    8064:	b508      	push	{r3, lr}
    8066:	4b03      	ldr	r3, [pc, #12]	; (8074 <frame_dummy+0x10>)
    8068:	b11b      	cbz	r3, 8072 <frame_dummy+0xe>
    806a:	4903      	ldr	r1, [pc, #12]	; (8078 <frame_dummy+0x14>)
    806c:	4803      	ldr	r0, [pc, #12]	; (807c <frame_dummy+0x18>)
    806e:	f3af 8000 	nop.w
    8072:	bd08      	pop	{r3, pc}
    8074:	00000000 	.word	0x00000000
    8078:	0001a0e0 	.word	0x0001a0e0
    807c:	00009ca0 	.word	0x00009ca0

00008080 <_stack_init>:
    8080:	f5a3 3a80 	sub.w	sl, r3, #65536	; 0x10000
    8084:	4770      	bx	lr
    8086:	bf00      	nop

00008088 <_mainCRTStartup>:
    8088:	4b17      	ldr	r3, [pc, #92]	; (80e8 <_mainCRTStartup+0x60>)
    808a:	2b00      	cmp	r3, #0
    808c:	bf08      	it	eq
    808e:	4b13      	ldreq	r3, [pc, #76]	; (80dc <_mainCRTStartup+0x54>)
    8090:	469d      	mov	sp, r3
    8092:	f7ff fff5 	bl	8080 <_stack_init>
    8096:	2100      	movs	r1, #0
    8098:	468b      	mov	fp, r1
    809a:	460f      	mov	r7, r1
    809c:	4813      	ldr	r0, [pc, #76]	; (80ec <_mainCRTStartup+0x64>)
    809e:	4a14      	ldr	r2, [pc, #80]	; (80f0 <_mainCRTStartup+0x68>)
    80a0:	1a12      	subs	r2, r2, r0
    80a2:	f001 fcb5 	bl	9a10 <memset>
    80a6:	4b0e      	ldr	r3, [pc, #56]	; (80e0 <_mainCRTStartup+0x58>)
    80a8:	2b00      	cmp	r3, #0
    80aa:	d000      	beq.n	80ae <_mainCRTStartup+0x26>
    80ac:	4798      	blx	r3
    80ae:	4b0d      	ldr	r3, [pc, #52]	; (80e4 <_mainCRTStartup+0x5c>)
    80b0:	2b00      	cmp	r3, #0
    80b2:	d000      	beq.n	80b6 <_mainCRTStartup+0x2e>
    80b4:	4798      	blx	r3
    80b6:	2000      	movs	r0, #0
    80b8:	2100      	movs	r1, #0
    80ba:	0004      	movs	r4, r0
    80bc:	000d      	movs	r5, r1
    80be:	480d      	ldr	r0, [pc, #52]	; (80f4 <_mainCRTStartup+0x6c>)
    80c0:	2800      	cmp	r0, #0
    80c2:	d002      	beq.n	80ca <_mainCRTStartup+0x42>
    80c4:	480c      	ldr	r0, [pc, #48]	; (80f8 <_mainCRTStartup+0x70>)
    80c6:	f001 fd57 	bl	9b78 <atexit>
    80ca:	f001 fc7d 	bl	99c8 <__libc_init_array>
    80ce:	0020      	movs	r0, r4
    80d0:	0029      	movs	r1, r5
    80d2:	f001 fc55 	bl	9980 <main>
    80d6:	f7ff ff99 	bl	800c <exit>
    80da:	bf00      	nop
    80dc:	00080000 	.word	0x00080000
    80e0:	00000000 	.word	0x00000000
    80e4:	00000000 	.word	0x00000000
    80e8:	00000000 	.word	0x00000000
    80ec:	0001a0dc 	.word	0x0001a0dc
    80f0:	0001a1f4 	.word	0x0001a1f4
    80f4:	00009b79 	.word	0x00009b79
    80f8:	00009b85 	.word	0x00009b85

000080fc <interface>:
    80fc:	b480      	push	{r7}
    80fe:	af00      	add	r7, sp, #0
    8100:	4b37      	ldr	r3, [pc, #220]	; (81e0 <interface+0xe4>)
    8102:	791b      	ldrb	r3, [r3, #4]
    8104:	2b00      	cmp	r3, #0
    8106:	d003      	beq.n	8110 <interface+0x14>
    8108:	4b36      	ldr	r3, [pc, #216]	; (81e4 <interface+0xe8>)
    810a:	681b      	ldr	r3, [r3, #0]
    810c:	4a36      	ldr	r2, [pc, #216]	; (81e8 <interface+0xec>)
    810e:	6013      	str	r3, [r2, #0]
    8110:	4b33      	ldr	r3, [pc, #204]	; (81e0 <interface+0xe4>)
    8112:	791b      	ldrb	r3, [r3, #4]
    8114:	2b00      	cmp	r3, #0
    8116:	d103      	bne.n	8120 <interface+0x24>
    8118:	4b31      	ldr	r3, [pc, #196]	; (81e0 <interface+0xe4>)
    811a:	799b      	ldrb	r3, [r3, #6]
    811c:	2b00      	cmp	r3, #0
    811e:	d003      	beq.n	8128 <interface+0x2c>
    8120:	4b30      	ldr	r3, [pc, #192]	; (81e4 <interface+0xe8>)
    8122:	681b      	ldr	r3, [r3, #0]
    8124:	4a31      	ldr	r2, [pc, #196]	; (81ec <interface+0xf0>)
    8126:	6013      	str	r3, [r2, #0]
    8128:	4b31      	ldr	r3, [pc, #196]	; (81f0 <interface+0xf4>)
    812a:	681b      	ldr	r3, [r3, #0]
    812c:	2b00      	cmp	r3, #0
    812e:	d00b      	beq.n	8148 <interface+0x4c>
    8130:	4b2c      	ldr	r3, [pc, #176]	; (81e4 <interface+0xe8>)
    8132:	681a      	ldr	r2, [r3, #0]
    8134:	4b2e      	ldr	r3, [pc, #184]	; (81f0 <interface+0xf4>)
    8136:	681b      	ldr	r3, [r3, #0]
    8138:	429a      	cmp	r2, r3
    813a:	d005      	beq.n	8148 <interface+0x4c>
    813c:	4b2d      	ldr	r3, [pc, #180]	; (81f4 <interface+0xf8>)
    813e:	2200      	movs	r2, #0
    8140:	701a      	strb	r2, [r3, #0]
    8142:	4b2b      	ldr	r3, [pc, #172]	; (81f0 <interface+0xf4>)
    8144:	2200      	movs	r2, #0
    8146:	601a      	str	r2, [r3, #0]
    8148:	4b2b      	ldr	r3, [pc, #172]	; (81f8 <interface+0xfc>)
    814a:	681b      	ldr	r3, [r3, #0]
    814c:	2b00      	cmp	r3, #0
    814e:	d00b      	beq.n	8168 <interface+0x6c>
    8150:	4b24      	ldr	r3, [pc, #144]	; (81e4 <interface+0xe8>)
    8152:	681a      	ldr	r2, [r3, #0]
    8154:	4b28      	ldr	r3, [pc, #160]	; (81f8 <interface+0xfc>)
    8156:	681b      	ldr	r3, [r3, #0]
    8158:	429a      	cmp	r2, r3
    815a:	d005      	beq.n	8168 <interface+0x6c>
    815c:	4b27      	ldr	r3, [pc, #156]	; (81fc <interface+0x100>)
    815e:	2200      	movs	r2, #0
    8160:	701a      	strb	r2, [r3, #0]
    8162:	4b25      	ldr	r3, [pc, #148]	; (81f8 <interface+0xfc>)
    8164:	2200      	movs	r2, #0
    8166:	601a      	str	r2, [r3, #0]
    8168:	4b25      	ldr	r3, [pc, #148]	; (8200 <interface+0x104>)
    816a:	681b      	ldr	r3, [r3, #0]
    816c:	2b00      	cmp	r3, #0
    816e:	d00b      	beq.n	8188 <interface+0x8c>
    8170:	4b1c      	ldr	r3, [pc, #112]	; (81e4 <interface+0xe8>)
    8172:	681a      	ldr	r2, [r3, #0]
    8174:	4b22      	ldr	r3, [pc, #136]	; (8200 <interface+0x104>)
    8176:	681b      	ldr	r3, [r3, #0]
    8178:	429a      	cmp	r2, r3
    817a:	d005      	beq.n	8188 <interface+0x8c>
    817c:	4b1f      	ldr	r3, [pc, #124]	; (81fc <interface+0x100>)
    817e:	2200      	movs	r2, #0
    8180:	701a      	strb	r2, [r3, #0]
    8182:	4b1f      	ldr	r3, [pc, #124]	; (8200 <interface+0x104>)
    8184:	2200      	movs	r2, #0
    8186:	601a      	str	r2, [r3, #0]
    8188:	4b1e      	ldr	r3, [pc, #120]	; (8204 <interface+0x108>)
    818a:	681b      	ldr	r3, [r3, #0]
    818c:	2b00      	cmp	r3, #0
    818e:	d008      	beq.n	81a2 <interface+0xa6>
    8190:	4b14      	ldr	r3, [pc, #80]	; (81e4 <interface+0xe8>)
    8192:	681a      	ldr	r2, [r3, #0]
    8194:	4b1b      	ldr	r3, [pc, #108]	; (8204 <interface+0x108>)
    8196:	681b      	ldr	r3, [r3, #0]
    8198:	429a      	cmp	r2, r3
    819a:	d002      	beq.n	81a2 <interface+0xa6>
    819c:	4b19      	ldr	r3, [pc, #100]	; (8204 <interface+0x108>)
    819e:	2200      	movs	r2, #0
    81a0:	601a      	str	r2, [r3, #0]
    81a2:	4b19      	ldr	r3, [pc, #100]	; (8208 <interface+0x10c>)
    81a4:	681b      	ldr	r3, [r3, #0]
    81a6:	2b00      	cmp	r3, #0
    81a8:	d008      	beq.n	81bc <interface+0xc0>
    81aa:	4b0e      	ldr	r3, [pc, #56]	; (81e4 <interface+0xe8>)
    81ac:	681a      	ldr	r2, [r3, #0]
    81ae:	4b16      	ldr	r3, [pc, #88]	; (8208 <interface+0x10c>)
    81b0:	681b      	ldr	r3, [r3, #0]
    81b2:	429a      	cmp	r2, r3
    81b4:	d002      	beq.n	81bc <interface+0xc0>
    81b6:	4b14      	ldr	r3, [pc, #80]	; (8208 <interface+0x10c>)
    81b8:	2200      	movs	r2, #0
    81ba:	601a      	str	r2, [r3, #0]
    81bc:	4b08      	ldr	r3, [pc, #32]	; (81e0 <interface+0xe4>)
    81be:	781b      	ldrb	r3, [r3, #0]
    81c0:	2b00      	cmp	r3, #0
    81c2:	d105      	bne.n	81d0 <interface+0xd4>
    81c4:	4b11      	ldr	r3, [pc, #68]	; (820c <interface+0x110>)
    81c6:	681a      	ldr	r2, [r3, #0]
    81c8:	4b11      	ldr	r3, [pc, #68]	; (8210 <interface+0x114>)
    81ca:	681b      	ldr	r3, [r3, #0]
    81cc:	429a      	cmp	r2, r3
    81ce:	d003      	beq.n	81d8 <interface+0xdc>
    81d0:	4b04      	ldr	r3, [pc, #16]	; (81e4 <interface+0xe8>)
    81d2:	681b      	ldr	r3, [r3, #0]
    81d4:	4a0f      	ldr	r2, [pc, #60]	; (8214 <interface+0x118>)
    81d6:	6013      	str	r3, [r2, #0]
    81d8:	bf00      	nop
    81da:	46bd      	mov	sp, r7
    81dc:	bc80      	pop	{r7}
    81de:	4770      	bx	lr
    81e0:	0001a0f8 	.word	0x0001a0f8
    81e4:	0001a1d8 	.word	0x0001a1d8
    81e8:	0001a140 	.word	0x0001a140
    81ec:	0001a13c 	.word	0x0001a13c
    81f0:	0001a144 	.word	0x0001a144
    81f4:	0001a1b4 	.word	0x0001a1b4
    81f8:	0001a148 	.word	0x0001a148
    81fc:	0001a1b1 	.word	0x0001a1b1
    8200:	0001a14c 	.word	0x0001a14c
    8204:	0001a15c 	.word	0x0001a15c
    8208:	0001a160 	.word	0x0001a160
    820c:	0001a18c 	.word	0x0001a18c
    8210:	0001a194 	.word	0x0001a194
    8214:	0001a138 	.word	0x0001a138

00008218 <init>:
    8218:	b480      	push	{r7}
    821a:	af00      	add	r7, sp, #0
    821c:	4b1e      	ldr	r3, [pc, #120]	; (8298 <init+0x80>)
    821e:	2200      	movs	r2, #0
    8220:	601a      	str	r2, [r3, #0]
    8222:	4b1e      	ldr	r3, [pc, #120]	; (829c <init+0x84>)
    8224:	2200      	movs	r2, #0
    8226:	601a      	str	r2, [r3, #0]
    8228:	4b1d      	ldr	r3, [pc, #116]	; (82a0 <init+0x88>)
    822a:	2200      	movs	r2, #0
    822c:	601a      	str	r2, [r3, #0]
    822e:	4b1d      	ldr	r3, [pc, #116]	; (82a4 <init+0x8c>)
    8230:	2200      	movs	r2, #0
    8232:	701a      	strb	r2, [r3, #0]
    8234:	4b1c      	ldr	r3, [pc, #112]	; (82a8 <init+0x90>)
    8236:	2200      	movs	r2, #0
    8238:	701a      	strb	r2, [r3, #0]
    823a:	4b1c      	ldr	r3, [pc, #112]	; (82ac <init+0x94>)
    823c:	2200      	movs	r2, #0
    823e:	701a      	strb	r2, [r3, #0]
    8240:	4b1b      	ldr	r3, [pc, #108]	; (82b0 <init+0x98>)
    8242:	2200      	movs	r2, #0
    8244:	701a      	strb	r2, [r3, #0]
    8246:	4b1b      	ldr	r3, [pc, #108]	; (82b4 <init+0x9c>)
    8248:	2200      	movs	r2, #0
    824a:	701a      	strb	r2, [r3, #0]
    824c:	4b1a      	ldr	r3, [pc, #104]	; (82b8 <init+0xa0>)
    824e:	2200      	movs	r2, #0
    8250:	701a      	strb	r2, [r3, #0]
    8252:	4b1a      	ldr	r3, [pc, #104]	; (82bc <init+0xa4>)
    8254:	2200      	movs	r2, #0
    8256:	701a      	strb	r2, [r3, #0]
    8258:	4b19      	ldr	r3, [pc, #100]	; (82c0 <init+0xa8>)
    825a:	2200      	movs	r2, #0
    825c:	701a      	strb	r2, [r3, #0]
    825e:	4b19      	ldr	r3, [pc, #100]	; (82c4 <init+0xac>)
    8260:	2200      	movs	r2, #0
    8262:	701a      	strb	r2, [r3, #0]
    8264:	4b18      	ldr	r3, [pc, #96]	; (82c8 <init+0xb0>)
    8266:	2200      	movs	r2, #0
    8268:	701a      	strb	r2, [r3, #0]
    826a:	4b18      	ldr	r3, [pc, #96]	; (82cc <init+0xb4>)
    826c:	2200      	movs	r2, #0
    826e:	701a      	strb	r2, [r3, #0]
    8270:	4b17      	ldr	r3, [pc, #92]	; (82d0 <init+0xb8>)
    8272:	2200      	movs	r2, #0
    8274:	701a      	strb	r2, [r3, #0]
    8276:	4b17      	ldr	r3, [pc, #92]	; (82d4 <init+0xbc>)
    8278:	2200      	movs	r2, #0
    827a:	701a      	strb	r2, [r3, #0]
    827c:	4b16      	ldr	r3, [pc, #88]	; (82d8 <init+0xc0>)
    827e:	2200      	movs	r2, #0
    8280:	701a      	strb	r2, [r3, #0]
    8282:	4b16      	ldr	r3, [pc, #88]	; (82dc <init+0xc4>)
    8284:	2200      	movs	r2, #0
    8286:	701a      	strb	r2, [r3, #0]
    8288:	4b15      	ldr	r3, [pc, #84]	; (82e0 <init+0xc8>)
    828a:	2200      	movs	r2, #0
    828c:	701a      	strb	r2, [r3, #0]
    828e:	bf00      	nop
    8290:	46bd      	mov	sp, r7
    8292:	bc80      	pop	{r7}
    8294:	4770      	bx	lr
    8296:	bf00      	nop
    8298:	0001a138 	.word	0x0001a138
    829c:	0001a13c 	.word	0x0001a13c
    82a0:	0001a140 	.word	0x0001a140
    82a4:	0001a1de 	.word	0x0001a1de
    82a8:	0001a1df 	.word	0x0001a1df
    82ac:	0001a1e0 	.word	0x0001a1e0
    82b0:	0001a1e1 	.word	0x0001a1e1
    82b4:	0001a1e2 	.word	0x0001a1e2
    82b8:	0001a1e3 	.word	0x0001a1e3
    82bc:	0001a1e4 	.word	0x0001a1e4
    82c0:	0001a1e5 	.word	0x0001a1e5
    82c4:	0001a1e6 	.word	0x0001a1e6
    82c8:	0001a1e7 	.word	0x0001a1e7
    82cc:	0001a1e8 	.word	0x0001a1e8
    82d0:	0001a1e9 	.word	0x0001a1e9
    82d4:	0001a1ea 	.word	0x0001a1ea
    82d8:	0001a1eb 	.word	0x0001a1eb
    82dc:	0001a1ec 	.word	0x0001a1ec
    82e0:	0001a1ed 	.word	0x0001a1ed

000082e4 <generic_KINDERSICHERUNG_CTRL>:
    82e4:	b480      	push	{r7}
    82e6:	af00      	add	r7, sp, #0
    82e8:	4b95      	ldr	r3, [pc, #596]	; (8540 <generic_KINDERSICHERUNG_CTRL+0x25c>)
    82ea:	7a9b      	ldrb	r3, [r3, #10]
    82ec:	2b00      	cmp	r3, #0
    82ee:	f000 818f 	beq.w	8610 <generic_KINDERSICHERUNG_CTRL+0x32c>
    82f2:	4b94      	ldr	r3, [pc, #592]	; (8544 <generic_KINDERSICHERUNG_CTRL+0x260>)
    82f4:	781b      	ldrb	r3, [r3, #0]
    82f6:	2b03      	cmp	r3, #3
    82f8:	f000 80dc 	beq.w	84b4 <generic_KINDERSICHERUNG_CTRL+0x1d0>
    82fc:	2b03      	cmp	r3, #3
    82fe:	f300 8180 	bgt.w	8602 <generic_KINDERSICHERUNG_CTRL+0x31e>
    8302:	2b01      	cmp	r3, #1
    8304:	d002      	beq.n	830c <generic_KINDERSICHERUNG_CTRL+0x28>
    8306:	2b02      	cmp	r3, #2
    8308:	d06a      	beq.n	83e0 <generic_KINDERSICHERUNG_CTRL+0xfc>
    830a:	e17a      	b.n	8602 <generic_KINDERSICHERUNG_CTRL+0x31e>
    830c:	4b8e      	ldr	r3, [pc, #568]	; (8548 <generic_KINDERSICHERUNG_CTRL+0x264>)
    830e:	781b      	ldrb	r3, [r3, #0]
    8310:	2b00      	cmp	r3, #0
    8312:	d113      	bne.n	833c <generic_KINDERSICHERUNG_CTRL+0x58>
    8314:	4b8d      	ldr	r3, [pc, #564]	; (854c <generic_KINDERSICHERUNG_CTRL+0x268>)
    8316:	781b      	ldrb	r3, [r3, #0]
    8318:	2b00      	cmp	r3, #0
    831a:	d10f      	bne.n	833c <generic_KINDERSICHERUNG_CTRL+0x58>
    831c:	4b8c      	ldr	r3, [pc, #560]	; (8550 <generic_KINDERSICHERUNG_CTRL+0x26c>)
    831e:	2200      	movs	r2, #0
    8320:	701a      	strb	r2, [r3, #0]
    8322:	4b8c      	ldr	r3, [pc, #560]	; (8554 <generic_KINDERSICHERUNG_CTRL+0x270>)
    8324:	2200      	movs	r2, #0
    8326:	701a      	strb	r2, [r3, #0]
    8328:	4b8b      	ldr	r3, [pc, #556]	; (8558 <generic_KINDERSICHERUNG_CTRL+0x274>)
    832a:	2200      	movs	r2, #0
    832c:	701a      	strb	r2, [r3, #0]
    832e:	4b85      	ldr	r3, [pc, #532]	; (8544 <generic_KINDERSICHERUNG_CTRL+0x260>)
    8330:	2203      	movs	r2, #3
    8332:	701a      	strb	r2, [r3, #0]
    8334:	4b89      	ldr	r3, [pc, #548]	; (855c <generic_KINDERSICHERUNG_CTRL+0x278>)
    8336:	2200      	movs	r2, #0
    8338:	701a      	strb	r2, [r3, #0]
    833a:	e16c      	b.n	8616 <generic_KINDERSICHERUNG_CTRL+0x332>
    833c:	4b87      	ldr	r3, [pc, #540]	; (855c <generic_KINDERSICHERUNG_CTRL+0x278>)
    833e:	781b      	ldrb	r3, [r3, #0]
    8340:	2b01      	cmp	r3, #1
    8342:	d147      	bne.n	83d4 <generic_KINDERSICHERUNG_CTRL+0xf0>
    8344:	4b80      	ldr	r3, [pc, #512]	; (8548 <generic_KINDERSICHERUNG_CTRL+0x264>)
    8346:	781b      	ldrb	r3, [r3, #0]
    8348:	2b00      	cmp	r3, #0
    834a:	d00d      	beq.n	8368 <generic_KINDERSICHERUNG_CTRL+0x84>
    834c:	4b84      	ldr	r3, [pc, #528]	; (8560 <generic_KINDERSICHERUNG_CTRL+0x27c>)
    834e:	781b      	ldrb	r3, [r3, #0]
    8350:	2b00      	cmp	r3, #0
    8352:	d109      	bne.n	8368 <generic_KINDERSICHERUNG_CTRL+0x84>
    8354:	4b7e      	ldr	r3, [pc, #504]	; (8550 <generic_KINDERSICHERUNG_CTRL+0x26c>)
    8356:	2200      	movs	r2, #0
    8358:	701a      	strb	r2, [r3, #0]
    835a:	4b7f      	ldr	r3, [pc, #508]	; (8558 <generic_KINDERSICHERUNG_CTRL+0x274>)
    835c:	2201      	movs	r2, #1
    835e:	701a      	strb	r2, [r3, #0]
    8360:	4b7e      	ldr	r3, [pc, #504]	; (855c <generic_KINDERSICHERUNG_CTRL+0x278>)
    8362:	2201      	movs	r2, #1
    8364:	701a      	strb	r2, [r3, #0]
    8366:	e03a      	b.n	83de <generic_KINDERSICHERUNG_CTRL+0xfa>
    8368:	4b78      	ldr	r3, [pc, #480]	; (854c <generic_KINDERSICHERUNG_CTRL+0x268>)
    836a:	781b      	ldrb	r3, [r3, #0]
    836c:	2b00      	cmp	r3, #0
    836e:	d00d      	beq.n	838c <generic_KINDERSICHERUNG_CTRL+0xa8>
    8370:	4b7c      	ldr	r3, [pc, #496]	; (8564 <generic_KINDERSICHERUNG_CTRL+0x280>)
    8372:	781b      	ldrb	r3, [r3, #0]
    8374:	2b00      	cmp	r3, #0
    8376:	d109      	bne.n	838c <generic_KINDERSICHERUNG_CTRL+0xa8>
    8378:	4b75      	ldr	r3, [pc, #468]	; (8550 <generic_KINDERSICHERUNG_CTRL+0x26c>)
    837a:	2200      	movs	r2, #0
    837c:	701a      	strb	r2, [r3, #0]
    837e:	4b75      	ldr	r3, [pc, #468]	; (8554 <generic_KINDERSICHERUNG_CTRL+0x270>)
    8380:	2201      	movs	r2, #1
    8382:	701a      	strb	r2, [r3, #0]
    8384:	4b75      	ldr	r3, [pc, #468]	; (855c <generic_KINDERSICHERUNG_CTRL+0x278>)
    8386:	2201      	movs	r2, #1
    8388:	701a      	strb	r2, [r3, #0]
    838a:	e028      	b.n	83de <generic_KINDERSICHERUNG_CTRL+0xfa>
    838c:	4b6e      	ldr	r3, [pc, #440]	; (8548 <generic_KINDERSICHERUNG_CTRL+0x264>)
    838e:	781b      	ldrb	r3, [r3, #0]
    8390:	2b00      	cmp	r3, #0
    8392:	d10d      	bne.n	83b0 <generic_KINDERSICHERUNG_CTRL+0xcc>
    8394:	4b72      	ldr	r3, [pc, #456]	; (8560 <generic_KINDERSICHERUNG_CTRL+0x27c>)
    8396:	781b      	ldrb	r3, [r3, #0]
    8398:	2b00      	cmp	r3, #0
    839a:	d009      	beq.n	83b0 <generic_KINDERSICHERUNG_CTRL+0xcc>
    839c:	4b6c      	ldr	r3, [pc, #432]	; (8550 <generic_KINDERSICHERUNG_CTRL+0x26c>)
    839e:	2200      	movs	r2, #0
    83a0:	701a      	strb	r2, [r3, #0]
    83a2:	4b6d      	ldr	r3, [pc, #436]	; (8558 <generic_KINDERSICHERUNG_CTRL+0x274>)
    83a4:	2200      	movs	r2, #0
    83a6:	701a      	strb	r2, [r3, #0]
    83a8:	4b6c      	ldr	r3, [pc, #432]	; (855c <generic_KINDERSICHERUNG_CTRL+0x278>)
    83aa:	2201      	movs	r2, #1
    83ac:	701a      	strb	r2, [r3, #0]
    83ae:	e016      	b.n	83de <generic_KINDERSICHERUNG_CTRL+0xfa>
    83b0:	4b66      	ldr	r3, [pc, #408]	; (854c <generic_KINDERSICHERUNG_CTRL+0x268>)
    83b2:	781b      	ldrb	r3, [r3, #0]
    83b4:	2b00      	cmp	r3, #0
    83b6:	d111      	bne.n	83dc <generic_KINDERSICHERUNG_CTRL+0xf8>
    83b8:	4b6a      	ldr	r3, [pc, #424]	; (8564 <generic_KINDERSICHERUNG_CTRL+0x280>)
    83ba:	781b      	ldrb	r3, [r3, #0]
    83bc:	2b00      	cmp	r3, #0
    83be:	d00d      	beq.n	83dc <generic_KINDERSICHERUNG_CTRL+0xf8>
    83c0:	4b63      	ldr	r3, [pc, #396]	; (8550 <generic_KINDERSICHERUNG_CTRL+0x26c>)
    83c2:	2200      	movs	r2, #0
    83c4:	701a      	strb	r2, [r3, #0]
    83c6:	4b63      	ldr	r3, [pc, #396]	; (8554 <generic_KINDERSICHERUNG_CTRL+0x270>)
    83c8:	2200      	movs	r2, #0
    83ca:	701a      	strb	r2, [r3, #0]
    83cc:	4b63      	ldr	r3, [pc, #396]	; (855c <generic_KINDERSICHERUNG_CTRL+0x278>)
    83ce:	2201      	movs	r2, #1
    83d0:	701a      	strb	r2, [r3, #0]
    83d2:	e004      	b.n	83de <generic_KINDERSICHERUNG_CTRL+0xfa>
    83d4:	4b5e      	ldr	r3, [pc, #376]	; (8550 <generic_KINDERSICHERUNG_CTRL+0x26c>)
    83d6:	2200      	movs	r2, #0
    83d8:	701a      	strb	r2, [r3, #0]
    83da:	e000      	b.n	83de <generic_KINDERSICHERUNG_CTRL+0xfa>
    83dc:	bf00      	nop
    83de:	e11a      	b.n	8616 <generic_KINDERSICHERUNG_CTRL+0x332>
    83e0:	4b61      	ldr	r3, [pc, #388]	; (8568 <generic_KINDERSICHERUNG_CTRL+0x284>)
    83e2:	781b      	ldrb	r3, [r3, #0]
    83e4:	2b00      	cmp	r3, #0
    83e6:	d113      	bne.n	8410 <generic_KINDERSICHERUNG_CTRL+0x12c>
    83e8:	4b60      	ldr	r3, [pc, #384]	; (856c <generic_KINDERSICHERUNG_CTRL+0x288>)
    83ea:	781b      	ldrb	r3, [r3, #0]
    83ec:	2b00      	cmp	r3, #0
    83ee:	d10f      	bne.n	8410 <generic_KINDERSICHERUNG_CTRL+0x12c>
    83f0:	4b57      	ldr	r3, [pc, #348]	; (8550 <generic_KINDERSICHERUNG_CTRL+0x26c>)
    83f2:	2200      	movs	r2, #0
    83f4:	701a      	strb	r2, [r3, #0]
    83f6:	4b57      	ldr	r3, [pc, #348]	; (8554 <generic_KINDERSICHERUNG_CTRL+0x270>)
    83f8:	2200      	movs	r2, #0
    83fa:	701a      	strb	r2, [r3, #0]
    83fc:	4b56      	ldr	r3, [pc, #344]	; (8558 <generic_KINDERSICHERUNG_CTRL+0x274>)
    83fe:	2200      	movs	r2, #0
    8400:	701a      	strb	r2, [r3, #0]
    8402:	4b50      	ldr	r3, [pc, #320]	; (8544 <generic_KINDERSICHERUNG_CTRL+0x260>)
    8404:	2203      	movs	r2, #3
    8406:	701a      	strb	r2, [r3, #0]
    8408:	4b59      	ldr	r3, [pc, #356]	; (8570 <generic_KINDERSICHERUNG_CTRL+0x28c>)
    840a:	2200      	movs	r2, #0
    840c:	701a      	strb	r2, [r3, #0]
    840e:	e102      	b.n	8616 <generic_KINDERSICHERUNG_CTRL+0x332>
    8410:	4b57      	ldr	r3, [pc, #348]	; (8570 <generic_KINDERSICHERUNG_CTRL+0x28c>)
    8412:	781b      	ldrb	r3, [r3, #0]
    8414:	2b01      	cmp	r3, #1
    8416:	d147      	bne.n	84a8 <generic_KINDERSICHERUNG_CTRL+0x1c4>
    8418:	4b53      	ldr	r3, [pc, #332]	; (8568 <generic_KINDERSICHERUNG_CTRL+0x284>)
    841a:	781b      	ldrb	r3, [r3, #0]
    841c:	2b00      	cmp	r3, #0
    841e:	d00d      	beq.n	843c <generic_KINDERSICHERUNG_CTRL+0x158>
    8420:	4b54      	ldr	r3, [pc, #336]	; (8574 <generic_KINDERSICHERUNG_CTRL+0x290>)
    8422:	781b      	ldrb	r3, [r3, #0]
    8424:	2b00      	cmp	r3, #0
    8426:	d109      	bne.n	843c <generic_KINDERSICHERUNG_CTRL+0x158>
    8428:	4b49      	ldr	r3, [pc, #292]	; (8550 <generic_KINDERSICHERUNG_CTRL+0x26c>)
    842a:	2200      	movs	r2, #0
    842c:	701a      	strb	r2, [r3, #0]
    842e:	4b4a      	ldr	r3, [pc, #296]	; (8558 <generic_KINDERSICHERUNG_CTRL+0x274>)
    8430:	2201      	movs	r2, #1
    8432:	701a      	strb	r2, [r3, #0]
    8434:	4b4e      	ldr	r3, [pc, #312]	; (8570 <generic_KINDERSICHERUNG_CTRL+0x28c>)
    8436:	2201      	movs	r2, #1
    8438:	701a      	strb	r2, [r3, #0]
    843a:	e03a      	b.n	84b2 <generic_KINDERSICHERUNG_CTRL+0x1ce>
    843c:	4b4b      	ldr	r3, [pc, #300]	; (856c <generic_KINDERSICHERUNG_CTRL+0x288>)
    843e:	781b      	ldrb	r3, [r3, #0]
    8440:	2b00      	cmp	r3, #0
    8442:	d00d      	beq.n	8460 <generic_KINDERSICHERUNG_CTRL+0x17c>
    8444:	4b4c      	ldr	r3, [pc, #304]	; (8578 <generic_KINDERSICHERUNG_CTRL+0x294>)
    8446:	781b      	ldrb	r3, [r3, #0]
    8448:	2b00      	cmp	r3, #0
    844a:	d109      	bne.n	8460 <generic_KINDERSICHERUNG_CTRL+0x17c>
    844c:	4b40      	ldr	r3, [pc, #256]	; (8550 <generic_KINDERSICHERUNG_CTRL+0x26c>)
    844e:	2200      	movs	r2, #0
    8450:	701a      	strb	r2, [r3, #0]
    8452:	4b40      	ldr	r3, [pc, #256]	; (8554 <generic_KINDERSICHERUNG_CTRL+0x270>)
    8454:	2201      	movs	r2, #1
    8456:	701a      	strb	r2, [r3, #0]
    8458:	4b45      	ldr	r3, [pc, #276]	; (8570 <generic_KINDERSICHERUNG_CTRL+0x28c>)
    845a:	2201      	movs	r2, #1
    845c:	701a      	strb	r2, [r3, #0]
    845e:	e028      	b.n	84b2 <generic_KINDERSICHERUNG_CTRL+0x1ce>
    8460:	4b41      	ldr	r3, [pc, #260]	; (8568 <generic_KINDERSICHERUNG_CTRL+0x284>)
    8462:	781b      	ldrb	r3, [r3, #0]
    8464:	2b00      	cmp	r3, #0
    8466:	d10d      	bne.n	8484 <generic_KINDERSICHERUNG_CTRL+0x1a0>
    8468:	4b42      	ldr	r3, [pc, #264]	; (8574 <generic_KINDERSICHERUNG_CTRL+0x290>)
    846a:	781b      	ldrb	r3, [r3, #0]
    846c:	2b00      	cmp	r3, #0
    846e:	d009      	beq.n	8484 <generic_KINDERSICHERUNG_CTRL+0x1a0>
    8470:	4b37      	ldr	r3, [pc, #220]	; (8550 <generic_KINDERSICHERUNG_CTRL+0x26c>)
    8472:	2200      	movs	r2, #0
    8474:	701a      	strb	r2, [r3, #0]
    8476:	4b38      	ldr	r3, [pc, #224]	; (8558 <generic_KINDERSICHERUNG_CTRL+0x274>)
    8478:	2200      	movs	r2, #0
    847a:	701a      	strb	r2, [r3, #0]
    847c:	4b3c      	ldr	r3, [pc, #240]	; (8570 <generic_KINDERSICHERUNG_CTRL+0x28c>)
    847e:	2201      	movs	r2, #1
    8480:	701a      	strb	r2, [r3, #0]
    8482:	e016      	b.n	84b2 <generic_KINDERSICHERUNG_CTRL+0x1ce>
    8484:	4b39      	ldr	r3, [pc, #228]	; (856c <generic_KINDERSICHERUNG_CTRL+0x288>)
    8486:	781b      	ldrb	r3, [r3, #0]
    8488:	2b00      	cmp	r3, #0
    848a:	d111      	bne.n	84b0 <generic_KINDERSICHERUNG_CTRL+0x1cc>
    848c:	4b3a      	ldr	r3, [pc, #232]	; (8578 <generic_KINDERSICHERUNG_CTRL+0x294>)
    848e:	781b      	ldrb	r3, [r3, #0]
    8490:	2b00      	cmp	r3, #0
    8492:	d00d      	beq.n	84b0 <generic_KINDERSICHERUNG_CTRL+0x1cc>
    8494:	4b2e      	ldr	r3, [pc, #184]	; (8550 <generic_KINDERSICHERUNG_CTRL+0x26c>)
    8496:	2200      	movs	r2, #0
    8498:	701a      	strb	r2, [r3, #0]
    849a:	4b2e      	ldr	r3, [pc, #184]	; (8554 <generic_KINDERSICHERUNG_CTRL+0x270>)
    849c:	2200      	movs	r2, #0
    849e:	701a      	strb	r2, [r3, #0]
    84a0:	4b33      	ldr	r3, [pc, #204]	; (8570 <generic_KINDERSICHERUNG_CTRL+0x28c>)
    84a2:	2201      	movs	r2, #1
    84a4:	701a      	strb	r2, [r3, #0]
    84a6:	e004      	b.n	84b2 <generic_KINDERSICHERUNG_CTRL+0x1ce>
    84a8:	4b29      	ldr	r3, [pc, #164]	; (8550 <generic_KINDERSICHERUNG_CTRL+0x26c>)
    84aa:	2200      	movs	r2, #0
    84ac:	701a      	strb	r2, [r3, #0]
    84ae:	e000      	b.n	84b2 <generic_KINDERSICHERUNG_CTRL+0x1ce>
    84b0:	bf00      	nop
    84b2:	e0b0      	b.n	8616 <generic_KINDERSICHERUNG_CTRL+0x332>
    84b4:	4b31      	ldr	r3, [pc, #196]	; (857c <generic_KINDERSICHERUNG_CTRL+0x298>)
    84b6:	781b      	ldrb	r3, [r3, #0]
    84b8:	2b00      	cmp	r3, #0
    84ba:	d114      	bne.n	84e6 <generic_KINDERSICHERUNG_CTRL+0x202>
    84bc:	4b2b      	ldr	r3, [pc, #172]	; (856c <generic_KINDERSICHERUNG_CTRL+0x288>)
    84be:	781b      	ldrb	r3, [r3, #0]
    84c0:	2b00      	cmp	r3, #0
    84c2:	d010      	beq.n	84e6 <generic_KINDERSICHERUNG_CTRL+0x202>
    84c4:	4b28      	ldr	r3, [pc, #160]	; (8568 <generic_KINDERSICHERUNG_CTRL+0x284>)
    84c6:	781b      	ldrb	r3, [r3, #0]
    84c8:	2b00      	cmp	r3, #0
    84ca:	d00c      	beq.n	84e6 <generic_KINDERSICHERUNG_CTRL+0x202>
    84cc:	4b20      	ldr	r3, [pc, #128]	; (8550 <generic_KINDERSICHERUNG_CTRL+0x26c>)
    84ce:	2200      	movs	r2, #0
    84d0:	701a      	strb	r2, [r3, #0]
    84d2:	4b20      	ldr	r3, [pc, #128]	; (8554 <generic_KINDERSICHERUNG_CTRL+0x270>)
    84d4:	2201      	movs	r2, #1
    84d6:	701a      	strb	r2, [r3, #0]
    84d8:	4b1f      	ldr	r3, [pc, #124]	; (8558 <generic_KINDERSICHERUNG_CTRL+0x274>)
    84da:	2201      	movs	r2, #1
    84dc:	701a      	strb	r2, [r3, #0]
    84de:	4b19      	ldr	r3, [pc, #100]	; (8544 <generic_KINDERSICHERUNG_CTRL+0x260>)
    84e0:	2202      	movs	r2, #2
    84e2:	701a      	strb	r2, [r3, #0]
    84e4:	e097      	b.n	8616 <generic_KINDERSICHERUNG_CTRL+0x332>
    84e6:	4b25      	ldr	r3, [pc, #148]	; (857c <generic_KINDERSICHERUNG_CTRL+0x298>)
    84e8:	781b      	ldrb	r3, [r3, #0]
    84ea:	2b00      	cmp	r3, #0
    84ec:	d111      	bne.n	8512 <generic_KINDERSICHERUNG_CTRL+0x22e>
    84ee:	4b1f      	ldr	r3, [pc, #124]	; (856c <generic_KINDERSICHERUNG_CTRL+0x288>)
    84f0:	781b      	ldrb	r3, [r3, #0]
    84f2:	2b00      	cmp	r3, #0
    84f4:	d00d      	beq.n	8512 <generic_KINDERSICHERUNG_CTRL+0x22e>
    84f6:	4b1c      	ldr	r3, [pc, #112]	; (8568 <generic_KINDERSICHERUNG_CTRL+0x284>)
    84f8:	781b      	ldrb	r3, [r3, #0]
    84fa:	2b00      	cmp	r3, #0
    84fc:	d109      	bne.n	8512 <generic_KINDERSICHERUNG_CTRL+0x22e>
    84fe:	4b14      	ldr	r3, [pc, #80]	; (8550 <generic_KINDERSICHERUNG_CTRL+0x26c>)
    8500:	2200      	movs	r2, #0
    8502:	701a      	strb	r2, [r3, #0]
    8504:	4b13      	ldr	r3, [pc, #76]	; (8554 <generic_KINDERSICHERUNG_CTRL+0x270>)
    8506:	2201      	movs	r2, #1
    8508:	701a      	strb	r2, [r3, #0]
    850a:	4b0e      	ldr	r3, [pc, #56]	; (8544 <generic_KINDERSICHERUNG_CTRL+0x260>)
    850c:	2202      	movs	r2, #2
    850e:	701a      	strb	r2, [r3, #0]
    8510:	e081      	b.n	8616 <generic_KINDERSICHERUNG_CTRL+0x332>
    8512:	4b1a      	ldr	r3, [pc, #104]	; (857c <generic_KINDERSICHERUNG_CTRL+0x298>)
    8514:	781b      	ldrb	r3, [r3, #0]
    8516:	2b00      	cmp	r3, #0
    8518:	d132      	bne.n	8580 <generic_KINDERSICHERUNG_CTRL+0x29c>
    851a:	4b14      	ldr	r3, [pc, #80]	; (856c <generic_KINDERSICHERUNG_CTRL+0x288>)
    851c:	781b      	ldrb	r3, [r3, #0]
    851e:	2b00      	cmp	r3, #0
    8520:	d12e      	bne.n	8580 <generic_KINDERSICHERUNG_CTRL+0x29c>
    8522:	4b11      	ldr	r3, [pc, #68]	; (8568 <generic_KINDERSICHERUNG_CTRL+0x284>)
    8524:	781b      	ldrb	r3, [r3, #0]
    8526:	2b00      	cmp	r3, #0
    8528:	d02a      	beq.n	8580 <generic_KINDERSICHERUNG_CTRL+0x29c>
    852a:	4b09      	ldr	r3, [pc, #36]	; (8550 <generic_KINDERSICHERUNG_CTRL+0x26c>)
    852c:	2200      	movs	r2, #0
    852e:	701a      	strb	r2, [r3, #0]
    8530:	4b09      	ldr	r3, [pc, #36]	; (8558 <generic_KINDERSICHERUNG_CTRL+0x274>)
    8532:	2201      	movs	r2, #1
    8534:	701a      	strb	r2, [r3, #0]
    8536:	4b03      	ldr	r3, [pc, #12]	; (8544 <generic_KINDERSICHERUNG_CTRL+0x260>)
    8538:	2202      	movs	r2, #2
    853a:	701a      	strb	r2, [r3, #0]
    853c:	e06b      	b.n	8616 <generic_KINDERSICHERUNG_CTRL+0x332>
    853e:	bf00      	nop
    8540:	0001a0f8 	.word	0x0001a0f8
    8544:	0001a1e1 	.word	0x0001a1e1
    8548:	0001a1a1 	.word	0x0001a1a1
    854c:	0001a19d 	.word	0x0001a19d
    8550:	0001a1dc 	.word	0x0001a1dc
    8554:	0001a1ab 	.word	0x0001a1ab
    8558:	0001a1ae 	.word	0x0001a1ae
    855c:	0001a1df 	.word	0x0001a1df
    8560:	0001a1a2 	.word	0x0001a1a2
    8564:	0001a19e 	.word	0x0001a19e
    8568:	0001a1a3 	.word	0x0001a1a3
    856c:	0001a19f 	.word	0x0001a19f
    8570:	0001a1e0 	.word	0x0001a1e0
    8574:	0001a1a4 	.word	0x0001a1a4
    8578:	0001a1a0 	.word	0x0001a1a0
    857c:	0001a1a5 	.word	0x0001a1a5
    8580:	4b27      	ldr	r3, [pc, #156]	; (8620 <generic_KINDERSICHERUNG_CTRL+0x33c>)
    8582:	781b      	ldrb	r3, [r3, #0]
    8584:	2b00      	cmp	r3, #0
    8586:	d111      	bne.n	85ac <generic_KINDERSICHERUNG_CTRL+0x2c8>
    8588:	4b26      	ldr	r3, [pc, #152]	; (8624 <generic_KINDERSICHERUNG_CTRL+0x340>)
    858a:	781b      	ldrb	r3, [r3, #0]
    858c:	2b00      	cmp	r3, #0
    858e:	d00d      	beq.n	85ac <generic_KINDERSICHERUNG_CTRL+0x2c8>
    8590:	4b25      	ldr	r3, [pc, #148]	; (8628 <generic_KINDERSICHERUNG_CTRL+0x344>)
    8592:	781b      	ldrb	r3, [r3, #0]
    8594:	2b00      	cmp	r3, #0
    8596:	d109      	bne.n	85ac <generic_KINDERSICHERUNG_CTRL+0x2c8>
    8598:	4b24      	ldr	r3, [pc, #144]	; (862c <generic_KINDERSICHERUNG_CTRL+0x348>)
    859a:	2200      	movs	r2, #0
    859c:	701a      	strb	r2, [r3, #0]
    859e:	4b24      	ldr	r3, [pc, #144]	; (8630 <generic_KINDERSICHERUNG_CTRL+0x34c>)
    85a0:	2201      	movs	r2, #1
    85a2:	701a      	strb	r2, [r3, #0]
    85a4:	4b23      	ldr	r3, [pc, #140]	; (8634 <generic_KINDERSICHERUNG_CTRL+0x350>)
    85a6:	2201      	movs	r2, #1
    85a8:	701a      	strb	r2, [r3, #0]
    85aa:	e034      	b.n	8616 <generic_KINDERSICHERUNG_CTRL+0x332>
    85ac:	4b1c      	ldr	r3, [pc, #112]	; (8620 <generic_KINDERSICHERUNG_CTRL+0x33c>)
    85ae:	781b      	ldrb	r3, [r3, #0]
    85b0:	2b00      	cmp	r3, #0
    85b2:	d010      	beq.n	85d6 <generic_KINDERSICHERUNG_CTRL+0x2f2>
    85b4:	4b1b      	ldr	r3, [pc, #108]	; (8624 <generic_KINDERSICHERUNG_CTRL+0x340>)
    85b6:	781b      	ldrb	r3, [r3, #0]
    85b8:	2b00      	cmp	r3, #0
    85ba:	d00c      	beq.n	85d6 <generic_KINDERSICHERUNG_CTRL+0x2f2>
    85bc:	4b1b      	ldr	r3, [pc, #108]	; (862c <generic_KINDERSICHERUNG_CTRL+0x348>)
    85be:	2200      	movs	r2, #0
    85c0:	701a      	strb	r2, [r3, #0]
    85c2:	4b1b      	ldr	r3, [pc, #108]	; (8630 <generic_KINDERSICHERUNG_CTRL+0x34c>)
    85c4:	2201      	movs	r2, #1
    85c6:	701a      	strb	r2, [r3, #0]
    85c8:	4b1b      	ldr	r3, [pc, #108]	; (8638 <generic_KINDERSICHERUNG_CTRL+0x354>)
    85ca:	2201      	movs	r2, #1
    85cc:	701a      	strb	r2, [r3, #0]
    85ce:	4b19      	ldr	r3, [pc, #100]	; (8634 <generic_KINDERSICHERUNG_CTRL+0x350>)
    85d0:	2201      	movs	r2, #1
    85d2:	701a      	strb	r2, [r3, #0]
    85d4:	e01f      	b.n	8616 <generic_KINDERSICHERUNG_CTRL+0x332>
    85d6:	4b12      	ldr	r3, [pc, #72]	; (8620 <generic_KINDERSICHERUNG_CTRL+0x33c>)
    85d8:	781b      	ldrb	r3, [r3, #0]
    85da:	2b00      	cmp	r3, #0
    85dc:	d01a      	beq.n	8614 <generic_KINDERSICHERUNG_CTRL+0x330>
    85de:	4b11      	ldr	r3, [pc, #68]	; (8624 <generic_KINDERSICHERUNG_CTRL+0x340>)
    85e0:	781b      	ldrb	r3, [r3, #0]
    85e2:	2b00      	cmp	r3, #0
    85e4:	d116      	bne.n	8614 <generic_KINDERSICHERUNG_CTRL+0x330>
    85e6:	4b10      	ldr	r3, [pc, #64]	; (8628 <generic_KINDERSICHERUNG_CTRL+0x344>)
    85e8:	781b      	ldrb	r3, [r3, #0]
    85ea:	2b00      	cmp	r3, #0
    85ec:	d112      	bne.n	8614 <generic_KINDERSICHERUNG_CTRL+0x330>
    85ee:	4b0f      	ldr	r3, [pc, #60]	; (862c <generic_KINDERSICHERUNG_CTRL+0x348>)
    85f0:	2200      	movs	r2, #0
    85f2:	701a      	strb	r2, [r3, #0]
    85f4:	4b10      	ldr	r3, [pc, #64]	; (8638 <generic_KINDERSICHERUNG_CTRL+0x354>)
    85f6:	2201      	movs	r2, #1
    85f8:	701a      	strb	r2, [r3, #0]
    85fa:	4b0e      	ldr	r3, [pc, #56]	; (8634 <generic_KINDERSICHERUNG_CTRL+0x350>)
    85fc:	2201      	movs	r2, #1
    85fe:	701a      	strb	r2, [r3, #0]
    8600:	e009      	b.n	8616 <generic_KINDERSICHERUNG_CTRL+0x332>
    8602:	4b0a      	ldr	r3, [pc, #40]	; (862c <generic_KINDERSICHERUNG_CTRL+0x348>)
    8604:	2200      	movs	r2, #0
    8606:	701a      	strb	r2, [r3, #0]
    8608:	4b0a      	ldr	r3, [pc, #40]	; (8634 <generic_KINDERSICHERUNG_CTRL+0x350>)
    860a:	2203      	movs	r2, #3
    860c:	701a      	strb	r2, [r3, #0]
    860e:	e002      	b.n	8616 <generic_KINDERSICHERUNG_CTRL+0x332>
    8610:	bf00      	nop
    8612:	e000      	b.n	8616 <generic_KINDERSICHERUNG_CTRL+0x332>
    8614:	bf00      	nop
    8616:	bf00      	nop
    8618:	46bd      	mov	sp, r7
    861a:	bc80      	pop	{r7}
    861c:	4770      	bx	lr
    861e:	bf00      	nop
    8620:	0001a19d 	.word	0x0001a19d
    8624:	0001a1a1 	.word	0x0001a1a1
    8628:	0001a1a5 	.word	0x0001a1a5
    862c:	0001a1dc 	.word	0x0001a1dc
    8630:	0001a1ae 	.word	0x0001a1ae
    8634:	0001a1e1 	.word	0x0001a1e1
    8638:	0001a1ab 	.word	0x0001a1ab

0000863c <generic_FH_TUERMODUL_CTRL>:
    863c:	b480      	push	{r7}
    863e:	af00      	add	r7, sp, #0
    8640:	4b93      	ldr	r3, [pc, #588]	; (8890 <generic_FH_TUERMODUL_CTRL+0x254>)
    8642:	7b5b      	ldrb	r3, [r3, #13]
    8644:	2b00      	cmp	r3, #0
    8646:	d10d      	bne.n	8664 <generic_FH_TUERMODUL_CTRL+0x28>
    8648:	4b91      	ldr	r3, [pc, #580]	; (8890 <generic_FH_TUERMODUL_CTRL+0x254>)
    864a:	7bdb      	ldrb	r3, [r3, #15]
    864c:	2b00      	cmp	r3, #0
    864e:	d009      	beq.n	8664 <generic_FH_TUERMODUL_CTRL+0x28>
    8650:	4b8f      	ldr	r3, [pc, #572]	; (8890 <generic_FH_TUERMODUL_CTRL+0x254>)
    8652:	7b9b      	ldrb	r3, [r3, #14]
    8654:	2b00      	cmp	r3, #0
    8656:	d105      	bne.n	8664 <generic_FH_TUERMODUL_CTRL+0x28>
    8658:	4b8d      	ldr	r3, [pc, #564]	; (8890 <generic_FH_TUERMODUL_CTRL+0x254>)
    865a:	2200      	movs	r2, #0
    865c:	711a      	strb	r2, [r3, #4]
    865e:	4b8c      	ldr	r3, [pc, #560]	; (8890 <generic_FH_TUERMODUL_CTRL+0x254>)
    8660:	2200      	movs	r2, #0
    8662:	719a      	strb	r2, [r3, #6]
    8664:	4b8a      	ldr	r3, [pc, #552]	; (8890 <generic_FH_TUERMODUL_CTRL+0x254>)
    8666:	7b5b      	ldrb	r3, [r3, #13]
    8668:	2b00      	cmp	r3, #0
    866a:	f000 8392 	beq.w	8d92 <generic_FH_TUERMODUL_CTRL+0x756>
    866e:	4b88      	ldr	r3, [pc, #544]	; (8890 <generic_FH_TUERMODUL_CTRL+0x254>)
    8670:	7a9b      	ldrb	r3, [r3, #10]
    8672:	2b00      	cmp	r3, #0
    8674:	d102      	bne.n	867c <generic_FH_TUERMODUL_CTRL+0x40>
    8676:	4b87      	ldr	r3, [pc, #540]	; (8894 <generic_FH_TUERMODUL_CTRL+0x258>)
    8678:	2203      	movs	r2, #3
    867a:	701a      	strb	r2, [r3, #0]
    867c:	4b84      	ldr	r3, [pc, #528]	; (8890 <generic_FH_TUERMODUL_CTRL+0x254>)
    867e:	2200      	movs	r2, #0
    8680:	72da      	strb	r2, [r3, #11]
    8682:	4b83      	ldr	r3, [pc, #524]	; (8890 <generic_FH_TUERMODUL_CTRL+0x254>)
    8684:	7cdb      	ldrb	r3, [r3, #19]
    8686:	2b00      	cmp	r3, #0
    8688:	d105      	bne.n	8696 <generic_FH_TUERMODUL_CTRL+0x5a>
    868a:	4b81      	ldr	r3, [pc, #516]	; (8890 <generic_FH_TUERMODUL_CTRL+0x254>)
    868c:	2200      	movs	r2, #0
    868e:	701a      	strb	r2, [r3, #0]
    8690:	4b81      	ldr	r3, [pc, #516]	; (8898 <generic_FH_TUERMODUL_CTRL+0x25c>)
    8692:	2201      	movs	r2, #1
    8694:	701a      	strb	r2, [r3, #0]
    8696:	4b7e      	ldr	r3, [pc, #504]	; (8890 <generic_FH_TUERMODUL_CTRL+0x254>)
    8698:	2200      	movs	r2, #0
    869a:	751a      	strb	r2, [r3, #20]
    869c:	4b7c      	ldr	r3, [pc, #496]	; (8890 <generic_FH_TUERMODUL_CTRL+0x254>)
    869e:	2201      	movs	r2, #1
    86a0:	72da      	strb	r2, [r3, #11]
    86a2:	4b7b      	ldr	r3, [pc, #492]	; (8890 <generic_FH_TUERMODUL_CTRL+0x254>)
    86a4:	2201      	movs	r2, #1
    86a6:	751a      	strb	r2, [r3, #20]
    86a8:	4b7c      	ldr	r3, [pc, #496]	; (889c <generic_FH_TUERMODUL_CTRL+0x260>)
    86aa:	781b      	ldrb	r3, [r3, #0]
    86ac:	2b03      	cmp	r3, #3
    86ae:	f000 8089 	beq.w	87c4 <generic_FH_TUERMODUL_CTRL+0x188>
    86b2:	2b03      	cmp	r3, #3
    86b4:	f300 82e6 	bgt.w	8c84 <generic_FH_TUERMODUL_CTRL+0x648>
    86b8:	2b01      	cmp	r3, #1
    86ba:	d002      	beq.n	86c2 <generic_FH_TUERMODUL_CTRL+0x86>
    86bc:	2b02      	cmp	r3, #2
    86be:	d014      	beq.n	86ea <generic_FH_TUERMODUL_CTRL+0xae>
    86c0:	e2e0      	b.n	8c84 <generic_FH_TUERMODUL_CTRL+0x648>
    86c2:	4b77      	ldr	r3, [pc, #476]	; (88a0 <generic_FH_TUERMODUL_CTRL+0x264>)
    86c4:	681b      	ldr	r3, [r3, #0]
    86c6:	2b3b      	cmp	r3, #59	; 0x3b
    86c8:	f040 82e3 	bne.w	8c92 <generic_FH_TUERMODUL_CTRL+0x656>
    86cc:	4b75      	ldr	r3, [pc, #468]	; (88a4 <generic_FH_TUERMODUL_CTRL+0x268>)
    86ce:	681b      	ldr	r3, [r3, #0]
    86d0:	2b3b      	cmp	r3, #59	; 0x3b
    86d2:	f000 82de 	beq.w	8c92 <generic_FH_TUERMODUL_CTRL+0x656>
    86d6:	4b74      	ldr	r3, [pc, #464]	; (88a8 <generic_FH_TUERMODUL_CTRL+0x26c>)
    86d8:	2200      	movs	r2, #0
    86da:	701a      	strb	r2, [r3, #0]
    86dc:	4b6f      	ldr	r3, [pc, #444]	; (889c <generic_FH_TUERMODUL_CTRL+0x260>)
    86de:	2203      	movs	r2, #3
    86e0:	701a      	strb	r2, [r3, #0]
    86e2:	4b72      	ldr	r3, [pc, #456]	; (88ac <generic_FH_TUERMODUL_CTRL+0x270>)
    86e4:	2203      	movs	r2, #3
    86e6:	701a      	strb	r2, [r3, #0]
    86e8:	e2d4      	b.n	8c94 <generic_FH_TUERMODUL_CTRL+0x658>
    86ea:	4b71      	ldr	r3, [pc, #452]	; (88b0 <generic_FH_TUERMODUL_CTRL+0x274>)
    86ec:	781b      	ldrb	r3, [r3, #0]
    86ee:	2b00      	cmp	r3, #0
    86f0:	d018      	beq.n	8724 <generic_FH_TUERMODUL_CTRL+0xe8>
    86f2:	4b70      	ldr	r3, [pc, #448]	; (88b4 <generic_FH_TUERMODUL_CTRL+0x278>)
    86f4:	781b      	ldrb	r3, [r3, #0]
    86f6:	2b00      	cmp	r3, #0
    86f8:	d114      	bne.n	8724 <generic_FH_TUERMODUL_CTRL+0xe8>
    86fa:	4b6f      	ldr	r3, [pc, #444]	; (88b8 <generic_FH_TUERMODUL_CTRL+0x27c>)
    86fc:	781b      	ldrb	r3, [r3, #0]
    86fe:	2b00      	cmp	r3, #0
    8700:	d010      	beq.n	8724 <generic_FH_TUERMODUL_CTRL+0xe8>
    8702:	4b69      	ldr	r3, [pc, #420]	; (88a8 <generic_FH_TUERMODUL_CTRL+0x26c>)
    8704:	2200      	movs	r2, #0
    8706:	701a      	strb	r2, [r3, #0]
    8708:	4b6c      	ldr	r3, [pc, #432]	; (88bc <generic_FH_TUERMODUL_CTRL+0x280>)
    870a:	2200      	movs	r2, #0
    870c:	701a      	strb	r2, [r3, #0]
    870e:	4b6c      	ldr	r3, [pc, #432]	; (88c0 <generic_FH_TUERMODUL_CTRL+0x284>)
    8710:	681b      	ldr	r3, [r3, #0]
    8712:	4a6c      	ldr	r2, [pc, #432]	; (88c4 <generic_FH_TUERMODUL_CTRL+0x288>)
    8714:	6013      	str	r3, [r2, #0]
    8716:	4b61      	ldr	r3, [pc, #388]	; (889c <generic_FH_TUERMODUL_CTRL+0x260>)
    8718:	2203      	movs	r2, #3
    871a:	701a      	strb	r2, [r3, #0]
    871c:	4b63      	ldr	r3, [pc, #396]	; (88ac <generic_FH_TUERMODUL_CTRL+0x270>)
    871e:	2203      	movs	r2, #3
    8720:	701a      	strb	r2, [r3, #0]
    8722:	e2b7      	b.n	8c94 <generic_FH_TUERMODUL_CTRL+0x658>
    8724:	4b68      	ldr	r3, [pc, #416]	; (88c8 <generic_FH_TUERMODUL_CTRL+0x28c>)
    8726:	781b      	ldrb	r3, [r3, #0]
    8728:	2b03      	cmp	r3, #3
    872a:	d022      	beq.n	8772 <generic_FH_TUERMODUL_CTRL+0x136>
    872c:	2b03      	cmp	r3, #3
    872e:	dc3c      	bgt.n	87aa <generic_FH_TUERMODUL_CTRL+0x16e>
    8730:	2b01      	cmp	r3, #1
    8732:	d002      	beq.n	873a <generic_FH_TUERMODUL_CTRL+0xfe>
    8734:	2b02      	cmp	r3, #2
    8736:	d00e      	beq.n	8756 <generic_FH_TUERMODUL_CTRL+0x11a>
    8738:	e037      	b.n	87aa <generic_FH_TUERMODUL_CTRL+0x16e>
    873a:	4b64      	ldr	r3, [pc, #400]	; (88cc <generic_FH_TUERMODUL_CTRL+0x290>)
    873c:	781b      	ldrb	r3, [r3, #0]
    873e:	2b00      	cmp	r3, #0
    8740:	d13a      	bne.n	87b8 <generic_FH_TUERMODUL_CTRL+0x17c>
    8742:	4b59      	ldr	r3, [pc, #356]	; (88a8 <generic_FH_TUERMODUL_CTRL+0x26c>)
    8744:	2200      	movs	r2, #0
    8746:	701a      	strb	r2, [r3, #0]
    8748:	4b5c      	ldr	r3, [pc, #368]	; (88bc <generic_FH_TUERMODUL_CTRL+0x280>)
    874a:	2200      	movs	r2, #0
    874c:	701a      	strb	r2, [r3, #0]
    874e:	4b5e      	ldr	r3, [pc, #376]	; (88c8 <generic_FH_TUERMODUL_CTRL+0x28c>)
    8750:	2203      	movs	r2, #3
    8752:	701a      	strb	r2, [r3, #0]
    8754:	e035      	b.n	87c2 <generic_FH_TUERMODUL_CTRL+0x186>
    8756:	4b5e      	ldr	r3, [pc, #376]	; (88d0 <generic_FH_TUERMODUL_CTRL+0x294>)
    8758:	781b      	ldrb	r3, [r3, #0]
    875a:	2b00      	cmp	r3, #0
    875c:	d12e      	bne.n	87bc <generic_FH_TUERMODUL_CTRL+0x180>
    875e:	4b52      	ldr	r3, [pc, #328]	; (88a8 <generic_FH_TUERMODUL_CTRL+0x26c>)
    8760:	2200      	movs	r2, #0
    8762:	701a      	strb	r2, [r3, #0]
    8764:	4b5b      	ldr	r3, [pc, #364]	; (88d4 <generic_FH_TUERMODUL_CTRL+0x298>)
    8766:	2200      	movs	r2, #0
    8768:	701a      	strb	r2, [r3, #0]
    876a:	4b57      	ldr	r3, [pc, #348]	; (88c8 <generic_FH_TUERMODUL_CTRL+0x28c>)
    876c:	2203      	movs	r2, #3
    876e:	701a      	strb	r2, [r3, #0]
    8770:	e027      	b.n	87c2 <generic_FH_TUERMODUL_CTRL+0x186>
    8772:	4b57      	ldr	r3, [pc, #348]	; (88d0 <generic_FH_TUERMODUL_CTRL+0x294>)
    8774:	781b      	ldrb	r3, [r3, #0]
    8776:	2b00      	cmp	r3, #0
    8778:	d009      	beq.n	878e <generic_FH_TUERMODUL_CTRL+0x152>
    877a:	4b4b      	ldr	r3, [pc, #300]	; (88a8 <generic_FH_TUERMODUL_CTRL+0x26c>)
    877c:	2200      	movs	r2, #0
    877e:	701a      	strb	r2, [r3, #0]
    8780:	4b54      	ldr	r3, [pc, #336]	; (88d4 <generic_FH_TUERMODUL_CTRL+0x298>)
    8782:	2201      	movs	r2, #1
    8784:	701a      	strb	r2, [r3, #0]
    8786:	4b50      	ldr	r3, [pc, #320]	; (88c8 <generic_FH_TUERMODUL_CTRL+0x28c>)
    8788:	2202      	movs	r2, #2
    878a:	701a      	strb	r2, [r3, #0]
    878c:	e019      	b.n	87c2 <generic_FH_TUERMODUL_CTRL+0x186>
    878e:	4b4f      	ldr	r3, [pc, #316]	; (88cc <generic_FH_TUERMODUL_CTRL+0x290>)
    8790:	781b      	ldrb	r3, [r3, #0]
    8792:	2b00      	cmp	r3, #0
    8794:	d014      	beq.n	87c0 <generic_FH_TUERMODUL_CTRL+0x184>
    8796:	4b44      	ldr	r3, [pc, #272]	; (88a8 <generic_FH_TUERMODUL_CTRL+0x26c>)
    8798:	2200      	movs	r2, #0
    879a:	701a      	strb	r2, [r3, #0]
    879c:	4b47      	ldr	r3, [pc, #284]	; (88bc <generic_FH_TUERMODUL_CTRL+0x280>)
    879e:	2201      	movs	r2, #1
    87a0:	701a      	strb	r2, [r3, #0]
    87a2:	4b49      	ldr	r3, [pc, #292]	; (88c8 <generic_FH_TUERMODUL_CTRL+0x28c>)
    87a4:	2201      	movs	r2, #1
    87a6:	701a      	strb	r2, [r3, #0]
    87a8:	e00b      	b.n	87c2 <generic_FH_TUERMODUL_CTRL+0x186>
    87aa:	4b3f      	ldr	r3, [pc, #252]	; (88a8 <generic_FH_TUERMODUL_CTRL+0x26c>)
    87ac:	2200      	movs	r2, #0
    87ae:	701a      	strb	r2, [r3, #0]
    87b0:	4b45      	ldr	r3, [pc, #276]	; (88c8 <generic_FH_TUERMODUL_CTRL+0x28c>)
    87b2:	2203      	movs	r2, #3
    87b4:	701a      	strb	r2, [r3, #0]
    87b6:	e004      	b.n	87c2 <generic_FH_TUERMODUL_CTRL+0x186>
    87b8:	bf00      	nop
    87ba:	e26b      	b.n	8c94 <generic_FH_TUERMODUL_CTRL+0x658>
    87bc:	bf00      	nop
    87be:	e269      	b.n	8c94 <generic_FH_TUERMODUL_CTRL+0x658>
    87c0:	bf00      	nop
    87c2:	e267      	b.n	8c94 <generic_FH_TUERMODUL_CTRL+0x658>
    87c4:	4b36      	ldr	r3, [pc, #216]	; (88a0 <generic_FH_TUERMODUL_CTRL+0x264>)
    87c6:	681b      	ldr	r3, [r3, #0]
    87c8:	2b3c      	cmp	r3, #60	; 0x3c
    87ca:	dd18      	ble.n	87fe <generic_FH_TUERMODUL_CTRL+0x1c2>
    87cc:	4b35      	ldr	r3, [pc, #212]	; (88a4 <generic_FH_TUERMODUL_CTRL+0x268>)
    87ce:	681b      	ldr	r3, [r3, #0]
    87d0:	2b3c      	cmp	r3, #60	; 0x3c
    87d2:	dc14      	bgt.n	87fe <generic_FH_TUERMODUL_CTRL+0x1c2>
    87d4:	4b40      	ldr	r3, [pc, #256]	; (88d8 <generic_FH_TUERMODUL_CTRL+0x29c>)
    87d6:	781b      	ldrb	r3, [r3, #0]
    87d8:	2b00      	cmp	r3, #0
    87da:	d110      	bne.n	87fe <generic_FH_TUERMODUL_CTRL+0x1c2>
    87dc:	4b3f      	ldr	r3, [pc, #252]	; (88dc <generic_FH_TUERMODUL_CTRL+0x2a0>)
    87de:	781b      	ldrb	r3, [r3, #0]
    87e0:	2b00      	cmp	r3, #0
    87e2:	d10c      	bne.n	87fe <generic_FH_TUERMODUL_CTRL+0x1c2>
    87e4:	4b30      	ldr	r3, [pc, #192]	; (88a8 <generic_FH_TUERMODUL_CTRL+0x26c>)
    87e6:	2200      	movs	r2, #0
    87e8:	701a      	strb	r2, [r3, #0]
    87ea:	4b34      	ldr	r3, [pc, #208]	; (88bc <generic_FH_TUERMODUL_CTRL+0x280>)
    87ec:	2200      	movs	r2, #0
    87ee:	701a      	strb	r2, [r3, #0]
    87f0:	4b38      	ldr	r3, [pc, #224]	; (88d4 <generic_FH_TUERMODUL_CTRL+0x298>)
    87f2:	2200      	movs	r2, #0
    87f4:	701a      	strb	r2, [r3, #0]
    87f6:	4b29      	ldr	r3, [pc, #164]	; (889c <generic_FH_TUERMODUL_CTRL+0x260>)
    87f8:	2201      	movs	r2, #1
    87fa:	701a      	strb	r2, [r3, #0]
    87fc:	e24a      	b.n	8c94 <generic_FH_TUERMODUL_CTRL+0x658>
    87fe:	4b2c      	ldr	r3, [pc, #176]	; (88b0 <generic_FH_TUERMODUL_CTRL+0x274>)
    8800:	781b      	ldrb	r3, [r3, #0]
    8802:	2b00      	cmp	r3, #0
    8804:	d018      	beq.n	8838 <generic_FH_TUERMODUL_CTRL+0x1fc>
    8806:	4b2b      	ldr	r3, [pc, #172]	; (88b4 <generic_FH_TUERMODUL_CTRL+0x278>)
    8808:	781b      	ldrb	r3, [r3, #0]
    880a:	2b00      	cmp	r3, #0
    880c:	d114      	bne.n	8838 <generic_FH_TUERMODUL_CTRL+0x1fc>
    880e:	4b34      	ldr	r3, [pc, #208]	; (88e0 <generic_FH_TUERMODUL_CTRL+0x2a4>)
    8810:	781b      	ldrb	r3, [r3, #0]
    8812:	2b00      	cmp	r3, #0
    8814:	d010      	beq.n	8838 <generic_FH_TUERMODUL_CTRL+0x1fc>
    8816:	4b24      	ldr	r3, [pc, #144]	; (88a8 <generic_FH_TUERMODUL_CTRL+0x26c>)
    8818:	2200      	movs	r2, #0
    881a:	701a      	strb	r2, [r3, #0]
    881c:	4b2d      	ldr	r3, [pc, #180]	; (88d4 <generic_FH_TUERMODUL_CTRL+0x298>)
    881e:	2200      	movs	r2, #0
    8820:	701a      	strb	r2, [r3, #0]
    8822:	4b27      	ldr	r3, [pc, #156]	; (88c0 <generic_FH_TUERMODUL_CTRL+0x284>)
    8824:	681b      	ldr	r3, [r3, #0]
    8826:	4a2f      	ldr	r2, [pc, #188]	; (88e4 <generic_FH_TUERMODUL_CTRL+0x2a8>)
    8828:	6013      	str	r3, [r2, #0]
    882a:	4b1c      	ldr	r3, [pc, #112]	; (889c <generic_FH_TUERMODUL_CTRL+0x260>)
    882c:	2202      	movs	r2, #2
    882e:	701a      	strb	r2, [r3, #0]
    8830:	4b25      	ldr	r3, [pc, #148]	; (88c8 <generic_FH_TUERMODUL_CTRL+0x28c>)
    8832:	2203      	movs	r2, #3
    8834:	701a      	strb	r2, [r3, #0]
    8836:	e22d      	b.n	8c94 <generic_FH_TUERMODUL_CTRL+0x658>
    8838:	4b1d      	ldr	r3, [pc, #116]	; (88b0 <generic_FH_TUERMODUL_CTRL+0x274>)
    883a:	781b      	ldrb	r3, [r3, #0]
    883c:	2b00      	cmp	r3, #0
    883e:	d018      	beq.n	8872 <generic_FH_TUERMODUL_CTRL+0x236>
    8840:	4b1c      	ldr	r3, [pc, #112]	; (88b4 <generic_FH_TUERMODUL_CTRL+0x278>)
    8842:	781b      	ldrb	r3, [r3, #0]
    8844:	2b00      	cmp	r3, #0
    8846:	d114      	bne.n	8872 <generic_FH_TUERMODUL_CTRL+0x236>
    8848:	4b1b      	ldr	r3, [pc, #108]	; (88b8 <generic_FH_TUERMODUL_CTRL+0x27c>)
    884a:	781b      	ldrb	r3, [r3, #0]
    884c:	2b00      	cmp	r3, #0
    884e:	d010      	beq.n	8872 <generic_FH_TUERMODUL_CTRL+0x236>
    8850:	4b15      	ldr	r3, [pc, #84]	; (88a8 <generic_FH_TUERMODUL_CTRL+0x26c>)
    8852:	2200      	movs	r2, #0
    8854:	701a      	strb	r2, [r3, #0]
    8856:	4b19      	ldr	r3, [pc, #100]	; (88bc <generic_FH_TUERMODUL_CTRL+0x280>)
    8858:	2200      	movs	r2, #0
    885a:	701a      	strb	r2, [r3, #0]
    885c:	4b18      	ldr	r3, [pc, #96]	; (88c0 <generic_FH_TUERMODUL_CTRL+0x284>)
    885e:	681b      	ldr	r3, [r3, #0]
    8860:	4a21      	ldr	r2, [pc, #132]	; (88e8 <generic_FH_TUERMODUL_CTRL+0x2ac>)
    8862:	6013      	str	r3, [r2, #0]
    8864:	4b0d      	ldr	r3, [pc, #52]	; (889c <generic_FH_TUERMODUL_CTRL+0x260>)
    8866:	2202      	movs	r2, #2
    8868:	701a      	strb	r2, [r3, #0]
    886a:	4b17      	ldr	r3, [pc, #92]	; (88c8 <generic_FH_TUERMODUL_CTRL+0x28c>)
    886c:	2203      	movs	r2, #3
    886e:	701a      	strb	r2, [r3, #0]
    8870:	e210      	b.n	8c94 <generic_FH_TUERMODUL_CTRL+0x658>
    8872:	4b0e      	ldr	r3, [pc, #56]	; (88ac <generic_FH_TUERMODUL_CTRL+0x270>)
    8874:	781b      	ldrb	r3, [r3, #0]
    8876:	2b03      	cmp	r3, #3
    8878:	f000 81c2 	beq.w	8c00 <generic_FH_TUERMODUL_CTRL+0x5c4>
    887c:	2b03      	cmp	r3, #3
    887e:	f300 81f8 	bgt.w	8c72 <generic_FH_TUERMODUL_CTRL+0x636>
    8882:	2b01      	cmp	r3, #1
    8884:	d032      	beq.n	88ec <generic_FH_TUERMODUL_CTRL+0x2b0>
    8886:	2b02      	cmp	r3, #2
    8888:	f000 8092 	beq.w	89b0 <generic_FH_TUERMODUL_CTRL+0x374>
    888c:	e1f1      	b.n	8c72 <generic_FH_TUERMODUL_CTRL+0x636>
    888e:	bf00      	nop
    8890:	0001a0f8 	.word	0x0001a0f8
    8894:	0001a1e1 	.word	0x0001a1e1
    8898:	0001a1ed 	.word	0x0001a1ed
    889c:	0001a1e2 	.word	0x0001a1e2
    88a0:	0001a150 	.word	0x0001a150
    88a4:	0001a158 	.word	0x0001a158
    88a8:	0001a1dc 	.word	0x0001a1dc
    88ac:	0001a1e5 	.word	0x0001a1e5
    88b0:	0001a1a6 	.word	0x0001a1a6
    88b4:	0001a1a8 	.word	0x0001a1a8
    88b8:	0001a1b0 	.word	0x0001a1b0
    88bc:	0001a1b1 	.word	0x0001a1b1
    88c0:	0001a1d8 	.word	0x0001a1d8
    88c4:	0001a14c 	.word	0x0001a14c
    88c8:	0001a1de 	.word	0x0001a1de
    88cc:	0001a1aa 	.word	0x0001a1aa
    88d0:	0001a1ad 	.word	0x0001a1ad
    88d4:	0001a1b4 	.word	0x0001a1b4
    88d8:	0001a19a 	.word	0x0001a19a
    88dc:	0001a198 	.word	0x0001a198
    88e0:	0001a1b3 	.word	0x0001a1b3
    88e4:	0001a144 	.word	0x0001a144
    88e8:	0001a148 	.word	0x0001a148
    88ec:	4b97      	ldr	r3, [pc, #604]	; (8b4c <generic_FH_TUERMODUL_CTRL+0x510>)
    88ee:	681b      	ldr	r3, [r3, #0]
    88f0:	f5b3 7fca 	cmp.w	r3, #404	; 0x194
    88f4:	dd09      	ble.n	890a <generic_FH_TUERMODUL_CTRL+0x2ce>
    88f6:	4b96      	ldr	r3, [pc, #600]	; (8b50 <generic_FH_TUERMODUL_CTRL+0x514>)
    88f8:	2200      	movs	r2, #0
    88fa:	701a      	strb	r2, [r3, #0]
    88fc:	4b95      	ldr	r3, [pc, #596]	; (8b54 <generic_FH_TUERMODUL_CTRL+0x518>)
    88fe:	2200      	movs	r2, #0
    8900:	701a      	strb	r2, [r3, #0]
    8902:	4b95      	ldr	r3, [pc, #596]	; (8b58 <generic_FH_TUERMODUL_CTRL+0x51c>)
    8904:	2203      	movs	r2, #3
    8906:	701a      	strb	r2, [r3, #0]
    8908:	e1bb      	b.n	8c82 <generic_FH_TUERMODUL_CTRL+0x646>
    890a:	4b94      	ldr	r3, [pc, #592]	; (8b5c <generic_FH_TUERMODUL_CTRL+0x520>)
    890c:	781b      	ldrb	r3, [r3, #0]
    890e:	2b01      	cmp	r3, #1
    8910:	d002      	beq.n	8918 <generic_FH_TUERMODUL_CTRL+0x2dc>
    8912:	2b02      	cmp	r3, #2
    8914:	d01d      	beq.n	8952 <generic_FH_TUERMODUL_CTRL+0x316>
    8916:	e040      	b.n	899a <generic_FH_TUERMODUL_CTRL+0x35e>
    8918:	4b91      	ldr	r3, [pc, #580]	; (8b60 <generic_FH_TUERMODUL_CTRL+0x524>)
    891a:	781b      	ldrb	r3, [r3, #0]
    891c:	2b00      	cmp	r3, #0
    891e:	d003      	beq.n	8928 <generic_FH_TUERMODUL_CTRL+0x2ec>
    8920:	4b90      	ldr	r3, [pc, #576]	; (8b64 <generic_FH_TUERMODUL_CTRL+0x528>)
    8922:	781b      	ldrb	r3, [r3, #0]
    8924:	2b00      	cmp	r3, #0
    8926:	d007      	beq.n	8938 <generic_FH_TUERMODUL_CTRL+0x2fc>
    8928:	4b8f      	ldr	r3, [pc, #572]	; (8b68 <generic_FH_TUERMODUL_CTRL+0x52c>)
    892a:	781b      	ldrb	r3, [r3, #0]
    892c:	2b00      	cmp	r3, #0
    892e:	d03b      	beq.n	89a8 <generic_FH_TUERMODUL_CTRL+0x36c>
    8930:	4b8e      	ldr	r3, [pc, #568]	; (8b6c <generic_FH_TUERMODUL_CTRL+0x530>)
    8932:	781b      	ldrb	r3, [r3, #0]
    8934:	2b00      	cmp	r3, #0
    8936:	d137      	bne.n	89a8 <generic_FH_TUERMODUL_CTRL+0x36c>
    8938:	4b85      	ldr	r3, [pc, #532]	; (8b50 <generic_FH_TUERMODUL_CTRL+0x514>)
    893a:	2200      	movs	r2, #0
    893c:	701a      	strb	r2, [r3, #0]
    893e:	4b85      	ldr	r3, [pc, #532]	; (8b54 <generic_FH_TUERMODUL_CTRL+0x518>)
    8940:	2200      	movs	r2, #0
    8942:	701a      	strb	r2, [r3, #0]
    8944:	4b84      	ldr	r3, [pc, #528]	; (8b58 <generic_FH_TUERMODUL_CTRL+0x51c>)
    8946:	2203      	movs	r2, #3
    8948:	701a      	strb	r2, [r3, #0]
    894a:	4b84      	ldr	r3, [pc, #528]	; (8b5c <generic_FH_TUERMODUL_CTRL+0x520>)
    894c:	2200      	movs	r2, #0
    894e:	701a      	strb	r2, [r3, #0]
    8950:	e02d      	b.n	89ae <generic_FH_TUERMODUL_CTRL+0x372>
    8952:	4b83      	ldr	r3, [pc, #524]	; (8b60 <generic_FH_TUERMODUL_CTRL+0x524>)
    8954:	781b      	ldrb	r3, [r3, #0]
    8956:	2b00      	cmp	r3, #0
    8958:	d00a      	beq.n	8970 <generic_FH_TUERMODUL_CTRL+0x334>
    895a:	4b82      	ldr	r3, [pc, #520]	; (8b64 <generic_FH_TUERMODUL_CTRL+0x528>)
    895c:	781b      	ldrb	r3, [r3, #0]
    895e:	2b00      	cmp	r3, #0
    8960:	d106      	bne.n	8970 <generic_FH_TUERMODUL_CTRL+0x334>
    8962:	4b7b      	ldr	r3, [pc, #492]	; (8b50 <generic_FH_TUERMODUL_CTRL+0x514>)
    8964:	2200      	movs	r2, #0
    8966:	701a      	strb	r2, [r3, #0]
    8968:	4b7c      	ldr	r3, [pc, #496]	; (8b5c <generic_FH_TUERMODUL_CTRL+0x520>)
    896a:	2201      	movs	r2, #1
    896c:	701a      	strb	r2, [r3, #0]
    896e:	e01e      	b.n	89ae <generic_FH_TUERMODUL_CTRL+0x372>
    8970:	4b7d      	ldr	r3, [pc, #500]	; (8b68 <generic_FH_TUERMODUL_CTRL+0x52c>)
    8972:	781b      	ldrb	r3, [r3, #0]
    8974:	2b00      	cmp	r3, #0
    8976:	d119      	bne.n	89ac <generic_FH_TUERMODUL_CTRL+0x370>
    8978:	4b7c      	ldr	r3, [pc, #496]	; (8b6c <generic_FH_TUERMODUL_CTRL+0x530>)
    897a:	781b      	ldrb	r3, [r3, #0]
    897c:	2b00      	cmp	r3, #0
    897e:	d015      	beq.n	89ac <generic_FH_TUERMODUL_CTRL+0x370>
    8980:	4b73      	ldr	r3, [pc, #460]	; (8b50 <generic_FH_TUERMODUL_CTRL+0x514>)
    8982:	2200      	movs	r2, #0
    8984:	701a      	strb	r2, [r3, #0]
    8986:	4b73      	ldr	r3, [pc, #460]	; (8b54 <generic_FH_TUERMODUL_CTRL+0x518>)
    8988:	2200      	movs	r2, #0
    898a:	701a      	strb	r2, [r3, #0]
    898c:	4b72      	ldr	r3, [pc, #456]	; (8b58 <generic_FH_TUERMODUL_CTRL+0x51c>)
    898e:	2203      	movs	r2, #3
    8990:	701a      	strb	r2, [r3, #0]
    8992:	4b72      	ldr	r3, [pc, #456]	; (8b5c <generic_FH_TUERMODUL_CTRL+0x520>)
    8994:	2200      	movs	r2, #0
    8996:	701a      	strb	r2, [r3, #0]
    8998:	e009      	b.n	89ae <generic_FH_TUERMODUL_CTRL+0x372>
    899a:	4b6d      	ldr	r3, [pc, #436]	; (8b50 <generic_FH_TUERMODUL_CTRL+0x514>)
    899c:	2200      	movs	r2, #0
    899e:	701a      	strb	r2, [r3, #0]
    89a0:	4b6e      	ldr	r3, [pc, #440]	; (8b5c <generic_FH_TUERMODUL_CTRL+0x520>)
    89a2:	2202      	movs	r2, #2
    89a4:	701a      	strb	r2, [r3, #0]
    89a6:	e002      	b.n	89ae <generic_FH_TUERMODUL_CTRL+0x372>
    89a8:	bf00      	nop
    89aa:	e16a      	b.n	8c82 <generic_FH_TUERMODUL_CTRL+0x646>
    89ac:	bf00      	nop
    89ae:	e168      	b.n	8c82 <generic_FH_TUERMODUL_CTRL+0x646>
    89b0:	4b66      	ldr	r3, [pc, #408]	; (8b4c <generic_FH_TUERMODUL_CTRL+0x510>)
    89b2:	681b      	ldr	r3, [r3, #0]
    89b4:	2b00      	cmp	r3, #0
    89b6:	dc09      	bgt.n	89cc <generic_FH_TUERMODUL_CTRL+0x390>
    89b8:	4b65      	ldr	r3, [pc, #404]	; (8b50 <generic_FH_TUERMODUL_CTRL+0x514>)
    89ba:	2200      	movs	r2, #0
    89bc:	701a      	strb	r2, [r3, #0]
    89be:	4b6c      	ldr	r3, [pc, #432]	; (8b70 <generic_FH_TUERMODUL_CTRL+0x534>)
    89c0:	2200      	movs	r2, #0
    89c2:	701a      	strb	r2, [r3, #0]
    89c4:	4b64      	ldr	r3, [pc, #400]	; (8b58 <generic_FH_TUERMODUL_CTRL+0x51c>)
    89c6:	2203      	movs	r2, #3
    89c8:	701a      	strb	r2, [r3, #0]
    89ca:	e15a      	b.n	8c82 <generic_FH_TUERMODUL_CTRL+0x646>
    89cc:	4b69      	ldr	r3, [pc, #420]	; (8b74 <generic_FH_TUERMODUL_CTRL+0x538>)
    89ce:	781b      	ldrb	r3, [r3, #0]
    89d0:	2b01      	cmp	r3, #1
    89d2:	d002      	beq.n	89da <generic_FH_TUERMODUL_CTRL+0x39e>
    89d4:	2b02      	cmp	r3, #2
    89d6:	d067      	beq.n	8aa8 <generic_FH_TUERMODUL_CTRL+0x46c>
    89d8:	e101      	b.n	8bde <generic_FH_TUERMODUL_CTRL+0x5a2>
    89da:	4b63      	ldr	r3, [pc, #396]	; (8b68 <generic_FH_TUERMODUL_CTRL+0x52c>)
    89dc:	781b      	ldrb	r3, [r3, #0]
    89de:	2b00      	cmp	r3, #0
    89e0:	d003      	beq.n	89ea <generic_FH_TUERMODUL_CTRL+0x3ae>
    89e2:	4b62      	ldr	r3, [pc, #392]	; (8b6c <generic_FH_TUERMODUL_CTRL+0x530>)
    89e4:	781b      	ldrb	r3, [r3, #0]
    89e6:	2b00      	cmp	r3, #0
    89e8:	d007      	beq.n	89fa <generic_FH_TUERMODUL_CTRL+0x3be>
    89ea:	4b5d      	ldr	r3, [pc, #372]	; (8b60 <generic_FH_TUERMODUL_CTRL+0x524>)
    89ec:	781b      	ldrb	r3, [r3, #0]
    89ee:	2b00      	cmp	r3, #0
    89f0:	d00d      	beq.n	8a0e <generic_FH_TUERMODUL_CTRL+0x3d2>
    89f2:	4b5c      	ldr	r3, [pc, #368]	; (8b64 <generic_FH_TUERMODUL_CTRL+0x528>)
    89f4:	781b      	ldrb	r3, [r3, #0]
    89f6:	2b00      	cmp	r3, #0
    89f8:	d109      	bne.n	8a0e <generic_FH_TUERMODUL_CTRL+0x3d2>
    89fa:	4b55      	ldr	r3, [pc, #340]	; (8b50 <generic_FH_TUERMODUL_CTRL+0x514>)
    89fc:	2200      	movs	r2, #0
    89fe:	701a      	strb	r2, [r3, #0]
    8a00:	4b5b      	ldr	r3, [pc, #364]	; (8b70 <generic_FH_TUERMODUL_CTRL+0x534>)
    8a02:	2200      	movs	r2, #0
    8a04:	701a      	strb	r2, [r3, #0]
    8a06:	4b54      	ldr	r3, [pc, #336]	; (8b58 <generic_FH_TUERMODUL_CTRL+0x51c>)
    8a08:	2203      	movs	r2, #3
    8a0a:	701a      	strb	r2, [r3, #0]
    8a0c:	e0f7      	b.n	8bfe <generic_FH_TUERMODUL_CTRL+0x5c2>
    8a0e:	4b5a      	ldr	r3, [pc, #360]	; (8b78 <generic_FH_TUERMODUL_CTRL+0x53c>)
    8a10:	781b      	ldrb	r3, [r3, #0]
    8a12:	2b01      	cmp	r3, #1
    8a14:	d002      	beq.n	8a1c <generic_FH_TUERMODUL_CTRL+0x3e0>
    8a16:	2b02      	cmp	r3, #2
    8a18:	d01a      	beq.n	8a50 <generic_FH_TUERMODUL_CTRL+0x414>
    8a1a:	e037      	b.n	8a8c <generic_FH_TUERMODUL_CTRL+0x450>
    8a1c:	4b57      	ldr	r3, [pc, #348]	; (8b7c <generic_FH_TUERMODUL_CTRL+0x540>)
    8a1e:	2200      	movs	r2, #0
    8a20:	75da      	strb	r2, [r3, #23]
    8a22:	4b56      	ldr	r3, [pc, #344]	; (8b7c <generic_FH_TUERMODUL_CTRL+0x540>)
    8a24:	7d9b      	ldrb	r3, [r3, #22]
    8a26:	2b00      	cmp	r3, #0
    8a28:	d03a      	beq.n	8aa0 <generic_FH_TUERMODUL_CTRL+0x464>
    8a2a:	4b49      	ldr	r3, [pc, #292]	; (8b50 <generic_FH_TUERMODUL_CTRL+0x514>)
    8a2c:	2200      	movs	r2, #0
    8a2e:	701a      	strb	r2, [r3, #0]
    8a30:	4b4f      	ldr	r3, [pc, #316]	; (8b70 <generic_FH_TUERMODUL_CTRL+0x534>)
    8a32:	2201      	movs	r2, #1
    8a34:	701a      	strb	r2, [r3, #0]
    8a36:	4b52      	ldr	r3, [pc, #328]	; (8b80 <generic_FH_TUERMODUL_CTRL+0x544>)
    8a38:	2200      	movs	r2, #0
    8a3a:	701a      	strb	r2, [r3, #0]
    8a3c:	4b4e      	ldr	r3, [pc, #312]	; (8b78 <generic_FH_TUERMODUL_CTRL+0x53c>)
    8a3e:	2202      	movs	r2, #2
    8a40:	701a      	strb	r2, [r3, #0]
    8a42:	4b44      	ldr	r3, [pc, #272]	; (8b54 <generic_FH_TUERMODUL_CTRL+0x518>)
    8a44:	2200      	movs	r2, #0
    8a46:	701a      	strb	r2, [r3, #0]
    8a48:	4b4c      	ldr	r3, [pc, #304]	; (8b7c <generic_FH_TUERMODUL_CTRL+0x540>)
    8a4a:	2201      	movs	r2, #1
    8a4c:	745a      	strb	r2, [r3, #17]
    8a4e:	e02a      	b.n	8aa6 <generic_FH_TUERMODUL_CTRL+0x46a>
    8a50:	4b4a      	ldr	r3, [pc, #296]	; (8b7c <generic_FH_TUERMODUL_CTRL+0x540>)
    8a52:	7e1b      	ldrb	r3, [r3, #24]
    8a54:	2b00      	cmp	r3, #0
    8a56:	d025      	beq.n	8aa4 <generic_FH_TUERMODUL_CTRL+0x468>
    8a58:	4b3d      	ldr	r3, [pc, #244]	; (8b50 <generic_FH_TUERMODUL_CTRL+0x514>)
    8a5a:	2200      	movs	r2, #0
    8a5c:	701a      	strb	r2, [r3, #0]
    8a5e:	4b48      	ldr	r3, [pc, #288]	; (8b80 <generic_FH_TUERMODUL_CTRL+0x544>)
    8a60:	2201      	movs	r2, #1
    8a62:	701a      	strb	r2, [r3, #0]
    8a64:	4b45      	ldr	r3, [pc, #276]	; (8b7c <generic_FH_TUERMODUL_CTRL+0x540>)
    8a66:	2201      	movs	r2, #1
    8a68:	75da      	strb	r2, [r3, #23]
    8a6a:	4b43      	ldr	r3, [pc, #268]	; (8b78 <generic_FH_TUERMODUL_CTRL+0x53c>)
    8a6c:	2201      	movs	r2, #1
    8a6e:	701a      	strb	r2, [r3, #0]
    8a70:	4b42      	ldr	r3, [pc, #264]	; (8b7c <generic_FH_TUERMODUL_CTRL+0x540>)
    8a72:	2200      	movs	r2, #0
    8a74:	745a      	strb	r2, [r3, #17]
    8a76:	4b3e      	ldr	r3, [pc, #248]	; (8b70 <generic_FH_TUERMODUL_CTRL+0x534>)
    8a78:	2200      	movs	r2, #0
    8a7a:	701a      	strb	r2, [r3, #0]
    8a7c:	4b41      	ldr	r3, [pc, #260]	; (8b84 <generic_FH_TUERMODUL_CTRL+0x548>)
    8a7e:	681b      	ldr	r3, [r3, #0]
    8a80:	4a41      	ldr	r2, [pc, #260]	; (8b88 <generic_FH_TUERMODUL_CTRL+0x54c>)
    8a82:	6013      	str	r3, [r2, #0]
    8a84:	4b33      	ldr	r3, [pc, #204]	; (8b54 <generic_FH_TUERMODUL_CTRL+0x518>)
    8a86:	2201      	movs	r2, #1
    8a88:	701a      	strb	r2, [r3, #0]
    8a8a:	e00c      	b.n	8aa6 <generic_FH_TUERMODUL_CTRL+0x46a>
    8a8c:	4b30      	ldr	r3, [pc, #192]	; (8b50 <generic_FH_TUERMODUL_CTRL+0x514>)
    8a8e:	2200      	movs	r2, #0
    8a90:	701a      	strb	r2, [r3, #0]
    8a92:	4b39      	ldr	r3, [pc, #228]	; (8b78 <generic_FH_TUERMODUL_CTRL+0x53c>)
    8a94:	2202      	movs	r2, #2
    8a96:	701a      	strb	r2, [r3, #0]
    8a98:	4b38      	ldr	r3, [pc, #224]	; (8b7c <generic_FH_TUERMODUL_CTRL+0x540>)
    8a9a:	2201      	movs	r2, #1
    8a9c:	745a      	strb	r2, [r3, #17]
    8a9e:	e002      	b.n	8aa6 <generic_FH_TUERMODUL_CTRL+0x46a>
    8aa0:	bf00      	nop
    8aa2:	e0ac      	b.n	8bfe <generic_FH_TUERMODUL_CTRL+0x5c2>
    8aa4:	bf00      	nop
    8aa6:	e0aa      	b.n	8bfe <generic_FH_TUERMODUL_CTRL+0x5c2>
    8aa8:	4b2d      	ldr	r3, [pc, #180]	; (8b60 <generic_FH_TUERMODUL_CTRL+0x524>)
    8aaa:	781b      	ldrb	r3, [r3, #0]
    8aac:	2b00      	cmp	r3, #0
    8aae:	d10d      	bne.n	8acc <generic_FH_TUERMODUL_CTRL+0x490>
    8ab0:	4b2c      	ldr	r3, [pc, #176]	; (8b64 <generic_FH_TUERMODUL_CTRL+0x528>)
    8ab2:	781b      	ldrb	r3, [r3, #0]
    8ab4:	2b00      	cmp	r3, #0
    8ab6:	d009      	beq.n	8acc <generic_FH_TUERMODUL_CTRL+0x490>
    8ab8:	4b25      	ldr	r3, [pc, #148]	; (8b50 <generic_FH_TUERMODUL_CTRL+0x514>)
    8aba:	2200      	movs	r2, #0
    8abc:	701a      	strb	r2, [r3, #0]
    8abe:	4b2c      	ldr	r3, [pc, #176]	; (8b70 <generic_FH_TUERMODUL_CTRL+0x534>)
    8ac0:	2200      	movs	r2, #0
    8ac2:	701a      	strb	r2, [r3, #0]
    8ac4:	4b24      	ldr	r3, [pc, #144]	; (8b58 <generic_FH_TUERMODUL_CTRL+0x51c>)
    8ac6:	2203      	movs	r2, #3
    8ac8:	701a      	strb	r2, [r3, #0]
    8aca:	e098      	b.n	8bfe <generic_FH_TUERMODUL_CTRL+0x5c2>
    8acc:	4b2f      	ldr	r3, [pc, #188]	; (8b8c <generic_FH_TUERMODUL_CTRL+0x550>)
    8ace:	781b      	ldrb	r3, [r3, #0]
    8ad0:	2b01      	cmp	r3, #1
    8ad2:	d002      	beq.n	8ada <generic_FH_TUERMODUL_CTRL+0x49e>
    8ad4:	2b02      	cmp	r3, #2
    8ad6:	d01a      	beq.n	8b0e <generic_FH_TUERMODUL_CTRL+0x4d2>
    8ad8:	e070      	b.n	8bbc <generic_FH_TUERMODUL_CTRL+0x580>
    8ada:	4b28      	ldr	r3, [pc, #160]	; (8b7c <generic_FH_TUERMODUL_CTRL+0x540>)
    8adc:	2200      	movs	r2, #0
    8ade:	75da      	strb	r2, [r3, #23]
    8ae0:	4b26      	ldr	r3, [pc, #152]	; (8b7c <generic_FH_TUERMODUL_CTRL+0x540>)
    8ae2:	7d9b      	ldrb	r3, [r3, #22]
    8ae4:	2b00      	cmp	r3, #0
    8ae6:	d076      	beq.n	8bd6 <generic_FH_TUERMODUL_CTRL+0x59a>
    8ae8:	4b19      	ldr	r3, [pc, #100]	; (8b50 <generic_FH_TUERMODUL_CTRL+0x514>)
    8aea:	2200      	movs	r2, #0
    8aec:	701a      	strb	r2, [r3, #0]
    8aee:	4b28      	ldr	r3, [pc, #160]	; (8b90 <generic_FH_TUERMODUL_CTRL+0x554>)
    8af0:	2200      	movs	r2, #0
    8af2:	701a      	strb	r2, [r3, #0]
    8af4:	4b25      	ldr	r3, [pc, #148]	; (8b8c <generic_FH_TUERMODUL_CTRL+0x550>)
    8af6:	2202      	movs	r2, #2
    8af8:	701a      	strb	r2, [r3, #0]
    8afa:	4b16      	ldr	r3, [pc, #88]	; (8b54 <generic_FH_TUERMODUL_CTRL+0x518>)
    8afc:	2200      	movs	r2, #0
    8afe:	701a      	strb	r2, [r3, #0]
    8b00:	4b1e      	ldr	r3, [pc, #120]	; (8b7c <generic_FH_TUERMODUL_CTRL+0x540>)
    8b02:	2201      	movs	r2, #1
    8b04:	745a      	strb	r2, [r3, #17]
    8b06:	4b1a      	ldr	r3, [pc, #104]	; (8b70 <generic_FH_TUERMODUL_CTRL+0x534>)
    8b08:	2201      	movs	r2, #1
    8b0a:	701a      	strb	r2, [r3, #0]
    8b0c:	e066      	b.n	8bdc <generic_FH_TUERMODUL_CTRL+0x5a0>
    8b0e:	4b1b      	ldr	r3, [pc, #108]	; (8b7c <generic_FH_TUERMODUL_CTRL+0x540>)
    8b10:	7e1b      	ldrb	r3, [r3, #24]
    8b12:	2b00      	cmp	r3, #0
    8b14:	d040      	beq.n	8b98 <generic_FH_TUERMODUL_CTRL+0x55c>
    8b16:	4b0e      	ldr	r3, [pc, #56]	; (8b50 <generic_FH_TUERMODUL_CTRL+0x514>)
    8b18:	2200      	movs	r2, #0
    8b1a:	701a      	strb	r2, [r3, #0]
    8b1c:	4b14      	ldr	r3, [pc, #80]	; (8b70 <generic_FH_TUERMODUL_CTRL+0x534>)
    8b1e:	2200      	movs	r2, #0
    8b20:	701a      	strb	r2, [r3, #0]
    8b22:	4b1b      	ldr	r3, [pc, #108]	; (8b90 <generic_FH_TUERMODUL_CTRL+0x554>)
    8b24:	2201      	movs	r2, #1
    8b26:	701a      	strb	r2, [r3, #0]
    8b28:	4b14      	ldr	r3, [pc, #80]	; (8b7c <generic_FH_TUERMODUL_CTRL+0x540>)
    8b2a:	2201      	movs	r2, #1
    8b2c:	75da      	strb	r2, [r3, #23]
    8b2e:	4b17      	ldr	r3, [pc, #92]	; (8b8c <generic_FH_TUERMODUL_CTRL+0x550>)
    8b30:	2201      	movs	r2, #1
    8b32:	701a      	strb	r2, [r3, #0]
    8b34:	4b11      	ldr	r3, [pc, #68]	; (8b7c <generic_FH_TUERMODUL_CTRL+0x540>)
    8b36:	2200      	movs	r2, #0
    8b38:	745a      	strb	r2, [r3, #17]
    8b3a:	4b12      	ldr	r3, [pc, #72]	; (8b84 <generic_FH_TUERMODUL_CTRL+0x548>)
    8b3c:	681b      	ldr	r3, [r3, #0]
    8b3e:	4a15      	ldr	r2, [pc, #84]	; (8b94 <generic_FH_TUERMODUL_CTRL+0x558>)
    8b40:	6013      	str	r3, [r2, #0]
    8b42:	4b04      	ldr	r3, [pc, #16]	; (8b54 <generic_FH_TUERMODUL_CTRL+0x518>)
    8b44:	2201      	movs	r2, #1
    8b46:	701a      	strb	r2, [r3, #0]
    8b48:	e048      	b.n	8bdc <generic_FH_TUERMODUL_CTRL+0x5a0>
    8b4a:	bf00      	nop
    8b4c:	0001a164 	.word	0x0001a164
    8b50:	0001a1dc 	.word	0x0001a1dc
    8b54:	0001a1b4 	.word	0x0001a1b4
    8b58:	0001a1e5 	.word	0x0001a1e5
    8b5c:	0001a1e8 	.word	0x0001a1e8
    8b60:	0001a1aa 	.word	0x0001a1aa
    8b64:	0001a1ac 	.word	0x0001a1ac
    8b68:	0001a1ad 	.word	0x0001a1ad
    8b6c:	0001a1af 	.word	0x0001a1af
    8b70:	0001a1b1 	.word	0x0001a1b1
    8b74:	0001a1e9 	.word	0x0001a1e9
    8b78:	0001a1e6 	.word	0x0001a1e6
    8b7c:	0001a0f8 	.word	0x0001a0f8
    8b80:	0001a199 	.word	0x0001a199
    8b84:	0001a1d8 	.word	0x0001a1d8
    8b88:	0001a15c 	.word	0x0001a15c
    8b8c:	0001a1e7 	.word	0x0001a1e7
    8b90:	0001a19b 	.word	0x0001a19b
    8b94:	0001a160 	.word	0x0001a160
    8b98:	4b80      	ldr	r3, [pc, #512]	; (8d9c <generic_FH_TUERMODUL_CTRL+0x760>)
    8b9a:	781b      	ldrb	r3, [r3, #0]
    8b9c:	2b00      	cmp	r3, #0
    8b9e:	d01c      	beq.n	8bda <generic_FH_TUERMODUL_CTRL+0x59e>
    8ba0:	4b7f      	ldr	r3, [pc, #508]	; (8da0 <generic_FH_TUERMODUL_CTRL+0x764>)
    8ba2:	781b      	ldrb	r3, [r3, #0]
    8ba4:	2b00      	cmp	r3, #0
    8ba6:	d118      	bne.n	8bda <generic_FH_TUERMODUL_CTRL+0x59e>
    8ba8:	4b7e      	ldr	r3, [pc, #504]	; (8da4 <generic_FH_TUERMODUL_CTRL+0x768>)
    8baa:	2200      	movs	r2, #0
    8bac:	701a      	strb	r2, [r3, #0]
    8bae:	4b7e      	ldr	r3, [pc, #504]	; (8da8 <generic_FH_TUERMODUL_CTRL+0x76c>)
    8bb0:	2201      	movs	r2, #1
    8bb2:	701a      	strb	r2, [r3, #0]
    8bb4:	4b7d      	ldr	r3, [pc, #500]	; (8dac <generic_FH_TUERMODUL_CTRL+0x770>)
    8bb6:	2200      	movs	r2, #0
    8bb8:	701a      	strb	r2, [r3, #0]
    8bba:	e00f      	b.n	8bdc <generic_FH_TUERMODUL_CTRL+0x5a0>
    8bbc:	4b79      	ldr	r3, [pc, #484]	; (8da4 <generic_FH_TUERMODUL_CTRL+0x768>)
    8bbe:	2200      	movs	r2, #0
    8bc0:	701a      	strb	r2, [r3, #0]
    8bc2:	4b7a      	ldr	r3, [pc, #488]	; (8dac <generic_FH_TUERMODUL_CTRL+0x770>)
    8bc4:	2202      	movs	r2, #2
    8bc6:	701a      	strb	r2, [r3, #0]
    8bc8:	4b79      	ldr	r3, [pc, #484]	; (8db0 <generic_FH_TUERMODUL_CTRL+0x774>)
    8bca:	2201      	movs	r2, #1
    8bcc:	745a      	strb	r2, [r3, #17]
    8bce:	4b79      	ldr	r3, [pc, #484]	; (8db4 <generic_FH_TUERMODUL_CTRL+0x778>)
    8bd0:	2201      	movs	r2, #1
    8bd2:	701a      	strb	r2, [r3, #0]
    8bd4:	e002      	b.n	8bdc <generic_FH_TUERMODUL_CTRL+0x5a0>
    8bd6:	bf00      	nop
    8bd8:	e011      	b.n	8bfe <generic_FH_TUERMODUL_CTRL+0x5c2>
    8bda:	bf00      	nop
    8bdc:	e00f      	b.n	8bfe <generic_FH_TUERMODUL_CTRL+0x5c2>
    8bde:	4b71      	ldr	r3, [pc, #452]	; (8da4 <generic_FH_TUERMODUL_CTRL+0x768>)
    8be0:	2200      	movs	r2, #0
    8be2:	701a      	strb	r2, [r3, #0]
    8be4:	4b70      	ldr	r3, [pc, #448]	; (8da8 <generic_FH_TUERMODUL_CTRL+0x76c>)
    8be6:	2202      	movs	r2, #2
    8be8:	701a      	strb	r2, [r3, #0]
    8bea:	4b70      	ldr	r3, [pc, #448]	; (8dac <generic_FH_TUERMODUL_CTRL+0x770>)
    8bec:	2202      	movs	r2, #2
    8bee:	701a      	strb	r2, [r3, #0]
    8bf0:	4b6f      	ldr	r3, [pc, #444]	; (8db0 <generic_FH_TUERMODUL_CTRL+0x774>)
    8bf2:	2201      	movs	r2, #1
    8bf4:	745a      	strb	r2, [r3, #17]
    8bf6:	4b6f      	ldr	r3, [pc, #444]	; (8db4 <generic_FH_TUERMODUL_CTRL+0x778>)
    8bf8:	2201      	movs	r2, #1
    8bfa:	701a      	strb	r2, [r3, #0]
    8bfc:	bf00      	nop
    8bfe:	e040      	b.n	8c82 <generic_FH_TUERMODUL_CTRL+0x646>
    8c00:	4b6d      	ldr	r3, [pc, #436]	; (8db8 <generic_FH_TUERMODUL_CTRL+0x77c>)
    8c02:	781b      	ldrb	r3, [r3, #0]
    8c04:	2b00      	cmp	r3, #0
    8c06:	d01a      	beq.n	8c3e <generic_FH_TUERMODUL_CTRL+0x602>
    8c08:	4b6c      	ldr	r3, [pc, #432]	; (8dbc <generic_FH_TUERMODUL_CTRL+0x780>)
    8c0a:	781b      	ldrb	r3, [r3, #0]
    8c0c:	2b00      	cmp	r3, #0
    8c0e:	d116      	bne.n	8c3e <generic_FH_TUERMODUL_CTRL+0x602>
    8c10:	4b6b      	ldr	r3, [pc, #428]	; (8dc0 <generic_FH_TUERMODUL_CTRL+0x784>)
    8c12:	681b      	ldr	r3, [r3, #0]
    8c14:	2b00      	cmp	r3, #0
    8c16:	dd12      	ble.n	8c3e <generic_FH_TUERMODUL_CTRL+0x602>
    8c18:	4b62      	ldr	r3, [pc, #392]	; (8da4 <generic_FH_TUERMODUL_CTRL+0x768>)
    8c1a:	2200      	movs	r2, #0
    8c1c:	701a      	strb	r2, [r3, #0]
    8c1e:	4b69      	ldr	r3, [pc, #420]	; (8dc4 <generic_FH_TUERMODUL_CTRL+0x788>)
    8c20:	2202      	movs	r2, #2
    8c22:	701a      	strb	r2, [r3, #0]
    8c24:	4b60      	ldr	r3, [pc, #384]	; (8da8 <generic_FH_TUERMODUL_CTRL+0x76c>)
    8c26:	2202      	movs	r2, #2
    8c28:	701a      	strb	r2, [r3, #0]
    8c2a:	4b60      	ldr	r3, [pc, #384]	; (8dac <generic_FH_TUERMODUL_CTRL+0x770>)
    8c2c:	2202      	movs	r2, #2
    8c2e:	701a      	strb	r2, [r3, #0]
    8c30:	4b5f      	ldr	r3, [pc, #380]	; (8db0 <generic_FH_TUERMODUL_CTRL+0x774>)
    8c32:	2201      	movs	r2, #1
    8c34:	745a      	strb	r2, [r3, #17]
    8c36:	4b5f      	ldr	r3, [pc, #380]	; (8db4 <generic_FH_TUERMODUL_CTRL+0x778>)
    8c38:	2201      	movs	r2, #1
    8c3a:	701a      	strb	r2, [r3, #0]
    8c3c:	e021      	b.n	8c82 <generic_FH_TUERMODUL_CTRL+0x646>
    8c3e:	4b57      	ldr	r3, [pc, #348]	; (8d9c <generic_FH_TUERMODUL_CTRL+0x760>)
    8c40:	781b      	ldrb	r3, [r3, #0]
    8c42:	2b00      	cmp	r3, #0
    8c44:	d01c      	beq.n	8c80 <generic_FH_TUERMODUL_CTRL+0x644>
    8c46:	4b56      	ldr	r3, [pc, #344]	; (8da0 <generic_FH_TUERMODUL_CTRL+0x764>)
    8c48:	781b      	ldrb	r3, [r3, #0]
    8c4a:	2b00      	cmp	r3, #0
    8c4c:	d118      	bne.n	8c80 <generic_FH_TUERMODUL_CTRL+0x644>
    8c4e:	4b5c      	ldr	r3, [pc, #368]	; (8dc0 <generic_FH_TUERMODUL_CTRL+0x784>)
    8c50:	681b      	ldr	r3, [r3, #0]
    8c52:	f5b3 7fca 	cmp.w	r3, #404	; 0x194
    8c56:	dc13      	bgt.n	8c80 <generic_FH_TUERMODUL_CTRL+0x644>
    8c58:	4b52      	ldr	r3, [pc, #328]	; (8da4 <generic_FH_TUERMODUL_CTRL+0x768>)
    8c5a:	2200      	movs	r2, #0
    8c5c:	701a      	strb	r2, [r3, #0]
    8c5e:	4b5a      	ldr	r3, [pc, #360]	; (8dc8 <generic_FH_TUERMODUL_CTRL+0x78c>)
    8c60:	2201      	movs	r2, #1
    8c62:	701a      	strb	r2, [r3, #0]
    8c64:	4b57      	ldr	r3, [pc, #348]	; (8dc4 <generic_FH_TUERMODUL_CTRL+0x788>)
    8c66:	2201      	movs	r2, #1
    8c68:	701a      	strb	r2, [r3, #0]
    8c6a:	4b58      	ldr	r3, [pc, #352]	; (8dcc <generic_FH_TUERMODUL_CTRL+0x790>)
    8c6c:	2202      	movs	r2, #2
    8c6e:	701a      	strb	r2, [r3, #0]
    8c70:	e007      	b.n	8c82 <generic_FH_TUERMODUL_CTRL+0x646>
    8c72:	4b4c      	ldr	r3, [pc, #304]	; (8da4 <generic_FH_TUERMODUL_CTRL+0x768>)
    8c74:	2200      	movs	r2, #0
    8c76:	701a      	strb	r2, [r3, #0]
    8c78:	4b52      	ldr	r3, [pc, #328]	; (8dc4 <generic_FH_TUERMODUL_CTRL+0x788>)
    8c7a:	2203      	movs	r2, #3
    8c7c:	701a      	strb	r2, [r3, #0]
    8c7e:	e000      	b.n	8c82 <generic_FH_TUERMODUL_CTRL+0x646>
    8c80:	bf00      	nop
    8c82:	e007      	b.n	8c94 <generic_FH_TUERMODUL_CTRL+0x658>
    8c84:	4b47      	ldr	r3, [pc, #284]	; (8da4 <generic_FH_TUERMODUL_CTRL+0x768>)
    8c86:	2200      	movs	r2, #0
    8c88:	701a      	strb	r2, [r3, #0]
    8c8a:	4b51      	ldr	r3, [pc, #324]	; (8dd0 <generic_FH_TUERMODUL_CTRL+0x794>)
    8c8c:	2202      	movs	r2, #2
    8c8e:	701a      	strb	r2, [r3, #0]
    8c90:	e000      	b.n	8c94 <generic_FH_TUERMODUL_CTRL+0x658>
    8c92:	bf00      	nop
    8c94:	4b4f      	ldr	r3, [pc, #316]	; (8dd4 <generic_FH_TUERMODUL_CTRL+0x798>)
    8c96:	781b      	ldrb	r3, [r3, #0]
    8c98:	2b01      	cmp	r3, #1
    8c9a:	d162      	bne.n	8d62 <generic_FH_TUERMODUL_CTRL+0x726>
    8c9c:	4b44      	ldr	r3, [pc, #272]	; (8db0 <generic_FH_TUERMODUL_CTRL+0x774>)
    8c9e:	2200      	movs	r2, #0
    8ca0:	715a      	strb	r2, [r3, #5]
    8ca2:	4b4d      	ldr	r3, [pc, #308]	; (8dd8 <generic_FH_TUERMODUL_CTRL+0x79c>)
    8ca4:	781b      	ldrb	r3, [r3, #0]
    8ca6:	2b01      	cmp	r3, #1
    8ca8:	d124      	bne.n	8cf4 <generic_FH_TUERMODUL_CTRL+0x6b8>
    8caa:	4b4c      	ldr	r3, [pc, #304]	; (8ddc <generic_FH_TUERMODUL_CTRL+0x7a0>)
    8cac:	681b      	ldr	r3, [r3, #0]
    8cae:	2b00      	cmp	r3, #0
    8cb0:	d020      	beq.n	8cf4 <generic_FH_TUERMODUL_CTRL+0x6b8>
    8cb2:	4b4b      	ldr	r3, [pc, #300]	; (8de0 <generic_FH_TUERMODUL_CTRL+0x7a4>)
    8cb4:	681a      	ldr	r2, [r3, #0]
    8cb6:	4b49      	ldr	r3, [pc, #292]	; (8ddc <generic_FH_TUERMODUL_CTRL+0x7a0>)
    8cb8:	681b      	ldr	r3, [r3, #0]
    8cba:	1ad3      	subs	r3, r2, r3
    8cbc:	2b01      	cmp	r3, #1
    8cbe:	d119      	bne.n	8cf4 <generic_FH_TUERMODUL_CTRL+0x6b8>
    8cc0:	4b48      	ldr	r3, [pc, #288]	; (8de4 <generic_FH_TUERMODUL_CTRL+0x7a8>)
    8cc2:	781b      	ldrb	r3, [r3, #0]
    8cc4:	2b00      	cmp	r3, #0
    8cc6:	d103      	bne.n	8cd0 <generic_FH_TUERMODUL_CTRL+0x694>
    8cc8:	4b47      	ldr	r3, [pc, #284]	; (8de8 <generic_FH_TUERMODUL_CTRL+0x7ac>)
    8cca:	781b      	ldrb	r3, [r3, #0]
    8ccc:	2b00      	cmp	r3, #0
    8cce:	d011      	beq.n	8cf4 <generic_FH_TUERMODUL_CTRL+0x6b8>
    8cd0:	4b34      	ldr	r3, [pc, #208]	; (8da4 <generic_FH_TUERMODUL_CTRL+0x768>)
    8cd2:	2200      	movs	r2, #0
    8cd4:	701a      	strb	r2, [r3, #0]
    8cd6:	4b45      	ldr	r3, [pc, #276]	; (8dec <generic_FH_TUERMODUL_CTRL+0x7b0>)
    8cd8:	681b      	ldr	r3, [r3, #0]
    8cda:	3301      	adds	r3, #1
    8cdc:	4a43      	ldr	r2, [pc, #268]	; (8dec <generic_FH_TUERMODUL_CTRL+0x7b0>)
    8cde:	6013      	str	r3, [r2, #0]
    8ce0:	4b3c      	ldr	r3, [pc, #240]	; (8dd4 <generic_FH_TUERMODUL_CTRL+0x798>)
    8ce2:	2201      	movs	r2, #1
    8ce4:	701a      	strb	r2, [r3, #0]
    8ce6:	4b32      	ldr	r3, [pc, #200]	; (8db0 <generic_FH_TUERMODUL_CTRL+0x774>)
    8ce8:	2201      	movs	r2, #1
    8cea:	715a      	strb	r2, [r3, #5]
    8cec:	4b40      	ldr	r3, [pc, #256]	; (8df0 <generic_FH_TUERMODUL_CTRL+0x7b4>)
    8cee:	2201      	movs	r2, #1
    8cf0:	701a      	strb	r2, [r3, #0]
    8cf2:	e046      	b.n	8d82 <generic_FH_TUERMODUL_CTRL+0x746>
    8cf4:	4b3e      	ldr	r3, [pc, #248]	; (8df0 <generic_FH_TUERMODUL_CTRL+0x7b4>)
    8cf6:	781b      	ldrb	r3, [r3, #0]
    8cf8:	2b01      	cmp	r3, #1
    8cfa:	d126      	bne.n	8d4a <generic_FH_TUERMODUL_CTRL+0x70e>
    8cfc:	4b36      	ldr	r3, [pc, #216]	; (8dd8 <generic_FH_TUERMODUL_CTRL+0x79c>)
    8cfe:	781b      	ldrb	r3, [r3, #0]
    8d00:	2b01      	cmp	r3, #1
    8d02:	d12c      	bne.n	8d5e <generic_FH_TUERMODUL_CTRL+0x722>
    8d04:	4b3b      	ldr	r3, [pc, #236]	; (8df4 <generic_FH_TUERMODUL_CTRL+0x7b8>)
    8d06:	681b      	ldr	r3, [r3, #0]
    8d08:	2b00      	cmp	r3, #0
    8d0a:	d028      	beq.n	8d5e <generic_FH_TUERMODUL_CTRL+0x722>
    8d0c:	4b34      	ldr	r3, [pc, #208]	; (8de0 <generic_FH_TUERMODUL_CTRL+0x7a4>)
    8d0e:	681a      	ldr	r2, [r3, #0]
    8d10:	4b38      	ldr	r3, [pc, #224]	; (8df4 <generic_FH_TUERMODUL_CTRL+0x7b8>)
    8d12:	681b      	ldr	r3, [r3, #0]
    8d14:	1ad3      	subs	r3, r2, r3
    8d16:	2b03      	cmp	r3, #3
    8d18:	d121      	bne.n	8d5e <generic_FH_TUERMODUL_CTRL+0x722>
    8d1a:	4b32      	ldr	r3, [pc, #200]	; (8de4 <generic_FH_TUERMODUL_CTRL+0x7a8>)
    8d1c:	781b      	ldrb	r3, [r3, #0]
    8d1e:	2b00      	cmp	r3, #0
    8d20:	d11d      	bne.n	8d5e <generic_FH_TUERMODUL_CTRL+0x722>
    8d22:	4b31      	ldr	r3, [pc, #196]	; (8de8 <generic_FH_TUERMODUL_CTRL+0x7ac>)
    8d24:	781b      	ldrb	r3, [r3, #0]
    8d26:	2b00      	cmp	r3, #0
    8d28:	d119      	bne.n	8d5e <generic_FH_TUERMODUL_CTRL+0x722>
    8d2a:	4b30      	ldr	r3, [pc, #192]	; (8dec <generic_FH_TUERMODUL_CTRL+0x7b0>)
    8d2c:	681b      	ldr	r3, [r3, #0]
    8d2e:	2b00      	cmp	r3, #0
    8d30:	dd15      	ble.n	8d5e <generic_FH_TUERMODUL_CTRL+0x722>
    8d32:	4b1c      	ldr	r3, [pc, #112]	; (8da4 <generic_FH_TUERMODUL_CTRL+0x768>)
    8d34:	2200      	movs	r2, #0
    8d36:	701a      	strb	r2, [r3, #0]
    8d38:	4b2c      	ldr	r3, [pc, #176]	; (8dec <generic_FH_TUERMODUL_CTRL+0x7b0>)
    8d3a:	681b      	ldr	r3, [r3, #0]
    8d3c:	3b01      	subs	r3, #1
    8d3e:	4a2b      	ldr	r2, [pc, #172]	; (8dec <generic_FH_TUERMODUL_CTRL+0x7b0>)
    8d40:	6013      	str	r3, [r2, #0]
    8d42:	4b2b      	ldr	r3, [pc, #172]	; (8df0 <generic_FH_TUERMODUL_CTRL+0x7b4>)
    8d44:	2201      	movs	r2, #1
    8d46:	701a      	strb	r2, [r3, #0]
    8d48:	e00a      	b.n	8d60 <generic_FH_TUERMODUL_CTRL+0x724>
    8d4a:	4b16      	ldr	r3, [pc, #88]	; (8da4 <generic_FH_TUERMODUL_CTRL+0x768>)
    8d4c:	2200      	movs	r2, #0
    8d4e:	701a      	strb	r2, [r3, #0]
    8d50:	4b17      	ldr	r3, [pc, #92]	; (8db0 <generic_FH_TUERMODUL_CTRL+0x774>)
    8d52:	2201      	movs	r2, #1
    8d54:	715a      	strb	r2, [r3, #5]
    8d56:	4b26      	ldr	r3, [pc, #152]	; (8df0 <generic_FH_TUERMODUL_CTRL+0x7b4>)
    8d58:	2201      	movs	r2, #1
    8d5a:	701a      	strb	r2, [r3, #0]
    8d5c:	e000      	b.n	8d60 <generic_FH_TUERMODUL_CTRL+0x724>
    8d5e:	bf00      	nop
    8d60:	e00f      	b.n	8d82 <generic_FH_TUERMODUL_CTRL+0x746>
    8d62:	4b10      	ldr	r3, [pc, #64]	; (8da4 <generic_FH_TUERMODUL_CTRL+0x768>)
    8d64:	2200      	movs	r2, #0
    8d66:	701a      	strb	r2, [r3, #0]
    8d68:	4b20      	ldr	r3, [pc, #128]	; (8dec <generic_FH_TUERMODUL_CTRL+0x7b0>)
    8d6a:	2200      	movs	r2, #0
    8d6c:	601a      	str	r2, [r3, #0]
    8d6e:	4b19      	ldr	r3, [pc, #100]	; (8dd4 <generic_FH_TUERMODUL_CTRL+0x798>)
    8d70:	2201      	movs	r2, #1
    8d72:	701a      	strb	r2, [r3, #0]
    8d74:	4b0e      	ldr	r3, [pc, #56]	; (8db0 <generic_FH_TUERMODUL_CTRL+0x774>)
    8d76:	2201      	movs	r2, #1
    8d78:	715a      	strb	r2, [r3, #5]
    8d7a:	4b1d      	ldr	r3, [pc, #116]	; (8df0 <generic_FH_TUERMODUL_CTRL+0x7b4>)
    8d7c:	2201      	movs	r2, #1
    8d7e:	701a      	strb	r2, [r3, #0]
    8d80:	bf00      	nop
    8d82:	4b0b      	ldr	r3, [pc, #44]	; (8db0 <generic_FH_TUERMODUL_CTRL+0x774>)
    8d84:	791a      	ldrb	r2, [r3, #4]
    8d86:	4b0a      	ldr	r3, [pc, #40]	; (8db0 <generic_FH_TUERMODUL_CTRL+0x774>)
    8d88:	715a      	strb	r2, [r3, #5]
    8d8a:	4b09      	ldr	r3, [pc, #36]	; (8db0 <generic_FH_TUERMODUL_CTRL+0x774>)
    8d8c:	799a      	ldrb	r2, [r3, #6]
    8d8e:	4b08      	ldr	r3, [pc, #32]	; (8db0 <generic_FH_TUERMODUL_CTRL+0x774>)
    8d90:	71da      	strb	r2, [r3, #7]
    8d92:	bf00      	nop
    8d94:	46bd      	mov	sp, r7
    8d96:	bc80      	pop	{r7}
    8d98:	4770      	bx	lr
    8d9a:	bf00      	nop
    8d9c:	0001a1ad 	.word	0x0001a1ad
    8da0:	0001a1af 	.word	0x0001a1af
    8da4:	0001a1dc 	.word	0x0001a1dc
    8da8:	0001a1e9 	.word	0x0001a1e9
    8dac:	0001a1e7 	.word	0x0001a1e7
    8db0:	0001a0f8 	.word	0x0001a0f8
    8db4:	0001a1b1 	.word	0x0001a1b1
    8db8:	0001a1aa 	.word	0x0001a1aa
    8dbc:	0001a1ac 	.word	0x0001a1ac
    8dc0:	0001a164 	.word	0x0001a164
    8dc4:	0001a1e5 	.word	0x0001a1e5
    8dc8:	0001a1b4 	.word	0x0001a1b4
    8dcc:	0001a1e8 	.word	0x0001a1e8
    8dd0:	0001a1e2 	.word	0x0001a1e2
    8dd4:	0001a1e3 	.word	0x0001a1e3
    8dd8:	0001a1dd 	.word	0x0001a1dd
    8ddc:	0001a13c 	.word	0x0001a13c
    8de0:	0001a1d8 	.word	0x0001a1d8
    8de4:	0001a1b0 	.word	0x0001a1b0
    8de8:	0001a1b3 	.word	0x0001a1b3
    8dec:	0001a150 	.word	0x0001a150
    8df0:	0001a1e4 	.word	0x0001a1e4
    8df4:	0001a140 	.word	0x0001a140

00008df8 <generic_EINKLEMMSCHUTZ_CTRL>:
    8df8:	b480      	push	{r7}
    8dfa:	af00      	add	r7, sp, #0
    8dfc:	4b23      	ldr	r3, [pc, #140]	; (8e8c <generic_EINKLEMMSCHUTZ_CTRL+0x94>)
    8dfe:	7c1b      	ldrb	r3, [r3, #16]
    8e00:	2b00      	cmp	r3, #0
    8e02:	d039      	beq.n	8e78 <generic_EINKLEMMSCHUTZ_CTRL+0x80>
    8e04:	4b22      	ldr	r3, [pc, #136]	; (8e90 <generic_EINKLEMMSCHUTZ_CTRL+0x98>)
    8e06:	781b      	ldrb	r3, [r3, #0]
    8e08:	2b01      	cmp	r3, #1
    8e0a:	d002      	beq.n	8e12 <generic_EINKLEMMSCHUTZ_CTRL+0x1a>
    8e0c:	2b02      	cmp	r3, #2
    8e0e:	d01a      	beq.n	8e46 <generic_EINKLEMMSCHUTZ_CTRL+0x4e>
    8e10:	e02b      	b.n	8e6a <generic_EINKLEMMSCHUTZ_CTRL+0x72>
    8e12:	4b20      	ldr	r3, [pc, #128]	; (8e94 <generic_EINKLEMMSCHUTZ_CTRL+0x9c>)
    8e14:	781b      	ldrb	r3, [r3, #0]
    8e16:	2b00      	cmp	r3, #0
    8e18:	d030      	beq.n	8e7c <generic_EINKLEMMSCHUTZ_CTRL+0x84>
    8e1a:	4b1f      	ldr	r3, [pc, #124]	; (8e98 <generic_EINKLEMMSCHUTZ_CTRL+0xa0>)
    8e1c:	781b      	ldrb	r3, [r3, #0]
    8e1e:	2b00      	cmp	r3, #0
    8e20:	d12c      	bne.n	8e7c <generic_EINKLEMMSCHUTZ_CTRL+0x84>
    8e22:	4b1e      	ldr	r3, [pc, #120]	; (8e9c <generic_EINKLEMMSCHUTZ_CTRL+0xa4>)
    8e24:	781b      	ldrb	r3, [r3, #0]
    8e26:	2b00      	cmp	r3, #0
    8e28:	d003      	beq.n	8e32 <generic_EINKLEMMSCHUTZ_CTRL+0x3a>
    8e2a:	4b1d      	ldr	r3, [pc, #116]	; (8ea0 <generic_EINKLEMMSCHUTZ_CTRL+0xa8>)
    8e2c:	781b      	ldrb	r3, [r3, #0]
    8e2e:	2b00      	cmp	r3, #0
    8e30:	d124      	bne.n	8e7c <generic_EINKLEMMSCHUTZ_CTRL+0x84>
    8e32:	4b1c      	ldr	r3, [pc, #112]	; (8ea4 <generic_EINKLEMMSCHUTZ_CTRL+0xac>)
    8e34:	2200      	movs	r2, #0
    8e36:	701a      	strb	r2, [r3, #0]
    8e38:	4b14      	ldr	r3, [pc, #80]	; (8e8c <generic_EINKLEMMSCHUTZ_CTRL+0x94>)
    8e3a:	2201      	movs	r2, #1
    8e3c:	761a      	strb	r2, [r3, #24]
    8e3e:	4b14      	ldr	r3, [pc, #80]	; (8e90 <generic_EINKLEMMSCHUTZ_CTRL+0x98>)
    8e40:	2202      	movs	r2, #2
    8e42:	701a      	strb	r2, [r3, #0]
    8e44:	e01d      	b.n	8e82 <generic_EINKLEMMSCHUTZ_CTRL+0x8a>
    8e46:	4b11      	ldr	r3, [pc, #68]	; (8e8c <generic_EINKLEMMSCHUTZ_CTRL+0x94>)
    8e48:	2200      	movs	r2, #0
    8e4a:	761a      	strb	r2, [r3, #24]
    8e4c:	4b11      	ldr	r3, [pc, #68]	; (8e94 <generic_EINKLEMMSCHUTZ_CTRL+0x9c>)
    8e4e:	781b      	ldrb	r3, [r3, #0]
    8e50:	2b00      	cmp	r3, #0
    8e52:	d115      	bne.n	8e80 <generic_EINKLEMMSCHUTZ_CTRL+0x88>
    8e54:	4b10      	ldr	r3, [pc, #64]	; (8e98 <generic_EINKLEMMSCHUTZ_CTRL+0xa0>)
    8e56:	781b      	ldrb	r3, [r3, #0]
    8e58:	2b00      	cmp	r3, #0
    8e5a:	d011      	beq.n	8e80 <generic_EINKLEMMSCHUTZ_CTRL+0x88>
    8e5c:	4b11      	ldr	r3, [pc, #68]	; (8ea4 <generic_EINKLEMMSCHUTZ_CTRL+0xac>)
    8e5e:	2200      	movs	r2, #0
    8e60:	701a      	strb	r2, [r3, #0]
    8e62:	4b0b      	ldr	r3, [pc, #44]	; (8e90 <generic_EINKLEMMSCHUTZ_CTRL+0x98>)
    8e64:	2201      	movs	r2, #1
    8e66:	701a      	strb	r2, [r3, #0]
    8e68:	e00b      	b.n	8e82 <generic_EINKLEMMSCHUTZ_CTRL+0x8a>
    8e6a:	4b0e      	ldr	r3, [pc, #56]	; (8ea4 <generic_EINKLEMMSCHUTZ_CTRL+0xac>)
    8e6c:	2200      	movs	r2, #0
    8e6e:	701a      	strb	r2, [r3, #0]
    8e70:	4b07      	ldr	r3, [pc, #28]	; (8e90 <generic_EINKLEMMSCHUTZ_CTRL+0x98>)
    8e72:	2201      	movs	r2, #1
    8e74:	701a      	strb	r2, [r3, #0]
    8e76:	e004      	b.n	8e82 <generic_EINKLEMMSCHUTZ_CTRL+0x8a>
    8e78:	bf00      	nop
    8e7a:	e002      	b.n	8e82 <generic_EINKLEMMSCHUTZ_CTRL+0x8a>
    8e7c:	bf00      	nop
    8e7e:	e000      	b.n	8e82 <generic_EINKLEMMSCHUTZ_CTRL+0x8a>
    8e80:	bf00      	nop
    8e82:	bf00      	nop
    8e84:	46bd      	mov	sp, r7
    8e86:	bc80      	pop	{r7}
    8e88:	4770      	bx	lr
    8e8a:	bf00      	nop
    8e8c:	0001a0f8 	.word	0x0001a0f8
    8e90:	0001a1eb 	.word	0x0001a1eb
    8e94:	0001a1b6 	.word	0x0001a1b6
    8e98:	0001a1b7 	.word	0x0001a1b7
    8e9c:	0001a1aa 	.word	0x0001a1aa
    8ea0:	0001a1ad 	.word	0x0001a1ad
    8ea4:	0001a1dc 	.word	0x0001a1dc

00008ea8 <generic_BLOCK_ERKENNUNG_CTRL>:
    8ea8:	b480      	push	{r7}
    8eaa:	af00      	add	r7, sp, #0
    8eac:	4b52      	ldr	r3, [pc, #328]	; (8ff8 <generic_BLOCK_ERKENNUNG_CTRL+0x150>)
    8eae:	7cdb      	ldrb	r3, [r3, #19]
    8eb0:	2b00      	cmp	r3, #0
    8eb2:	d10a      	bne.n	8eca <generic_BLOCK_ERKENNUNG_CTRL+0x22>
    8eb4:	4b50      	ldr	r3, [pc, #320]	; (8ff8 <generic_BLOCK_ERKENNUNG_CTRL+0x150>)
    8eb6:	7d5b      	ldrb	r3, [r3, #21]
    8eb8:	2b00      	cmp	r3, #0
    8eba:	d006      	beq.n	8eca <generic_BLOCK_ERKENNUNG_CTRL+0x22>
    8ebc:	4b4e      	ldr	r3, [pc, #312]	; (8ff8 <generic_BLOCK_ERKENNUNG_CTRL+0x150>)
    8ebe:	7d1b      	ldrb	r3, [r3, #20]
    8ec0:	2b00      	cmp	r3, #0
    8ec2:	d102      	bne.n	8eca <generic_BLOCK_ERKENNUNG_CTRL+0x22>
    8ec4:	4b4c      	ldr	r3, [pc, #304]	; (8ff8 <generic_BLOCK_ERKENNUNG_CTRL+0x150>)
    8ec6:	2200      	movs	r2, #0
    8ec8:	701a      	strb	r2, [r3, #0]
    8eca:	4b4b      	ldr	r3, [pc, #300]	; (8ff8 <generic_BLOCK_ERKENNUNG_CTRL+0x150>)
    8ecc:	7cdb      	ldrb	r3, [r3, #19]
    8ece:	2b00      	cmp	r3, #0
    8ed0:	f000 808b 	beq.w	8fea <generic_BLOCK_ERKENNUNG_CTRL+0x142>
    8ed4:	4b49      	ldr	r3, [pc, #292]	; (8ffc <generic_BLOCK_ERKENNUNG_CTRL+0x154>)
    8ed6:	781b      	ldrb	r3, [r3, #0]
    8ed8:	2b01      	cmp	r3, #1
    8eda:	d002      	beq.n	8ee2 <generic_BLOCK_ERKENNUNG_CTRL+0x3a>
    8edc:	2b02      	cmp	r3, #2
    8ede:	d020      	beq.n	8f22 <generic_BLOCK_ERKENNUNG_CTRL+0x7a>
    8ee0:	e07c      	b.n	8fdc <generic_BLOCK_ERKENNUNG_CTRL+0x134>
    8ee2:	4b47      	ldr	r3, [pc, #284]	; (9000 <generic_BLOCK_ERKENNUNG_CTRL+0x158>)
    8ee4:	681a      	ldr	r2, [r3, #0]
    8ee6:	4b47      	ldr	r3, [pc, #284]	; (9004 <generic_BLOCK_ERKENNUNG_CTRL+0x15c>)
    8ee8:	681b      	ldr	r3, [r3, #0]
    8eea:	429a      	cmp	r2, r3
    8eec:	d07f      	beq.n	8fee <generic_BLOCK_ERKENNUNG_CTRL+0x146>
    8eee:	4b44      	ldr	r3, [pc, #272]	; (9000 <generic_BLOCK_ERKENNUNG_CTRL+0x158>)
    8ef0:	681b      	ldr	r3, [r3, #0]
    8ef2:	2b00      	cmp	r3, #0
    8ef4:	dd7b      	ble.n	8fee <generic_BLOCK_ERKENNUNG_CTRL+0x146>
    8ef6:	4b44      	ldr	r3, [pc, #272]	; (9008 <generic_BLOCK_ERKENNUNG_CTRL+0x160>)
    8ef8:	2200      	movs	r2, #0
    8efa:	701a      	strb	r2, [r3, #0]
    8efc:	4b43      	ldr	r3, [pc, #268]	; (900c <generic_BLOCK_ERKENNUNG_CTRL+0x164>)
    8efe:	2200      	movs	r2, #0
    8f00:	701a      	strb	r2, [r3, #0]
    8f02:	4b3e      	ldr	r3, [pc, #248]	; (8ffc <generic_BLOCK_ERKENNUNG_CTRL+0x154>)
    8f04:	2202      	movs	r2, #2
    8f06:	701a      	strb	r2, [r3, #0]
    8f08:	4b41      	ldr	r3, [pc, #260]	; (9010 <generic_BLOCK_ERKENNUNG_CTRL+0x168>)
    8f0a:	2200      	movs	r2, #0
    8f0c:	601a      	str	r2, [r3, #0]
    8f0e:	4b41      	ldr	r3, [pc, #260]	; (9014 <generic_BLOCK_ERKENNUNG_CTRL+0x16c>)
    8f10:	2202      	movs	r2, #2
    8f12:	601a      	str	r2, [r3, #0]
    8f14:	4b40      	ldr	r3, [pc, #256]	; (9018 <generic_BLOCK_ERKENNUNG_CTRL+0x170>)
    8f16:	2203      	movs	r2, #3
    8f18:	701a      	strb	r2, [r3, #0]
    8f1a:	4b37      	ldr	r3, [pc, #220]	; (8ff8 <generic_BLOCK_ERKENNUNG_CTRL+0x150>)
    8f1c:	2201      	movs	r2, #1
    8f1e:	701a      	strb	r2, [r3, #0]
    8f20:	e066      	b.n	8ff0 <generic_BLOCK_ERKENNUNG_CTRL+0x148>
    8f22:	4b3e      	ldr	r3, [pc, #248]	; (901c <generic_BLOCK_ERKENNUNG_CTRL+0x174>)
    8f24:	781b      	ldrb	r3, [r3, #0]
    8f26:	2b00      	cmp	r3, #0
    8f28:	d103      	bne.n	8f32 <generic_BLOCK_ERKENNUNG_CTRL+0x8a>
    8f2a:	4b3d      	ldr	r3, [pc, #244]	; (9020 <generic_BLOCK_ERKENNUNG_CTRL+0x178>)
    8f2c:	781b      	ldrb	r3, [r3, #0]
    8f2e:	2b00      	cmp	r3, #0
    8f30:	d107      	bne.n	8f42 <generic_BLOCK_ERKENNUNG_CTRL+0x9a>
    8f32:	4b3c      	ldr	r3, [pc, #240]	; (9024 <generic_BLOCK_ERKENNUNG_CTRL+0x17c>)
    8f34:	781b      	ldrb	r3, [r3, #0]
    8f36:	2b00      	cmp	r3, #0
    8f38:	d10d      	bne.n	8f56 <generic_BLOCK_ERKENNUNG_CTRL+0xae>
    8f3a:	4b3b      	ldr	r3, [pc, #236]	; (9028 <generic_BLOCK_ERKENNUNG_CTRL+0x180>)
    8f3c:	781b      	ldrb	r3, [r3, #0]
    8f3e:	2b00      	cmp	r3, #0
    8f40:	d009      	beq.n	8f56 <generic_BLOCK_ERKENNUNG_CTRL+0xae>
    8f42:	4b31      	ldr	r3, [pc, #196]	; (9008 <generic_BLOCK_ERKENNUNG_CTRL+0x160>)
    8f44:	2200      	movs	r2, #0
    8f46:	701a      	strb	r2, [r3, #0]
    8f48:	4b2c      	ldr	r3, [pc, #176]	; (8ffc <generic_BLOCK_ERKENNUNG_CTRL+0x154>)
    8f4a:	2201      	movs	r2, #1
    8f4c:	701a      	strb	r2, [r3, #0]
    8f4e:	4b32      	ldr	r3, [pc, #200]	; (9018 <generic_BLOCK_ERKENNUNG_CTRL+0x170>)
    8f50:	2200      	movs	r2, #0
    8f52:	701a      	strb	r2, [r3, #0]
    8f54:	e04c      	b.n	8ff0 <generic_BLOCK_ERKENNUNG_CTRL+0x148>
    8f56:	4b30      	ldr	r3, [pc, #192]	; (9018 <generic_BLOCK_ERKENNUNG_CTRL+0x170>)
    8f58:	781b      	ldrb	r3, [r3, #0]
    8f5a:	2b03      	cmp	r3, #3
    8f5c:	d016      	beq.n	8f8c <generic_BLOCK_ERKENNUNG_CTRL+0xe4>
    8f5e:	2b03      	cmp	r3, #3
    8f60:	dc26      	bgt.n	8fb0 <generic_BLOCK_ERKENNUNG_CTRL+0x108>
    8f62:	2b01      	cmp	r3, #1
    8f64:	d034      	beq.n	8fd0 <generic_BLOCK_ERKENNUNG_CTRL+0x128>
    8f66:	2b02      	cmp	r3, #2
    8f68:	d122      	bne.n	8fb0 <generic_BLOCK_ERKENNUNG_CTRL+0x108>
    8f6a:	4b2a      	ldr	r3, [pc, #168]	; (9014 <generic_BLOCK_ERKENNUNG_CTRL+0x16c>)
    8f6c:	681b      	ldr	r3, [r3, #0]
    8f6e:	1e5a      	subs	r2, r3, #1
    8f70:	4b23      	ldr	r3, [pc, #140]	; (9000 <generic_BLOCK_ERKENNUNG_CTRL+0x158>)
    8f72:	681b      	ldr	r3, [r3, #0]
    8f74:	429a      	cmp	r2, r3
    8f76:	dc2d      	bgt.n	8fd4 <generic_BLOCK_ERKENNUNG_CTRL+0x12c>
    8f78:	4b23      	ldr	r3, [pc, #140]	; (9008 <generic_BLOCK_ERKENNUNG_CTRL+0x160>)
    8f7a:	2200      	movs	r2, #0
    8f7c:	701a      	strb	r2, [r3, #0]
    8f7e:	4b23      	ldr	r3, [pc, #140]	; (900c <generic_BLOCK_ERKENNUNG_CTRL+0x164>)
    8f80:	2201      	movs	r2, #1
    8f82:	701a      	strb	r2, [r3, #0]
    8f84:	4b24      	ldr	r3, [pc, #144]	; (9018 <generic_BLOCK_ERKENNUNG_CTRL+0x170>)
    8f86:	2201      	movs	r2, #1
    8f88:	701a      	strb	r2, [r3, #0]
    8f8a:	e026      	b.n	8fda <generic_BLOCK_ERKENNUNG_CTRL+0x132>
    8f8c:	4b1a      	ldr	r3, [pc, #104]	; (8ff8 <generic_BLOCK_ERKENNUNG_CTRL+0x150>)
    8f8e:	2200      	movs	r2, #0
    8f90:	701a      	strb	r2, [r3, #0]
    8f92:	4b1f      	ldr	r3, [pc, #124]	; (9010 <generic_BLOCK_ERKENNUNG_CTRL+0x168>)
    8f94:	681b      	ldr	r3, [r3, #0]
    8f96:	2b0b      	cmp	r3, #11
    8f98:	d11e      	bne.n	8fd8 <generic_BLOCK_ERKENNUNG_CTRL+0x130>
    8f9a:	4b24      	ldr	r3, [pc, #144]	; (902c <generic_BLOCK_ERKENNUNG_CTRL+0x184>)
    8f9c:	681b      	ldr	r3, [r3, #0]
    8f9e:	2b0b      	cmp	r3, #11
    8fa0:	d01a      	beq.n	8fd8 <generic_BLOCK_ERKENNUNG_CTRL+0x130>
    8fa2:	4b19      	ldr	r3, [pc, #100]	; (9008 <generic_BLOCK_ERKENNUNG_CTRL+0x160>)
    8fa4:	2200      	movs	r2, #0
    8fa6:	701a      	strb	r2, [r3, #0]
    8fa8:	4b1b      	ldr	r3, [pc, #108]	; (9018 <generic_BLOCK_ERKENNUNG_CTRL+0x170>)
    8faa:	2202      	movs	r2, #2
    8fac:	701a      	strb	r2, [r3, #0]
    8fae:	e014      	b.n	8fda <generic_BLOCK_ERKENNUNG_CTRL+0x132>
    8fb0:	4b15      	ldr	r3, [pc, #84]	; (9008 <generic_BLOCK_ERKENNUNG_CTRL+0x160>)
    8fb2:	2200      	movs	r2, #0
    8fb4:	701a      	strb	r2, [r3, #0]
    8fb6:	4b16      	ldr	r3, [pc, #88]	; (9010 <generic_BLOCK_ERKENNUNG_CTRL+0x168>)
    8fb8:	2200      	movs	r2, #0
    8fba:	601a      	str	r2, [r3, #0]
    8fbc:	4b15      	ldr	r3, [pc, #84]	; (9014 <generic_BLOCK_ERKENNUNG_CTRL+0x16c>)
    8fbe:	2202      	movs	r2, #2
    8fc0:	601a      	str	r2, [r3, #0]
    8fc2:	4b15      	ldr	r3, [pc, #84]	; (9018 <generic_BLOCK_ERKENNUNG_CTRL+0x170>)
    8fc4:	2203      	movs	r2, #3
    8fc6:	701a      	strb	r2, [r3, #0]
    8fc8:	4b0b      	ldr	r3, [pc, #44]	; (8ff8 <generic_BLOCK_ERKENNUNG_CTRL+0x150>)
    8fca:	2201      	movs	r2, #1
    8fcc:	701a      	strb	r2, [r3, #0]
    8fce:	e004      	b.n	8fda <generic_BLOCK_ERKENNUNG_CTRL+0x132>
    8fd0:	bf00      	nop
    8fd2:	e00d      	b.n	8ff0 <generic_BLOCK_ERKENNUNG_CTRL+0x148>
    8fd4:	bf00      	nop
    8fd6:	e00b      	b.n	8ff0 <generic_BLOCK_ERKENNUNG_CTRL+0x148>
    8fd8:	bf00      	nop
    8fda:	e009      	b.n	8ff0 <generic_BLOCK_ERKENNUNG_CTRL+0x148>
    8fdc:	4b0a      	ldr	r3, [pc, #40]	; (9008 <generic_BLOCK_ERKENNUNG_CTRL+0x160>)
    8fde:	2200      	movs	r2, #0
    8fe0:	701a      	strb	r2, [r3, #0]
    8fe2:	4b06      	ldr	r3, [pc, #24]	; (8ffc <generic_BLOCK_ERKENNUNG_CTRL+0x154>)
    8fe4:	2201      	movs	r2, #1
    8fe6:	701a      	strb	r2, [r3, #0]
    8fe8:	e002      	b.n	8ff0 <generic_BLOCK_ERKENNUNG_CTRL+0x148>
    8fea:	bf00      	nop
    8fec:	e000      	b.n	8ff0 <generic_BLOCK_ERKENNUNG_CTRL+0x148>
    8fee:	bf00      	nop
    8ff0:	bf00      	nop
    8ff2:	46bd      	mov	sp, r7
    8ff4:	bc80      	pop	{r7}
    8ff6:	4770      	bx	lr
    8ff8:	0001a0f8 	.word	0x0001a0f8
    8ffc:	0001a1ed 	.word	0x0001a1ed
    9000:	0001a168 	.word	0x0001a168
    9004:	0001a16c 	.word	0x0001a16c
    9008:	0001a1dc 	.word	0x0001a1dc
    900c:	0001a1a7 	.word	0x0001a1a7
    9010:	0001a18c 	.word	0x0001a18c
    9014:	0001a184 	.word	0x0001a184
    9018:	0001a1ec 	.word	0x0001a1ec
    901c:	0001a1b3 	.word	0x0001a1b3
    9020:	0001a1b5 	.word	0x0001a1b5
    9024:	0001a1b0 	.word	0x0001a1b0
    9028:	0001a1b2 	.word	0x0001a1b2
    902c:	0001a194 	.word	0x0001a194

00009030 <FH_DU>:
    9030:	b580      	push	{r7, lr}
    9032:	af00      	add	r7, sp, #0
    9034:	4b3a      	ldr	r3, [pc, #232]	; (9120 <FH_DU+0xf0>)
    9036:	2201      	movs	r2, #1
    9038:	601a      	str	r2, [r3, #0]
    903a:	4b3a      	ldr	r3, [pc, #232]	; (9124 <FH_DU+0xf4>)
    903c:	2200      	movs	r2, #0
    903e:	701a      	strb	r2, [r3, #0]
    9040:	4b39      	ldr	r3, [pc, #228]	; (9128 <FH_DU+0xf8>)
    9042:	2200      	movs	r2, #0
    9044:	701a      	strb	r2, [r3, #0]
    9046:	e2f7      	b.n	9638 <FH_DU+0x608>
    9048:	4b36      	ldr	r3, [pc, #216]	; (9124 <FH_DU+0xf4>)
    904a:	2201      	movs	r2, #1
    904c:	701a      	strb	r2, [r3, #0]
    904e:	4b36      	ldr	r3, [pc, #216]	; (9128 <FH_DU+0xf8>)
    9050:	781b      	ldrb	r3, [r3, #0]
    9052:	3301      	adds	r3, #1
    9054:	b2da      	uxtb	r2, r3
    9056:	4b34      	ldr	r3, [pc, #208]	; (9128 <FH_DU+0xf8>)
    9058:	701a      	strb	r2, [r3, #0]
    905a:	4b34      	ldr	r3, [pc, #208]	; (912c <FH_DU+0xfc>)
    905c:	781b      	ldrb	r3, [r3, #0]
    905e:	2b03      	cmp	r3, #3
    9060:	d03d      	beq.n	90de <FH_DU+0xae>
    9062:	2b03      	cmp	r3, #3
    9064:	dc4d      	bgt.n	9102 <FH_DU+0xd2>
    9066:	2b01      	cmp	r3, #1
    9068:	d002      	beq.n	9070 <FH_DU+0x40>
    906a:	2b02      	cmp	r3, #2
    906c:	d012      	beq.n	9094 <FH_DU+0x64>
    906e:	e048      	b.n	9102 <FH_DU+0xd2>
    9070:	4b2f      	ldr	r3, [pc, #188]	; (9130 <FH_DU+0x100>)
    9072:	781b      	ldrb	r3, [r3, #0]
    9074:	2b00      	cmp	r3, #0
    9076:	d14e      	bne.n	9116 <FH_DU+0xe6>
    9078:	4b2e      	ldr	r3, [pc, #184]	; (9134 <FH_DU+0x104>)
    907a:	781b      	ldrb	r3, [r3, #0]
    907c:	2b00      	cmp	r3, #0
    907e:	d04a      	beq.n	9116 <FH_DU+0xe6>
    9080:	4b28      	ldr	r3, [pc, #160]	; (9124 <FH_DU+0xf4>)
    9082:	2200      	movs	r2, #0
    9084:	701a      	strb	r2, [r3, #0]
    9086:	4b2c      	ldr	r3, [pc, #176]	; (9138 <FH_DU+0x108>)
    9088:	2200      	movs	r2, #0
    908a:	601a      	str	r2, [r3, #0]
    908c:	4b27      	ldr	r3, [pc, #156]	; (912c <FH_DU+0xfc>)
    908e:	2202      	movs	r2, #2
    9090:	701a      	strb	r2, [r3, #0]
    9092:	e058      	b.n	9146 <FH_DU+0x116>
    9094:	4b26      	ldr	r3, [pc, #152]	; (9130 <FH_DU+0x100>)
    9096:	781b      	ldrb	r3, [r3, #0]
    9098:	2b00      	cmp	r3, #0
    909a:	d00e      	beq.n	90ba <FH_DU+0x8a>
    909c:	4b25      	ldr	r3, [pc, #148]	; (9134 <FH_DU+0x104>)
    909e:	781b      	ldrb	r3, [r3, #0]
    90a0:	2b00      	cmp	r3, #0
    90a2:	d10a      	bne.n	90ba <FH_DU+0x8a>
    90a4:	4b1f      	ldr	r3, [pc, #124]	; (9124 <FH_DU+0xf4>)
    90a6:	2200      	movs	r2, #0
    90a8:	701a      	strb	r2, [r3, #0]
    90aa:	4b23      	ldr	r3, [pc, #140]	; (9138 <FH_DU+0x108>)
    90ac:	f06f 0263 	mvn.w	r2, #99	; 0x63
    90b0:	601a      	str	r2, [r3, #0]
    90b2:	4b1e      	ldr	r3, [pc, #120]	; (912c <FH_DU+0xfc>)
    90b4:	2201      	movs	r2, #1
    90b6:	701a      	strb	r2, [r3, #0]
    90b8:	e045      	b.n	9146 <FH_DU+0x116>
    90ba:	4b20      	ldr	r3, [pc, #128]	; (913c <FH_DU+0x10c>)
    90bc:	781b      	ldrb	r3, [r3, #0]
    90be:	2b00      	cmp	r3, #0
    90c0:	d02b      	beq.n	911a <FH_DU+0xea>
    90c2:	4b1f      	ldr	r3, [pc, #124]	; (9140 <FH_DU+0x110>)
    90c4:	781b      	ldrb	r3, [r3, #0]
    90c6:	2b00      	cmp	r3, #0
    90c8:	d127      	bne.n	911a <FH_DU+0xea>
    90ca:	4b16      	ldr	r3, [pc, #88]	; (9124 <FH_DU+0xf4>)
    90cc:	2200      	movs	r2, #0
    90ce:	701a      	strb	r2, [r3, #0]
    90d0:	4b19      	ldr	r3, [pc, #100]	; (9138 <FH_DU+0x108>)
    90d2:	2264      	movs	r2, #100	; 0x64
    90d4:	601a      	str	r2, [r3, #0]
    90d6:	4b15      	ldr	r3, [pc, #84]	; (912c <FH_DU+0xfc>)
    90d8:	2203      	movs	r2, #3
    90da:	701a      	strb	r2, [r3, #0]
    90dc:	e033      	b.n	9146 <FH_DU+0x116>
    90de:	4b17      	ldr	r3, [pc, #92]	; (913c <FH_DU+0x10c>)
    90e0:	781b      	ldrb	r3, [r3, #0]
    90e2:	2b00      	cmp	r3, #0
    90e4:	d12e      	bne.n	9144 <FH_DU+0x114>
    90e6:	4b16      	ldr	r3, [pc, #88]	; (9140 <FH_DU+0x110>)
    90e8:	781b      	ldrb	r3, [r3, #0]
    90ea:	2b00      	cmp	r3, #0
    90ec:	d02a      	beq.n	9144 <FH_DU+0x114>
    90ee:	4b0d      	ldr	r3, [pc, #52]	; (9124 <FH_DU+0xf4>)
    90f0:	2200      	movs	r2, #0
    90f2:	701a      	strb	r2, [r3, #0]
    90f4:	4b10      	ldr	r3, [pc, #64]	; (9138 <FH_DU+0x108>)
    90f6:	2200      	movs	r2, #0
    90f8:	601a      	str	r2, [r3, #0]
    90fa:	4b0c      	ldr	r3, [pc, #48]	; (912c <FH_DU+0xfc>)
    90fc:	2202      	movs	r2, #2
    90fe:	701a      	strb	r2, [r3, #0]
    9100:	e021      	b.n	9146 <FH_DU+0x116>
    9102:	4b08      	ldr	r3, [pc, #32]	; (9124 <FH_DU+0xf4>)
    9104:	2200      	movs	r2, #0
    9106:	701a      	strb	r2, [r3, #0]
    9108:	4b0b      	ldr	r3, [pc, #44]	; (9138 <FH_DU+0x108>)
    910a:	2200      	movs	r2, #0
    910c:	601a      	str	r2, [r3, #0]
    910e:	4b07      	ldr	r3, [pc, #28]	; (912c <FH_DU+0xfc>)
    9110:	2202      	movs	r2, #2
    9112:	701a      	strb	r2, [r3, #0]
    9114:	e017      	b.n	9146 <FH_DU+0x116>
    9116:	bf00      	nop
    9118:	e015      	b.n	9146 <FH_DU+0x116>
    911a:	bf00      	nop
    911c:	e013      	b.n	9146 <FH_DU+0x116>
    911e:	bf00      	nop
    9120:	0001a1d8 	.word	0x0001a1d8
    9124:	0001a1dc 	.word	0x0001a1dc
    9128:	0001a1dd 	.word	0x0001a1dd
    912c:	0001a1ea 	.word	0x0001a1ea
    9130:	0001a1d0 	.word	0x0001a1d0
    9134:	0001a1d2 	.word	0x0001a1d2
    9138:	0001a170 	.word	0x0001a170
    913c:	0001a1d3 	.word	0x0001a1d3
    9140:	0001a1d5 	.word	0x0001a1d5
    9144:	bf00      	nop
    9146:	4b94      	ldr	r3, [pc, #592]	; (9398 <FH_DU+0x368>)
    9148:	7a9b      	ldrb	r3, [r3, #10]
    914a:	2b00      	cmp	r3, #0
    914c:	d102      	bne.n	9154 <FH_DU+0x124>
    914e:	4b93      	ldr	r3, [pc, #588]	; (939c <FH_DU+0x36c>)
    9150:	2203      	movs	r2, #3
    9152:	701a      	strb	r2, [r3, #0]
    9154:	4b90      	ldr	r3, [pc, #576]	; (9398 <FH_DU+0x368>)
    9156:	2200      	movs	r2, #0
    9158:	72da      	strb	r2, [r3, #11]
    915a:	4b8f      	ldr	r3, [pc, #572]	; (9398 <FH_DU+0x368>)
    915c:	7c1b      	ldrb	r3, [r3, #16]
    915e:	2b00      	cmp	r3, #0
    9160:	d102      	bne.n	9168 <FH_DU+0x138>
    9162:	4b8f      	ldr	r3, [pc, #572]	; (93a0 <FH_DU+0x370>)
    9164:	2201      	movs	r2, #1
    9166:	701a      	strb	r2, [r3, #0]
    9168:	4b8b      	ldr	r3, [pc, #556]	; (9398 <FH_DU+0x368>)
    916a:	2200      	movs	r2, #0
    916c:	745a      	strb	r2, [r3, #17]
    916e:	4b8a      	ldr	r3, [pc, #552]	; (9398 <FH_DU+0x368>)
    9170:	7cdb      	ldrb	r3, [r3, #19]
    9172:	2b00      	cmp	r3, #0
    9174:	d105      	bne.n	9182 <FH_DU+0x152>
    9176:	4b88      	ldr	r3, [pc, #544]	; (9398 <FH_DU+0x368>)
    9178:	2200      	movs	r2, #0
    917a:	701a      	strb	r2, [r3, #0]
    917c:	4b89      	ldr	r3, [pc, #548]	; (93a4 <FH_DU+0x374>)
    917e:	2201      	movs	r2, #1
    9180:	701a      	strb	r2, [r3, #0]
    9182:	4b85      	ldr	r3, [pc, #532]	; (9398 <FH_DU+0x368>)
    9184:	2200      	movs	r2, #0
    9186:	751a      	strb	r2, [r3, #20]
    9188:	4b83      	ldr	r3, [pc, #524]	; (9398 <FH_DU+0x368>)
    918a:	7b5b      	ldrb	r3, [r3, #13]
    918c:	2b00      	cmp	r3, #0
    918e:	d114      	bne.n	91ba <FH_DU+0x18a>
    9190:	4b81      	ldr	r3, [pc, #516]	; (9398 <FH_DU+0x368>)
    9192:	2200      	movs	r2, #0
    9194:	711a      	strb	r2, [r3, #4]
    9196:	4b80      	ldr	r3, [pc, #512]	; (9398 <FH_DU+0x368>)
    9198:	2200      	movs	r2, #0
    919a:	719a      	strb	r2, [r3, #6]
    919c:	4b82      	ldr	r3, [pc, #520]	; (93a8 <FH_DU+0x378>)
    919e:	2202      	movs	r2, #2
    91a0:	701a      	strb	r2, [r3, #0]
    91a2:	4b82      	ldr	r3, [pc, #520]	; (93ac <FH_DU+0x37c>)
    91a4:	2200      	movs	r2, #0
    91a6:	601a      	str	r2, [r3, #0]
    91a8:	4b81      	ldr	r3, [pc, #516]	; (93b0 <FH_DU+0x380>)
    91aa:	2201      	movs	r2, #1
    91ac:	701a      	strb	r2, [r3, #0]
    91ae:	4b7a      	ldr	r3, [pc, #488]	; (9398 <FH_DU+0x368>)
    91b0:	2201      	movs	r2, #1
    91b2:	715a      	strb	r2, [r3, #5]
    91b4:	4b7f      	ldr	r3, [pc, #508]	; (93b4 <FH_DU+0x384>)
    91b6:	2201      	movs	r2, #1
    91b8:	701a      	strb	r2, [r3, #0]
    91ba:	4b77      	ldr	r3, [pc, #476]	; (9398 <FH_DU+0x368>)
    91bc:	2200      	movs	r2, #0
    91be:	739a      	strb	r2, [r3, #14]
    91c0:	4b75      	ldr	r3, [pc, #468]	; (9398 <FH_DU+0x368>)
    91c2:	2201      	movs	r2, #1
    91c4:	72da      	strb	r2, [r3, #11]
    91c6:	4b74      	ldr	r3, [pc, #464]	; (9398 <FH_DU+0x368>)
    91c8:	2201      	movs	r2, #1
    91ca:	745a      	strb	r2, [r3, #17]
    91cc:	4b72      	ldr	r3, [pc, #456]	; (9398 <FH_DU+0x368>)
    91ce:	2201      	movs	r2, #1
    91d0:	751a      	strb	r2, [r3, #20]
    91d2:	4b71      	ldr	r3, [pc, #452]	; (9398 <FH_DU+0x368>)
    91d4:	2201      	movs	r2, #1
    91d6:	739a      	strb	r2, [r3, #14]
    91d8:	4b77      	ldr	r3, [pc, #476]	; (93b8 <FH_DU+0x388>)
    91da:	781a      	ldrb	r2, [r3, #0]
    91dc:	4b77      	ldr	r3, [pc, #476]	; (93bc <FH_DU+0x38c>)
    91de:	781b      	ldrb	r3, [r3, #0]
    91e0:	429a      	cmp	r2, r3
    91e2:	d007      	beq.n	91f4 <FH_DU+0x1c4>
    91e4:	4b76      	ldr	r3, [pc, #472]	; (93c0 <FH_DU+0x390>)
    91e6:	781b      	ldrb	r3, [r3, #0]
    91e8:	2b00      	cmp	r3, #0
    91ea:	d103      	bne.n	91f4 <FH_DU+0x1c4>
    91ec:	4b72      	ldr	r3, [pc, #456]	; (93b8 <FH_DU+0x388>)
    91ee:	781a      	ldrb	r2, [r3, #0]
    91f0:	4b74      	ldr	r3, [pc, #464]	; (93c4 <FH_DU+0x394>)
    91f2:	701a      	strb	r2, [r3, #0]
    91f4:	4b74      	ldr	r3, [pc, #464]	; (93c8 <FH_DU+0x398>)
    91f6:	781a      	ldrb	r2, [r3, #0]
    91f8:	4b74      	ldr	r3, [pc, #464]	; (93cc <FH_DU+0x39c>)
    91fa:	781b      	ldrb	r3, [r3, #0]
    91fc:	429a      	cmp	r2, r3
    91fe:	d007      	beq.n	9210 <FH_DU+0x1e0>
    9200:	4b6f      	ldr	r3, [pc, #444]	; (93c0 <FH_DU+0x390>)
    9202:	781b      	ldrb	r3, [r3, #0]
    9204:	2b00      	cmp	r3, #0
    9206:	d003      	beq.n	9210 <FH_DU+0x1e0>
    9208:	4b6f      	ldr	r3, [pc, #444]	; (93c8 <FH_DU+0x398>)
    920a:	781a      	ldrb	r2, [r3, #0]
    920c:	4b6a      	ldr	r3, [pc, #424]	; (93b8 <FH_DU+0x388>)
    920e:	701a      	strb	r2, [r3, #0]
    9210:	4b6f      	ldr	r3, [pc, #444]	; (93d0 <FH_DU+0x3a0>)
    9212:	781a      	ldrb	r2, [r3, #0]
    9214:	4b6f      	ldr	r3, [pc, #444]	; (93d4 <FH_DU+0x3a4>)
    9216:	781b      	ldrb	r3, [r3, #0]
    9218:	429a      	cmp	r2, r3
    921a:	d007      	beq.n	922c <FH_DU+0x1fc>
    921c:	4b68      	ldr	r3, [pc, #416]	; (93c0 <FH_DU+0x390>)
    921e:	781b      	ldrb	r3, [r3, #0]
    9220:	2b00      	cmp	r3, #0
    9222:	d103      	bne.n	922c <FH_DU+0x1fc>
    9224:	4b6a      	ldr	r3, [pc, #424]	; (93d0 <FH_DU+0x3a0>)
    9226:	781a      	ldrb	r2, [r3, #0]
    9228:	4b6b      	ldr	r3, [pc, #428]	; (93d8 <FH_DU+0x3a8>)
    922a:	701a      	strb	r2, [r3, #0]
    922c:	4b6b      	ldr	r3, [pc, #428]	; (93dc <FH_DU+0x3ac>)
    922e:	781a      	ldrb	r2, [r3, #0]
    9230:	4b6b      	ldr	r3, [pc, #428]	; (93e0 <FH_DU+0x3b0>)
    9232:	781b      	ldrb	r3, [r3, #0]
    9234:	429a      	cmp	r2, r3
    9236:	d007      	beq.n	9248 <FH_DU+0x218>
    9238:	4b61      	ldr	r3, [pc, #388]	; (93c0 <FH_DU+0x390>)
    923a:	781b      	ldrb	r3, [r3, #0]
    923c:	2b00      	cmp	r3, #0
    923e:	d003      	beq.n	9248 <FH_DU+0x218>
    9240:	4b66      	ldr	r3, [pc, #408]	; (93dc <FH_DU+0x3ac>)
    9242:	781a      	ldrb	r2, [r3, #0]
    9244:	4b62      	ldr	r3, [pc, #392]	; (93d0 <FH_DU+0x3a0>)
    9246:	701a      	strb	r2, [r3, #0]
    9248:	4b53      	ldr	r3, [pc, #332]	; (9398 <FH_DU+0x368>)
    924a:	7b1a      	ldrb	r2, [r3, #12]
    924c:	4b52      	ldr	r3, [pc, #328]	; (9398 <FH_DU+0x368>)
    924e:	729a      	strb	r2, [r3, #10]
    9250:	4b51      	ldr	r3, [pc, #324]	; (9398 <FH_DU+0x368>)
    9252:	7bda      	ldrb	r2, [r3, #15]
    9254:	4b50      	ldr	r3, [pc, #320]	; (9398 <FH_DU+0x368>)
    9256:	735a      	strb	r2, [r3, #13]
    9258:	4b4f      	ldr	r3, [pc, #316]	; (9398 <FH_DU+0x368>)
    925a:	7c9a      	ldrb	r2, [r3, #18]
    925c:	4b4e      	ldr	r3, [pc, #312]	; (9398 <FH_DU+0x368>)
    925e:	741a      	strb	r2, [r3, #16]
    9260:	4b4d      	ldr	r3, [pc, #308]	; (9398 <FH_DU+0x368>)
    9262:	7d5a      	ldrb	r2, [r3, #21]
    9264:	4b4c      	ldr	r3, [pc, #304]	; (9398 <FH_DU+0x368>)
    9266:	74da      	strb	r2, [r3, #19]
    9268:	4b5e      	ldr	r3, [pc, #376]	; (93e4 <FH_DU+0x3b4>)
    926a:	781a      	ldrb	r2, [r3, #0]
    926c:	4b5e      	ldr	r3, [pc, #376]	; (93e8 <FH_DU+0x3b8>)
    926e:	701a      	strb	r2, [r3, #0]
    9270:	4b59      	ldr	r3, [pc, #356]	; (93d8 <FH_DU+0x3a8>)
    9272:	781a      	ldrb	r2, [r3, #0]
    9274:	4b5d      	ldr	r3, [pc, #372]	; (93ec <FH_DU+0x3bc>)
    9276:	701a      	strb	r2, [r3, #0]
    9278:	4b5d      	ldr	r3, [pc, #372]	; (93f0 <FH_DU+0x3c0>)
    927a:	781a      	ldrb	r2, [r3, #0]
    927c:	4b5d      	ldr	r3, [pc, #372]	; (93f4 <FH_DU+0x3c4>)
    927e:	701a      	strb	r2, [r3, #0]
    9280:	4b50      	ldr	r3, [pc, #320]	; (93c4 <FH_DU+0x394>)
    9282:	781a      	ldrb	r2, [r3, #0]
    9284:	4b5c      	ldr	r3, [pc, #368]	; (93f8 <FH_DU+0x3c8>)
    9286:	701a      	strb	r2, [r3, #0]
    9288:	f7ff f82c 	bl	82e4 <generic_KINDERSICHERUNG_CTRL>
    928c:	4b5b      	ldr	r3, [pc, #364]	; (93fc <FH_DU+0x3cc>)
    928e:	781a      	ldrb	r2, [r3, #0]
    9290:	4b5b      	ldr	r3, [pc, #364]	; (9400 <FH_DU+0x3d0>)
    9292:	701a      	strb	r2, [r3, #0]
    9294:	4b5b      	ldr	r3, [pc, #364]	; (9404 <FH_DU+0x3d4>)
    9296:	781a      	ldrb	r2, [r3, #0]
    9298:	4b5b      	ldr	r3, [pc, #364]	; (9408 <FH_DU+0x3d8>)
    929a:	701a      	strb	r2, [r3, #0]
    929c:	4b5b      	ldr	r3, [pc, #364]	; (940c <FH_DU+0x3dc>)
    929e:	681b      	ldr	r3, [r3, #0]
    92a0:	4a5b      	ldr	r2, [pc, #364]	; (9410 <FH_DU+0x3e0>)
    92a2:	6013      	str	r3, [r2, #0]
    92a4:	4b5b      	ldr	r3, [pc, #364]	; (9414 <FH_DU+0x3e4>)
    92a6:	781a      	ldrb	r2, [r3, #0]
    92a8:	4b5b      	ldr	r3, [pc, #364]	; (9418 <FH_DU+0x3e8>)
    92aa:	701a      	strb	r2, [r3, #0]
    92ac:	4b5b      	ldr	r3, [pc, #364]	; (941c <FH_DU+0x3ec>)
    92ae:	681b      	ldr	r3, [r3, #0]
    92b0:	4a5b      	ldr	r2, [pc, #364]	; (9420 <FH_DU+0x3f0>)
    92b2:	6013      	str	r3, [r2, #0]
    92b4:	4b5b      	ldr	r3, [pc, #364]	; (9424 <FH_DU+0x3f4>)
    92b6:	781a      	ldrb	r2, [r3, #0]
    92b8:	4b5b      	ldr	r3, [pc, #364]	; (9428 <FH_DU+0x3f8>)
    92ba:	701a      	strb	r2, [r3, #0]
    92bc:	4b4a      	ldr	r3, [pc, #296]	; (93e8 <FH_DU+0x3b8>)
    92be:	781a      	ldrb	r2, [r3, #0]
    92c0:	4b48      	ldr	r3, [pc, #288]	; (93e4 <FH_DU+0x3b4>)
    92c2:	701a      	strb	r2, [r3, #0]
    92c4:	4b49      	ldr	r3, [pc, #292]	; (93ec <FH_DU+0x3bc>)
    92c6:	781a      	ldrb	r2, [r3, #0]
    92c8:	4b43      	ldr	r3, [pc, #268]	; (93d8 <FH_DU+0x3a8>)
    92ca:	701a      	strb	r2, [r3, #0]
    92cc:	4b49      	ldr	r3, [pc, #292]	; (93f4 <FH_DU+0x3c4>)
    92ce:	781a      	ldrb	r2, [r3, #0]
    92d0:	4b47      	ldr	r3, [pc, #284]	; (93f0 <FH_DU+0x3c0>)
    92d2:	701a      	strb	r2, [r3, #0]
    92d4:	4b48      	ldr	r3, [pc, #288]	; (93f8 <FH_DU+0x3c8>)
    92d6:	781a      	ldrb	r2, [r3, #0]
    92d8:	4b3a      	ldr	r3, [pc, #232]	; (93c4 <FH_DU+0x394>)
    92da:	701a      	strb	r2, [r3, #0]
    92dc:	4b53      	ldr	r3, [pc, #332]	; (942c <FH_DU+0x3fc>)
    92de:	781a      	ldrb	r2, [r3, #0]
    92e0:	4b53      	ldr	r3, [pc, #332]	; (9430 <FH_DU+0x400>)
    92e2:	701a      	strb	r2, [r3, #0]
    92e4:	4b53      	ldr	r3, [pc, #332]	; (9434 <FH_DU+0x404>)
    92e6:	781a      	ldrb	r2, [r3, #0]
    92e8:	4b53      	ldr	r3, [pc, #332]	; (9438 <FH_DU+0x408>)
    92ea:	701a      	strb	r2, [r3, #0]
    92ec:	4b3d      	ldr	r3, [pc, #244]	; (93e4 <FH_DU+0x3b4>)
    92ee:	781a      	ldrb	r2, [r3, #0]
    92f0:	4b3d      	ldr	r3, [pc, #244]	; (93e8 <FH_DU+0x3b8>)
    92f2:	701a      	strb	r2, [r3, #0]
    92f4:	4b38      	ldr	r3, [pc, #224]	; (93d8 <FH_DU+0x3a8>)
    92f6:	781a      	ldrb	r2, [r3, #0]
    92f8:	4b3c      	ldr	r3, [pc, #240]	; (93ec <FH_DU+0x3bc>)
    92fa:	701a      	strb	r2, [r3, #0]
    92fc:	4b3c      	ldr	r3, [pc, #240]	; (93f0 <FH_DU+0x3c0>)
    92fe:	781a      	ldrb	r2, [r3, #0]
    9300:	4b3c      	ldr	r3, [pc, #240]	; (93f4 <FH_DU+0x3c4>)
    9302:	701a      	strb	r2, [r3, #0]
    9304:	4b2f      	ldr	r3, [pc, #188]	; (93c4 <FH_DU+0x394>)
    9306:	781a      	ldrb	r2, [r3, #0]
    9308:	4b3b      	ldr	r3, [pc, #236]	; (93f8 <FH_DU+0x3c8>)
    930a:	701a      	strb	r2, [r3, #0]
    930c:	f7ff f996 	bl	863c <generic_FH_TUERMODUL_CTRL>
    9310:	4b3a      	ldr	r3, [pc, #232]	; (93fc <FH_DU+0x3cc>)
    9312:	781a      	ldrb	r2, [r3, #0]
    9314:	4b3a      	ldr	r3, [pc, #232]	; (9400 <FH_DU+0x3d0>)
    9316:	701a      	strb	r2, [r3, #0]
    9318:	4b3a      	ldr	r3, [pc, #232]	; (9404 <FH_DU+0x3d4>)
    931a:	781a      	ldrb	r2, [r3, #0]
    931c:	4b3a      	ldr	r3, [pc, #232]	; (9408 <FH_DU+0x3d8>)
    931e:	701a      	strb	r2, [r3, #0]
    9320:	4b3a      	ldr	r3, [pc, #232]	; (940c <FH_DU+0x3dc>)
    9322:	681b      	ldr	r3, [r3, #0]
    9324:	4a3a      	ldr	r2, [pc, #232]	; (9410 <FH_DU+0x3e0>)
    9326:	6013      	str	r3, [r2, #0]
    9328:	4b3a      	ldr	r3, [pc, #232]	; (9414 <FH_DU+0x3e4>)
    932a:	781a      	ldrb	r2, [r3, #0]
    932c:	4b3a      	ldr	r3, [pc, #232]	; (9418 <FH_DU+0x3e8>)
    932e:	701a      	strb	r2, [r3, #0]
    9330:	4b3a      	ldr	r3, [pc, #232]	; (941c <FH_DU+0x3ec>)
    9332:	681b      	ldr	r3, [r3, #0]
    9334:	4a3a      	ldr	r2, [pc, #232]	; (9420 <FH_DU+0x3f0>)
    9336:	6013      	str	r3, [r2, #0]
    9338:	4b3a      	ldr	r3, [pc, #232]	; (9424 <FH_DU+0x3f4>)
    933a:	781a      	ldrb	r2, [r3, #0]
    933c:	4b3a      	ldr	r3, [pc, #232]	; (9428 <FH_DU+0x3f8>)
    933e:	701a      	strb	r2, [r3, #0]
    9340:	4b29      	ldr	r3, [pc, #164]	; (93e8 <FH_DU+0x3b8>)
    9342:	781a      	ldrb	r2, [r3, #0]
    9344:	4b27      	ldr	r3, [pc, #156]	; (93e4 <FH_DU+0x3b4>)
    9346:	701a      	strb	r2, [r3, #0]
    9348:	4b28      	ldr	r3, [pc, #160]	; (93ec <FH_DU+0x3bc>)
    934a:	781a      	ldrb	r2, [r3, #0]
    934c:	4b22      	ldr	r3, [pc, #136]	; (93d8 <FH_DU+0x3a8>)
    934e:	701a      	strb	r2, [r3, #0]
    9350:	4b28      	ldr	r3, [pc, #160]	; (93f4 <FH_DU+0x3c4>)
    9352:	781a      	ldrb	r2, [r3, #0]
    9354:	4b26      	ldr	r3, [pc, #152]	; (93f0 <FH_DU+0x3c0>)
    9356:	701a      	strb	r2, [r3, #0]
    9358:	4b27      	ldr	r3, [pc, #156]	; (93f8 <FH_DU+0x3c8>)
    935a:	781a      	ldrb	r2, [r3, #0]
    935c:	4b19      	ldr	r3, [pc, #100]	; (93c4 <FH_DU+0x394>)
    935e:	701a      	strb	r2, [r3, #0]
    9360:	4b32      	ldr	r3, [pc, #200]	; (942c <FH_DU+0x3fc>)
    9362:	781a      	ldrb	r2, [r3, #0]
    9364:	4b32      	ldr	r3, [pc, #200]	; (9430 <FH_DU+0x400>)
    9366:	701a      	strb	r2, [r3, #0]
    9368:	4b32      	ldr	r3, [pc, #200]	; (9434 <FH_DU+0x404>)
    936a:	781a      	ldrb	r2, [r3, #0]
    936c:	4b32      	ldr	r3, [pc, #200]	; (9438 <FH_DU+0x408>)
    936e:	701a      	strb	r2, [r3, #0]
    9370:	4b1c      	ldr	r3, [pc, #112]	; (93e4 <FH_DU+0x3b4>)
    9372:	781a      	ldrb	r2, [r3, #0]
    9374:	4b1c      	ldr	r3, [pc, #112]	; (93e8 <FH_DU+0x3b8>)
    9376:	701a      	strb	r2, [r3, #0]
    9378:	4b17      	ldr	r3, [pc, #92]	; (93d8 <FH_DU+0x3a8>)
    937a:	781a      	ldrb	r2, [r3, #0]
    937c:	4b1b      	ldr	r3, [pc, #108]	; (93ec <FH_DU+0x3bc>)
    937e:	701a      	strb	r2, [r3, #0]
    9380:	4b1b      	ldr	r3, [pc, #108]	; (93f0 <FH_DU+0x3c0>)
    9382:	781a      	ldrb	r2, [r3, #0]
    9384:	4b1b      	ldr	r3, [pc, #108]	; (93f4 <FH_DU+0x3c4>)
    9386:	701a      	strb	r2, [r3, #0]
    9388:	4b0e      	ldr	r3, [pc, #56]	; (93c4 <FH_DU+0x394>)
    938a:	781a      	ldrb	r2, [r3, #0]
    938c:	4b1a      	ldr	r3, [pc, #104]	; (93f8 <FH_DU+0x3c8>)
    938e:	701a      	strb	r2, [r3, #0]
    9390:	f7ff fd32 	bl	8df8 <generic_EINKLEMMSCHUTZ_CTRL>
    9394:	e052      	b.n	943c <FH_DU+0x40c>
    9396:	bf00      	nop
    9398:	0001a0f8 	.word	0x0001a0f8
    939c:	0001a1e1 	.word	0x0001a1e1
    93a0:	0001a1eb 	.word	0x0001a1eb
    93a4:	0001a1ed 	.word	0x0001a1ed
    93a8:	0001a1e2 	.word	0x0001a1e2
    93ac:	0001a150 	.word	0x0001a150
    93b0:	0001a1e3 	.word	0x0001a1e3
    93b4:	0001a1e4 	.word	0x0001a1e4
    93b8:	0001a1c3 	.word	0x0001a1c3
    93bc:	0001a1c5 	.word	0x0001a1c5
    93c0:	0001a1cc 	.word	0x0001a1cc
    93c4:	0001a1bb 	.word	0x0001a1bb
    93c8:	0001a1c6 	.word	0x0001a1c6
    93cc:	0001a1c7 	.word	0x0001a1c7
    93d0:	0001a1c0 	.word	0x0001a1c0
    93d4:	0001a1c2 	.word	0x0001a1c2
    93d8:	0001a1bc 	.word	0x0001a1bc
    93dc:	0001a1c8 	.word	0x0001a1c8
    93e0:	0001a1c9 	.word	0x0001a1c9
    93e4:	0001a1cb 	.word	0x0001a1cb
    93e8:	0001a1a3 	.word	0x0001a1a3
    93ec:	0001a1a1 	.word	0x0001a1a1
    93f0:	0001a1ca 	.word	0x0001a1ca
    93f4:	0001a19f 	.word	0x0001a19f
    93f8:	0001a19d 	.word	0x0001a19d
    93fc:	0001a1b3 	.word	0x0001a1b3
    9400:	0001a1d3 	.word	0x0001a1d3
    9404:	0001a1b0 	.word	0x0001a1b0
    9408:	0001a1d0 	.word	0x0001a1d0
    940c:	0001a168 	.word	0x0001a168
    9410:	0001a17c 	.word	0x0001a17c
    9414:	0001a1b6 	.word	0x0001a1b6
    9418:	0001a1be 	.word	0x0001a1be
    941c:	0001a164 	.word	0x0001a164
    9420:	0001a178 	.word	0x0001a178
    9424:	0001a1a9 	.word	0x0001a1a9
    9428:	0001a1bd 	.word	0x0001a1bd
    942c:	0001a1a5 	.word	0x0001a1a5
    9430:	0001a1ba 	.word	0x0001a1ba
    9434:	0001a1a6 	.word	0x0001a1a6
    9438:	0001a1cd 	.word	0x0001a1cd
    943c:	4b82      	ldr	r3, [pc, #520]	; (9648 <FH_DU+0x618>)
    943e:	781a      	ldrb	r2, [r3, #0]
    9440:	4b82      	ldr	r3, [pc, #520]	; (964c <FH_DU+0x61c>)
    9442:	701a      	strb	r2, [r3, #0]
    9444:	4b82      	ldr	r3, [pc, #520]	; (9650 <FH_DU+0x620>)
    9446:	781a      	ldrb	r2, [r3, #0]
    9448:	4b82      	ldr	r3, [pc, #520]	; (9654 <FH_DU+0x624>)
    944a:	701a      	strb	r2, [r3, #0]
    944c:	4b82      	ldr	r3, [pc, #520]	; (9658 <FH_DU+0x628>)
    944e:	681b      	ldr	r3, [r3, #0]
    9450:	4a82      	ldr	r2, [pc, #520]	; (965c <FH_DU+0x62c>)
    9452:	6013      	str	r3, [r2, #0]
    9454:	4b82      	ldr	r3, [pc, #520]	; (9660 <FH_DU+0x630>)
    9456:	781a      	ldrb	r2, [r3, #0]
    9458:	4b82      	ldr	r3, [pc, #520]	; (9664 <FH_DU+0x634>)
    945a:	701a      	strb	r2, [r3, #0]
    945c:	4b82      	ldr	r3, [pc, #520]	; (9668 <FH_DU+0x638>)
    945e:	681b      	ldr	r3, [r3, #0]
    9460:	4a82      	ldr	r2, [pc, #520]	; (966c <FH_DU+0x63c>)
    9462:	6013      	str	r3, [r2, #0]
    9464:	4b82      	ldr	r3, [pc, #520]	; (9670 <FH_DU+0x640>)
    9466:	781a      	ldrb	r2, [r3, #0]
    9468:	4b82      	ldr	r3, [pc, #520]	; (9674 <FH_DU+0x644>)
    946a:	701a      	strb	r2, [r3, #0]
    946c:	4b82      	ldr	r3, [pc, #520]	; (9678 <FH_DU+0x648>)
    946e:	781a      	ldrb	r2, [r3, #0]
    9470:	4b82      	ldr	r3, [pc, #520]	; (967c <FH_DU+0x64c>)
    9472:	701a      	strb	r2, [r3, #0]
    9474:	4b82      	ldr	r3, [pc, #520]	; (9680 <FH_DU+0x650>)
    9476:	781a      	ldrb	r2, [r3, #0]
    9478:	4b82      	ldr	r3, [pc, #520]	; (9684 <FH_DU+0x654>)
    947a:	701a      	strb	r2, [r3, #0]
    947c:	4b82      	ldr	r3, [pc, #520]	; (9688 <FH_DU+0x658>)
    947e:	781a      	ldrb	r2, [r3, #0]
    9480:	4b82      	ldr	r3, [pc, #520]	; (968c <FH_DU+0x65c>)
    9482:	701a      	strb	r2, [r3, #0]
    9484:	4b82      	ldr	r3, [pc, #520]	; (9690 <FH_DU+0x660>)
    9486:	781a      	ldrb	r2, [r3, #0]
    9488:	4b82      	ldr	r3, [pc, #520]	; (9694 <FH_DU+0x664>)
    948a:	701a      	strb	r2, [r3, #0]
    948c:	4b82      	ldr	r3, [pc, #520]	; (9698 <FH_DU+0x668>)
    948e:	781a      	ldrb	r2, [r3, #0]
    9490:	4b82      	ldr	r3, [pc, #520]	; (969c <FH_DU+0x66c>)
    9492:	701a      	strb	r2, [r3, #0]
    9494:	4b82      	ldr	r3, [pc, #520]	; (96a0 <FH_DU+0x670>)
    9496:	781a      	ldrb	r2, [r3, #0]
    9498:	4b82      	ldr	r3, [pc, #520]	; (96a4 <FH_DU+0x674>)
    949a:	701a      	strb	r2, [r3, #0]
    949c:	4b77      	ldr	r3, [pc, #476]	; (967c <FH_DU+0x64c>)
    949e:	781a      	ldrb	r2, [r3, #0]
    94a0:	4b75      	ldr	r3, [pc, #468]	; (9678 <FH_DU+0x648>)
    94a2:	701a      	strb	r2, [r3, #0]
    94a4:	4b77      	ldr	r3, [pc, #476]	; (9684 <FH_DU+0x654>)
    94a6:	781a      	ldrb	r2, [r3, #0]
    94a8:	4b75      	ldr	r3, [pc, #468]	; (9680 <FH_DU+0x650>)
    94aa:	701a      	strb	r2, [r3, #0]
    94ac:	4b77      	ldr	r3, [pc, #476]	; (968c <FH_DU+0x65c>)
    94ae:	781a      	ldrb	r2, [r3, #0]
    94b0:	4b75      	ldr	r3, [pc, #468]	; (9688 <FH_DU+0x658>)
    94b2:	701a      	strb	r2, [r3, #0]
    94b4:	4b77      	ldr	r3, [pc, #476]	; (9694 <FH_DU+0x664>)
    94b6:	781a      	ldrb	r2, [r3, #0]
    94b8:	4b75      	ldr	r3, [pc, #468]	; (9690 <FH_DU+0x660>)
    94ba:	701a      	strb	r2, [r3, #0]
    94bc:	f7ff fcf4 	bl	8ea8 <generic_BLOCK_ERKENNUNG_CTRL>
    94c0:	4b61      	ldr	r3, [pc, #388]	; (9648 <FH_DU+0x618>)
    94c2:	781a      	ldrb	r2, [r3, #0]
    94c4:	4b61      	ldr	r3, [pc, #388]	; (964c <FH_DU+0x61c>)
    94c6:	701a      	strb	r2, [r3, #0]
    94c8:	4b61      	ldr	r3, [pc, #388]	; (9650 <FH_DU+0x620>)
    94ca:	781a      	ldrb	r2, [r3, #0]
    94cc:	4b61      	ldr	r3, [pc, #388]	; (9654 <FH_DU+0x624>)
    94ce:	701a      	strb	r2, [r3, #0]
    94d0:	4b61      	ldr	r3, [pc, #388]	; (9658 <FH_DU+0x628>)
    94d2:	681b      	ldr	r3, [r3, #0]
    94d4:	4a61      	ldr	r2, [pc, #388]	; (965c <FH_DU+0x62c>)
    94d6:	6013      	str	r3, [r2, #0]
    94d8:	4b61      	ldr	r3, [pc, #388]	; (9660 <FH_DU+0x630>)
    94da:	781a      	ldrb	r2, [r3, #0]
    94dc:	4b61      	ldr	r3, [pc, #388]	; (9664 <FH_DU+0x634>)
    94de:	701a      	strb	r2, [r3, #0]
    94e0:	4b61      	ldr	r3, [pc, #388]	; (9668 <FH_DU+0x638>)
    94e2:	681b      	ldr	r3, [r3, #0]
    94e4:	4a61      	ldr	r2, [pc, #388]	; (966c <FH_DU+0x63c>)
    94e6:	6013      	str	r3, [r2, #0]
    94e8:	4b61      	ldr	r3, [pc, #388]	; (9670 <FH_DU+0x640>)
    94ea:	781a      	ldrb	r2, [r3, #0]
    94ec:	4b61      	ldr	r3, [pc, #388]	; (9674 <FH_DU+0x644>)
    94ee:	701a      	strb	r2, [r3, #0]
    94f0:	4b61      	ldr	r3, [pc, #388]	; (9678 <FH_DU+0x648>)
    94f2:	781a      	ldrb	r2, [r3, #0]
    94f4:	4b61      	ldr	r3, [pc, #388]	; (967c <FH_DU+0x64c>)
    94f6:	701a      	strb	r2, [r3, #0]
    94f8:	4b61      	ldr	r3, [pc, #388]	; (9680 <FH_DU+0x650>)
    94fa:	781a      	ldrb	r2, [r3, #0]
    94fc:	4b61      	ldr	r3, [pc, #388]	; (9684 <FH_DU+0x654>)
    94fe:	701a      	strb	r2, [r3, #0]
    9500:	4b61      	ldr	r3, [pc, #388]	; (9688 <FH_DU+0x658>)
    9502:	781a      	ldrb	r2, [r3, #0]
    9504:	4b61      	ldr	r3, [pc, #388]	; (968c <FH_DU+0x65c>)
    9506:	701a      	strb	r2, [r3, #0]
    9508:	4b61      	ldr	r3, [pc, #388]	; (9690 <FH_DU+0x660>)
    950a:	781a      	ldrb	r2, [r3, #0]
    950c:	4b61      	ldr	r3, [pc, #388]	; (9694 <FH_DU+0x664>)
    950e:	701a      	strb	r2, [r3, #0]
    9510:	4b61      	ldr	r3, [pc, #388]	; (9698 <FH_DU+0x668>)
    9512:	781a      	ldrb	r2, [r3, #0]
    9514:	4b61      	ldr	r3, [pc, #388]	; (969c <FH_DU+0x66c>)
    9516:	701a      	strb	r2, [r3, #0]
    9518:	4b61      	ldr	r3, [pc, #388]	; (96a0 <FH_DU+0x670>)
    951a:	781a      	ldrb	r2, [r3, #0]
    951c:	4b61      	ldr	r3, [pc, #388]	; (96a4 <FH_DU+0x674>)
    951e:	701a      	strb	r2, [r3, #0]
    9520:	4b61      	ldr	r3, [pc, #388]	; (96a8 <FH_DU+0x678>)
    9522:	7a9a      	ldrb	r2, [r3, #10]
    9524:	4b60      	ldr	r3, [pc, #384]	; (96a8 <FH_DU+0x678>)
    9526:	72da      	strb	r2, [r3, #11]
    9528:	4b5f      	ldr	r3, [pc, #380]	; (96a8 <FH_DU+0x678>)
    952a:	7b5a      	ldrb	r2, [r3, #13]
    952c:	4b5e      	ldr	r3, [pc, #376]	; (96a8 <FH_DU+0x678>)
    952e:	739a      	strb	r2, [r3, #14]
    9530:	4b5d      	ldr	r3, [pc, #372]	; (96a8 <FH_DU+0x678>)
    9532:	7c1a      	ldrb	r2, [r3, #16]
    9534:	4b5c      	ldr	r3, [pc, #368]	; (96a8 <FH_DU+0x678>)
    9536:	745a      	strb	r2, [r3, #17]
    9538:	4b5b      	ldr	r3, [pc, #364]	; (96a8 <FH_DU+0x678>)
    953a:	7cda      	ldrb	r2, [r3, #19]
    953c:	4b5a      	ldr	r3, [pc, #360]	; (96a8 <FH_DU+0x678>)
    953e:	751a      	strb	r2, [r3, #20]
    9540:	4b5a      	ldr	r3, [pc, #360]	; (96ac <FH_DU+0x67c>)
    9542:	681b      	ldr	r3, [r3, #0]
    9544:	4a5a      	ldr	r2, [pc, #360]	; (96b0 <FH_DU+0x680>)
    9546:	6013      	str	r3, [r2, #0]
    9548:	4b43      	ldr	r3, [pc, #268]	; (9658 <FH_DU+0x628>)
    954a:	681b      	ldr	r3, [r3, #0]
    954c:	4a59      	ldr	r2, [pc, #356]	; (96b4 <FH_DU+0x684>)
    954e:	6013      	str	r3, [r2, #0]
    9550:	4b59      	ldr	r3, [pc, #356]	; (96b8 <FH_DU+0x688>)
    9552:	681b      	ldr	r3, [r3, #0]
    9554:	4a59      	ldr	r2, [pc, #356]	; (96bc <FH_DU+0x68c>)
    9556:	6013      	str	r3, [r2, #0]
    9558:	4b40      	ldr	r3, [pc, #256]	; (965c <FH_DU+0x62c>)
    955a:	681b      	ldr	r3, [r3, #0]
    955c:	4a58      	ldr	r2, [pc, #352]	; (96c0 <FH_DU+0x690>)
    955e:	6013      	str	r3, [r2, #0]
    9560:	4b58      	ldr	r3, [pc, #352]	; (96c4 <FH_DU+0x694>)
    9562:	681b      	ldr	r3, [r3, #0]
    9564:	4a58      	ldr	r2, [pc, #352]	; (96c8 <FH_DU+0x698>)
    9566:	6013      	str	r3, [r2, #0]
    9568:	4b49      	ldr	r3, [pc, #292]	; (9690 <FH_DU+0x660>)
    956a:	781a      	ldrb	r2, [r3, #0]
    956c:	4b57      	ldr	r3, [pc, #348]	; (96cc <FH_DU+0x69c>)
    956e:	701a      	strb	r2, [r3, #0]
    9570:	4b45      	ldr	r3, [pc, #276]	; (9688 <FH_DU+0x658>)
    9572:	781a      	ldrb	r2, [r3, #0]
    9574:	4b56      	ldr	r3, [pc, #344]	; (96d0 <FH_DU+0x6a0>)
    9576:	701a      	strb	r2, [r3, #0]
    9578:	4b41      	ldr	r3, [pc, #260]	; (9680 <FH_DU+0x650>)
    957a:	781a      	ldrb	r2, [r3, #0]
    957c:	4b55      	ldr	r3, [pc, #340]	; (96d4 <FH_DU+0x6a4>)
    957e:	701a      	strb	r2, [r3, #0]
    9580:	4b3d      	ldr	r3, [pc, #244]	; (9678 <FH_DU+0x648>)
    9582:	781a      	ldrb	r2, [r3, #0]
    9584:	4b54      	ldr	r3, [pc, #336]	; (96d8 <FH_DU+0x6a8>)
    9586:	701a      	strb	r2, [r3, #0]
    9588:	4b54      	ldr	r3, [pc, #336]	; (96dc <FH_DU+0x6ac>)
    958a:	781a      	ldrb	r2, [r3, #0]
    958c:	4b44      	ldr	r3, [pc, #272]	; (96a0 <FH_DU+0x670>)
    958e:	701a      	strb	r2, [r3, #0]
    9590:	4b43      	ldr	r3, [pc, #268]	; (96a0 <FH_DU+0x670>)
    9592:	781a      	ldrb	r2, [r3, #0]
    9594:	4b52      	ldr	r3, [pc, #328]	; (96e0 <FH_DU+0x6b0>)
    9596:	701a      	strb	r2, [r3, #0]
    9598:	4b52      	ldr	r3, [pc, #328]	; (96e4 <FH_DU+0x6b4>)
    959a:	781a      	ldrb	r2, [r3, #0]
    959c:	4b52      	ldr	r3, [pc, #328]	; (96e8 <FH_DU+0x6b8>)
    959e:	701a      	strb	r2, [r3, #0]
    95a0:	4b51      	ldr	r3, [pc, #324]	; (96e8 <FH_DU+0x6b8>)
    95a2:	781a      	ldrb	r2, [r3, #0]
    95a4:	4b51      	ldr	r3, [pc, #324]	; (96ec <FH_DU+0x6bc>)
    95a6:	701a      	strb	r2, [r3, #0]
    95a8:	4b51      	ldr	r3, [pc, #324]	; (96f0 <FH_DU+0x6c0>)
    95aa:	781a      	ldrb	r2, [r3, #0]
    95ac:	4b51      	ldr	r3, [pc, #324]	; (96f4 <FH_DU+0x6c4>)
    95ae:	701a      	strb	r2, [r3, #0]
    95b0:	4b50      	ldr	r3, [pc, #320]	; (96f4 <FH_DU+0x6c4>)
    95b2:	781a      	ldrb	r2, [r3, #0]
    95b4:	4b50      	ldr	r3, [pc, #320]	; (96f8 <FH_DU+0x6c8>)
    95b6:	701a      	strb	r2, [r3, #0]
    95b8:	4b50      	ldr	r3, [pc, #320]	; (96fc <FH_DU+0x6cc>)
    95ba:	781a      	ldrb	r2, [r3, #0]
    95bc:	4b24      	ldr	r3, [pc, #144]	; (9650 <FH_DU+0x620>)
    95be:	701a      	strb	r2, [r3, #0]
    95c0:	4b23      	ldr	r3, [pc, #140]	; (9650 <FH_DU+0x620>)
    95c2:	781a      	ldrb	r2, [r3, #0]
    95c4:	4b4e      	ldr	r3, [pc, #312]	; (9700 <FH_DU+0x6d0>)
    95c6:	701a      	strb	r2, [r3, #0]
    95c8:	4b4e      	ldr	r3, [pc, #312]	; (9704 <FH_DU+0x6d4>)
    95ca:	781a      	ldrb	r2, [r3, #0]
    95cc:	4b1e      	ldr	r3, [pc, #120]	; (9648 <FH_DU+0x618>)
    95ce:	701a      	strb	r2, [r3, #0]
    95d0:	4b1d      	ldr	r3, [pc, #116]	; (9648 <FH_DU+0x618>)
    95d2:	781a      	ldrb	r2, [r3, #0]
    95d4:	4b4c      	ldr	r3, [pc, #304]	; (9708 <FH_DU+0x6d8>)
    95d6:	701a      	strb	r2, [r3, #0]
    95d8:	4b21      	ldr	r3, [pc, #132]	; (9660 <FH_DU+0x630>)
    95da:	781a      	ldrb	r2, [r3, #0]
    95dc:	4b4b      	ldr	r3, [pc, #300]	; (970c <FH_DU+0x6dc>)
    95de:	701a      	strb	r2, [r3, #0]
    95e0:	4b20      	ldr	r3, [pc, #128]	; (9664 <FH_DU+0x634>)
    95e2:	781a      	ldrb	r2, [r3, #0]
    95e4:	4b4a      	ldr	r3, [pc, #296]	; (9710 <FH_DU+0x6e0>)
    95e6:	701a      	strb	r2, [r3, #0]
    95e8:	4b4a      	ldr	r3, [pc, #296]	; (9714 <FH_DU+0x6e4>)
    95ea:	781a      	ldrb	r2, [r3, #0]
    95ec:	4b4a      	ldr	r3, [pc, #296]	; (9718 <FH_DU+0x6e8>)
    95ee:	701a      	strb	r2, [r3, #0]
    95f0:	4b4a      	ldr	r3, [pc, #296]	; (971c <FH_DU+0x6ec>)
    95f2:	781a      	ldrb	r2, [r3, #0]
    95f4:	4b4a      	ldr	r3, [pc, #296]	; (9720 <FH_DU+0x6f0>)
    95f6:	701a      	strb	r2, [r3, #0]
    95f8:	4b4a      	ldr	r3, [pc, #296]	; (9724 <FH_DU+0x6f4>)
    95fa:	781a      	ldrb	r2, [r3, #0]
    95fc:	4b4a      	ldr	r3, [pc, #296]	; (9728 <FH_DU+0x6f8>)
    95fe:	701a      	strb	r2, [r3, #0]
    9600:	4b4a      	ldr	r3, [pc, #296]	; (972c <FH_DU+0x6fc>)
    9602:	781a      	ldrb	r2, [r3, #0]
    9604:	4b4a      	ldr	r3, [pc, #296]	; (9730 <FH_DU+0x700>)
    9606:	701a      	strb	r2, [r3, #0]
    9608:	4b4a      	ldr	r3, [pc, #296]	; (9734 <FH_DU+0x704>)
    960a:	781a      	ldrb	r2, [r3, #0]
    960c:	4b25      	ldr	r3, [pc, #148]	; (96a4 <FH_DU+0x674>)
    960e:	701a      	strb	r2, [r3, #0]
    9610:	4b24      	ldr	r3, [pc, #144]	; (96a4 <FH_DU+0x674>)
    9612:	781a      	ldrb	r2, [r3, #0]
    9614:	4b48      	ldr	r3, [pc, #288]	; (9738 <FH_DU+0x708>)
    9616:	701a      	strb	r2, [r3, #0]
    9618:	4b48      	ldr	r3, [pc, #288]	; (973c <FH_DU+0x70c>)
    961a:	781a      	ldrb	r2, [r3, #0]
    961c:	4b0d      	ldr	r3, [pc, #52]	; (9654 <FH_DU+0x624>)
    961e:	701a      	strb	r2, [r3, #0]
    9620:	4b0c      	ldr	r3, [pc, #48]	; (9654 <FH_DU+0x624>)
    9622:	781a      	ldrb	r2, [r3, #0]
    9624:	4b46      	ldr	r3, [pc, #280]	; (9740 <FH_DU+0x710>)
    9626:	701a      	strb	r2, [r3, #0]
    9628:	4b46      	ldr	r3, [pc, #280]	; (9744 <FH_DU+0x714>)
    962a:	781a      	ldrb	r2, [r3, #0]
    962c:	4b07      	ldr	r3, [pc, #28]	; (964c <FH_DU+0x61c>)
    962e:	701a      	strb	r2, [r3, #0]
    9630:	4b06      	ldr	r3, [pc, #24]	; (964c <FH_DU+0x61c>)
    9632:	781a      	ldrb	r2, [r3, #0]
    9634:	4b44      	ldr	r3, [pc, #272]	; (9748 <FH_DU+0x718>)
    9636:	701a      	strb	r2, [r3, #0]
    9638:	4b44      	ldr	r3, [pc, #272]	; (974c <FH_DU+0x71c>)
    963a:	781b      	ldrb	r3, [r3, #0]
    963c:	2b00      	cmp	r3, #0
    963e:	f43f ad03 	beq.w	9048 <FH_DU+0x18>
    9642:	bf00      	nop
    9644:	bf00      	nop
    9646:	bd80      	pop	{r7, pc}
    9648:	0001a1b3 	.word	0x0001a1b3
    964c:	0001a1d3 	.word	0x0001a1d3
    9650:	0001a1b0 	.word	0x0001a1b0
    9654:	0001a1d0 	.word	0x0001a1d0
    9658:	0001a168 	.word	0x0001a168
    965c:	0001a17c 	.word	0x0001a17c
    9660:	0001a1b6 	.word	0x0001a1b6
    9664:	0001a1be 	.word	0x0001a1be
    9668:	0001a164 	.word	0x0001a164
    966c:	0001a178 	.word	0x0001a178
    9670:	0001a1a9 	.word	0x0001a1a9
    9674:	0001a1bd 	.word	0x0001a1bd
    9678:	0001a1a3 	.word	0x0001a1a3
    967c:	0001a1cb 	.word	0x0001a1cb
    9680:	0001a1a1 	.word	0x0001a1a1
    9684:	0001a1bc 	.word	0x0001a1bc
    9688:	0001a19f 	.word	0x0001a19f
    968c:	0001a1ca 	.word	0x0001a1ca
    9690:	0001a19d 	.word	0x0001a19d
    9694:	0001a1bb 	.word	0x0001a1bb
    9698:	0001a1a5 	.word	0x0001a1a5
    969c:	0001a1ba 	.word	0x0001a1ba
    96a0:	0001a1a6 	.word	0x0001a1a6
    96a4:	0001a1cd 	.word	0x0001a1cd
    96a8:	0001a0f8 	.word	0x0001a0f8
    96ac:	0001a150 	.word	0x0001a150
    96b0:	0001a158 	.word	0x0001a158
    96b4:	0001a16c 	.word	0x0001a16c
    96b8:	0001a174 	.word	0x0001a174
    96bc:	0001a170 	.word	0x0001a170
    96c0:	0001a180 	.word	0x0001a180
    96c4:	0001a18c 	.word	0x0001a18c
    96c8:	0001a194 	.word	0x0001a194
    96cc:	0001a19e 	.word	0x0001a19e
    96d0:	0001a1a0 	.word	0x0001a1a0
    96d4:	0001a1a2 	.word	0x0001a1a2
    96d8:	0001a1a4 	.word	0x0001a1a4
    96dc:	0001a1a7 	.word	0x0001a1a7
    96e0:	0001a1a8 	.word	0x0001a1a8
    96e4:	0001a1ab 	.word	0x0001a1ab
    96e8:	0001a1aa 	.word	0x0001a1aa
    96ec:	0001a1ac 	.word	0x0001a1ac
    96f0:	0001a1ae 	.word	0x0001a1ae
    96f4:	0001a1ad 	.word	0x0001a1ad
    96f8:	0001a1af 	.word	0x0001a1af
    96fc:	0001a1b1 	.word	0x0001a1b1
    9700:	0001a1b2 	.word	0x0001a1b2
    9704:	0001a1b4 	.word	0x0001a1b4
    9708:	0001a1b5 	.word	0x0001a1b5
    970c:	0001a1b7 	.word	0x0001a1b7
    9710:	0001a1bf 	.word	0x0001a1bf
    9714:	0001a1c0 	.word	0x0001a1c0
    9718:	0001a1c2 	.word	0x0001a1c2
    971c:	0001a1c3 	.word	0x0001a1c3
    9720:	0001a1c5 	.word	0x0001a1c5
    9724:	0001a1c6 	.word	0x0001a1c6
    9728:	0001a1c7 	.word	0x0001a1c7
    972c:	0001a1c8 	.word	0x0001a1c8
    9730:	0001a1c9 	.word	0x0001a1c9
    9734:	0001a1ce 	.word	0x0001a1ce
    9738:	0001a1cf 	.word	0x0001a1cf
    973c:	0001a1d1 	.word	0x0001a1d1
    9740:	0001a1d2 	.word	0x0001a1d2
    9744:	0001a1d4 	.word	0x0001a1d4
    9748:	0001a1d5 	.word	0x0001a1d5
    974c:	0001a1dc 	.word	0x0001a1dc

00009750 <warm_caches>:
    9750:	b580      	push	{r7, lr}
    9752:	b084      	sub	sp, #16
    9754:	af00      	add	r7, sp, #0
    9756:	6078      	str	r0, [r7, #4]
    9758:	6878      	ldr	r0, [r7, #4]
    975a:	f000 f80f 	bl	977c <benchmark_body>
    975e:	60f8      	str	r0, [r7, #12]
    9760:	bf00      	nop
    9762:	3710      	adds	r7, #16
    9764:	46bd      	mov	sp, r7
    9766:	bd80      	pop	{r7, pc}

00009768 <benchmark>:
    9768:	b580      	push	{r7, lr}
    976a:	af00      	add	r7, sp, #0
    976c:	f240 70ac 	movw	r0, #1964	; 0x7ac
    9770:	f000 f804 	bl	977c <benchmark_body>
    9774:	4603      	mov	r3, r0
    9776:	4618      	mov	r0, r3
    9778:	bd80      	pop	{r7, pc}
    977a:	0000      	movs	r0, r0

0000977c <benchmark_body>:
    977c:	b580      	push	{r7, lr}
    977e:	b084      	sub	sp, #16
    9780:	af00      	add	r7, sp, #0
    9782:	6078      	str	r0, [r7, #4]
    9784:	2300      	movs	r3, #0
    9786:	60fb      	str	r3, [r7, #12]
    9788:	e00d      	b.n	97a6 <benchmark_body+0x2a>
    978a:	2240      	movs	r2, #64	; 0x40
    978c:	2100      	movs	r1, #0
    978e:	480a      	ldr	r0, [pc, #40]	; (97b8 <benchmark_body+0x3c>)
    9790:	f000 f93e 	bl	9a10 <memset>
    9794:	f7fe fd40 	bl	8218 <init>
    9798:	f7fe fcb0 	bl	80fc <interface>
    979c:	f7ff fc48 	bl	9030 <FH_DU>
    97a0:	68fb      	ldr	r3, [r7, #12]
    97a2:	3301      	adds	r3, #1
    97a4:	60fb      	str	r3, [r7, #12]
    97a6:	68fa      	ldr	r2, [r7, #12]
    97a8:	687b      	ldr	r3, [r7, #4]
    97aa:	429a      	cmp	r2, r3
    97ac:	dbed      	blt.n	978a <benchmark_body+0xe>
    97ae:	2300      	movs	r3, #0
    97b0:	4618      	mov	r0, r3
    97b2:	3710      	adds	r7, #16
    97b4:	46bd      	mov	sp, r7
    97b6:	bd80      	pop	{r7, pc}
    97b8:	0001a0f8 	.word	0x0001a0f8

000097bc <initialise_benchmark>:
    97bc:	b480      	push	{r7}
    97be:	af00      	add	r7, sp, #0
    97c0:	bf00      	nop
    97c2:	46bd      	mov	sp, r7
    97c4:	bc80      	pop	{r7}
    97c6:	4770      	bx	lr

000097c8 <verify_benchmark>:
    97c8:	b4b0      	push	{r4, r5, r7}
    97ca:	b095      	sub	sp, #84	; 0x54
    97cc:	af00      	add	r7, sp, #0
    97ce:	6078      	str	r0, [r7, #4]
    97d0:	4b3b      	ldr	r3, [pc, #236]	; (98c0 <verify_benchmark+0xf8>)
    97d2:	f107 040c 	add.w	r4, r7, #12
    97d6:	461d      	mov	r5, r3
    97d8:	cd0f      	ldmia	r5!, {r0, r1, r2, r3}
    97da:	c40f      	stmia	r4!, {r0, r1, r2, r3}
    97dc:	cd0f      	ldmia	r5!, {r0, r1, r2, r3}
    97de:	c40f      	stmia	r4!, {r0, r1, r2, r3}
    97e0:	cd0f      	ldmia	r5!, {r0, r1, r2, r3}
    97e2:	c40f      	stmia	r4!, {r0, r1, r2, r3}
    97e4:	e895 000f 	ldmia.w	r5, {r0, r1, r2, r3}
    97e8:	e884 000f 	stmia.w	r4, {r0, r1, r2, r3}
    97ec:	2300      	movs	r3, #0
    97ee:	64fb      	str	r3, [r7, #76]	; 0x4c
    97f0:	e00f      	b.n	9812 <verify_benchmark+0x4a>
    97f2:	4a34      	ldr	r2, [pc, #208]	; (98c4 <verify_benchmark+0xfc>)
    97f4:	6cfb      	ldr	r3, [r7, #76]	; 0x4c
    97f6:	4413      	add	r3, r2
    97f8:	781a      	ldrb	r2, [r3, #0]
    97fa:	f107 010c 	add.w	r1, r7, #12
    97fe:	6cfb      	ldr	r3, [r7, #76]	; 0x4c
    9800:	440b      	add	r3, r1
    9802:	781b      	ldrb	r3, [r3, #0]
    9804:	429a      	cmp	r2, r3
    9806:	d001      	beq.n	980c <verify_benchmark+0x44>
    9808:	2300      	movs	r3, #0
    980a:	e054      	b.n	98b6 <verify_benchmark+0xee>
    980c:	6cfb      	ldr	r3, [r7, #76]	; 0x4c
    980e:	3301      	adds	r3, #1
    9810:	64fb      	str	r3, [r7, #76]	; 0x4c
    9812:	6cfb      	ldr	r3, [r7, #76]	; 0x4c
    9814:	2b3f      	cmp	r3, #63	; 0x3f
    9816:	ddec      	ble.n	97f2 <verify_benchmark+0x2a>
    9818:	4b2b      	ldr	r3, [pc, #172]	; (98c8 <verify_benchmark+0x100>)
    981a:	681b      	ldr	r3, [r3, #0]
    981c:	2b00      	cmp	r3, #0
    981e:	d147      	bne.n	98b0 <verify_benchmark+0xe8>
    9820:	4b2a      	ldr	r3, [pc, #168]	; (98cc <verify_benchmark+0x104>)
    9822:	681b      	ldr	r3, [r3, #0]
    9824:	2b00      	cmp	r3, #0
    9826:	d143      	bne.n	98b0 <verify_benchmark+0xe8>
    9828:	4b29      	ldr	r3, [pc, #164]	; (98d0 <verify_benchmark+0x108>)
    982a:	681b      	ldr	r3, [r3, #0]
    982c:	2b00      	cmp	r3, #0
    982e:	d13f      	bne.n	98b0 <verify_benchmark+0xe8>
    9830:	4b28      	ldr	r3, [pc, #160]	; (98d4 <verify_benchmark+0x10c>)
    9832:	781b      	ldrb	r3, [r3, #0]
    9834:	2b00      	cmp	r3, #0
    9836:	d13b      	bne.n	98b0 <verify_benchmark+0xe8>
    9838:	4b27      	ldr	r3, [pc, #156]	; (98d8 <verify_benchmark+0x110>)
    983a:	781b      	ldrb	r3, [r3, #0]
    983c:	2b00      	cmp	r3, #0
    983e:	d137      	bne.n	98b0 <verify_benchmark+0xe8>
    9840:	4b26      	ldr	r3, [pc, #152]	; (98dc <verify_benchmark+0x114>)
    9842:	781b      	ldrb	r3, [r3, #0]
    9844:	2b00      	cmp	r3, #0
    9846:	d133      	bne.n	98b0 <verify_benchmark+0xe8>
    9848:	4b25      	ldr	r3, [pc, #148]	; (98e0 <verify_benchmark+0x118>)
    984a:	781b      	ldrb	r3, [r3, #0]
    984c:	2b03      	cmp	r3, #3
    984e:	d12f      	bne.n	98b0 <verify_benchmark+0xe8>
    9850:	4b24      	ldr	r3, [pc, #144]	; (98e4 <verify_benchmark+0x11c>)
    9852:	781b      	ldrb	r3, [r3, #0]
    9854:	2b02      	cmp	r3, #2
    9856:	d12b      	bne.n	98b0 <verify_benchmark+0xe8>
    9858:	4b23      	ldr	r3, [pc, #140]	; (98e8 <verify_benchmark+0x120>)
    985a:	781b      	ldrb	r3, [r3, #0]
    985c:	2b01      	cmp	r3, #1
    985e:	d127      	bne.n	98b0 <verify_benchmark+0xe8>
    9860:	4b22      	ldr	r3, [pc, #136]	; (98ec <verify_benchmark+0x124>)
    9862:	781b      	ldrb	r3, [r3, #0]
    9864:	2b01      	cmp	r3, #1
    9866:	d123      	bne.n	98b0 <verify_benchmark+0xe8>
    9868:	4b21      	ldr	r3, [pc, #132]	; (98f0 <verify_benchmark+0x128>)
    986a:	781b      	ldrb	r3, [r3, #0]
    986c:	2b00      	cmp	r3, #0
    986e:	d11f      	bne.n	98b0 <verify_benchmark+0xe8>
    9870:	4b20      	ldr	r3, [pc, #128]	; (98f4 <verify_benchmark+0x12c>)
    9872:	781b      	ldrb	r3, [r3, #0]
    9874:	2b00      	cmp	r3, #0
    9876:	d11b      	bne.n	98b0 <verify_benchmark+0xe8>
    9878:	4b1f      	ldr	r3, [pc, #124]	; (98f8 <verify_benchmark+0x130>)
    987a:	781b      	ldrb	r3, [r3, #0]
    987c:	2b00      	cmp	r3, #0
    987e:	d117      	bne.n	98b0 <verify_benchmark+0xe8>
    9880:	4b1e      	ldr	r3, [pc, #120]	; (98fc <verify_benchmark+0x134>)
    9882:	781b      	ldrb	r3, [r3, #0]
    9884:	2b00      	cmp	r3, #0
    9886:	d113      	bne.n	98b0 <verify_benchmark+0xe8>
    9888:	4b1d      	ldr	r3, [pc, #116]	; (9900 <verify_benchmark+0x138>)
    988a:	781b      	ldrb	r3, [r3, #0]
    988c:	2b00      	cmp	r3, #0
    988e:	d10f      	bne.n	98b0 <verify_benchmark+0xe8>
    9890:	4b1c      	ldr	r3, [pc, #112]	; (9904 <verify_benchmark+0x13c>)
    9892:	781b      	ldrb	r3, [r3, #0]
    9894:	2b02      	cmp	r3, #2
    9896:	d10b      	bne.n	98b0 <verify_benchmark+0xe8>
    9898:	4b1b      	ldr	r3, [pc, #108]	; (9908 <verify_benchmark+0x140>)
    989a:	781b      	ldrb	r3, [r3, #0]
    989c:	2b01      	cmp	r3, #1
    989e:	d107      	bne.n	98b0 <verify_benchmark+0xe8>
    98a0:	4b1a      	ldr	r3, [pc, #104]	; (990c <verify_benchmark+0x144>)
    98a2:	781b      	ldrb	r3, [r3, #0]
    98a4:	2b00      	cmp	r3, #0
    98a6:	d103      	bne.n	98b0 <verify_benchmark+0xe8>
    98a8:	4b19      	ldr	r3, [pc, #100]	; (9910 <verify_benchmark+0x148>)
    98aa:	781b      	ldrb	r3, [r3, #0]
    98ac:	2b01      	cmp	r3, #1
    98ae:	d001      	beq.n	98b4 <verify_benchmark+0xec>
    98b0:	2300      	movs	r3, #0
    98b2:	e000      	b.n	98b6 <verify_benchmark+0xee>
    98b4:	2301      	movs	r3, #1
    98b6:	4618      	mov	r0, r3
    98b8:	3754      	adds	r7, #84	; 0x54
    98ba:	46bd      	mov	sp, r7
    98bc:	bcb0      	pop	{r4, r5, r7}
    98be:	4770      	bx	lr
    98c0:	00009c54 	.word	0x00009c54
    98c4:	0001a0f8 	.word	0x0001a0f8
    98c8:	0001a138 	.word	0x0001a138
    98cc:	0001a13c 	.word	0x0001a13c
    98d0:	0001a140 	.word	0x0001a140
    98d4:	0001a1de 	.word	0x0001a1de
    98d8:	0001a1df 	.word	0x0001a1df
    98dc:	0001a1e0 	.word	0x0001a1e0
    98e0:	0001a1e1 	.word	0x0001a1e1
    98e4:	0001a1e2 	.word	0x0001a1e2
    98e8:	0001a1e3 	.word	0x0001a1e3
    98ec:	0001a1e4 	.word	0x0001a1e4
    98f0:	0001a1e5 	.word	0x0001a1e5
    98f4:	0001a1e6 	.word	0x0001a1e6
    98f8:	0001a1e7 	.word	0x0001a1e7
    98fc:	0001a1e8 	.word	0x0001a1e8
    9900:	0001a1e9 	.word	0x0001a1e9
    9904:	0001a1ea 	.word	0x0001a1ea
    9908:	0001a1eb 	.word	0x0001a1eb
    990c:	0001a1ec 	.word	0x0001a1ec
    9910:	0001a1ed 	.word	0x0001a1ed

00009914 <initialise_board>:
    9914:	b480      	push	{r7}
    9916:	af00      	add	r7, sp, #0
    9918:	4b06      	ldr	r3, [pc, #24]	; (9934 <initialise_board+0x20>)
    991a:	681b      	ldr	r3, [r3, #0]
    991c:	4a05      	ldr	r2, [pc, #20]	; (9934 <initialise_board+0x20>)
    991e:	f043 7380 	orr.w	r3, r3, #16777216	; 0x1000000
    9922:	6013      	str	r3, [r2, #0]
    9924:	4b04      	ldr	r3, [pc, #16]	; (9938 <initialise_board+0x24>)
    9926:	2200      	movs	r2, #0
    9928:	601a      	str	r2, [r3, #0]
    992a:	bf00      	nop
    992c:	46bd      	mov	sp, r7
    992e:	bc80      	pop	{r7}
    9930:	4770      	bx	lr
    9932:	bf00      	nop
    9934:	e000edfc 	.word	0xe000edfc
    9938:	e0001004 	.word	0xe0001004

0000993c <start_trigger>:
    993c:	b480      	push	{r7}
    993e:	af00      	add	r7, sp, #0
    9940:	4b04      	ldr	r3, [pc, #16]	; (9954 <start_trigger+0x18>)
    9942:	681b      	ldr	r3, [r3, #0]
    9944:	4a03      	ldr	r2, [pc, #12]	; (9954 <start_trigger+0x18>)
    9946:	f043 0301 	orr.w	r3, r3, #1
    994a:	6013      	str	r3, [r2, #0]
    994c:	bf00      	nop
    994e:	46bd      	mov	sp, r7
    9950:	bc80      	pop	{r7}
    9952:	4770      	bx	lr
    9954:	e0001000 	.word	0xe0001000

00009958 <stop_trigger>:
    9958:	b480      	push	{r7}
    995a:	af00      	add	r7, sp, #0
    995c:	4b06      	ldr	r3, [pc, #24]	; (9978 <stop_trigger+0x20>)
    995e:	2200      	movs	r2, #0
    9960:	601a      	str	r2, [r3, #0]
    9962:	4b06      	ldr	r3, [pc, #24]	; (997c <stop_trigger+0x24>)
    9964:	681b      	ldr	r3, [r3, #0]
    9966:	4a05      	ldr	r2, [pc, #20]	; (997c <stop_trigger+0x24>)
    9968:	f023 0301 	bic.w	r3, r3, #1
    996c:	6013      	str	r3, [r2, #0]
    996e:	bf00      	nop
    9970:	46bd      	mov	sp, r7
    9972:	bc80      	pop	{r7}
    9974:	4770      	bx	lr
    9976:	bf00      	nop
    9978:	e0001004 	.word	0xe0001004
    997c:	e0001000 	.word	0xe0001000

00009980 <main>:
    9980:	b580      	push	{r7, lr}
    9982:	b084      	sub	sp, #16
    9984:	af00      	add	r7, sp, #0
    9986:	6078      	str	r0, [r7, #4]
    9988:	6039      	str	r1, [r7, #0]
    998a:	f7ff ffc3 	bl	9914 <initialise_board>
    998e:	f7ff ff15 	bl	97bc <initialise_benchmark>
    9992:	2001      	movs	r0, #1
    9994:	f7ff fedc 	bl	9750 <warm_caches>
    9998:	f7ff ffd0 	bl	993c <start_trigger>
    999c:	f7ff fee4 	bl	9768 <benchmark>
    99a0:	4603      	mov	r3, r0
    99a2:	60bb      	str	r3, [r7, #8]
    99a4:	f7ff ffd8 	bl	9958 <stop_trigger>
    99a8:	68bb      	ldr	r3, [r7, #8]
    99aa:	4618      	mov	r0, r3
    99ac:	f7ff ff0c 	bl	97c8 <verify_benchmark>
    99b0:	60f8      	str	r0, [r7, #12]
    99b2:	68fb      	ldr	r3, [r7, #12]
    99b4:	2b00      	cmp	r3, #0
    99b6:	bf0c      	ite	eq
    99b8:	2301      	moveq	r3, #1
    99ba:	2300      	movne	r3, #0
    99bc:	b2db      	uxtb	r3, r3
    99be:	4618      	mov	r0, r3
    99c0:	3710      	adds	r7, #16
    99c2:	46bd      	mov	sp, r7
    99c4:	bd80      	pop	{r7, pc}
    99c6:	0000      	movs	r0, r0

000099c8 <__libc_init_array>:
    99c8:	b570      	push	{r4, r5, r6, lr}
    99ca:	4e0d      	ldr	r6, [pc, #52]	; (9a00 <__libc_init_array+0x38>)
    99cc:	4d0d      	ldr	r5, [pc, #52]	; (9a04 <__libc_init_array+0x3c>)
    99ce:	1b76      	subs	r6, r6, r5
    99d0:	10b6      	asrs	r6, r6, #2
    99d2:	d006      	beq.n	99e2 <__libc_init_array+0x1a>
    99d4:	2400      	movs	r4, #0
    99d6:	f855 3b04 	ldr.w	r3, [r5], #4
    99da:	3401      	adds	r4, #1
    99dc:	4798      	blx	r3
    99de:	42a6      	cmp	r6, r4
    99e0:	d1f9      	bne.n	99d6 <__libc_init_array+0xe>
    99e2:	4e09      	ldr	r6, [pc, #36]	; (9a08 <__libc_init_array+0x40>)
    99e4:	4d09      	ldr	r5, [pc, #36]	; (9a0c <__libc_init_array+0x44>)
    99e6:	1b76      	subs	r6, r6, r5
    99e8:	f7fe fb0a 	bl	8000 <_init>
    99ec:	10b6      	asrs	r6, r6, #2
    99ee:	d006      	beq.n	99fe <__libc_init_array+0x36>
    99f0:	2400      	movs	r4, #0
    99f2:	f855 3b04 	ldr.w	r3, [r5], #4
    99f6:	3401      	adds	r4, #1
    99f8:	4798      	blx	r3
    99fa:	42a6      	cmp	r6, r4
    99fc:	d1f9      	bne.n	99f2 <__libc_init_array+0x2a>
    99fe:	bd70      	pop	{r4, r5, r6, pc}
    9a00:	00019ca4 	.word	0x00019ca4
    9a04:	00019ca4 	.word	0x00019ca4
    9a08:	00019cac 	.word	0x00019cac
    9a0c:	00019ca4 	.word	0x00019ca4

00009a10 <memset>:
    9a10:	0783      	lsls	r3, r0, #30
    9a12:	b530      	push	{r4, r5, lr}
    9a14:	d048      	beq.n	9aa8 <memset+0x98>
    9a16:	1e54      	subs	r4, r2, #1
    9a18:	2a00      	cmp	r2, #0
    9a1a:	d03f      	beq.n	9a9c <memset+0x8c>
    9a1c:	b2ca      	uxtb	r2, r1
    9a1e:	4603      	mov	r3, r0
    9a20:	e001      	b.n	9a26 <memset+0x16>
    9a22:	3c01      	subs	r4, #1
    9a24:	d33a      	bcc.n	9a9c <memset+0x8c>
    9a26:	f803 2b01 	strb.w	r2, [r3], #1
    9a2a:	079d      	lsls	r5, r3, #30
    9a2c:	d1f9      	bne.n	9a22 <memset+0x12>
    9a2e:	2c03      	cmp	r4, #3
    9a30:	d92d      	bls.n	9a8e <memset+0x7e>
    9a32:	b2cd      	uxtb	r5, r1
    9a34:	ea45 2505 	orr.w	r5, r5, r5, lsl #8
    9a38:	2c0f      	cmp	r4, #15
    9a3a:	ea45 4505 	orr.w	r5, r5, r5, lsl #16
    9a3e:	d936      	bls.n	9aae <memset+0x9e>
    9a40:	f1a4 0210 	sub.w	r2, r4, #16
    9a44:	f022 0c0f 	bic.w	ip, r2, #15
    9a48:	f103 0e20 	add.w	lr, r3, #32
    9a4c:	44e6      	add	lr, ip
    9a4e:	ea4f 1c12 	mov.w	ip, r2, lsr #4
    9a52:	f103 0210 	add.w	r2, r3, #16
    9a56:	e942 5504 	strd	r5, r5, [r2, #-16]
    9a5a:	e942 5502 	strd	r5, r5, [r2, #-8]
    9a5e:	3210      	adds	r2, #16
    9a60:	4572      	cmp	r2, lr
    9a62:	d1f8      	bne.n	9a56 <memset+0x46>
    9a64:	f10c 0201 	add.w	r2, ip, #1
    9a68:	f014 0f0c 	tst.w	r4, #12
    9a6c:	eb03 1202 	add.w	r2, r3, r2, lsl #4
    9a70:	f004 0c0f 	and.w	ip, r4, #15
    9a74:	d013      	beq.n	9a9e <memset+0x8e>
    9a76:	f1ac 0304 	sub.w	r3, ip, #4
    9a7a:	f023 0303 	bic.w	r3, r3, #3
    9a7e:	3304      	adds	r3, #4
    9a80:	4413      	add	r3, r2
    9a82:	f842 5b04 	str.w	r5, [r2], #4
    9a86:	4293      	cmp	r3, r2
    9a88:	d1fb      	bne.n	9a82 <memset+0x72>
    9a8a:	f00c 0403 	and.w	r4, ip, #3
    9a8e:	b12c      	cbz	r4, 9a9c <memset+0x8c>
    9a90:	b2ca      	uxtb	r2, r1
    9a92:	441c      	add	r4, r3
    9a94:	f803 2b01 	strb.w	r2, [r3], #1
    9a98:	429c      	cmp	r4, r3
    9a9a:	d1fb      	bne.n	9a94 <memset+0x84>
    9a9c:	bd30      	pop	{r4, r5, pc}
    9a9e:	4664      	mov	r4, ip
    9aa0:	4613      	mov	r3, r2
    9aa2:	2c00      	cmp	r4, #0
    9aa4:	d1f4      	bne.n	9a90 <memset+0x80>
    9aa6:	e7f9      	b.n	9a9c <memset+0x8c>
    9aa8:	4603      	mov	r3, r0
    9aaa:	4614      	mov	r4, r2
    9aac:	e7bf      	b.n	9a2e <memset+0x1e>
    9aae:	461a      	mov	r2, r3
    9ab0:	46a4      	mov	ip, r4
    9ab2:	e7e0      	b.n	9a76 <memset+0x66>

00009ab4 <__call_exitprocs>:
    9ab4:	e92d 4ff0 	stmdb	sp!, {r4, r5, r6, r7, r8, r9, sl, fp, lr}
    9ab8:	4b2d      	ldr	r3, [pc, #180]	; (9b70 <__call_exitprocs+0xbc>)
    9aba:	b083      	sub	sp, #12
    9abc:	4683      	mov	fp, r0
    9abe:	6818      	ldr	r0, [r3, #0]
    9ac0:	f8cd b004 	str.w	fp, [sp, #4]
    9ac4:	460f      	mov	r7, r1
    9ac6:	f000 f873 	bl	9bb0 <__retarget_lock_acquire_recursive>
    9aca:	4b2a      	ldr	r3, [pc, #168]	; (9b74 <__call_exitprocs+0xc0>)
    9acc:	f8d3 8000 	ldr.w	r8, [r3]
    9ad0:	f8d8 6148 	ldr.w	r6, [r8, #328]	; 0x148
    9ad4:	b19e      	cbz	r6, 9afe <__call_exitprocs+0x4a>
    9ad6:	f04f 0901 	mov.w	r9, #1
    9ada:	f04f 0a00 	mov.w	sl, #0
    9ade:	6874      	ldr	r4, [r6, #4]
    9ae0:	1e65      	subs	r5, r4, #1
    9ae2:	d40c      	bmi.n	9afe <__call_exitprocs+0x4a>
    9ae4:	3401      	adds	r4, #1
    9ae6:	eb06 0484 	add.w	r4, r6, r4, lsl #2
    9aea:	b17f      	cbz	r7, 9b0c <__call_exitprocs+0x58>
    9aec:	f8d4 3100 	ldr.w	r3, [r4, #256]	; 0x100
    9af0:	42bb      	cmp	r3, r7
    9af2:	d00b      	beq.n	9b0c <__call_exitprocs+0x58>
    9af4:	3d01      	subs	r5, #1
    9af6:	1c6b      	adds	r3, r5, #1
    9af8:	f1a4 0404 	sub.w	r4, r4, #4
    9afc:	d1f5      	bne.n	9aea <__call_exitprocs+0x36>
    9afe:	4b1c      	ldr	r3, [pc, #112]	; (9b70 <__call_exitprocs+0xbc>)
    9b00:	6818      	ldr	r0, [r3, #0]
    9b02:	b003      	add	sp, #12
    9b04:	e8bd 4ff0 	ldmia.w	sp!, {r4, r5, r6, r7, r8, r9, sl, fp, lr}
    9b08:	f000 b854 	b.w	9bb4 <__retarget_lock_release_recursive>
    9b0c:	6873      	ldr	r3, [r6, #4]
    9b0e:	6822      	ldr	r2, [r4, #0]
    9b10:	3b01      	subs	r3, #1
    9b12:	42ab      	cmp	r3, r5
    9b14:	bf0c      	ite	eq
    9b16:	6075      	streq	r5, [r6, #4]
    9b18:	f8c4 a000 	strne.w	sl, [r4]
    9b1c:	2a00      	cmp	r2, #0
    9b1e:	d0e9      	beq.n	9af4 <__call_exitprocs+0x40>
    9b20:	f8d6 0188 	ldr.w	r0, [r6, #392]	; 0x188
    9b24:	f8d6 b004 	ldr.w	fp, [r6, #4]
    9b28:	fa09 f105 	lsl.w	r1, r9, r5
    9b2c:	4201      	tst	r1, r0
    9b2e:	d10b      	bne.n	9b48 <__call_exitprocs+0x94>
    9b30:	4790      	blx	r2
    9b32:	6872      	ldr	r2, [r6, #4]
    9b34:	455a      	cmp	r2, fp
    9b36:	d112      	bne.n	9b5e <__call_exitprocs+0xaa>
    9b38:	f8d8 3148 	ldr.w	r3, [r8, #328]	; 0x148
    9b3c:	42b3      	cmp	r3, r6
    9b3e:	d0d9      	beq.n	9af4 <__call_exitprocs+0x40>
    9b40:	461e      	mov	r6, r3
    9b42:	2e00      	cmp	r6, #0
    9b44:	d1cb      	bne.n	9ade <__call_exitprocs+0x2a>
    9b46:	e7da      	b.n	9afe <__call_exitprocs+0x4a>
    9b48:	f8d6 018c 	ldr.w	r0, [r6, #396]	; 0x18c
    9b4c:	4201      	tst	r1, r0
    9b4e:	d10b      	bne.n	9b68 <__call_exitprocs+0xb4>
    9b50:	f8d4 1080 	ldr.w	r1, [r4, #128]	; 0x80
    9b54:	9801      	ldr	r0, [sp, #4]
    9b56:	4790      	blx	r2
    9b58:	6872      	ldr	r2, [r6, #4]
    9b5a:	455a      	cmp	r2, fp
    9b5c:	d0ec      	beq.n	9b38 <__call_exitprocs+0x84>
    9b5e:	f8d8 6148 	ldr.w	r6, [r8, #328]	; 0x148
    9b62:	2e00      	cmp	r6, #0
    9b64:	d1bb      	bne.n	9ade <__call_exitprocs+0x2a>
    9b66:	e7ca      	b.n	9afe <__call_exitprocs+0x4a>
    9b68:	f8d4 0080 	ldr.w	r0, [r4, #128]	; 0x80
    9b6c:	4790      	blx	r2
    9b6e:	e7e0      	b.n	9b32 <__call_exitprocs+0x7e>
    9b70:	0001a0d8 	.word	0x0001a0d8
    9b74:	00009c94 	.word	0x00009c94

00009b78 <atexit>:
    9b78:	2300      	movs	r3, #0
    9b7a:	4601      	mov	r1, r0
    9b7c:	461a      	mov	r2, r3
    9b7e:	4618      	mov	r0, r3
    9b80:	f000 b81a 	b.w	9bb8 <__register_exitproc>

00009b84 <__libc_fini_array>:
    9b84:	b538      	push	{r3, r4, r5, lr}
    9b86:	4b08      	ldr	r3, [pc, #32]	; (9ba8 <__libc_fini_array+0x24>)
    9b88:	4d08      	ldr	r5, [pc, #32]	; (9bac <__libc_fini_array+0x28>)
    9b8a:	1b5b      	subs	r3, r3, r5
    9b8c:	109c      	asrs	r4, r3, #2
    9b8e:	d007      	beq.n	9ba0 <__libc_fini_array+0x1c>
    9b90:	3b04      	subs	r3, #4
    9b92:	441d      	add	r5, r3
    9b94:	3c01      	subs	r4, #1
    9b96:	f855 3904 	ldr.w	r3, [r5], #-4
    9b9a:	4798      	blx	r3
    9b9c:	2c00      	cmp	r4, #0
    9b9e:	d1f9      	bne.n	9b94 <__libc_fini_array+0x10>
    9ba0:	e8bd 4038 	ldmia.w	sp!, {r3, r4, r5, lr}
    9ba4:	f000 b850 	b.w	9c48 <_fini>
    9ba8:	00019cb0 	.word	0x00019cb0
    9bac:	00019cac 	.word	0x00019cac

00009bb0 <__retarget_lock_acquire_recursive>:
    9bb0:	4770      	bx	lr
    9bb2:	bf00      	nop

00009bb4 <__retarget_lock_release_recursive>:
    9bb4:	4770      	bx	lr
    9bb6:	bf00      	nop

00009bb8 <__register_exitproc>:
    9bb8:	e92d 47f0 	stmdb	sp!, {r4, r5, r6, r7, r8, r9, sl, lr}
    9bbc:	f8df a07c 	ldr.w	sl, [pc, #124]	; 9c3c <__register_exitproc+0x84>
    9bc0:	4606      	mov	r6, r0
    9bc2:	f8da 0000 	ldr.w	r0, [sl]
    9bc6:	4698      	mov	r8, r3
    9bc8:	460f      	mov	r7, r1
    9bca:	4691      	mov	r9, r2
    9bcc:	f7ff fff0 	bl	9bb0 <__retarget_lock_acquire_recursive>
    9bd0:	4b1b      	ldr	r3, [pc, #108]	; (9c40 <__register_exitproc+0x88>)
    9bd2:	681b      	ldr	r3, [r3, #0]
    9bd4:	f8d3 4148 	ldr.w	r4, [r3, #328]	; 0x148
    9bd8:	b324      	cbz	r4, 9c24 <__register_exitproc+0x6c>
    9bda:	6865      	ldr	r5, [r4, #4]
    9bdc:	2d1f      	cmp	r5, #31
    9bde:	dc26      	bgt.n	9c2e <__register_exitproc+0x76>
    9be0:	b95e      	cbnz	r6, 9bfa <__register_exitproc+0x42>
    9be2:	1c6b      	adds	r3, r5, #1
    9be4:	3502      	adds	r5, #2
    9be6:	f8da 0000 	ldr.w	r0, [sl]
    9bea:	6063      	str	r3, [r4, #4]
    9bec:	f844 7025 	str.w	r7, [r4, r5, lsl #2]
    9bf0:	f7ff ffe0 	bl	9bb4 <__retarget_lock_release_recursive>
    9bf4:	2000      	movs	r0, #0
    9bf6:	e8bd 87f0 	ldmia.w	sp!, {r4, r5, r6, r7, r8, r9, sl, pc}
    9bfa:	eb04 0185 	add.w	r1, r4, r5, lsl #2
    9bfe:	2301      	movs	r3, #1
    9c00:	f8c1 9088 	str.w	r9, [r1, #136]	; 0x88
    9c04:	f8d4 2188 	ldr.w	r2, [r4, #392]	; 0x188
    9c08:	40ab      	lsls	r3, r5
    9c0a:	431a      	orrs	r2, r3
    9c0c:	2e02      	cmp	r6, #2
    9c0e:	f8c4 2188 	str.w	r2, [r4, #392]	; 0x188
    9c12:	f8c1 8108 	str.w	r8, [r1, #264]	; 0x108
    9c16:	d1e4      	bne.n	9be2 <__register_exitproc+0x2a>
    9c18:	f8d4 218c 	ldr.w	r2, [r4, #396]	; 0x18c
    9c1c:	4313      	orrs	r3, r2
    9c1e:	f8c4 318c 	str.w	r3, [r4, #396]	; 0x18c
    9c22:	e7de      	b.n	9be2 <__register_exitproc+0x2a>
    9c24:	f503 74a6 	add.w	r4, r3, #332	; 0x14c
    9c28:	f8c3 4148 	str.w	r4, [r3, #328]	; 0x148
    9c2c:	e7d5      	b.n	9bda <__register_exitproc+0x22>
    9c2e:	f8da 0000 	ldr.w	r0, [sl]
    9c32:	f7ff ffbf 	bl	9bb4 <__retarget_lock_release_recursive>
    9c36:	f04f 30ff 	mov.w	r0, #4294967295	; 0xffffffff
    9c3a:	e7dc      	b.n	9bf6 <__register_exitproc+0x3e>
    9c3c:	0001a0d8 	.word	0x0001a0d8
    9c40:	00009c94 	.word	0x00009c94

00009c44 <_exit>:
    9c44:	e7fe      	b.n	9c44 <_exit>
    9c46:	bf00      	nop

Disassembly of section .fini:

00009c48 <_fini>:
    9c48:	b5f8      	push	{r3, r4, r5, r6, r7, lr}
    9c4a:	bf00      	nop
    9c4c:	bcf8      	pop	{r3, r4, r5, r6, r7}
    9c4e:	bc08      	pop	{r3}
    9c50:	469e      	mov	lr, r3
    9c52:	4770      	bx	lr
