
./arm-benchmarks/src/minver/minver:     file format elf32-littlearm


Disassembly of section .init:

00008000 <_init>:
    8000:	b5f8      	push	{r3, r4, r5, r6, r7, lr}
    8002:	bf00      	nop
    8004:	bcf8      	pop	{r3, r4, r5, r6, r7}
    8006:	bc08      	pop	{r3}
    8008:	469e      	mov	lr, r3
    800a:	4770      	bx	lr

Disassembly of section .text:

00008010 <exit>:
    8010:	b508      	push	{r3, lr}
    8012:	2100      	movs	r1, #0
    8014:	4604      	mov	r4, r0
    8016:	f001 fb0d 	bl	9634 <__call_exitprocs>
    801a:	4b04      	ldr	r3, [pc, #16]	; (802c <exit+0x1c>)
    801c:	6818      	ldr	r0, [r3, #0]
    801e:	6bc3      	ldr	r3, [r0, #60]	; 0x3c
    8020:	b103      	cbz	r3, 8024 <exit+0x14>
    8022:	4798      	blx	r3
    8024:	4620      	mov	r0, r4
    8026:	f001 fbcd 	bl	97c4 <_exit>
    802a:	bf00      	nop
    802c:	000097d4 	.word	0x000097d4

00008030 <register_fini>:
    8030:	4b02      	ldr	r3, [pc, #8]	; (803c <register_fini+0xc>)
    8032:	b113      	cbz	r3, 803a <register_fini+0xa>
    8034:	4802      	ldr	r0, [pc, #8]	; (8040 <register_fini+0x10>)
    8036:	f001 bb5f 	b.w	96f8 <atexit>
    803a:	4770      	bx	lr
    803c:	00000000 	.word	0x00000000
    8040:	00009705 	.word	0x00009705

00008044 <__do_global_dtors_aux>:
    8044:	b510      	push	{r4, lr}
    8046:	4c05      	ldr	r4, [pc, #20]	; (805c <__do_global_dtors_aux+0x18>)
    8048:	7823      	ldrb	r3, [r4, #0]
    804a:	b933      	cbnz	r3, 805a <__do_global_dtors_aux+0x16>
    804c:	4b04      	ldr	r3, [pc, #16]	; (8060 <__do_global_dtors_aux+0x1c>)
    804e:	b113      	cbz	r3, 8056 <__do_global_dtors_aux+0x12>
    8050:	4804      	ldr	r0, [pc, #16]	; (8064 <__do_global_dtors_aux+0x20>)
    8052:	f3af 8000 	nop.w
    8056:	2301      	movs	r3, #1
    8058:	7023      	strb	r3, [r4, #0]
    805a:	bd10      	pop	{r4, pc}
    805c:	00019cac 	.word	0x00019cac
    8060:	00000000 	.word	0x00000000
    8064:	000097e0 	.word	0x000097e0

00008068 <frame_dummy>:
    8068:	b508      	push	{r3, lr}
    806a:	4b03      	ldr	r3, [pc, #12]	; (8078 <frame_dummy+0x10>)
    806c:	b11b      	cbz	r3, 8076 <frame_dummy+0xe>
    806e:	4903      	ldr	r1, [pc, #12]	; (807c <frame_dummy+0x14>)
    8070:	4803      	ldr	r0, [pc, #12]	; (8080 <frame_dummy+0x18>)
    8072:	f3af 8000 	nop.w
    8076:	bd08      	pop	{r3, pc}
    8078:	00000000 	.word	0x00000000
    807c:	00019cb0 	.word	0x00019cb0
    8080:	000097e0 	.word	0x000097e0

00008084 <_stack_init>:
    8084:	f5a3 3a80 	sub.w	sl, r3, #65536	; 0x10000
    8088:	4770      	bx	lr
    808a:	bf00      	nop

0000808c <_mainCRTStartup>:
    808c:	4b17      	ldr	r3, [pc, #92]	; (80ec <_mainCRTStartup+0x60>)
    808e:	2b00      	cmp	r3, #0
    8090:	bf08      	it	eq
    8092:	4b13      	ldreq	r3, [pc, #76]	; (80e0 <_mainCRTStartup+0x54>)
    8094:	469d      	mov	sp, r3
    8096:	f7ff fff5 	bl	8084 <_stack_init>
    809a:	2100      	movs	r1, #0
    809c:	468b      	mov	fp, r1
    809e:	460f      	mov	r7, r1
    80a0:	4813      	ldr	r0, [pc, #76]	; (80f0 <_mainCRTStartup+0x64>)
    80a2:	4a14      	ldr	r2, [pc, #80]	; (80f4 <_mainCRTStartup+0x68>)
    80a4:	1a12      	subs	r2, r2, r0
    80a6:	f001 fa73 	bl	9590 <memset>
    80aa:	4b0e      	ldr	r3, [pc, #56]	; (80e4 <_mainCRTStartup+0x58>)
    80ac:	2b00      	cmp	r3, #0
    80ae:	d000      	beq.n	80b2 <_mainCRTStartup+0x26>
    80b0:	4798      	blx	r3
    80b2:	4b0d      	ldr	r3, [pc, #52]	; (80e8 <_mainCRTStartup+0x5c>)
    80b4:	2b00      	cmp	r3, #0
    80b6:	d000      	beq.n	80ba <_mainCRTStartup+0x2e>
    80b8:	4798      	blx	r3
    80ba:	2000      	movs	r0, #0
    80bc:	2100      	movs	r1, #0
    80be:	0004      	movs	r4, r0
    80c0:	000d      	movs	r5, r1
    80c2:	480d      	ldr	r0, [pc, #52]	; (80f8 <_mainCRTStartup+0x6c>)
    80c4:	2800      	cmp	r0, #0
    80c6:	d002      	beq.n	80ce <_mainCRTStartup+0x42>
    80c8:	480c      	ldr	r0, [pc, #48]	; (80fc <_mainCRTStartup+0x70>)
    80ca:	f001 fb15 	bl	96f8 <atexit>
    80ce:	f001 fa3b 	bl	9548 <__libc_init_array>
    80d2:	0020      	movs	r0, r4
    80d4:	0029      	movs	r1, r5
    80d6:	f000 fcab 	bl	8a30 <main>
    80da:	f7ff ff99 	bl	8010 <exit>
    80de:	bf00      	nop
    80e0:	00080000 	.word	0x00080000
    80e4:	00000000 	.word	0x00000000
    80e8:	00000000 	.word	0x00000000
    80ec:	00000000 	.word	0x00000000
    80f0:	00019cac 	.word	0x00019cac
    80f4:	00019d3c 	.word	0x00019d3c
    80f8:	000096f9 	.word	0x000096f9
    80fc:	00009705 	.word	0x00009705

00008100 <minver_fabs>:
    8100:	b580      	push	{r7, lr}
    8102:	b084      	sub	sp, #16
    8104:	af00      	add	r7, sp, #0
    8106:	6078      	str	r0, [r7, #4]
    8108:	f04f 0100 	mov.w	r1, #0
    810c:	6878      	ldr	r0, [r7, #4]
    810e:	f001 fa07 	bl	9520 <__aeabi_fcmpge>
    8112:	4603      	mov	r3, r0
    8114:	2b00      	cmp	r3, #0
    8116:	d002      	beq.n	811e <minver_fabs+0x1e>
    8118:	687b      	ldr	r3, [r7, #4]
    811a:	60fb      	str	r3, [r7, #12]
    811c:	e003      	b.n	8126 <minver_fabs+0x26>
    811e:	687b      	ldr	r3, [r7, #4]
    8120:	f083 4300 	eor.w	r3, r3, #2147483648	; 0x80000000
    8124:	60fb      	str	r3, [r7, #12]
    8126:	68fb      	ldr	r3, [r7, #12]
    8128:	4618      	mov	r0, r3
    812a:	3710      	adds	r7, #16
    812c:	46bd      	mov	sp, r7
    812e:	bd80      	pop	{r7, pc}

00008130 <mmul>:
    8130:	b580      	push	{r7, lr}
    8132:	b08a      	sub	sp, #40	; 0x28
    8134:	af00      	add	r7, sp, #0
    8136:	60f8      	str	r0, [r7, #12]
    8138:	60b9      	str	r1, [r7, #8]
    813a:	607a      	str	r2, [r7, #4]
    813c:	603b      	str	r3, [r7, #0]
    813e:	68fb      	ldr	r3, [r7, #12]
    8140:	617b      	str	r3, [r7, #20]
    8142:	683b      	ldr	r3, [r7, #0]
    8144:	613b      	str	r3, [r7, #16]
    8146:	697b      	ldr	r3, [r7, #20]
    8148:	2b00      	cmp	r3, #0
    814a:	dd09      	ble.n	8160 <mmul+0x30>
    814c:	687b      	ldr	r3, [r7, #4]
    814e:	2b00      	cmp	r3, #0
    8150:	dd06      	ble.n	8160 <mmul+0x30>
    8152:	693b      	ldr	r3, [r7, #16]
    8154:	2b00      	cmp	r3, #0
    8156:	dd03      	ble.n	8160 <mmul+0x30>
    8158:	68ba      	ldr	r2, [r7, #8]
    815a:	687b      	ldr	r3, [r7, #4]
    815c:	429a      	cmp	r2, r3
    815e:	d002      	beq.n	8166 <mmul+0x36>
    8160:	f240 33e7 	movw	r3, #999	; 0x3e7
    8164:	e047      	b.n	81f6 <mmul+0xc6>
    8166:	2300      	movs	r3, #0
    8168:	627b      	str	r3, [r7, #36]	; 0x24
    816a:	e03f      	b.n	81ec <mmul+0xbc>
    816c:	2300      	movs	r3, #0
    816e:	623b      	str	r3, [r7, #32]
    8170:	e035      	b.n	81de <mmul+0xae>
    8172:	f04f 0300 	mov.w	r3, #0
    8176:	61bb      	str	r3, [r7, #24]
    8178:	2300      	movs	r3, #0
    817a:	61fb      	str	r3, [r7, #28]
    817c:	e01e      	b.n	81bc <mmul+0x8c>
    817e:	4920      	ldr	r1, [pc, #128]	; (8200 <mmul+0xd0>)
    8180:	6a7a      	ldr	r2, [r7, #36]	; 0x24
    8182:	4613      	mov	r3, r2
    8184:	005b      	lsls	r3, r3, #1
    8186:	4413      	add	r3, r2
    8188:	69fa      	ldr	r2, [r7, #28]
    818a:	4413      	add	r3, r2
    818c:	f851 0023 	ldr.w	r0, [r1, r3, lsl #2]
    8190:	491c      	ldr	r1, [pc, #112]	; (8204 <mmul+0xd4>)
    8192:	69fa      	ldr	r2, [r7, #28]
    8194:	4613      	mov	r3, r2
    8196:	005b      	lsls	r3, r3, #1
    8198:	4413      	add	r3, r2
    819a:	6a3a      	ldr	r2, [r7, #32]
    819c:	4413      	add	r3, r2
    819e:	f851 3023 	ldr.w	r3, [r1, r3, lsl #2]
    81a2:	4619      	mov	r1, r3
    81a4:	f001 f80a 	bl	91bc <__aeabi_fmul>
    81a8:	4603      	mov	r3, r0
    81aa:	4619      	mov	r1, r3
    81ac:	69b8      	ldr	r0, [r7, #24]
    81ae:	f000 fefd 	bl	8fac <__addsf3>
    81b2:	4603      	mov	r3, r0
    81b4:	61bb      	str	r3, [r7, #24]
    81b6:	69fb      	ldr	r3, [r7, #28]
    81b8:	3301      	adds	r3, #1
    81ba:	61fb      	str	r3, [r7, #28]
    81bc:	69fa      	ldr	r2, [r7, #28]
    81be:	687b      	ldr	r3, [r7, #4]
    81c0:	429a      	cmp	r2, r3
    81c2:	dbdc      	blt.n	817e <mmul+0x4e>
    81c4:	4910      	ldr	r1, [pc, #64]	; (8208 <mmul+0xd8>)
    81c6:	6a7a      	ldr	r2, [r7, #36]	; 0x24
    81c8:	4613      	mov	r3, r2
    81ca:	005b      	lsls	r3, r3, #1
    81cc:	4413      	add	r3, r2
    81ce:	6a3a      	ldr	r2, [r7, #32]
    81d0:	4413      	add	r3, r2
    81d2:	69ba      	ldr	r2, [r7, #24]
    81d4:	f841 2023 	str.w	r2, [r1, r3, lsl #2]
    81d8:	6a3b      	ldr	r3, [r7, #32]
    81da:	3301      	adds	r3, #1
    81dc:	623b      	str	r3, [r7, #32]
    81de:	6a3a      	ldr	r2, [r7, #32]
    81e0:	693b      	ldr	r3, [r7, #16]
    81e2:	429a      	cmp	r2, r3
    81e4:	dbc5      	blt.n	8172 <mmul+0x42>
    81e6:	6a7b      	ldr	r3, [r7, #36]	; 0x24
    81e8:	3301      	adds	r3, #1
    81ea:	627b      	str	r3, [r7, #36]	; 0x24
    81ec:	6a7a      	ldr	r2, [r7, #36]	; 0x24
    81ee:	697b      	ldr	r3, [r7, #20]
    81f0:	429a      	cmp	r2, r3
    81f2:	dbbb      	blt.n	816c <mmul+0x3c>
    81f4:	2300      	movs	r3, #0
    81f6:	4618      	mov	r0, r3
    81f8:	3728      	adds	r7, #40	; 0x28
    81fa:	46bd      	mov	sp, r7
    81fc:	bd80      	pop	{r7, pc}
    81fe:	bf00      	nop
    8200:	00019cc8 	.word	0x00019cc8
    8204:	00019814 	.word	0x00019814
    8208:	00019cec 	.word	0x00019cec

0000820c <minver>:
    820c:	b590      	push	{r4, r7, lr}
    820e:	f6ad 0d14 	subw	sp, sp, #2068	; 0x814
    8212:	af00      	add	r7, sp, #0
    8214:	f507 6301 	add.w	r3, r7, #2064	; 0x810
    8218:	f6a3 0304 	subw	r3, r3, #2052	; 0x804
    821c:	6018      	str	r0, [r3, #0]
    821e:	f507 6301 	add.w	r3, r7, #2064	; 0x810
    8222:	f6a3 0308 	subw	r3, r3, #2056	; 0x808
    8226:	6019      	str	r1, [r3, #0]
    8228:	f507 6301 	add.w	r3, r7, #2064	; 0x810
    822c:	f6a3 030c 	subw	r3, r3, #2060	; 0x80c
    8230:	601a      	str	r2, [r3, #0]
    8232:	f04f 0300 	mov.w	r3, #0
    8236:	f8c7 37fc 	str.w	r3, [r7, #2044]	; 0x7fc
    823a:	2300      	movs	r3, #0
    823c:	f8c7 3800 	str.w	r3, [r7, #2048]	; 0x800
    8240:	f507 6301 	add.w	r3, r7, #2064	; 0x810
    8244:	f6a3 0304 	subw	r3, r3, #2052	; 0x804
    8248:	681b      	ldr	r3, [r3, #0]
    824a:	2b01      	cmp	r3, #1
    824c:	dd13      	ble.n	8276 <minver+0x6a>
    824e:	f507 6301 	add.w	r3, r7, #2064	; 0x810
    8252:	f6a3 0304 	subw	r3, r3, #2052	; 0x804
    8256:	681b      	ldr	r3, [r3, #0]
    8258:	f5b3 7ffa 	cmp.w	r3, #500	; 0x1f4
    825c:	dc0b      	bgt.n	8276 <minver+0x6a>
    825e:	f507 6301 	add.w	r3, r7, #2064	; 0x810
    8262:	f6a3 030c 	subw	r3, r3, #2060	; 0x80c
    8266:	f04f 0100 	mov.w	r1, #0
    826a:	6818      	ldr	r0, [r3, #0]
    826c:	f001 f94e 	bl	950c <__aeabi_fcmple>
    8270:	4603      	mov	r3, r0
    8272:	2b00      	cmp	r3, #0
    8274:	d002      	beq.n	827c <minver+0x70>
    8276:	f240 33e7 	movw	r3, #999	; 0x3e7
    827a:	e287      	b.n	878c <minver+0x580>
    827c:	f04f 537e 	mov.w	r3, #1065353216	; 0x3f800000
    8280:	f8c7 37f4 	str.w	r3, [r7, #2036]	; 0x7f4
    8284:	2300      	movs	r3, #0
    8286:	f8c7 380c 	str.w	r3, [r7, #2060]	; 0x80c
    828a:	e00e      	b.n	82aa <minver+0x9e>
    828c:	f507 6301 	add.w	r3, r7, #2064	; 0x810
    8290:	f5a3 6300 	sub.w	r3, r3, #2048	; 0x800
    8294:	f8d7 280c 	ldr.w	r2, [r7, #2060]	; 0x80c
    8298:	f8d7 180c 	ldr.w	r1, [r7, #2060]	; 0x80c
    829c:	f843 1022 	str.w	r1, [r3, r2, lsl #2]
    82a0:	f8d7 380c 	ldr.w	r3, [r7, #2060]	; 0x80c
    82a4:	3301      	adds	r3, #1
    82a6:	f8c7 380c 	str.w	r3, [r7, #2060]	; 0x80c
    82aa:	f507 6301 	add.w	r3, r7, #2064	; 0x810
    82ae:	f6a3 0304 	subw	r3, r3, #2052	; 0x804
    82b2:	f8d7 280c 	ldr.w	r2, [r7, #2060]	; 0x80c
    82b6:	681b      	ldr	r3, [r3, #0]
    82b8:	429a      	cmp	r2, r3
    82ba:	dbe7      	blt.n	828c <minver+0x80>
    82bc:	2300      	movs	r3, #0
    82be:	f8c7 3804 	str.w	r3, [r7, #2052]	; 0x804
    82c2:	e1c8      	b.n	8656 <minver+0x44a>
    82c4:	f04f 0300 	mov.w	r3, #0
    82c8:	f8c7 37f8 	str.w	r3, [r7, #2040]	; 0x7f8
    82cc:	f8d7 3804 	ldr.w	r3, [r7, #2052]	; 0x804
    82d0:	f8c7 380c 	str.w	r3, [r7, #2060]	; 0x80c
    82d4:	e025      	b.n	8322 <minver+0x116>
    82d6:	49a1      	ldr	r1, [pc, #644]	; (855c <minver+0x350>)
    82d8:	f8d7 280c 	ldr.w	r2, [r7, #2060]	; 0x80c
    82dc:	4613      	mov	r3, r2
    82de:	005b      	lsls	r3, r3, #1
    82e0:	4413      	add	r3, r2
    82e2:	f8d7 2804 	ldr.w	r2, [r7, #2052]	; 0x804
    82e6:	4413      	add	r3, r2
    82e8:	f851 3023 	ldr.w	r3, [r1, r3, lsl #2]
    82ec:	4618      	mov	r0, r3
    82ee:	f7ff ff07 	bl	8100 <minver_fabs>
    82f2:	f8c7 07fc 	str.w	r0, [r7, #2044]	; 0x7fc
    82f6:	f8d7 17f8 	ldr.w	r1, [r7, #2040]	; 0x7f8
    82fa:	f8d7 07fc 	ldr.w	r0, [r7, #2044]	; 0x7fc
    82fe:	f001 f919 	bl	9534 <__aeabi_fcmpgt>
    8302:	4603      	mov	r3, r0
    8304:	2b00      	cmp	r3, #0
    8306:	d007      	beq.n	8318 <minver+0x10c>
    8308:	f8d7 37fc 	ldr.w	r3, [r7, #2044]	; 0x7fc
    830c:	f8c7 37f8 	str.w	r3, [r7, #2040]	; 0x7f8
    8310:	f8d7 380c 	ldr.w	r3, [r7, #2060]	; 0x80c
    8314:	f8c7 3800 	str.w	r3, [r7, #2048]	; 0x800
    8318:	f8d7 380c 	ldr.w	r3, [r7, #2060]	; 0x80c
    831c:	3301      	adds	r3, #1
    831e:	f8c7 380c 	str.w	r3, [r7, #2060]	; 0x80c
    8322:	f507 6301 	add.w	r3, r7, #2064	; 0x810
    8326:	f6a3 0304 	subw	r3, r3, #2052	; 0x804
    832a:	f8d7 280c 	ldr.w	r2, [r7, #2060]	; 0x80c
    832e:	681b      	ldr	r3, [r3, #0]
    8330:	429a      	cmp	r2, r3
    8332:	dbd0      	blt.n	82d6 <minver+0xca>
    8334:	4989      	ldr	r1, [pc, #548]	; (855c <minver+0x350>)
    8336:	f8d7 2800 	ldr.w	r2, [r7, #2048]	; 0x800
    833a:	4613      	mov	r3, r2
    833c:	005b      	lsls	r3, r3, #1
    833e:	4413      	add	r3, r2
    8340:	f8d7 2804 	ldr.w	r2, [r7, #2052]	; 0x804
    8344:	4413      	add	r3, r2
    8346:	f851 3023 	ldr.w	r3, [r1, r3, lsl #2]
    834a:	f8c7 37e8 	str.w	r3, [r7, #2024]	; 0x7e8
    834e:	f8d7 07e8 	ldr.w	r0, [r7, #2024]	; 0x7e8
    8352:	f7ff fed5 	bl	8100 <minver_fabs>
    8356:	f8c7 07e4 	str.w	r0, [r7, #2020]	; 0x7e4
    835a:	f507 6301 	add.w	r3, r7, #2064	; 0x810
    835e:	f6a3 030c 	subw	r3, r3, #2060	; 0x80c
    8362:	6819      	ldr	r1, [r3, #0]
    8364:	f8d7 07e4 	ldr.w	r0, [r7, #2020]	; 0x7e4
    8368:	f001 f8d0 	bl	950c <__aeabi_fcmple>
    836c:	4603      	mov	r3, r0
    836e:	2b00      	cmp	r3, #0
    8370:	d005      	beq.n	837e <minver+0x172>
    8372:	4a7b      	ldr	r2, [pc, #492]	; (8560 <minver+0x354>)
    8374:	f8d7 37f4 	ldr.w	r3, [r7, #2036]	; 0x7f4
    8378:	6013      	str	r3, [r2, #0]
    837a:	2301      	movs	r3, #1
    837c:	e206      	b.n	878c <minver+0x580>
    837e:	f8d7 17e8 	ldr.w	r1, [r7, #2024]	; 0x7e8
    8382:	f8d7 07f4 	ldr.w	r0, [r7, #2036]	; 0x7f4
    8386:	f000 ff19 	bl	91bc <__aeabi_fmul>
    838a:	4603      	mov	r3, r0
    838c:	f8c7 37f4 	str.w	r3, [r7, #2036]	; 0x7f4
    8390:	f507 6301 	add.w	r3, r7, #2064	; 0x810
    8394:	f6a3 0208 	subw	r2, r3, #2056	; 0x808
    8398:	f8d7 3804 	ldr.w	r3, [r7, #2052]	; 0x804
    839c:	6812      	ldr	r2, [r2, #0]
    839e:	fb02 f303 	mul.w	r3, r2, r3
    83a2:	f8c7 37ec 	str.w	r3, [r7, #2028]	; 0x7ec
    83a6:	f507 6301 	add.w	r3, r7, #2064	; 0x810
    83aa:	f6a3 0208 	subw	r2, r3, #2056	; 0x808
    83ae:	f8d7 3800 	ldr.w	r3, [r7, #2048]	; 0x800
    83b2:	6812      	ldr	r2, [r2, #0]
    83b4:	fb02 f303 	mul.w	r3, r2, r3
    83b8:	f8c7 37e0 	str.w	r3, [r7, #2016]	; 0x7e0
    83bc:	f8d7 2800 	ldr.w	r2, [r7, #2048]	; 0x800
    83c0:	f8d7 3804 	ldr.w	r3, [r7, #2052]	; 0x804
    83c4:	429a      	cmp	r2, r3
    83c6:	d06b      	beq.n	84a0 <minver+0x294>
    83c8:	f8d7 37fc 	ldr.w	r3, [r7, #2044]	; 0x7fc
    83cc:	f083 4300 	eor.w	r3, r3, #2147483648	; 0x80000000
    83d0:	f8c7 37f4 	str.w	r3, [r7, #2036]	; 0x7f4
    83d4:	f507 6301 	add.w	r3, r7, #2064	; 0x810
    83d8:	f5a3 6300 	sub.w	r3, r3, #2048	; 0x800
    83dc:	f8d7 2804 	ldr.w	r2, [r7, #2052]	; 0x804
    83e0:	f853 3022 	ldr.w	r3, [r3, r2, lsl #2]
    83e4:	f8c7 37f0 	str.w	r3, [r7, #2032]	; 0x7f0
    83e8:	f507 6301 	add.w	r3, r7, #2064	; 0x810
    83ec:	f5a3 6300 	sub.w	r3, r3, #2048	; 0x800
    83f0:	f8d7 2800 	ldr.w	r2, [r7, #2048]	; 0x800
    83f4:	f853 1022 	ldr.w	r1, [r3, r2, lsl #2]
    83f8:	f507 6301 	add.w	r3, r7, #2064	; 0x810
    83fc:	f5a3 6300 	sub.w	r3, r3, #2048	; 0x800
    8400:	f8d7 2804 	ldr.w	r2, [r7, #2052]	; 0x804
    8404:	f843 1022 	str.w	r1, [r3, r2, lsl #2]
    8408:	f507 6301 	add.w	r3, r7, #2064	; 0x810
    840c:	f5a3 6300 	sub.w	r3, r3, #2048	; 0x800
    8410:	f8d7 2800 	ldr.w	r2, [r7, #2048]	; 0x800
    8414:	f8d7 17f0 	ldr.w	r1, [r7, #2032]	; 0x7f0
    8418:	f843 1022 	str.w	r1, [r3, r2, lsl #2]
    841c:	2300      	movs	r3, #0
    841e:	f8c7 3808 	str.w	r3, [r7, #2056]	; 0x808
    8422:	e034      	b.n	848e <minver+0x282>
    8424:	494d      	ldr	r1, [pc, #308]	; (855c <minver+0x350>)
    8426:	f8d7 2804 	ldr.w	r2, [r7, #2052]	; 0x804
    842a:	4613      	mov	r3, r2
    842c:	005b      	lsls	r3, r3, #1
    842e:	4413      	add	r3, r2
    8430:	f8d7 2808 	ldr.w	r2, [r7, #2056]	; 0x808
    8434:	4413      	add	r3, r2
    8436:	f851 3023 	ldr.w	r3, [r1, r3, lsl #2]
    843a:	f8c7 37fc 	str.w	r3, [r7, #2044]	; 0x7fc
    843e:	4947      	ldr	r1, [pc, #284]	; (855c <minver+0x350>)
    8440:	f8d7 2800 	ldr.w	r2, [r7, #2048]	; 0x800
    8444:	4613      	mov	r3, r2
    8446:	005b      	lsls	r3, r3, #1
    8448:	4413      	add	r3, r2
    844a:	f8d7 2808 	ldr.w	r2, [r7, #2056]	; 0x808
    844e:	4413      	add	r3, r2
    8450:	f851 1023 	ldr.w	r1, [r1, r3, lsl #2]
    8454:	4841      	ldr	r0, [pc, #260]	; (855c <minver+0x350>)
    8456:	f8d7 2804 	ldr.w	r2, [r7, #2052]	; 0x804
    845a:	4613      	mov	r3, r2
    845c:	005b      	lsls	r3, r3, #1
    845e:	4413      	add	r3, r2
    8460:	f8d7 2808 	ldr.w	r2, [r7, #2056]	; 0x808
    8464:	4413      	add	r3, r2
    8466:	f840 1023 	str.w	r1, [r0, r3, lsl #2]
    846a:	493c      	ldr	r1, [pc, #240]	; (855c <minver+0x350>)
    846c:	f8d7 2800 	ldr.w	r2, [r7, #2048]	; 0x800
    8470:	4613      	mov	r3, r2
    8472:	005b      	lsls	r3, r3, #1
    8474:	4413      	add	r3, r2
    8476:	f8d7 2808 	ldr.w	r2, [r7, #2056]	; 0x808
    847a:	4413      	add	r3, r2
    847c:	f8d7 27fc 	ldr.w	r2, [r7, #2044]	; 0x7fc
    8480:	f841 2023 	str.w	r2, [r1, r3, lsl #2]
    8484:	f8d7 3808 	ldr.w	r3, [r7, #2056]	; 0x808
    8488:	3301      	adds	r3, #1
    848a:	f8c7 3808 	str.w	r3, [r7, #2056]	; 0x808
    848e:	f507 6301 	add.w	r3, r7, #2064	; 0x810
    8492:	f6a3 0304 	subw	r3, r3, #2052	; 0x804
    8496:	f8d7 2808 	ldr.w	r2, [r7, #2056]	; 0x808
    849a:	681b      	ldr	r3, [r3, #0]
    849c:	429a      	cmp	r2, r3
    849e:	dbc1      	blt.n	8424 <minver+0x218>
    84a0:	2300      	movs	r3, #0
    84a2:	f8c7 380c 	str.w	r3, [r7, #2060]	; 0x80c
    84a6:	e021      	b.n	84ec <minver+0x2e0>
    84a8:	492c      	ldr	r1, [pc, #176]	; (855c <minver+0x350>)
    84aa:	f8d7 2804 	ldr.w	r2, [r7, #2052]	; 0x804
    84ae:	4613      	mov	r3, r2
    84b0:	005b      	lsls	r3, r3, #1
    84b2:	4413      	add	r3, r2
    84b4:	f8d7 280c 	ldr.w	r2, [r7, #2060]	; 0x80c
    84b8:	4413      	add	r3, r2
    84ba:	f851 3023 	ldr.w	r3, [r1, r3, lsl #2]
    84be:	f8d7 17e8 	ldr.w	r1, [r7, #2024]	; 0x7e8
    84c2:	4618      	mov	r0, r3
    84c4:	f000 ff2e 	bl	9324 <__aeabi_fdiv>
    84c8:	4603      	mov	r3, r0
    84ca:	4618      	mov	r0, r3
    84cc:	4923      	ldr	r1, [pc, #140]	; (855c <minver+0x350>)
    84ce:	f8d7 2804 	ldr.w	r2, [r7, #2052]	; 0x804
    84d2:	4613      	mov	r3, r2
    84d4:	005b      	lsls	r3, r3, #1
    84d6:	4413      	add	r3, r2
    84d8:	f8d7 280c 	ldr.w	r2, [r7, #2060]	; 0x80c
    84dc:	4413      	add	r3, r2
    84de:	f841 0023 	str.w	r0, [r1, r3, lsl #2]
    84e2:	f8d7 380c 	ldr.w	r3, [r7, #2060]	; 0x80c
    84e6:	3301      	adds	r3, #1
    84e8:	f8c7 380c 	str.w	r3, [r7, #2060]	; 0x80c
    84ec:	f507 6301 	add.w	r3, r7, #2064	; 0x810
    84f0:	f6a3 0304 	subw	r3, r3, #2052	; 0x804
    84f4:	f8d7 280c 	ldr.w	r2, [r7, #2060]	; 0x80c
    84f8:	681b      	ldr	r3, [r3, #0]
    84fa:	429a      	cmp	r2, r3
    84fc:	dbd4      	blt.n	84a8 <minver+0x29c>
    84fe:	2300      	movs	r3, #0
    8500:	f8c7 380c 	str.w	r3, [r7, #2060]	; 0x80c
    8504:	e08a      	b.n	861c <minver+0x410>
    8506:	f8d7 280c 	ldr.w	r2, [r7, #2060]	; 0x80c
    850a:	f8d7 3804 	ldr.w	r3, [r7, #2052]	; 0x804
    850e:	429a      	cmp	r2, r3
    8510:	d07f      	beq.n	8612 <minver+0x406>
    8512:	f507 6301 	add.w	r3, r7, #2064	; 0x810
    8516:	f6a3 0208 	subw	r2, r3, #2056	; 0x808
    851a:	f8d7 380c 	ldr.w	r3, [r7, #2060]	; 0x80c
    851e:	6812      	ldr	r2, [r2, #0]
    8520:	fb02 f303 	mul.w	r3, r2, r3
    8524:	f8c7 37e0 	str.w	r3, [r7, #2016]	; 0x7e0
    8528:	490c      	ldr	r1, [pc, #48]	; (855c <minver+0x350>)
    852a:	f8d7 280c 	ldr.w	r2, [r7, #2060]	; 0x80c
    852e:	4613      	mov	r3, r2
    8530:	005b      	lsls	r3, r3, #1
    8532:	4413      	add	r3, r2
    8534:	f8d7 2804 	ldr.w	r2, [r7, #2052]	; 0x804
    8538:	4413      	add	r3, r2
    853a:	f851 3023 	ldr.w	r3, [r1, r3, lsl #2]
    853e:	f8c7 37fc 	str.w	r3, [r7, #2044]	; 0x7fc
    8542:	f04f 0100 	mov.w	r1, #0
    8546:	f8d7 07fc 	ldr.w	r0, [r7, #2044]	; 0x7fc
    854a:	f000 ffcb 	bl	94e4 <__aeabi_fcmpeq>
    854e:	4603      	mov	r3, r0
    8550:	2b00      	cmp	r3, #0
    8552:	d15e      	bne.n	8612 <minver+0x406>
    8554:	2300      	movs	r3, #0
    8556:	f8c7 3808 	str.w	r3, [r7, #2056]	; 0x808
    855a:	e03b      	b.n	85d4 <minver+0x3c8>
    855c:	00019cc8 	.word	0x00019cc8
    8560:	00019d34 	.word	0x00019d34
    8564:	f8d7 2808 	ldr.w	r2, [r7, #2056]	; 0x808
    8568:	f8d7 3804 	ldr.w	r3, [r7, #2052]	; 0x804
    856c:	429a      	cmp	r2, r3
    856e:	d02c      	beq.n	85ca <minver+0x3be>
    8570:	4989      	ldr	r1, [pc, #548]	; (8798 <minver+0x58c>)
    8572:	f8d7 280c 	ldr.w	r2, [r7, #2060]	; 0x80c
    8576:	4613      	mov	r3, r2
    8578:	005b      	lsls	r3, r3, #1
    857a:	4413      	add	r3, r2
    857c:	f8d7 2808 	ldr.w	r2, [r7, #2056]	; 0x808
    8580:	4413      	add	r3, r2
    8582:	f851 4023 	ldr.w	r4, [r1, r3, lsl #2]
    8586:	4984      	ldr	r1, [pc, #528]	; (8798 <minver+0x58c>)
    8588:	f8d7 2804 	ldr.w	r2, [r7, #2052]	; 0x804
    858c:	4613      	mov	r3, r2
    858e:	005b      	lsls	r3, r3, #1
    8590:	4413      	add	r3, r2
    8592:	f8d7 2808 	ldr.w	r2, [r7, #2056]	; 0x808
    8596:	4413      	add	r3, r2
    8598:	f851 3023 	ldr.w	r3, [r1, r3, lsl #2]
    859c:	f8d7 17fc 	ldr.w	r1, [r7, #2044]	; 0x7fc
    85a0:	4618      	mov	r0, r3
    85a2:	f000 fe0b 	bl	91bc <__aeabi_fmul>
    85a6:	4603      	mov	r3, r0
    85a8:	4619      	mov	r1, r3
    85aa:	4620      	mov	r0, r4
    85ac:	f000 fcfc 	bl	8fa8 <__aeabi_fsub>
    85b0:	4603      	mov	r3, r0
    85b2:	4618      	mov	r0, r3
    85b4:	4978      	ldr	r1, [pc, #480]	; (8798 <minver+0x58c>)
    85b6:	f8d7 280c 	ldr.w	r2, [r7, #2060]	; 0x80c
    85ba:	4613      	mov	r3, r2
    85bc:	005b      	lsls	r3, r3, #1
    85be:	4413      	add	r3, r2
    85c0:	f8d7 2808 	ldr.w	r2, [r7, #2056]	; 0x808
    85c4:	4413      	add	r3, r2
    85c6:	f841 0023 	str.w	r0, [r1, r3, lsl #2]
    85ca:	f8d7 3808 	ldr.w	r3, [r7, #2056]	; 0x808
    85ce:	3301      	adds	r3, #1
    85d0:	f8c7 3808 	str.w	r3, [r7, #2056]	; 0x808
    85d4:	f507 6301 	add.w	r3, r7, #2064	; 0x810
    85d8:	f6a3 0304 	subw	r3, r3, #2052	; 0x804
    85dc:	f8d7 2808 	ldr.w	r2, [r7, #2056]	; 0x808
    85e0:	681b      	ldr	r3, [r3, #0]
    85e2:	429a      	cmp	r2, r3
    85e4:	dbbe      	blt.n	8564 <minver+0x358>
    85e6:	f8d7 37fc 	ldr.w	r3, [r7, #2044]	; 0x7fc
    85ea:	f083 4300 	eor.w	r3, r3, #2147483648	; 0x80000000
    85ee:	f8d7 17e8 	ldr.w	r1, [r7, #2024]	; 0x7e8
    85f2:	4618      	mov	r0, r3
    85f4:	f000 fe96 	bl	9324 <__aeabi_fdiv>
    85f8:	4603      	mov	r3, r0
    85fa:	4618      	mov	r0, r3
    85fc:	4966      	ldr	r1, [pc, #408]	; (8798 <minver+0x58c>)
    85fe:	f8d7 280c 	ldr.w	r2, [r7, #2060]	; 0x80c
    8602:	4613      	mov	r3, r2
    8604:	005b      	lsls	r3, r3, #1
    8606:	4413      	add	r3, r2
    8608:	f8d7 2804 	ldr.w	r2, [r7, #2052]	; 0x804
    860c:	4413      	add	r3, r2
    860e:	f841 0023 	str.w	r0, [r1, r3, lsl #2]
    8612:	f8d7 380c 	ldr.w	r3, [r7, #2060]	; 0x80c
    8616:	3301      	adds	r3, #1
    8618:	f8c7 380c 	str.w	r3, [r7, #2060]	; 0x80c
    861c:	f507 6301 	add.w	r3, r7, #2064	; 0x810
    8620:	f6a3 0304 	subw	r3, r3, #2052	; 0x804
    8624:	f8d7 280c 	ldr.w	r2, [r7, #2060]	; 0x80c
    8628:	681b      	ldr	r3, [r3, #0]
    862a:	429a      	cmp	r2, r3
    862c:	f6ff af6b 	blt.w	8506 <minver+0x2fa>
    8630:	f8d7 17e8 	ldr.w	r1, [r7, #2024]	; 0x7e8
    8634:	f04f 507e 	mov.w	r0, #1065353216	; 0x3f800000
    8638:	f000 fe74 	bl	9324 <__aeabi_fdiv>
    863c:	4603      	mov	r3, r0
    863e:	4619      	mov	r1, r3
    8640:	4a55      	ldr	r2, [pc, #340]	; (8798 <minver+0x58c>)
    8642:	f8d7 3804 	ldr.w	r3, [r7, #2052]	; 0x804
    8646:	011b      	lsls	r3, r3, #4
    8648:	4413      	add	r3, r2
    864a:	6019      	str	r1, [r3, #0]
    864c:	f8d7 3804 	ldr.w	r3, [r7, #2052]	; 0x804
    8650:	3301      	adds	r3, #1
    8652:	f8c7 3804 	str.w	r3, [r7, #2052]	; 0x804
    8656:	f507 6301 	add.w	r3, r7, #2064	; 0x810
    865a:	f6a3 0304 	subw	r3, r3, #2052	; 0x804
    865e:	f8d7 2804 	ldr.w	r2, [r7, #2052]	; 0x804
    8662:	681b      	ldr	r3, [r3, #0]
    8664:	429a      	cmp	r2, r3
    8666:	f6ff ae2d 	blt.w	82c4 <minver+0xb8>
    866a:	2300      	movs	r3, #0
    866c:	f8c7 380c 	str.w	r3, [r7, #2060]	; 0x80c
    8670:	e07d      	b.n	876e <minver+0x562>
    8672:	f507 6301 	add.w	r3, r7, #2064	; 0x810
    8676:	f5a3 6300 	sub.w	r3, r3, #2048	; 0x800
    867a:	f8d7 280c 	ldr.w	r2, [r7, #2060]	; 0x80c
    867e:	f853 3022 	ldr.w	r3, [r3, r2, lsl #2]
    8682:	f8c7 3804 	str.w	r3, [r7, #2052]	; 0x804
    8686:	f8d7 2804 	ldr.w	r2, [r7, #2052]	; 0x804
    868a:	f8d7 380c 	ldr.w	r3, [r7, #2060]	; 0x80c
    868e:	429a      	cmp	r2, r3
    8690:	d067      	beq.n	8762 <minver+0x556>
    8692:	f507 6301 	add.w	r3, r7, #2064	; 0x810
    8696:	f5a3 6300 	sub.w	r3, r3, #2048	; 0x800
    869a:	f8d7 2804 	ldr.w	r2, [r7, #2052]	; 0x804
    869e:	f853 3022 	ldr.w	r3, [r3, r2, lsl #2]
    86a2:	f8c7 37f0 	str.w	r3, [r7, #2032]	; 0x7f0
    86a6:	f507 6301 	add.w	r3, r7, #2064	; 0x810
    86aa:	f5a3 6300 	sub.w	r3, r3, #2048	; 0x800
    86ae:	f8d7 280c 	ldr.w	r2, [r7, #2060]	; 0x80c
    86b2:	f853 1022 	ldr.w	r1, [r3, r2, lsl #2]
    86b6:	f507 6301 	add.w	r3, r7, #2064	; 0x810
    86ba:	f5a3 6300 	sub.w	r3, r3, #2048	; 0x800
    86be:	f8d7 2804 	ldr.w	r2, [r7, #2052]	; 0x804
    86c2:	f843 1022 	str.w	r1, [r3, r2, lsl #2]
    86c6:	f507 6301 	add.w	r3, r7, #2064	; 0x810
    86ca:	f5a3 6300 	sub.w	r3, r3, #2048	; 0x800
    86ce:	f8d7 280c 	ldr.w	r2, [r7, #2060]	; 0x80c
    86d2:	f8d7 17f0 	ldr.w	r1, [r7, #2032]	; 0x7f0
    86d6:	f843 1022 	str.w	r1, [r3, r2, lsl #2]
    86da:	2300      	movs	r3, #0
    86dc:	f8c7 3808 	str.w	r3, [r7, #2056]	; 0x808
    86e0:	e035      	b.n	874e <minver+0x542>
    86e2:	f507 6301 	add.w	r3, r7, #2064	; 0x810
    86e6:	f6a3 0208 	subw	r2, r3, #2056	; 0x808
    86ea:	f8d7 3808 	ldr.w	r3, [r7, #2056]	; 0x808
    86ee:	6812      	ldr	r2, [r2, #0]
    86f0:	fb02 f303 	mul.w	r3, r2, r3
    86f4:	f8c7 37ec 	str.w	r3, [r7, #2028]	; 0x7ec
    86f8:	4927      	ldr	r1, [pc, #156]	; (8798 <minver+0x58c>)
    86fa:	f8d7 2804 	ldr.w	r2, [r7, #2052]	; 0x804
    86fe:	4613      	mov	r3, r2
    8700:	005b      	lsls	r3, r3, #1
    8702:	4413      	add	r3, r2
    8704:	f8d7 280c 	ldr.w	r2, [r7, #2060]	; 0x80c
    8708:	4413      	add	r3, r2
    870a:	f851 3023 	ldr.w	r3, [r1, r3, lsl #2]
    870e:	f8c7 37fc 	str.w	r3, [r7, #2044]	; 0x7fc
    8712:	4a21      	ldr	r2, [pc, #132]	; (8798 <minver+0x58c>)
    8714:	f8d7 3804 	ldr.w	r3, [r7, #2052]	; 0x804
    8718:	011b      	lsls	r3, r3, #4
    871a:	4413      	add	r3, r2
    871c:	6819      	ldr	r1, [r3, #0]
    871e:	481e      	ldr	r0, [pc, #120]	; (8798 <minver+0x58c>)
    8720:	f8d7 2804 	ldr.w	r2, [r7, #2052]	; 0x804
    8724:	4613      	mov	r3, r2
    8726:	005b      	lsls	r3, r3, #1
    8728:	4413      	add	r3, r2
    872a:	f8d7 280c 	ldr.w	r2, [r7, #2060]	; 0x80c
    872e:	4413      	add	r3, r2
    8730:	f840 1023 	str.w	r1, [r0, r3, lsl #2]
    8734:	4a18      	ldr	r2, [pc, #96]	; (8798 <minver+0x58c>)
    8736:	f8d7 3804 	ldr.w	r3, [r7, #2052]	; 0x804
    873a:	011b      	lsls	r3, r3, #4
    873c:	4413      	add	r3, r2
    873e:	f8d7 27fc 	ldr.w	r2, [r7, #2044]	; 0x7fc
    8742:	601a      	str	r2, [r3, #0]
    8744:	f8d7 3808 	ldr.w	r3, [r7, #2056]	; 0x808
    8748:	3301      	adds	r3, #1
    874a:	f8c7 3808 	str.w	r3, [r7, #2056]	; 0x808
    874e:	f507 6301 	add.w	r3, r7, #2064	; 0x810
    8752:	f6a3 0304 	subw	r3, r3, #2052	; 0x804
    8756:	f8d7 2808 	ldr.w	r2, [r7, #2056]	; 0x808
    875a:	681b      	ldr	r3, [r3, #0]
    875c:	429a      	cmp	r2, r3
    875e:	dbc0      	blt.n	86e2 <minver+0x4d6>
    8760:	e787      	b.n	8672 <minver+0x466>
    8762:	bf00      	nop
    8764:	f8d7 380c 	ldr.w	r3, [r7, #2060]	; 0x80c
    8768:	3301      	adds	r3, #1
    876a:	f8c7 380c 	str.w	r3, [r7, #2060]	; 0x80c
    876e:	f507 6301 	add.w	r3, r7, #2064	; 0x810
    8772:	f6a3 0304 	subw	r3, r3, #2052	; 0x804
    8776:	f8d7 280c 	ldr.w	r2, [r7, #2060]	; 0x80c
    877a:	681b      	ldr	r3, [r3, #0]
    877c:	429a      	cmp	r2, r3
    877e:	f6ff af78 	blt.w	8672 <minver+0x466>
    8782:	4a06      	ldr	r2, [pc, #24]	; (879c <minver+0x590>)
    8784:	f8d7 37f4 	ldr.w	r3, [r7, #2036]	; 0x7f4
    8788:	6013      	str	r3, [r2, #0]
    878a:	2300      	movs	r3, #0
    878c:	4618      	mov	r0, r3
    878e:	f607 0714 	addw	r7, r7, #2068	; 0x814
    8792:	46bd      	mov	sp, r7
    8794:	bd90      	pop	{r4, r7, pc}
    8796:	bf00      	nop
    8798:	00019cc8 	.word	0x00019cc8
    879c:	00019d34 	.word	0x00019d34

000087a0 <verify_benchmark>:
    87a0:	b590      	push	{r4, r7, lr}
    87a2:	b087      	sub	sp, #28
    87a4:	af00      	add	r7, sp, #0
    87a6:	6078      	str	r0, [r7, #4]
    87a8:	4b4f      	ldr	r3, [pc, #316]	; (88e8 <verify_benchmark+0x148>)
    87aa:	60fb      	str	r3, [r7, #12]
    87ac:	2300      	movs	r3, #0
    87ae:	617b      	str	r3, [r7, #20]
    87b0:	e067      	b.n	8882 <verify_benchmark+0xe2>
    87b2:	2300      	movs	r3, #0
    87b4:	613b      	str	r3, [r7, #16]
    87b6:	e05e      	b.n	8876 <verify_benchmark+0xd6>
    87b8:	494c      	ldr	r1, [pc, #304]	; (88ec <verify_benchmark+0x14c>)
    87ba:	697a      	ldr	r2, [r7, #20]
    87bc:	4613      	mov	r3, r2
    87be:	005b      	lsls	r3, r3, #1
    87c0:	4413      	add	r3, r2
    87c2:	693a      	ldr	r2, [r7, #16]
    87c4:	4413      	add	r3, r2
    87c6:	f851 0023 	ldr.w	r0, [r1, r3, lsl #2]
    87ca:	4949      	ldr	r1, [pc, #292]	; (88f0 <verify_benchmark+0x150>)
    87cc:	697a      	ldr	r2, [r7, #20]
    87ce:	4613      	mov	r3, r2
    87d0:	005b      	lsls	r3, r3, #1
    87d2:	4413      	add	r3, r2
    87d4:	693a      	ldr	r2, [r7, #16]
    87d6:	4413      	add	r3, r2
    87d8:	f851 3023 	ldr.w	r3, [r1, r3, lsl #2]
    87dc:	4619      	mov	r1, r3
    87de:	f000 fbe3 	bl	8fa8 <__aeabi_fsub>
    87e2:	4603      	mov	r3, r0
    87e4:	f023 4300 	bic.w	r3, r3, #2147483648	; 0x80000000
    87e8:	4618      	mov	r0, r3
    87ea:	f000 faa9 	bl	8d40 <__aeabi_f2d>
    87ee:	2301      	movs	r3, #1
    87f0:	461c      	mov	r4, r3
    87f2:	a339      	add	r3, pc, #228	; (adr r3, 88d8 <verify_benchmark+0x138>)
    87f4:	e9d3 2300 	ldrd	r2, r3, [r3]
    87f8:	f000 fb5a 	bl	8eb0 <__aeabi_dcmplt>
    87fc:	4603      	mov	r3, r0
    87fe:	2b00      	cmp	r3, #0
    8800:	d101      	bne.n	8806 <verify_benchmark+0x66>
    8802:	2300      	movs	r3, #0
    8804:	461c      	mov	r4, r3
    8806:	b2e3      	uxtb	r3, r4
    8808:	f083 0301 	eor.w	r3, r3, #1
    880c:	b2db      	uxtb	r3, r3
    880e:	2b00      	cmp	r3, #0
    8810:	d12c      	bne.n	886c <verify_benchmark+0xcc>
    8812:	4938      	ldr	r1, [pc, #224]	; (88f4 <verify_benchmark+0x154>)
    8814:	697a      	ldr	r2, [r7, #20]
    8816:	4613      	mov	r3, r2
    8818:	005b      	lsls	r3, r3, #1
    881a:	4413      	add	r3, r2
    881c:	693a      	ldr	r2, [r7, #16]
    881e:	4413      	add	r3, r2
    8820:	f851 0023 	ldr.w	r0, [r1, r3, lsl #2]
    8824:	4934      	ldr	r1, [pc, #208]	; (88f8 <verify_benchmark+0x158>)
    8826:	697a      	ldr	r2, [r7, #20]
    8828:	4613      	mov	r3, r2
    882a:	005b      	lsls	r3, r3, #1
    882c:	4413      	add	r3, r2
    882e:	693a      	ldr	r2, [r7, #16]
    8830:	4413      	add	r3, r2
    8832:	f851 3023 	ldr.w	r3, [r1, r3, lsl #2]
    8836:	4619      	mov	r1, r3
    8838:	f000 fbb6 	bl	8fa8 <__aeabi_fsub>
    883c:	4603      	mov	r3, r0
    883e:	f023 4300 	bic.w	r3, r3, #2147483648	; 0x80000000
    8842:	4618      	mov	r0, r3
    8844:	f000 fa7c 	bl	8d40 <__aeabi_f2d>
    8848:	2301      	movs	r3, #1
    884a:	461c      	mov	r4, r3
    884c:	a322      	add	r3, pc, #136	; (adr r3, 88d8 <verify_benchmark+0x138>)
    884e:	e9d3 2300 	ldrd	r2, r3, [r3]
    8852:	f000 fb2d 	bl	8eb0 <__aeabi_dcmplt>
    8856:	4603      	mov	r3, r0
    8858:	2b00      	cmp	r3, #0
    885a:	d101      	bne.n	8860 <verify_benchmark+0xc0>
    885c:	2300      	movs	r3, #0
    885e:	461c      	mov	r4, r3
    8860:	b2e3      	uxtb	r3, r4
    8862:	f083 0301 	eor.w	r3, r3, #1
    8866:	b2db      	uxtb	r3, r3
    8868:	2b00      	cmp	r3, #0
    886a:	d001      	beq.n	8870 <verify_benchmark+0xd0>
    886c:	2300      	movs	r3, #0
    886e:	e02e      	b.n	88ce <verify_benchmark+0x12e>
    8870:	693b      	ldr	r3, [r7, #16]
    8872:	3301      	adds	r3, #1
    8874:	613b      	str	r3, [r7, #16]
    8876:	693b      	ldr	r3, [r7, #16]
    8878:	2b02      	cmp	r3, #2
    887a:	dd9d      	ble.n	87b8 <verify_benchmark+0x18>
    887c:	697b      	ldr	r3, [r7, #20]
    887e:	3301      	adds	r3, #1
    8880:	617b      	str	r3, [r7, #20]
    8882:	697b      	ldr	r3, [r7, #20]
    8884:	2b02      	cmp	r3, #2
    8886:	dd94      	ble.n	87b2 <verify_benchmark+0x12>
    8888:	4b1c      	ldr	r3, [pc, #112]	; (88fc <verify_benchmark+0x15c>)
    888a:	681b      	ldr	r3, [r3, #0]
    888c:	4618      	mov	r0, r3
    888e:	f000 fa57 	bl	8d40 <__aeabi_f2d>
    8892:	a313      	add	r3, pc, #76	; (adr r3, 88e0 <verify_benchmark+0x140>)
    8894:	e9d3 2300 	ldrd	r2, r3, [r3]
    8898:	f000 f8f4 	bl	8a84 <__adddf3>
    889c:	4602      	mov	r2, r0
    889e:	460b      	mov	r3, r1
    88a0:	4610      	mov	r0, r2
    88a2:	4619      	mov	r1, r3
    88a4:	f000 fb2c 	bl	8f00 <__aeabi_d2f>
    88a8:	4603      	mov	r3, r0
    88aa:	f023 4300 	bic.w	r3, r3, #2147483648	; 0x80000000
    88ae:	4618      	mov	r0, r3
    88b0:	f000 fa46 	bl	8d40 <__aeabi_f2d>
    88b4:	2301      	movs	r3, #1
    88b6:	461c      	mov	r4, r3
    88b8:	a307      	add	r3, pc, #28	; (adr r3, 88d8 <verify_benchmark+0x138>)
    88ba:	e9d3 2300 	ldrd	r2, r3, [r3]
    88be:	f000 faf7 	bl	8eb0 <__aeabi_dcmplt>
    88c2:	4603      	mov	r3, r0
    88c4:	2b00      	cmp	r3, #0
    88c6:	d101      	bne.n	88cc <verify_benchmark+0x12c>
    88c8:	2300      	movs	r3, #0
    88ca:	461c      	mov	r4, r3
    88cc:	b2e3      	uxtb	r3, r4
    88ce:	4618      	mov	r0, r3
    88d0:	371c      	adds	r7, #28
    88d2:	46bd      	mov	sp, r7
    88d4:	bd90      	pop	{r4, r7, pc}
    88d6:	bf00      	nop
    88d8:	88e368f1 	.word	0x88e368f1
    88dc:	3ee4f8b5 	.word	0x3ee4f8b5
    88e0:	00ca2a5b 	.word	0x00ca2a5b
    88e4:	4030aaab 	.word	0x4030aaab
    88e8:	358637bd 	.word	0x358637bd
    88ec:	00019cec 	.word	0x00019cec
    88f0:	00019838 	.word	0x00019838
    88f4:	00019d10 	.word	0x00019d10
    88f8:	0001985c 	.word	0x0001985c
    88fc:	00019d34 	.word	0x00019d34

00008900 <initialise_benchmark>:
    8900:	b480      	push	{r7}
    8902:	af00      	add	r7, sp, #0
    8904:	bf00      	nop
    8906:	46bd      	mov	sp, r7
    8908:	bc80      	pop	{r7}
    890a:	4770      	bx	lr

0000890c <warm_caches>:
    890c:	b580      	push	{r7, lr}
    890e:	b084      	sub	sp, #16
    8910:	af00      	add	r7, sp, #0
    8912:	6078      	str	r0, [r7, #4]
    8914:	6878      	ldr	r0, [r7, #4]
    8916:	f000 f80f 	bl	8938 <benchmark_body>
    891a:	60f8      	str	r0, [r7, #12]
    891c:	bf00      	nop
    891e:	3710      	adds	r7, #16
    8920:	46bd      	mov	sp, r7
    8922:	bd80      	pop	{r7, pc}

00008924 <benchmark>:
    8924:	b580      	push	{r7, lr}
    8926:	af00      	add	r7, sp, #0
    8928:	f240 202b 	movw	r0, #555	; 0x22b
    892c:	f000 f804 	bl	8938 <benchmark_body>
    8930:	4603      	mov	r3, r0
    8932:	4618      	mov	r0, r3
    8934:	bd80      	pop	{r7, pc}
    8936:	0000      	movs	r0, r0

00008938 <benchmark_body>:
    8938:	b5b0      	push	{r4, r5, r7, lr}
    893a:	b084      	sub	sp, #16
    893c:	af00      	add	r7, sp, #0
    893e:	6078      	str	r0, [r7, #4]
    8940:	2300      	movs	r3, #0
    8942:	60fb      	str	r3, [r7, #12]
    8944:	e02d      	b.n	89a2 <benchmark_body+0x6a>
    8946:	4b1b      	ldr	r3, [pc, #108]	; (89b4 <benchmark_body+0x7c>)
    8948:	60bb      	str	r3, [r7, #8]
    894a:	4a1b      	ldr	r2, [pc, #108]	; (89b8 <benchmark_body+0x80>)
    894c:	4b1b      	ldr	r3, [pc, #108]	; (89bc <benchmark_body+0x84>)
    894e:	4614      	mov	r4, r2
    8950:	461d      	mov	r5, r3
    8952:	cd0f      	ldmia	r5!, {r0, r1, r2, r3}
    8954:	c40f      	stmia	r4!, {r0, r1, r2, r3}
    8956:	cd0f      	ldmia	r5!, {r0, r1, r2, r3}
    8958:	c40f      	stmia	r4!, {r0, r1, r2, r3}
    895a:	682b      	ldr	r3, [r5, #0]
    895c:	6023      	str	r3, [r4, #0]
    895e:	68ba      	ldr	r2, [r7, #8]
    8960:	2103      	movs	r1, #3
    8962:	2003      	movs	r0, #3
    8964:	f7ff fc52 	bl	820c <minver>
    8968:	4a15      	ldr	r2, [pc, #84]	; (89c0 <benchmark_body+0x88>)
    896a:	4b13      	ldr	r3, [pc, #76]	; (89b8 <benchmark_body+0x80>)
    896c:	4614      	mov	r4, r2
    896e:	461d      	mov	r5, r3
    8970:	cd0f      	ldmia	r5!, {r0, r1, r2, r3}
    8972:	c40f      	stmia	r4!, {r0, r1, r2, r3}
    8974:	cd0f      	ldmia	r5!, {r0, r1, r2, r3}
    8976:	c40f      	stmia	r4!, {r0, r1, r2, r3}
    8978:	682b      	ldr	r3, [r5, #0]
    897a:	6023      	str	r3, [r4, #0]
    897c:	4a0e      	ldr	r2, [pc, #56]	; (89b8 <benchmark_body+0x80>)
    897e:	4b0f      	ldr	r3, [pc, #60]	; (89bc <benchmark_body+0x84>)
    8980:	4614      	mov	r4, r2
    8982:	461d      	mov	r5, r3
    8984:	cd0f      	ldmia	r5!, {r0, r1, r2, r3}
    8986:	c40f      	stmia	r4!, {r0, r1, r2, r3}
    8988:	cd0f      	ldmia	r5!, {r0, r1, r2, r3}
    898a:	c40f      	stmia	r4!, {r0, r1, r2, r3}
    898c:	682b      	ldr	r3, [r5, #0]
    898e:	6023      	str	r3, [r4, #0]
    8990:	2303      	movs	r3, #3
    8992:	2203      	movs	r2, #3
    8994:	2103      	movs	r1, #3
    8996:	2003      	movs	r0, #3
    8998:	f7ff fbca 	bl	8130 <mmul>
    899c:	68fb      	ldr	r3, [r7, #12]
    899e:	3301      	adds	r3, #1
    89a0:	60fb      	str	r3, [r7, #12]
    89a2:	68fa      	ldr	r2, [r7, #12]
    89a4:	687b      	ldr	r3, [r7, #4]
    89a6:	429a      	cmp	r2, r3
    89a8:	dbcd      	blt.n	8946 <benchmark_body+0xe>
    89aa:	2300      	movs	r3, #0
    89ac:	4618      	mov	r0, r3
    89ae:	3710      	adds	r7, #16
    89b0:	46bd      	mov	sp, r7
    89b2:	bdb0      	pop	{r4, r5, r7, pc}
    89b4:	358637bd 	.word	0x358637bd
    89b8:	00019cc8 	.word	0x00019cc8
    89bc:	000197f0 	.word	0x000197f0
    89c0:	00019d10 	.word	0x00019d10

000089c4 <initialise_board>:
    89c4:	b480      	push	{r7}
    89c6:	af00      	add	r7, sp, #0
    89c8:	4b06      	ldr	r3, [pc, #24]	; (89e4 <initialise_board+0x20>)
    89ca:	681b      	ldr	r3, [r3, #0]
    89cc:	4a05      	ldr	r2, [pc, #20]	; (89e4 <initialise_board+0x20>)
    89ce:	f043 7380 	orr.w	r3, r3, #16777216	; 0x1000000
    89d2:	6013      	str	r3, [r2, #0]
    89d4:	4b04      	ldr	r3, [pc, #16]	; (89e8 <initialise_board+0x24>)
    89d6:	2200      	movs	r2, #0
    89d8:	601a      	str	r2, [r3, #0]
    89da:	bf00      	nop
    89dc:	46bd      	mov	sp, r7
    89de:	bc80      	pop	{r7}
    89e0:	4770      	bx	lr
    89e2:	bf00      	nop
    89e4:	e000edfc 	.word	0xe000edfc
    89e8:	e0001004 	.word	0xe0001004

000089ec <start_trigger>:
    89ec:	b480      	push	{r7}
    89ee:	af00      	add	r7, sp, #0
    89f0:	4b04      	ldr	r3, [pc, #16]	; (8a04 <start_trigger+0x18>)
    89f2:	681b      	ldr	r3, [r3, #0]
    89f4:	4a03      	ldr	r2, [pc, #12]	; (8a04 <start_trigger+0x18>)
    89f6:	f043 0301 	orr.w	r3, r3, #1
    89fa:	6013      	str	r3, [r2, #0]
    89fc:	bf00      	nop
    89fe:	46bd      	mov	sp, r7
    8a00:	bc80      	pop	{r7}
    8a02:	4770      	bx	lr
    8a04:	e0001000 	.word	0xe0001000

00008a08 <stop_trigger>:
    8a08:	b480      	push	{r7}
    8a0a:	af00      	add	r7, sp, #0
    8a0c:	4b06      	ldr	r3, [pc, #24]	; (8a28 <stop_trigger+0x20>)
    8a0e:	2200      	movs	r2, #0
    8a10:	601a      	str	r2, [r3, #0]
    8a12:	4b06      	ldr	r3, [pc, #24]	; (8a2c <stop_trigger+0x24>)
    8a14:	681b      	ldr	r3, [r3, #0]
    8a16:	4a05      	ldr	r2, [pc, #20]	; (8a2c <stop_trigger+0x24>)
    8a18:	f023 0301 	bic.w	r3, r3, #1
    8a1c:	6013      	str	r3, [r2, #0]
    8a1e:	bf00      	nop
    8a20:	46bd      	mov	sp, r7
    8a22:	bc80      	pop	{r7}
    8a24:	4770      	bx	lr
    8a26:	bf00      	nop
    8a28:	e0001004 	.word	0xe0001004
    8a2c:	e0001000 	.word	0xe0001000

00008a30 <main>:
    8a30:	b580      	push	{r7, lr}
    8a32:	b084      	sub	sp, #16
    8a34:	af00      	add	r7, sp, #0
    8a36:	6078      	str	r0, [r7, #4]
    8a38:	6039      	str	r1, [r7, #0]
    8a3a:	f7ff ffc3 	bl	89c4 <initialise_board>
    8a3e:	f7ff ff5f 	bl	8900 <initialise_benchmark>
    8a42:	2001      	movs	r0, #1
    8a44:	f7ff ff62 	bl	890c <warm_caches>
    8a48:	f7ff ffd0 	bl	89ec <start_trigger>
    8a4c:	f7ff ff6a 	bl	8924 <benchmark>
    8a50:	4603      	mov	r3, r0
    8a52:	60bb      	str	r3, [r7, #8]
    8a54:	f7ff ffd8 	bl	8a08 <stop_trigger>
    8a58:	68bb      	ldr	r3, [r7, #8]
    8a5a:	4618      	mov	r0, r3
    8a5c:	f7ff fea0 	bl	87a0 <verify_benchmark>
    8a60:	60f8      	str	r0, [r7, #12]
    8a62:	68fb      	ldr	r3, [r7, #12]
    8a64:	2b00      	cmp	r3, #0
    8a66:	bf0c      	ite	eq
    8a68:	2301      	moveq	r3, #1
    8a6a:	2300      	movne	r3, #0
    8a6c:	b2db      	uxtb	r3, r3
    8a6e:	4618      	mov	r0, r3
    8a70:	3710      	adds	r7, #16
    8a72:	46bd      	mov	sp, r7
    8a74:	bd80      	pop	{r7, pc}
    8a76:	0000      	movs	r0, r0

00008a78 <__aeabi_drsub>:
    8a78:	f081 4100 	eor.w	r1, r1, #2147483648	; 0x80000000
    8a7c:	e002      	b.n	8a84 <__adddf3>
    8a7e:	bf00      	nop

00008a80 <__aeabi_dsub>:
    8a80:	f083 4300 	eor.w	r3, r3, #2147483648	; 0x80000000

00008a84 <__adddf3>:
    8a84:	b530      	push	{r4, r5, lr}
    8a86:	ea4f 0441 	mov.w	r4, r1, lsl #1
    8a8a:	ea4f 0543 	mov.w	r5, r3, lsl #1
    8a8e:	ea94 0f05 	teq	r4, r5
    8a92:	bf08      	it	eq
    8a94:	ea90 0f02 	teqeq	r0, r2
    8a98:	bf1f      	itttt	ne
    8a9a:	ea54 0c00 	orrsne.w	ip, r4, r0
    8a9e:	ea55 0c02 	orrsne.w	ip, r5, r2
    8aa2:	ea7f 5c64 	mvnsne.w	ip, r4, asr #21
    8aa6:	ea7f 5c65 	mvnsne.w	ip, r5, asr #21
    8aaa:	f000 80e2 	beq.w	8c72 <__adddf3+0x1ee>
    8aae:	ea4f 5454 	mov.w	r4, r4, lsr #21
    8ab2:	ebd4 5555 	rsbs	r5, r4, r5, lsr #21
    8ab6:	bfb8      	it	lt
    8ab8:	426d      	neglt	r5, r5
    8aba:	dd0c      	ble.n	8ad6 <__adddf3+0x52>
    8abc:	442c      	add	r4, r5
    8abe:	ea80 0202 	eor.w	r2, r0, r2
    8ac2:	ea81 0303 	eor.w	r3, r1, r3
    8ac6:	ea82 0000 	eor.w	r0, r2, r0
    8aca:	ea83 0101 	eor.w	r1, r3, r1
    8ace:	ea80 0202 	eor.w	r2, r0, r2
    8ad2:	ea81 0303 	eor.w	r3, r1, r3
    8ad6:	2d36      	cmp	r5, #54	; 0x36
    8ad8:	bf88      	it	hi
    8ada:	bd30      	pophi	{r4, r5, pc}
    8adc:	f011 4f00 	tst.w	r1, #2147483648	; 0x80000000
    8ae0:	ea4f 3101 	mov.w	r1, r1, lsl #12
    8ae4:	f44f 1c80 	mov.w	ip, #1048576	; 0x100000
    8ae8:	ea4c 3111 	orr.w	r1, ip, r1, lsr #12
    8aec:	d002      	beq.n	8af4 <__adddf3+0x70>
    8aee:	4240      	negs	r0, r0
    8af0:	eb61 0141 	sbc.w	r1, r1, r1, lsl #1
    8af4:	f013 4f00 	tst.w	r3, #2147483648	; 0x80000000
    8af8:	ea4f 3303 	mov.w	r3, r3, lsl #12
    8afc:	ea4c 3313 	orr.w	r3, ip, r3, lsr #12
    8b00:	d002      	beq.n	8b08 <__adddf3+0x84>
    8b02:	4252      	negs	r2, r2
    8b04:	eb63 0343 	sbc.w	r3, r3, r3, lsl #1
    8b08:	ea94 0f05 	teq	r4, r5
    8b0c:	f000 80a7 	beq.w	8c5e <__adddf3+0x1da>
    8b10:	f1a4 0401 	sub.w	r4, r4, #1
    8b14:	f1d5 0e20 	rsbs	lr, r5, #32
    8b18:	db0d      	blt.n	8b36 <__adddf3+0xb2>
    8b1a:	fa02 fc0e 	lsl.w	ip, r2, lr
    8b1e:	fa22 f205 	lsr.w	r2, r2, r5
    8b22:	1880      	adds	r0, r0, r2
    8b24:	f141 0100 	adc.w	r1, r1, #0
    8b28:	fa03 f20e 	lsl.w	r2, r3, lr
    8b2c:	1880      	adds	r0, r0, r2
    8b2e:	fa43 f305 	asr.w	r3, r3, r5
    8b32:	4159      	adcs	r1, r3
    8b34:	e00e      	b.n	8b54 <__adddf3+0xd0>
    8b36:	f1a5 0520 	sub.w	r5, r5, #32
    8b3a:	f10e 0e20 	add.w	lr, lr, #32
    8b3e:	2a01      	cmp	r2, #1
    8b40:	fa03 fc0e 	lsl.w	ip, r3, lr
    8b44:	bf28      	it	cs
    8b46:	f04c 0c02 	orrcs.w	ip, ip, #2
    8b4a:	fa43 f305 	asr.w	r3, r3, r5
    8b4e:	18c0      	adds	r0, r0, r3
    8b50:	eb51 71e3 	adcs.w	r1, r1, r3, asr #31
    8b54:	f001 4500 	and.w	r5, r1, #2147483648	; 0x80000000
    8b58:	d507      	bpl.n	8b6a <__adddf3+0xe6>
    8b5a:	f04f 0e00 	mov.w	lr, #0
    8b5e:	f1dc 0c00 	rsbs	ip, ip, #0
    8b62:	eb7e 0000 	sbcs.w	r0, lr, r0
    8b66:	eb6e 0101 	sbc.w	r1, lr, r1
    8b6a:	f5b1 1f80 	cmp.w	r1, #1048576	; 0x100000
    8b6e:	d31b      	bcc.n	8ba8 <__adddf3+0x124>
    8b70:	f5b1 1f00 	cmp.w	r1, #2097152	; 0x200000
    8b74:	d30c      	bcc.n	8b90 <__adddf3+0x10c>
    8b76:	0849      	lsrs	r1, r1, #1
    8b78:	ea5f 0030 	movs.w	r0, r0, rrx
    8b7c:	ea4f 0c3c 	mov.w	ip, ip, rrx
    8b80:	f104 0401 	add.w	r4, r4, #1
    8b84:	ea4f 5244 	mov.w	r2, r4, lsl #21
    8b88:	f512 0f80 	cmn.w	r2, #4194304	; 0x400000
    8b8c:	f080 809a 	bcs.w	8cc4 <__adddf3+0x240>
    8b90:	f1bc 4f00 	cmp.w	ip, #2147483648	; 0x80000000
    8b94:	bf08      	it	eq
    8b96:	ea5f 0c50 	movseq.w	ip, r0, lsr #1
    8b9a:	f150 0000 	adcs.w	r0, r0, #0
    8b9e:	eb41 5104 	adc.w	r1, r1, r4, lsl #20
    8ba2:	ea41 0105 	orr.w	r1, r1, r5
    8ba6:	bd30      	pop	{r4, r5, pc}
    8ba8:	ea5f 0c4c 	movs.w	ip, ip, lsl #1
    8bac:	4140      	adcs	r0, r0
    8bae:	eb41 0101 	adc.w	r1, r1, r1
    8bb2:	3c01      	subs	r4, #1
    8bb4:	bf28      	it	cs
    8bb6:	f5b1 1f80 	cmpcs.w	r1, #1048576	; 0x100000
    8bba:	d2e9      	bcs.n	8b90 <__adddf3+0x10c>
    8bbc:	f091 0f00 	teq	r1, #0
    8bc0:	bf04      	itt	eq
    8bc2:	4601      	moveq	r1, r0
    8bc4:	2000      	moveq	r0, #0
    8bc6:	fab1 f381 	clz	r3, r1
    8bca:	bf08      	it	eq
    8bcc:	3320      	addeq	r3, #32
    8bce:	f1a3 030b 	sub.w	r3, r3, #11
    8bd2:	f1b3 0220 	subs.w	r2, r3, #32
    8bd6:	da0c      	bge.n	8bf2 <__adddf3+0x16e>
    8bd8:	320c      	adds	r2, #12
    8bda:	dd08      	ble.n	8bee <__adddf3+0x16a>
    8bdc:	f102 0c14 	add.w	ip, r2, #20
    8be0:	f1c2 020c 	rsb	r2, r2, #12
    8be4:	fa01 f00c 	lsl.w	r0, r1, ip
    8be8:	fa21 f102 	lsr.w	r1, r1, r2
    8bec:	e00c      	b.n	8c08 <__adddf3+0x184>
    8bee:	f102 0214 	add.w	r2, r2, #20
    8bf2:	bfd8      	it	le
    8bf4:	f1c2 0c20 	rsble	ip, r2, #32
    8bf8:	fa01 f102 	lsl.w	r1, r1, r2
    8bfc:	fa20 fc0c 	lsr.w	ip, r0, ip
    8c00:	bfdc      	itt	le
    8c02:	ea41 010c 	orrle.w	r1, r1, ip
    8c06:	4090      	lslle	r0, r2
    8c08:	1ae4      	subs	r4, r4, r3
    8c0a:	bfa2      	ittt	ge
    8c0c:	eb01 5104 	addge.w	r1, r1, r4, lsl #20
    8c10:	4329      	orrge	r1, r5
    8c12:	bd30      	popge	{r4, r5, pc}
    8c14:	ea6f 0404 	mvn.w	r4, r4
    8c18:	3c1f      	subs	r4, #31
    8c1a:	da1c      	bge.n	8c56 <__adddf3+0x1d2>
    8c1c:	340c      	adds	r4, #12
    8c1e:	dc0e      	bgt.n	8c3e <__adddf3+0x1ba>
    8c20:	f104 0414 	add.w	r4, r4, #20
    8c24:	f1c4 0220 	rsb	r2, r4, #32
    8c28:	fa20 f004 	lsr.w	r0, r0, r4
    8c2c:	fa01 f302 	lsl.w	r3, r1, r2
    8c30:	ea40 0003 	orr.w	r0, r0, r3
    8c34:	fa21 f304 	lsr.w	r3, r1, r4
    8c38:	ea45 0103 	orr.w	r1, r5, r3
    8c3c:	bd30      	pop	{r4, r5, pc}
    8c3e:	f1c4 040c 	rsb	r4, r4, #12
    8c42:	f1c4 0220 	rsb	r2, r4, #32
    8c46:	fa20 f002 	lsr.w	r0, r0, r2
    8c4a:	fa01 f304 	lsl.w	r3, r1, r4
    8c4e:	ea40 0003 	orr.w	r0, r0, r3
    8c52:	4629      	mov	r1, r5
    8c54:	bd30      	pop	{r4, r5, pc}
    8c56:	fa21 f004 	lsr.w	r0, r1, r4
    8c5a:	4629      	mov	r1, r5
    8c5c:	bd30      	pop	{r4, r5, pc}
    8c5e:	f094 0f00 	teq	r4, #0
    8c62:	f483 1380 	eor.w	r3, r3, #1048576	; 0x100000
    8c66:	bf06      	itte	eq
    8c68:	f481 1180 	eoreq.w	r1, r1, #1048576	; 0x100000
    8c6c:	3401      	addeq	r4, #1
    8c6e:	3d01      	subne	r5, #1
    8c70:	e74e      	b.n	8b10 <__adddf3+0x8c>
    8c72:	ea7f 5c64 	mvns.w	ip, r4, asr #21
    8c76:	bf18      	it	ne
    8c78:	ea7f 5c65 	mvnsne.w	ip, r5, asr #21
    8c7c:	d029      	beq.n	8cd2 <__adddf3+0x24e>
    8c7e:	ea94 0f05 	teq	r4, r5
    8c82:	bf08      	it	eq
    8c84:	ea90 0f02 	teqeq	r0, r2
    8c88:	d005      	beq.n	8c96 <__adddf3+0x212>
    8c8a:	ea54 0c00 	orrs.w	ip, r4, r0
    8c8e:	bf04      	itt	eq
    8c90:	4619      	moveq	r1, r3
    8c92:	4610      	moveq	r0, r2
    8c94:	bd30      	pop	{r4, r5, pc}
    8c96:	ea91 0f03 	teq	r1, r3
    8c9a:	bf1e      	ittt	ne
    8c9c:	2100      	movne	r1, #0
    8c9e:	2000      	movne	r0, #0
    8ca0:	bd30      	popne	{r4, r5, pc}
    8ca2:	ea5f 5c54 	movs.w	ip, r4, lsr #21
    8ca6:	d105      	bne.n	8cb4 <__adddf3+0x230>
    8ca8:	0040      	lsls	r0, r0, #1
    8caa:	4149      	adcs	r1, r1
    8cac:	bf28      	it	cs
    8cae:	f041 4100 	orrcs.w	r1, r1, #2147483648	; 0x80000000
    8cb2:	bd30      	pop	{r4, r5, pc}
    8cb4:	f514 0480 	adds.w	r4, r4, #4194304	; 0x400000
    8cb8:	bf3c      	itt	cc
    8cba:	f501 1180 	addcc.w	r1, r1, #1048576	; 0x100000
    8cbe:	bd30      	popcc	{r4, r5, pc}
    8cc0:	f001 4500 	and.w	r5, r1, #2147483648	; 0x80000000
    8cc4:	f045 41fe 	orr.w	r1, r5, #2130706432	; 0x7f000000
    8cc8:	f441 0170 	orr.w	r1, r1, #15728640	; 0xf00000
    8ccc:	f04f 0000 	mov.w	r0, #0
    8cd0:	bd30      	pop	{r4, r5, pc}
    8cd2:	ea7f 5c64 	mvns.w	ip, r4, asr #21
    8cd6:	bf1a      	itte	ne
    8cd8:	4619      	movne	r1, r3
    8cda:	4610      	movne	r0, r2
    8cdc:	ea7f 5c65 	mvnseq.w	ip, r5, asr #21
    8ce0:	bf1c      	itt	ne
    8ce2:	460b      	movne	r3, r1
    8ce4:	4602      	movne	r2, r0
    8ce6:	ea50 3401 	orrs.w	r4, r0, r1, lsl #12
    8cea:	bf06      	itte	eq
    8cec:	ea52 3503 	orrseq.w	r5, r2, r3, lsl #12
    8cf0:	ea91 0f03 	teqeq	r1, r3
    8cf4:	f441 2100 	orrne.w	r1, r1, #524288	; 0x80000
    8cf8:	bd30      	pop	{r4, r5, pc}
    8cfa:	bf00      	nop

00008cfc <__aeabi_ui2d>:
    8cfc:	f090 0f00 	teq	r0, #0
    8d00:	bf04      	itt	eq
    8d02:	2100      	moveq	r1, #0
    8d04:	4770      	bxeq	lr
    8d06:	b530      	push	{r4, r5, lr}
    8d08:	f44f 6480 	mov.w	r4, #1024	; 0x400
    8d0c:	f104 0432 	add.w	r4, r4, #50	; 0x32
    8d10:	f04f 0500 	mov.w	r5, #0
    8d14:	f04f 0100 	mov.w	r1, #0
    8d18:	e750      	b.n	8bbc <__adddf3+0x138>
    8d1a:	bf00      	nop

00008d1c <__aeabi_i2d>:
    8d1c:	f090 0f00 	teq	r0, #0
    8d20:	bf04      	itt	eq
    8d22:	2100      	moveq	r1, #0
    8d24:	4770      	bxeq	lr
    8d26:	b530      	push	{r4, r5, lr}
    8d28:	f44f 6480 	mov.w	r4, #1024	; 0x400
    8d2c:	f104 0432 	add.w	r4, r4, #50	; 0x32
    8d30:	f010 4500 	ands.w	r5, r0, #2147483648	; 0x80000000
    8d34:	bf48      	it	mi
    8d36:	4240      	negmi	r0, r0
    8d38:	f04f 0100 	mov.w	r1, #0
    8d3c:	e73e      	b.n	8bbc <__adddf3+0x138>
    8d3e:	bf00      	nop

00008d40 <__aeabi_f2d>:
    8d40:	0042      	lsls	r2, r0, #1
    8d42:	ea4f 01e2 	mov.w	r1, r2, asr #3
    8d46:	ea4f 0131 	mov.w	r1, r1, rrx
    8d4a:	ea4f 7002 	mov.w	r0, r2, lsl #28
    8d4e:	bf1f      	itttt	ne
    8d50:	f012 437f 	andsne.w	r3, r2, #4278190080	; 0xff000000
    8d54:	f093 4f7f 	teqne	r3, #4278190080	; 0xff000000
    8d58:	f081 5160 	eorne.w	r1, r1, #939524096	; 0x38000000
    8d5c:	4770      	bxne	lr
    8d5e:	f032 427f 	bics.w	r2, r2, #4278190080	; 0xff000000
    8d62:	bf08      	it	eq
    8d64:	4770      	bxeq	lr
    8d66:	f093 4f7f 	teq	r3, #4278190080	; 0xff000000
    8d6a:	bf04      	itt	eq
    8d6c:	f441 2100 	orreq.w	r1, r1, #524288	; 0x80000
    8d70:	4770      	bxeq	lr
    8d72:	b530      	push	{r4, r5, lr}
    8d74:	f44f 7460 	mov.w	r4, #896	; 0x380
    8d78:	f001 4500 	and.w	r5, r1, #2147483648	; 0x80000000
    8d7c:	f021 4100 	bic.w	r1, r1, #2147483648	; 0x80000000
    8d80:	e71c      	b.n	8bbc <__adddf3+0x138>
    8d82:	bf00      	nop

00008d84 <__aeabi_ul2d>:
    8d84:	ea50 0201 	orrs.w	r2, r0, r1
    8d88:	bf08      	it	eq
    8d8a:	4770      	bxeq	lr
    8d8c:	b530      	push	{r4, r5, lr}
    8d8e:	f04f 0500 	mov.w	r5, #0
    8d92:	e00a      	b.n	8daa <__aeabi_l2d+0x16>

00008d94 <__aeabi_l2d>:
    8d94:	ea50 0201 	orrs.w	r2, r0, r1
    8d98:	bf08      	it	eq
    8d9a:	4770      	bxeq	lr
    8d9c:	b530      	push	{r4, r5, lr}
    8d9e:	f011 4500 	ands.w	r5, r1, #2147483648	; 0x80000000
    8da2:	d502      	bpl.n	8daa <__aeabi_l2d+0x16>
    8da4:	4240      	negs	r0, r0
    8da6:	eb61 0141 	sbc.w	r1, r1, r1, lsl #1
    8daa:	f44f 6480 	mov.w	r4, #1024	; 0x400
    8dae:	f104 0432 	add.w	r4, r4, #50	; 0x32
    8db2:	ea5f 5c91 	movs.w	ip, r1, lsr #22
    8db6:	f43f aed8 	beq.w	8b6a <__adddf3+0xe6>
    8dba:	f04f 0203 	mov.w	r2, #3
    8dbe:	ea5f 0cdc 	movs.w	ip, ip, lsr #3
    8dc2:	bf18      	it	ne
    8dc4:	3203      	addne	r2, #3
    8dc6:	ea5f 0cdc 	movs.w	ip, ip, lsr #3
    8dca:	bf18      	it	ne
    8dcc:	3203      	addne	r2, #3
    8dce:	eb02 02dc 	add.w	r2, r2, ip, lsr #3
    8dd2:	f1c2 0320 	rsb	r3, r2, #32
    8dd6:	fa00 fc03 	lsl.w	ip, r0, r3
    8dda:	fa20 f002 	lsr.w	r0, r0, r2
    8dde:	fa01 fe03 	lsl.w	lr, r1, r3
    8de2:	ea40 000e 	orr.w	r0, r0, lr
    8de6:	fa21 f102 	lsr.w	r1, r1, r2
    8dea:	4414      	add	r4, r2
    8dec:	e6bd      	b.n	8b6a <__adddf3+0xe6>
    8dee:	bf00      	nop

00008df0 <__gedf2>:
    8df0:	f04f 3cff 	mov.w	ip, #4294967295	; 0xffffffff
    8df4:	e006      	b.n	8e04 <__cmpdf2+0x4>
    8df6:	bf00      	nop

00008df8 <__ledf2>:
    8df8:	f04f 0c01 	mov.w	ip, #1
    8dfc:	e002      	b.n	8e04 <__cmpdf2+0x4>
    8dfe:	bf00      	nop

00008e00 <__cmpdf2>:
    8e00:	f04f 0c01 	mov.w	ip, #1
    8e04:	f84d cd04 	str.w	ip, [sp, #-4]!
    8e08:	ea4f 0c41 	mov.w	ip, r1, lsl #1
    8e0c:	ea7f 5c6c 	mvns.w	ip, ip, asr #21
    8e10:	ea4f 0c43 	mov.w	ip, r3, lsl #1
    8e14:	bf18      	it	ne
    8e16:	ea7f 5c6c 	mvnsne.w	ip, ip, asr #21
    8e1a:	d01b      	beq.n	8e54 <__cmpdf2+0x54>
    8e1c:	b001      	add	sp, #4
    8e1e:	ea50 0c41 	orrs.w	ip, r0, r1, lsl #1
    8e22:	bf0c      	ite	eq
    8e24:	ea52 0c43 	orrseq.w	ip, r2, r3, lsl #1
    8e28:	ea91 0f03 	teqne	r1, r3
    8e2c:	bf02      	ittt	eq
    8e2e:	ea90 0f02 	teqeq	r0, r2
    8e32:	2000      	moveq	r0, #0
    8e34:	4770      	bxeq	lr
    8e36:	f110 0f00 	cmn.w	r0, #0
    8e3a:	ea91 0f03 	teq	r1, r3
    8e3e:	bf58      	it	pl
    8e40:	4299      	cmppl	r1, r3
    8e42:	bf08      	it	eq
    8e44:	4290      	cmpeq	r0, r2
    8e46:	bf2c      	ite	cs
    8e48:	17d8      	asrcs	r0, r3, #31
    8e4a:	ea6f 70e3 	mvncc.w	r0, r3, asr #31
    8e4e:	f040 0001 	orr.w	r0, r0, #1
    8e52:	4770      	bx	lr
    8e54:	ea4f 0c41 	mov.w	ip, r1, lsl #1
    8e58:	ea7f 5c6c 	mvns.w	ip, ip, asr #21
    8e5c:	d102      	bne.n	8e64 <__cmpdf2+0x64>
    8e5e:	ea50 3c01 	orrs.w	ip, r0, r1, lsl #12
    8e62:	d107      	bne.n	8e74 <__cmpdf2+0x74>
    8e64:	ea4f 0c43 	mov.w	ip, r3, lsl #1
    8e68:	ea7f 5c6c 	mvns.w	ip, ip, asr #21
    8e6c:	d1d6      	bne.n	8e1c <__cmpdf2+0x1c>
    8e6e:	ea52 3c03 	orrs.w	ip, r2, r3, lsl #12
    8e72:	d0d3      	beq.n	8e1c <__cmpdf2+0x1c>
    8e74:	f85d 0b04 	ldr.w	r0, [sp], #4
    8e78:	4770      	bx	lr
    8e7a:	bf00      	nop

00008e7c <__aeabi_cdrcmple>:
    8e7c:	4684      	mov	ip, r0
    8e7e:	4610      	mov	r0, r2
    8e80:	4662      	mov	r2, ip
    8e82:	468c      	mov	ip, r1
    8e84:	4619      	mov	r1, r3
    8e86:	4663      	mov	r3, ip
    8e88:	e000      	b.n	8e8c <__aeabi_cdcmpeq>
    8e8a:	bf00      	nop

00008e8c <__aeabi_cdcmpeq>:
    8e8c:	b501      	push	{r0, lr}
    8e8e:	f7ff ffb7 	bl	8e00 <__cmpdf2>
    8e92:	2800      	cmp	r0, #0
    8e94:	bf48      	it	mi
    8e96:	f110 0f00 	cmnmi.w	r0, #0
    8e9a:	bd01      	pop	{r0, pc}

00008e9c <__aeabi_dcmpeq>:
    8e9c:	f84d ed08 	str.w	lr, [sp, #-8]!
    8ea0:	f7ff fff4 	bl	8e8c <__aeabi_cdcmpeq>
    8ea4:	bf0c      	ite	eq
    8ea6:	2001      	moveq	r0, #1
    8ea8:	2000      	movne	r0, #0
    8eaa:	f85d fb08 	ldr.w	pc, [sp], #8
    8eae:	bf00      	nop

00008eb0 <__aeabi_dcmplt>:
    8eb0:	f84d ed08 	str.w	lr, [sp, #-8]!
    8eb4:	f7ff ffea 	bl	8e8c <__aeabi_cdcmpeq>
    8eb8:	bf34      	ite	cc
    8eba:	2001      	movcc	r0, #1
    8ebc:	2000      	movcs	r0, #0
    8ebe:	f85d fb08 	ldr.w	pc, [sp], #8
    8ec2:	bf00      	nop

00008ec4 <__aeabi_dcmple>:
    8ec4:	f84d ed08 	str.w	lr, [sp, #-8]!
    8ec8:	f7ff ffe0 	bl	8e8c <__aeabi_cdcmpeq>
    8ecc:	bf94      	ite	ls
    8ece:	2001      	movls	r0, #1
    8ed0:	2000      	movhi	r0, #0
    8ed2:	f85d fb08 	ldr.w	pc, [sp], #8
    8ed6:	bf00      	nop

00008ed8 <__aeabi_dcmpge>:
    8ed8:	f84d ed08 	str.w	lr, [sp, #-8]!
    8edc:	f7ff ffce 	bl	8e7c <__aeabi_cdrcmple>
    8ee0:	bf94      	ite	ls
    8ee2:	2001      	movls	r0, #1
    8ee4:	2000      	movhi	r0, #0
    8ee6:	f85d fb08 	ldr.w	pc, [sp], #8
    8eea:	bf00      	nop

00008eec <__aeabi_dcmpgt>:
    8eec:	f84d ed08 	str.w	lr, [sp, #-8]!
    8ef0:	f7ff ffc4 	bl	8e7c <__aeabi_cdrcmple>
    8ef4:	bf34      	ite	cc
    8ef6:	2001      	movcc	r0, #1
    8ef8:	2000      	movcs	r0, #0
    8efa:	f85d fb08 	ldr.w	pc, [sp], #8
    8efe:	bf00      	nop

00008f00 <__aeabi_d2f>:
    8f00:	ea4f 0241 	mov.w	r2, r1, lsl #1
    8f04:	f1b2 43e0 	subs.w	r3, r2, #1879048192	; 0x70000000
    8f08:	bf24      	itt	cs
    8f0a:	f5b3 1c00 	subscs.w	ip, r3, #2097152	; 0x200000
    8f0e:	f1dc 5cfe 	rsbscs	ip, ip, #532676608	; 0x1fc00000
    8f12:	d90d      	bls.n	8f30 <__aeabi_d2f+0x30>
    8f14:	f001 4c00 	and.w	ip, r1, #2147483648	; 0x80000000
    8f18:	ea4f 02c0 	mov.w	r2, r0, lsl #3
    8f1c:	ea4c 7050 	orr.w	r0, ip, r0, lsr #29
    8f20:	f1b2 4f00 	cmp.w	r2, #2147483648	; 0x80000000
    8f24:	eb40 0083 	adc.w	r0, r0, r3, lsl #2
    8f28:	bf08      	it	eq
    8f2a:	f020 0001 	biceq.w	r0, r0, #1
    8f2e:	4770      	bx	lr
    8f30:	f011 4f80 	tst.w	r1, #1073741824	; 0x40000000
    8f34:	d121      	bne.n	8f7a <__aeabi_d2f+0x7a>
    8f36:	f113 7238 	adds.w	r2, r3, #48234496	; 0x2e00000
    8f3a:	bfbc      	itt	lt
    8f3c:	f001 4000 	andlt.w	r0, r1, #2147483648	; 0x80000000
    8f40:	4770      	bxlt	lr
    8f42:	f441 1180 	orr.w	r1, r1, #1048576	; 0x100000
    8f46:	ea4f 5252 	mov.w	r2, r2, lsr #21
    8f4a:	f1c2 0218 	rsb	r2, r2, #24
    8f4e:	f1c2 0c20 	rsb	ip, r2, #32
    8f52:	fa10 f30c 	lsls.w	r3, r0, ip
    8f56:	fa20 f002 	lsr.w	r0, r0, r2
    8f5a:	bf18      	it	ne
    8f5c:	f040 0001 	orrne.w	r0, r0, #1
    8f60:	ea4f 23c1 	mov.w	r3, r1, lsl #11
    8f64:	ea4f 23d3 	mov.w	r3, r3, lsr #11
    8f68:	fa03 fc0c 	lsl.w	ip, r3, ip
    8f6c:	ea40 000c 	orr.w	r0, r0, ip
    8f70:	fa23 f302 	lsr.w	r3, r3, r2
    8f74:	ea4f 0343 	mov.w	r3, r3, lsl #1
    8f78:	e7cc      	b.n	8f14 <__aeabi_d2f+0x14>
    8f7a:	ea7f 5362 	mvns.w	r3, r2, asr #21
    8f7e:	d107      	bne.n	8f90 <__aeabi_d2f+0x90>
    8f80:	ea50 3301 	orrs.w	r3, r0, r1, lsl #12
    8f84:	bf1e      	ittt	ne
    8f86:	f04f 40fe 	movne.w	r0, #2130706432	; 0x7f000000
    8f8a:	f440 0040 	orrne.w	r0, r0, #12582912	; 0xc00000
    8f8e:	4770      	bxne	lr
    8f90:	f001 4000 	and.w	r0, r1, #2147483648	; 0x80000000
    8f94:	f040 40fe 	orr.w	r0, r0, #2130706432	; 0x7f000000
    8f98:	f440 0000 	orr.w	r0, r0, #8388608	; 0x800000
    8f9c:	4770      	bx	lr
    8f9e:	bf00      	nop

00008fa0 <__aeabi_frsub>:
    8fa0:	f080 4000 	eor.w	r0, r0, #2147483648	; 0x80000000
    8fa4:	e002      	b.n	8fac <__addsf3>
    8fa6:	bf00      	nop

00008fa8 <__aeabi_fsub>:
    8fa8:	f081 4100 	eor.w	r1, r1, #2147483648	; 0x80000000

00008fac <__addsf3>:
    8fac:	0042      	lsls	r2, r0, #1
    8fae:	bf1f      	itttt	ne
    8fb0:	ea5f 0341 	movsne.w	r3, r1, lsl #1
    8fb4:	ea92 0f03 	teqne	r2, r3
    8fb8:	ea7f 6c22 	mvnsne.w	ip, r2, asr #24
    8fbc:	ea7f 6c23 	mvnsne.w	ip, r3, asr #24
    8fc0:	d06a      	beq.n	9098 <__addsf3+0xec>
    8fc2:	ea4f 6212 	mov.w	r2, r2, lsr #24
    8fc6:	ebd2 6313 	rsbs	r3, r2, r3, lsr #24
    8fca:	bfc1      	itttt	gt
    8fcc:	18d2      	addgt	r2, r2, r3
    8fce:	4041      	eorgt	r1, r0
    8fd0:	4048      	eorgt	r0, r1
    8fd2:	4041      	eorgt	r1, r0
    8fd4:	bfb8      	it	lt
    8fd6:	425b      	neglt	r3, r3
    8fd8:	2b19      	cmp	r3, #25
    8fda:	bf88      	it	hi
    8fdc:	4770      	bxhi	lr
    8fde:	f010 4f00 	tst.w	r0, #2147483648	; 0x80000000
    8fe2:	f440 0000 	orr.w	r0, r0, #8388608	; 0x800000
    8fe6:	f020 407f 	bic.w	r0, r0, #4278190080	; 0xff000000
    8fea:	bf18      	it	ne
    8fec:	4240      	negne	r0, r0
    8fee:	f011 4f00 	tst.w	r1, #2147483648	; 0x80000000
    8ff2:	f441 0100 	orr.w	r1, r1, #8388608	; 0x800000
    8ff6:	f021 417f 	bic.w	r1, r1, #4278190080	; 0xff000000
    8ffa:	bf18      	it	ne
    8ffc:	4249      	negne	r1, r1
    8ffe:	ea92 0f03 	teq	r2, r3
    9002:	d03f      	beq.n	9084 <__addsf3+0xd8>
    9004:	f1a2 0201 	sub.w	r2, r2, #1
    9008:	fa41 fc03 	asr.w	ip, r1, r3
    900c:	eb10 000c 	adds.w	r0, r0, ip
    9010:	f1c3 0320 	rsb	r3, r3, #32
    9014:	fa01 f103 	lsl.w	r1, r1, r3
    9018:	f000 4300 	and.w	r3, r0, #2147483648	; 0x80000000
    901c:	d502      	bpl.n	9024 <__addsf3+0x78>
    901e:	4249      	negs	r1, r1
    9020:	eb60 0040 	sbc.w	r0, r0, r0, lsl #1
    9024:	f5b0 0f00 	cmp.w	r0, #8388608	; 0x800000
    9028:	d313      	bcc.n	9052 <__addsf3+0xa6>
    902a:	f1b0 7f80 	cmp.w	r0, #16777216	; 0x1000000
    902e:	d306      	bcc.n	903e <__addsf3+0x92>
    9030:	0840      	lsrs	r0, r0, #1
    9032:	ea4f 0131 	mov.w	r1, r1, rrx
    9036:	f102 0201 	add.w	r2, r2, #1
    903a:	2afe      	cmp	r2, #254	; 0xfe
    903c:	d251      	bcs.n	90e2 <__addsf3+0x136>
    903e:	f1b1 4f00 	cmp.w	r1, #2147483648	; 0x80000000
    9042:	eb40 50c2 	adc.w	r0, r0, r2, lsl #23
    9046:	bf08      	it	eq
    9048:	f020 0001 	biceq.w	r0, r0, #1
    904c:	ea40 0003 	orr.w	r0, r0, r3
    9050:	4770      	bx	lr
    9052:	0049      	lsls	r1, r1, #1
    9054:	eb40 0000 	adc.w	r0, r0, r0
    9058:	3a01      	subs	r2, #1
    905a:	bf28      	it	cs
    905c:	f5b0 0f00 	cmpcs.w	r0, #8388608	; 0x800000
    9060:	d2ed      	bcs.n	903e <__addsf3+0x92>
    9062:	fab0 fc80 	clz	ip, r0
    9066:	f1ac 0c08 	sub.w	ip, ip, #8
    906a:	ebb2 020c 	subs.w	r2, r2, ip
    906e:	fa00 f00c 	lsl.w	r0, r0, ip
    9072:	bfaa      	itet	ge
    9074:	eb00 50c2 	addge.w	r0, r0, r2, lsl #23
    9078:	4252      	neglt	r2, r2
    907a:	4318      	orrge	r0, r3
    907c:	bfbc      	itt	lt
    907e:	40d0      	lsrlt	r0, r2
    9080:	4318      	orrlt	r0, r3
    9082:	4770      	bx	lr
    9084:	f092 0f00 	teq	r2, #0
    9088:	f481 0100 	eor.w	r1, r1, #8388608	; 0x800000
    908c:	bf06      	itte	eq
    908e:	f480 0000 	eoreq.w	r0, r0, #8388608	; 0x800000
    9092:	3201      	addeq	r2, #1
    9094:	3b01      	subne	r3, #1
    9096:	e7b5      	b.n	9004 <__addsf3+0x58>
    9098:	ea4f 0341 	mov.w	r3, r1, lsl #1
    909c:	ea7f 6c22 	mvns.w	ip, r2, asr #24
    90a0:	bf18      	it	ne
    90a2:	ea7f 6c23 	mvnsne.w	ip, r3, asr #24
    90a6:	d021      	beq.n	90ec <__addsf3+0x140>
    90a8:	ea92 0f03 	teq	r2, r3
    90ac:	d004      	beq.n	90b8 <__addsf3+0x10c>
    90ae:	f092 0f00 	teq	r2, #0
    90b2:	bf08      	it	eq
    90b4:	4608      	moveq	r0, r1
    90b6:	4770      	bx	lr
    90b8:	ea90 0f01 	teq	r0, r1
    90bc:	bf1c      	itt	ne
    90be:	2000      	movne	r0, #0
    90c0:	4770      	bxne	lr
    90c2:	f012 4f7f 	tst.w	r2, #4278190080	; 0xff000000
    90c6:	d104      	bne.n	90d2 <__addsf3+0x126>
    90c8:	0040      	lsls	r0, r0, #1
    90ca:	bf28      	it	cs
    90cc:	f040 4000 	orrcs.w	r0, r0, #2147483648	; 0x80000000
    90d0:	4770      	bx	lr
    90d2:	f112 7200 	adds.w	r2, r2, #33554432	; 0x2000000
    90d6:	bf3c      	itt	cc
    90d8:	f500 0000 	addcc.w	r0, r0, #8388608	; 0x800000
    90dc:	4770      	bxcc	lr
    90de:	f000 4300 	and.w	r3, r0, #2147483648	; 0x80000000
    90e2:	f043 40fe 	orr.w	r0, r3, #2130706432	; 0x7f000000
    90e6:	f440 0000 	orr.w	r0, r0, #8388608	; 0x800000
    90ea:	4770      	bx	lr
    90ec:	ea7f 6222 	mvns.w	r2, r2, asr #24
    90f0:	bf16      	itet	ne
    90f2:	4608      	movne	r0, r1
    90f4:	ea7f 6323 	mvnseq.w	r3, r3, asr #24
    90f8:	4601      	movne	r1, r0
    90fa:	0242      	lsls	r2, r0, #9
    90fc:	bf06      	itte	eq
    90fe:	ea5f 2341 	movseq.w	r3, r1, lsl #9
    9102:	ea90 0f01 	teqeq	r0, r1
    9106:	f440 0080 	orrne.w	r0, r0, #4194304	; 0x400000
    910a:	4770      	bx	lr

0000910c <__aeabi_ui2f>:
    910c:	f04f 0300 	mov.w	r3, #0
    9110:	e004      	b.n	911c <__aeabi_i2f+0x8>
    9112:	bf00      	nop

00009114 <__aeabi_i2f>:
    9114:	f010 4300 	ands.w	r3, r0, #2147483648	; 0x80000000
    9118:	bf48      	it	mi
    911a:	4240      	negmi	r0, r0
    911c:	ea5f 0c00 	movs.w	ip, r0
    9120:	bf08      	it	eq
    9122:	4770      	bxeq	lr
    9124:	f043 4396 	orr.w	r3, r3, #1258291200	; 0x4b000000
    9128:	4601      	mov	r1, r0
    912a:	f04f 0000 	mov.w	r0, #0
    912e:	e01c      	b.n	916a <__aeabi_l2f+0x2a>

00009130 <__aeabi_ul2f>:
    9130:	ea50 0201 	orrs.w	r2, r0, r1
    9134:	bf08      	it	eq
    9136:	4770      	bxeq	lr
    9138:	f04f 0300 	mov.w	r3, #0
    913c:	e00a      	b.n	9154 <__aeabi_l2f+0x14>
    913e:	bf00      	nop

00009140 <__aeabi_l2f>:
    9140:	ea50 0201 	orrs.w	r2, r0, r1
    9144:	bf08      	it	eq
    9146:	4770      	bxeq	lr
    9148:	f011 4300 	ands.w	r3, r1, #2147483648	; 0x80000000
    914c:	d502      	bpl.n	9154 <__aeabi_l2f+0x14>
    914e:	4240      	negs	r0, r0
    9150:	eb61 0141 	sbc.w	r1, r1, r1, lsl #1
    9154:	ea5f 0c01 	movs.w	ip, r1
    9158:	bf02      	ittt	eq
    915a:	4684      	moveq	ip, r0
    915c:	4601      	moveq	r1, r0
    915e:	2000      	moveq	r0, #0
    9160:	f043 43b6 	orr.w	r3, r3, #1526726656	; 0x5b000000
    9164:	bf08      	it	eq
    9166:	f1a3 5380 	subeq.w	r3, r3, #268435456	; 0x10000000
    916a:	f5a3 0300 	sub.w	r3, r3, #8388608	; 0x800000
    916e:	fabc f28c 	clz	r2, ip
    9172:	3a08      	subs	r2, #8
    9174:	eba3 53c2 	sub.w	r3, r3, r2, lsl #23
    9178:	db10      	blt.n	919c <__aeabi_l2f+0x5c>
    917a:	fa01 fc02 	lsl.w	ip, r1, r2
    917e:	4463      	add	r3, ip
    9180:	fa00 fc02 	lsl.w	ip, r0, r2
    9184:	f1c2 0220 	rsb	r2, r2, #32
    9188:	f1bc 4f00 	cmp.w	ip, #2147483648	; 0x80000000
    918c:	fa20 f202 	lsr.w	r2, r0, r2
    9190:	eb43 0002 	adc.w	r0, r3, r2
    9194:	bf08      	it	eq
    9196:	f020 0001 	biceq.w	r0, r0, #1
    919a:	4770      	bx	lr
    919c:	f102 0220 	add.w	r2, r2, #32
    91a0:	fa01 fc02 	lsl.w	ip, r1, r2
    91a4:	f1c2 0220 	rsb	r2, r2, #32
    91a8:	ea50 004c 	orrs.w	r0, r0, ip, lsl #1
    91ac:	fa21 f202 	lsr.w	r2, r1, r2
    91b0:	eb43 0002 	adc.w	r0, r3, r2
    91b4:	bf08      	it	eq
    91b6:	ea20 70dc 	biceq.w	r0, r0, ip, lsr #31
    91ba:	4770      	bx	lr

000091bc <__aeabi_fmul>:
    91bc:	f04f 0cff 	mov.w	ip, #255	; 0xff
    91c0:	ea1c 52d0 	ands.w	r2, ip, r0, lsr #23
    91c4:	bf1e      	ittt	ne
    91c6:	ea1c 53d1 	andsne.w	r3, ip, r1, lsr #23
    91ca:	ea92 0f0c 	teqne	r2, ip
    91ce:	ea93 0f0c 	teqne	r3, ip
    91d2:	d06f      	beq.n	92b4 <__aeabi_fmul+0xf8>
    91d4:	441a      	add	r2, r3
    91d6:	ea80 0c01 	eor.w	ip, r0, r1
    91da:	0240      	lsls	r0, r0, #9
    91dc:	bf18      	it	ne
    91de:	ea5f 2141 	movsne.w	r1, r1, lsl #9
    91e2:	d01e      	beq.n	9222 <__aeabi_fmul+0x66>
    91e4:	f04f 6300 	mov.w	r3, #134217728	; 0x8000000
    91e8:	ea43 1050 	orr.w	r0, r3, r0, lsr #5
    91ec:	ea43 1151 	orr.w	r1, r3, r1, lsr #5
    91f0:	fba0 3101 	umull	r3, r1, r0, r1
    91f4:	f00c 4000 	and.w	r0, ip, #2147483648	; 0x80000000
    91f8:	f5b1 0f00 	cmp.w	r1, #8388608	; 0x800000
    91fc:	bf3e      	ittt	cc
    91fe:	0049      	lslcc	r1, r1, #1
    9200:	ea41 71d3 	orrcc.w	r1, r1, r3, lsr #31
    9204:	005b      	lslcc	r3, r3, #1
    9206:	ea40 0001 	orr.w	r0, r0, r1
    920a:	f162 027f 	sbc.w	r2, r2, #127	; 0x7f
    920e:	2afd      	cmp	r2, #253	; 0xfd
    9210:	d81d      	bhi.n	924e <__aeabi_fmul+0x92>
    9212:	f1b3 4f00 	cmp.w	r3, #2147483648	; 0x80000000
    9216:	eb40 50c2 	adc.w	r0, r0, r2, lsl #23
    921a:	bf08      	it	eq
    921c:	f020 0001 	biceq.w	r0, r0, #1
    9220:	4770      	bx	lr
    9222:	f090 0f00 	teq	r0, #0
    9226:	f00c 4c00 	and.w	ip, ip, #2147483648	; 0x80000000
    922a:	bf08      	it	eq
    922c:	0249      	lsleq	r1, r1, #9
    922e:	ea4c 2050 	orr.w	r0, ip, r0, lsr #9
    9232:	ea40 2051 	orr.w	r0, r0, r1, lsr #9
    9236:	3a7f      	subs	r2, #127	; 0x7f
    9238:	bfc2      	ittt	gt
    923a:	f1d2 03ff 	rsbsgt	r3, r2, #255	; 0xff
    923e:	ea40 50c2 	orrgt.w	r0, r0, r2, lsl #23
    9242:	4770      	bxgt	lr
    9244:	f440 0000 	orr.w	r0, r0, #8388608	; 0x800000
    9248:	f04f 0300 	mov.w	r3, #0
    924c:	3a01      	subs	r2, #1
    924e:	dc5d      	bgt.n	930c <__aeabi_fmul+0x150>
    9250:	f112 0f19 	cmn.w	r2, #25
    9254:	bfdc      	itt	le
    9256:	f000 4000 	andle.w	r0, r0, #2147483648	; 0x80000000
    925a:	4770      	bxle	lr
    925c:	f1c2 0200 	rsb	r2, r2, #0
    9260:	0041      	lsls	r1, r0, #1
    9262:	fa21 f102 	lsr.w	r1, r1, r2
    9266:	f1c2 0220 	rsb	r2, r2, #32
    926a:	fa00 fc02 	lsl.w	ip, r0, r2
    926e:	ea5f 0031 	movs.w	r0, r1, rrx
    9272:	f140 0000 	adc.w	r0, r0, #0
    9276:	ea53 034c 	orrs.w	r3, r3, ip, lsl #1
    927a:	bf08      	it	eq
    927c:	ea20 70dc 	biceq.w	r0, r0, ip, lsr #31
    9280:	4770      	bx	lr
    9282:	f092 0f00 	teq	r2, #0
    9286:	f000 4c00 	and.w	ip, r0, #2147483648	; 0x80000000
    928a:	bf02      	ittt	eq
    928c:	0040      	lsleq	r0, r0, #1
    928e:	f410 0f00 	tsteq.w	r0, #8388608	; 0x800000
    9292:	3a01      	subeq	r2, #1
    9294:	d0f9      	beq.n	928a <__aeabi_fmul+0xce>
    9296:	ea40 000c 	orr.w	r0, r0, ip
    929a:	f093 0f00 	teq	r3, #0
    929e:	f001 4c00 	and.w	ip, r1, #2147483648	; 0x80000000
    92a2:	bf02      	ittt	eq
    92a4:	0049      	lsleq	r1, r1, #1
    92a6:	f411 0f00 	tsteq.w	r1, #8388608	; 0x800000
    92aa:	3b01      	subeq	r3, #1
    92ac:	d0f9      	beq.n	92a2 <__aeabi_fmul+0xe6>
    92ae:	ea41 010c 	orr.w	r1, r1, ip
    92b2:	e78f      	b.n	91d4 <__aeabi_fmul+0x18>
    92b4:	ea0c 53d1 	and.w	r3, ip, r1, lsr #23
    92b8:	ea92 0f0c 	teq	r2, ip
    92bc:	bf18      	it	ne
    92be:	ea93 0f0c 	teqne	r3, ip
    92c2:	d00a      	beq.n	92da <__aeabi_fmul+0x11e>
    92c4:	f030 4c00 	bics.w	ip, r0, #2147483648	; 0x80000000
    92c8:	bf18      	it	ne
    92ca:	f031 4c00 	bicsne.w	ip, r1, #2147483648	; 0x80000000
    92ce:	d1d8      	bne.n	9282 <__aeabi_fmul+0xc6>
    92d0:	ea80 0001 	eor.w	r0, r0, r1
    92d4:	f000 4000 	and.w	r0, r0, #2147483648	; 0x80000000
    92d8:	4770      	bx	lr
    92da:	f090 0f00 	teq	r0, #0
    92de:	bf17      	itett	ne
    92e0:	f090 4f00 	teqne	r0, #2147483648	; 0x80000000
    92e4:	4608      	moveq	r0, r1
    92e6:	f091 0f00 	teqne	r1, #0
    92ea:	f091 4f00 	teqne	r1, #2147483648	; 0x80000000
    92ee:	d014      	beq.n	931a <__aeabi_fmul+0x15e>
    92f0:	ea92 0f0c 	teq	r2, ip
    92f4:	d101      	bne.n	92fa <__aeabi_fmul+0x13e>
    92f6:	0242      	lsls	r2, r0, #9
    92f8:	d10f      	bne.n	931a <__aeabi_fmul+0x15e>
    92fa:	ea93 0f0c 	teq	r3, ip
    92fe:	d103      	bne.n	9308 <__aeabi_fmul+0x14c>
    9300:	024b      	lsls	r3, r1, #9
    9302:	bf18      	it	ne
    9304:	4608      	movne	r0, r1
    9306:	d108      	bne.n	931a <__aeabi_fmul+0x15e>
    9308:	ea80 0001 	eor.w	r0, r0, r1
    930c:	f000 4000 	and.w	r0, r0, #2147483648	; 0x80000000
    9310:	f040 40fe 	orr.w	r0, r0, #2130706432	; 0x7f000000
    9314:	f440 0000 	orr.w	r0, r0, #8388608	; 0x800000
    9318:	4770      	bx	lr
    931a:	f040 40fe 	orr.w	r0, r0, #2130706432	; 0x7f000000
    931e:	f440 0040 	orr.w	r0, r0, #12582912	; 0xc00000
    9322:	4770      	bx	lr

00009324 <__aeabi_fdiv>:
    9324:	f04f 0cff 	mov.w	ip, #255	; 0xff
    9328:	ea1c 52d0 	ands.w	r2, ip, r0, lsr #23
    932c:	bf1e      	ittt	ne
    932e:	ea1c 53d1 	andsne.w	r3, ip, r1, lsr #23
    9332:	ea92 0f0c 	teqne	r2, ip
    9336:	ea93 0f0c 	teqne	r3, ip
    933a:	d069      	beq.n	9410 <__aeabi_fdiv+0xec>
    933c:	eba2 0203 	sub.w	r2, r2, r3
    9340:	ea80 0c01 	eor.w	ip, r0, r1
    9344:	0249      	lsls	r1, r1, #9
    9346:	ea4f 2040 	mov.w	r0, r0, lsl #9
    934a:	d037      	beq.n	93bc <__aeabi_fdiv+0x98>
    934c:	f04f 5380 	mov.w	r3, #268435456	; 0x10000000
    9350:	ea43 1111 	orr.w	r1, r3, r1, lsr #4
    9354:	ea43 1310 	orr.w	r3, r3, r0, lsr #4
    9358:	f00c 4000 	and.w	r0, ip, #2147483648	; 0x80000000
    935c:	428b      	cmp	r3, r1
    935e:	bf38      	it	cc
    9360:	005b      	lslcc	r3, r3, #1
    9362:	f142 027d 	adc.w	r2, r2, #125	; 0x7d
    9366:	f44f 0c00 	mov.w	ip, #8388608	; 0x800000
    936a:	428b      	cmp	r3, r1
    936c:	bf24      	itt	cs
    936e:	1a5b      	subcs	r3, r3, r1
    9370:	ea40 000c 	orrcs.w	r0, r0, ip
    9374:	ebb3 0f51 	cmp.w	r3, r1, lsr #1
    9378:	bf24      	itt	cs
    937a:	eba3 0351 	subcs.w	r3, r3, r1, lsr #1
    937e:	ea40 005c 	orrcs.w	r0, r0, ip, lsr #1
    9382:	ebb3 0f91 	cmp.w	r3, r1, lsr #2
    9386:	bf24      	itt	cs
    9388:	eba3 0391 	subcs.w	r3, r3, r1, lsr #2
    938c:	ea40 009c 	orrcs.w	r0, r0, ip, lsr #2
    9390:	ebb3 0fd1 	cmp.w	r3, r1, lsr #3
    9394:	bf24      	itt	cs
    9396:	eba3 03d1 	subcs.w	r3, r3, r1, lsr #3
    939a:	ea40 00dc 	orrcs.w	r0, r0, ip, lsr #3
    939e:	011b      	lsls	r3, r3, #4
    93a0:	bf18      	it	ne
    93a2:	ea5f 1c1c 	movsne.w	ip, ip, lsr #4
    93a6:	d1e0      	bne.n	936a <__aeabi_fdiv+0x46>
    93a8:	2afd      	cmp	r2, #253	; 0xfd
    93aa:	f63f af50 	bhi.w	924e <__aeabi_fmul+0x92>
    93ae:	428b      	cmp	r3, r1
    93b0:	eb40 50c2 	adc.w	r0, r0, r2, lsl #23
    93b4:	bf08      	it	eq
    93b6:	f020 0001 	biceq.w	r0, r0, #1
    93ba:	4770      	bx	lr
    93bc:	f00c 4c00 	and.w	ip, ip, #2147483648	; 0x80000000
    93c0:	ea4c 2050 	orr.w	r0, ip, r0, lsr #9
    93c4:	327f      	adds	r2, #127	; 0x7f
    93c6:	bfc2      	ittt	gt
    93c8:	f1d2 03ff 	rsbsgt	r3, r2, #255	; 0xff
    93cc:	ea40 50c2 	orrgt.w	r0, r0, r2, lsl #23
    93d0:	4770      	bxgt	lr
    93d2:	f440 0000 	orr.w	r0, r0, #8388608	; 0x800000
    93d6:	f04f 0300 	mov.w	r3, #0
    93da:	3a01      	subs	r2, #1
    93dc:	e737      	b.n	924e <__aeabi_fmul+0x92>
    93de:	f092 0f00 	teq	r2, #0
    93e2:	f000 4c00 	and.w	ip, r0, #2147483648	; 0x80000000
    93e6:	bf02      	ittt	eq
    93e8:	0040      	lsleq	r0, r0, #1
    93ea:	f410 0f00 	tsteq.w	r0, #8388608	; 0x800000
    93ee:	3a01      	subeq	r2, #1
    93f0:	d0f9      	beq.n	93e6 <__aeabi_fdiv+0xc2>
    93f2:	ea40 000c 	orr.w	r0, r0, ip
    93f6:	f093 0f00 	teq	r3, #0
    93fa:	f001 4c00 	and.w	ip, r1, #2147483648	; 0x80000000
    93fe:	bf02      	ittt	eq
    9400:	0049      	lsleq	r1, r1, #1
    9402:	f411 0f00 	tsteq.w	r1, #8388608	; 0x800000
    9406:	3b01      	subeq	r3, #1
    9408:	d0f9      	beq.n	93fe <__aeabi_fdiv+0xda>
    940a:	ea41 010c 	orr.w	r1, r1, ip
    940e:	e795      	b.n	933c <__aeabi_fdiv+0x18>
    9410:	ea0c 53d1 	and.w	r3, ip, r1, lsr #23
    9414:	ea92 0f0c 	teq	r2, ip
    9418:	d108      	bne.n	942c <__aeabi_fdiv+0x108>
    941a:	0242      	lsls	r2, r0, #9
    941c:	f47f af7d 	bne.w	931a <__aeabi_fmul+0x15e>
    9420:	ea93 0f0c 	teq	r3, ip
    9424:	f47f af70 	bne.w	9308 <__aeabi_fmul+0x14c>
    9428:	4608      	mov	r0, r1
    942a:	e776      	b.n	931a <__aeabi_fmul+0x15e>
    942c:	ea93 0f0c 	teq	r3, ip
    9430:	d104      	bne.n	943c <__aeabi_fdiv+0x118>
    9432:	024b      	lsls	r3, r1, #9
    9434:	f43f af4c 	beq.w	92d0 <__aeabi_fmul+0x114>
    9438:	4608      	mov	r0, r1
    943a:	e76e      	b.n	931a <__aeabi_fmul+0x15e>
    943c:	f030 4c00 	bics.w	ip, r0, #2147483648	; 0x80000000
    9440:	bf18      	it	ne
    9442:	f031 4c00 	bicsne.w	ip, r1, #2147483648	; 0x80000000
    9446:	d1ca      	bne.n	93de <__aeabi_fdiv+0xba>
    9448:	f030 4200 	bics.w	r2, r0, #2147483648	; 0x80000000
    944c:	f47f af5c 	bne.w	9308 <__aeabi_fmul+0x14c>
    9450:	f031 4300 	bics.w	r3, r1, #2147483648	; 0x80000000
    9454:	f47f af3c 	bne.w	92d0 <__aeabi_fmul+0x114>
    9458:	e75f      	b.n	931a <__aeabi_fmul+0x15e>
    945a:	bf00      	nop

0000945c <__gesf2>:
    945c:	f04f 3cff 	mov.w	ip, #4294967295	; 0xffffffff
    9460:	e006      	b.n	9470 <__cmpsf2+0x4>
    9462:	bf00      	nop

00009464 <__lesf2>:
    9464:	f04f 0c01 	mov.w	ip, #1
    9468:	e002      	b.n	9470 <__cmpsf2+0x4>
    946a:	bf00      	nop

0000946c <__cmpsf2>:
    946c:	f04f 0c01 	mov.w	ip, #1
    9470:	f84d cd04 	str.w	ip, [sp, #-4]!
    9474:	ea4f 0240 	mov.w	r2, r0, lsl #1
    9478:	ea4f 0341 	mov.w	r3, r1, lsl #1
    947c:	ea7f 6c22 	mvns.w	ip, r2, asr #24
    9480:	bf18      	it	ne
    9482:	ea7f 6c23 	mvnsne.w	ip, r3, asr #24
    9486:	d011      	beq.n	94ac <__cmpsf2+0x40>
    9488:	b001      	add	sp, #4
    948a:	ea52 0c53 	orrs.w	ip, r2, r3, lsr #1
    948e:	bf18      	it	ne
    9490:	ea90 0f01 	teqne	r0, r1
    9494:	bf58      	it	pl
    9496:	ebb2 0003 	subspl.w	r0, r2, r3
    949a:	bf88      	it	hi
    949c:	17c8      	asrhi	r0, r1, #31
    949e:	bf38      	it	cc
    94a0:	ea6f 70e1 	mvncc.w	r0, r1, asr #31
    94a4:	bf18      	it	ne
    94a6:	f040 0001 	orrne.w	r0, r0, #1
    94aa:	4770      	bx	lr
    94ac:	ea7f 6c22 	mvns.w	ip, r2, asr #24
    94b0:	d102      	bne.n	94b8 <__cmpsf2+0x4c>
    94b2:	ea5f 2c40 	movs.w	ip, r0, lsl #9
    94b6:	d105      	bne.n	94c4 <__cmpsf2+0x58>
    94b8:	ea7f 6c23 	mvns.w	ip, r3, asr #24
    94bc:	d1e4      	bne.n	9488 <__cmpsf2+0x1c>
    94be:	ea5f 2c41 	movs.w	ip, r1, lsl #9
    94c2:	d0e1      	beq.n	9488 <__cmpsf2+0x1c>
    94c4:	f85d 0b04 	ldr.w	r0, [sp], #4
    94c8:	4770      	bx	lr
    94ca:	bf00      	nop

000094cc <__aeabi_cfrcmple>:
    94cc:	4684      	mov	ip, r0
    94ce:	4608      	mov	r0, r1
    94d0:	4661      	mov	r1, ip
    94d2:	e7ff      	b.n	94d4 <__aeabi_cfcmpeq>

000094d4 <__aeabi_cfcmpeq>:
    94d4:	b50f      	push	{r0, r1, r2, r3, lr}
    94d6:	f7ff ffc9 	bl	946c <__cmpsf2>
    94da:	2800      	cmp	r0, #0
    94dc:	bf48      	it	mi
    94de:	f110 0f00 	cmnmi.w	r0, #0
    94e2:	bd0f      	pop	{r0, r1, r2, r3, pc}

000094e4 <__aeabi_fcmpeq>:
    94e4:	f84d ed08 	str.w	lr, [sp, #-8]!
    94e8:	f7ff fff4 	bl	94d4 <__aeabi_cfcmpeq>
    94ec:	bf0c      	ite	eq
    94ee:	2001      	moveq	r0, #1
    94f0:	2000      	movne	r0, #0
    94f2:	f85d fb08 	ldr.w	pc, [sp], #8
    94f6:	bf00      	nop

000094f8 <__aeabi_fcmplt>:
    94f8:	f84d ed08 	str.w	lr, [sp, #-8]!
    94fc:	f7ff ffea 	bl	94d4 <__aeabi_cfcmpeq>
    9500:	bf34      	ite	cc
    9502:	2001      	movcc	r0, #1
    9504:	2000      	movcs	r0, #0
    9506:	f85d fb08 	ldr.w	pc, [sp], #8
    950a:	bf00      	nop

0000950c <__aeabi_fcmple>:
    950c:	f84d ed08 	str.w	lr, [sp, #-8]!
    9510:	f7ff ffe0 	bl	94d4 <__aeabi_cfcmpeq>
    9514:	bf94      	ite	ls
    9516:	2001      	movls	r0, #1
    9518:	2000      	movhi	r0, #0
    951a:	f85d fb08 	ldr.w	pc, [sp], #8
    951e:	bf00      	nop

00009520 <__aeabi_fcmpge>:
    9520:	f84d ed08 	str.w	lr, [sp, #-8]!
    9524:	f7ff ffd2 	bl	94cc <__aeabi_cfrcmple>
    9528:	bf94      	ite	ls
    952a:	2001      	movls	r0, #1
    952c:	2000      	movhi	r0, #0
    952e:	f85d fb08 	ldr.w	pc, [sp], #8
    9532:	bf00      	nop

00009534 <__aeabi_fcmpgt>:
    9534:	f84d ed08 	str.w	lr, [sp, #-8]!
    9538:	f7ff ffc8 	bl	94cc <__aeabi_cfrcmple>
    953c:	bf34      	ite	cc
    953e:	2001      	movcc	r0, #1
    9540:	2000      	movcs	r0, #0
    9542:	f85d fb08 	ldr.w	pc, [sp], #8
    9546:	bf00      	nop

00009548 <__libc_init_array>:
    9548:	b570      	push	{r4, r5, r6, lr}
    954a:	4e0d      	ldr	r6, [pc, #52]	; (9580 <__libc_init_array+0x38>)
    954c:	4d0d      	ldr	r5, [pc, #52]	; (9584 <__libc_init_array+0x3c>)
    954e:	1b76      	subs	r6, r6, r5
    9550:	10b6      	asrs	r6, r6, #2
    9552:	d006      	beq.n	9562 <__libc_init_array+0x1a>
    9554:	2400      	movs	r4, #0
    9556:	f855 3b04 	ldr.w	r3, [r5], #4
    955a:	3401      	adds	r4, #1
    955c:	4798      	blx	r3
    955e:	42a6      	cmp	r6, r4
    9560:	d1f9      	bne.n	9556 <__libc_init_array+0xe>
    9562:	4e09      	ldr	r6, [pc, #36]	; (9588 <__libc_init_array+0x40>)
    9564:	4d09      	ldr	r5, [pc, #36]	; (958c <__libc_init_array+0x44>)
    9566:	1b76      	subs	r6, r6, r5
    9568:	f7fe fd4a 	bl	8000 <_init>
    956c:	10b6      	asrs	r6, r6, #2
    956e:	d006      	beq.n	957e <__libc_init_array+0x36>
    9570:	2400      	movs	r4, #0
    9572:	f855 3b04 	ldr.w	r3, [r5], #4
    9576:	3401      	adds	r4, #1
    9578:	4798      	blx	r3
    957a:	42a6      	cmp	r6, r4
    957c:	d1f9      	bne.n	9572 <__libc_init_array+0x2a>
    957e:	bd70      	pop	{r4, r5, r6, pc}
    9580:	000197e4 	.word	0x000197e4
    9584:	000197e4 	.word	0x000197e4
    9588:	000197ec 	.word	0x000197ec
    958c:	000197e4 	.word	0x000197e4

00009590 <memset>:
    9590:	0783      	lsls	r3, r0, #30
    9592:	b530      	push	{r4, r5, lr}
    9594:	d048      	beq.n	9628 <memset+0x98>
    9596:	1e54      	subs	r4, r2, #1
    9598:	2a00      	cmp	r2, #0
    959a:	d03f      	beq.n	961c <memset+0x8c>
    959c:	b2ca      	uxtb	r2, r1
    959e:	4603      	mov	r3, r0
    95a0:	e001      	b.n	95a6 <memset+0x16>
    95a2:	3c01      	subs	r4, #1
    95a4:	d33a      	bcc.n	961c <memset+0x8c>
    95a6:	f803 2b01 	strb.w	r2, [r3], #1
    95aa:	079d      	lsls	r5, r3, #30
    95ac:	d1f9      	bne.n	95a2 <memset+0x12>
    95ae:	2c03      	cmp	r4, #3
    95b0:	d92d      	bls.n	960e <memset+0x7e>
    95b2:	b2cd      	uxtb	r5, r1
    95b4:	ea45 2505 	orr.w	r5, r5, r5, lsl #8
    95b8:	2c0f      	cmp	r4, #15
    95ba:	ea45 4505 	orr.w	r5, r5, r5, lsl #16
    95be:	d936      	bls.n	962e <memset+0x9e>
    95c0:	f1a4 0210 	sub.w	r2, r4, #16
    95c4:	f022 0c0f 	bic.w	ip, r2, #15
    95c8:	f103 0e20 	add.w	lr, r3, #32
    95cc:	44e6      	add	lr, ip
    95ce:	ea4f 1c12 	mov.w	ip, r2, lsr #4
    95d2:	f103 0210 	add.w	r2, r3, #16
    95d6:	e942 5504 	strd	r5, r5, [r2, #-16]
    95da:	e942 5502 	strd	r5, r5, [r2, #-8]
    95de:	3210      	adds	r2, #16
    95e0:	4572      	cmp	r2, lr
    95e2:	d1f8      	bne.n	95d6 <memset+0x46>
    95e4:	f10c 0201 	add.w	r2, ip, #1
    95e8:	f014 0f0c 	tst.w	r4, #12
    95ec:	eb03 1202 	add.w	r2, r3, r2, lsl #4
    95f0:	f004 0c0f 	and.w	ip, r4, #15
    95f4:	d013      	beq.n	961e <memset+0x8e>
    95f6:	f1ac 0304 	sub.w	r3, ip, #4
    95fa:	f023 0303 	bic.w	r3, r3, #3
    95fe:	3304      	adds	r3, #4
    9600:	4413      	add	r3, r2
    9602:	f842 5b04 	str.w	r5, [r2], #4
    9606:	4293      	cmp	r3, r2
    9608:	d1fb      	bne.n	9602 <memset+0x72>
    960a:	f00c 0403 	and.w	r4, ip, #3
    960e:	b12c      	cbz	r4, 961c <memset+0x8c>
    9610:	b2ca      	uxtb	r2, r1
    9612:	441c      	add	r4, r3
    9614:	f803 2b01 	strb.w	r2, [r3], #1
    9618:	429c      	cmp	r4, r3
    961a:	d1fb      	bne.n	9614 <memset+0x84>
    961c:	bd30      	pop	{r4, r5, pc}
    961e:	4664      	mov	r4, ip
    9620:	4613      	mov	r3, r2
    9622:	2c00      	cmp	r4, #0
    9624:	d1f4      	bne.n	9610 <memset+0x80>
    9626:	e7f9      	b.n	961c <memset+0x8c>
    9628:	4603      	mov	r3, r0
    962a:	4614      	mov	r4, r2
    962c:	e7bf      	b.n	95ae <memset+0x1e>
    962e:	461a      	mov	r2, r3
    9630:	46a4      	mov	ip, r4
    9632:	e7e0      	b.n	95f6 <memset+0x66>

00009634 <__call_exitprocs>:
    9634:	e92d 4ff0 	stmdb	sp!, {r4, r5, r6, r7, r8, r9, sl, fp, lr}
    9638:	4b2d      	ldr	r3, [pc, #180]	; (96f0 <__call_exitprocs+0xbc>)
    963a:	b083      	sub	sp, #12
    963c:	4683      	mov	fp, r0
    963e:	6818      	ldr	r0, [r3, #0]
    9640:	f8cd b004 	str.w	fp, [sp, #4]
    9644:	460f      	mov	r7, r1
    9646:	f000 f873 	bl	9730 <__retarget_lock_acquire_recursive>
    964a:	4b2a      	ldr	r3, [pc, #168]	; (96f4 <__call_exitprocs+0xc0>)
    964c:	f8d3 8000 	ldr.w	r8, [r3]
    9650:	f8d8 6148 	ldr.w	r6, [r8, #328]	; 0x148
    9654:	b19e      	cbz	r6, 967e <__call_exitprocs+0x4a>
    9656:	f04f 0901 	mov.w	r9, #1
    965a:	f04f 0a00 	mov.w	sl, #0
    965e:	6874      	ldr	r4, [r6, #4]
    9660:	1e65      	subs	r5, r4, #1
    9662:	d40c      	bmi.n	967e <__call_exitprocs+0x4a>
    9664:	3401      	adds	r4, #1
    9666:	eb06 0484 	add.w	r4, r6, r4, lsl #2
    966a:	b17f      	cbz	r7, 968c <__call_exitprocs+0x58>
    966c:	f8d4 3100 	ldr.w	r3, [r4, #256]	; 0x100
    9670:	42bb      	cmp	r3, r7
    9672:	d00b      	beq.n	968c <__call_exitprocs+0x58>
    9674:	3d01      	subs	r5, #1
    9676:	1c6b      	adds	r3, r5, #1
    9678:	f1a4 0404 	sub.w	r4, r4, #4
    967c:	d1f5      	bne.n	966a <__call_exitprocs+0x36>
    967e:	4b1c      	ldr	r3, [pc, #112]	; (96f0 <__call_exitprocs+0xbc>)
    9680:	6818      	ldr	r0, [r3, #0]
    9682:	b003      	add	sp, #12
    9684:	e8bd 4ff0 	ldmia.w	sp!, {r4, r5, r6, r7, r8, r9, sl, fp, lr}
    9688:	f000 b854 	b.w	9734 <__retarget_lock_release_recursive>
    968c:	6873      	ldr	r3, [r6, #4]
    968e:	6822      	ldr	r2, [r4, #0]
    9690:	3b01      	subs	r3, #1
    9692:	42ab      	cmp	r3, r5
    9694:	bf0c      	ite	eq
    9696:	6075      	streq	r5, [r6, #4]
    9698:	f8c4 a000 	strne.w	sl, [r4]
    969c:	2a00      	cmp	r2, #0
    969e:	d0e9      	beq.n	9674 <__call_exitprocs+0x40>
    96a0:	f8d6 0188 	ldr.w	r0, [r6, #392]	; 0x188
    96a4:	f8d6 b004 	ldr.w	fp, [r6, #4]
    96a8:	fa09 f105 	lsl.w	r1, r9, r5
    96ac:	4201      	tst	r1, r0
    96ae:	d10b      	bne.n	96c8 <__call_exitprocs+0x94>
    96b0:	4790      	blx	r2
    96b2:	6872      	ldr	r2, [r6, #4]
    96b4:	455a      	cmp	r2, fp
    96b6:	d112      	bne.n	96de <__call_exitprocs+0xaa>
    96b8:	f8d8 3148 	ldr.w	r3, [r8, #328]	; 0x148
    96bc:	42b3      	cmp	r3, r6
    96be:	d0d9      	beq.n	9674 <__call_exitprocs+0x40>
    96c0:	461e      	mov	r6, r3
    96c2:	2e00      	cmp	r6, #0
    96c4:	d1cb      	bne.n	965e <__call_exitprocs+0x2a>
    96c6:	e7da      	b.n	967e <__call_exitprocs+0x4a>
    96c8:	f8d6 018c 	ldr.w	r0, [r6, #396]	; 0x18c
    96cc:	4201      	tst	r1, r0
    96ce:	d10b      	bne.n	96e8 <__call_exitprocs+0xb4>
    96d0:	f8d4 1080 	ldr.w	r1, [r4, #128]	; 0x80
    96d4:	9801      	ldr	r0, [sp, #4]
    96d6:	4790      	blx	r2
    96d8:	6872      	ldr	r2, [r6, #4]
    96da:	455a      	cmp	r2, fp
    96dc:	d0ec      	beq.n	96b8 <__call_exitprocs+0x84>
    96de:	f8d8 6148 	ldr.w	r6, [r8, #328]	; 0x148
    96e2:	2e00      	cmp	r6, #0
    96e4:	d1bb      	bne.n	965e <__call_exitprocs+0x2a>
    96e6:	e7ca      	b.n	967e <__call_exitprocs+0x4a>
    96e8:	f8d4 0080 	ldr.w	r0, [r4, #128]	; 0x80
    96ec:	4790      	blx	r2
    96ee:	e7e0      	b.n	96b2 <__call_exitprocs+0x7e>
    96f0:	00019ca8 	.word	0x00019ca8
    96f4:	000097d4 	.word	0x000097d4

000096f8 <atexit>:
    96f8:	2300      	movs	r3, #0
    96fa:	4601      	mov	r1, r0
    96fc:	461a      	mov	r2, r3
    96fe:	4618      	mov	r0, r3
    9700:	f000 b81a 	b.w	9738 <__register_exitproc>

00009704 <__libc_fini_array>:
    9704:	b538      	push	{r3, r4, r5, lr}
    9706:	4b08      	ldr	r3, [pc, #32]	; (9728 <__libc_fini_array+0x24>)
    9708:	4d08      	ldr	r5, [pc, #32]	; (972c <__libc_fini_array+0x28>)
    970a:	1b5b      	subs	r3, r3, r5
    970c:	109c      	asrs	r4, r3, #2
    970e:	d007      	beq.n	9720 <__libc_fini_array+0x1c>
    9710:	3b04      	subs	r3, #4
    9712:	441d      	add	r5, r3
    9714:	3c01      	subs	r4, #1
    9716:	f855 3904 	ldr.w	r3, [r5], #-4
    971a:	4798      	blx	r3
    971c:	2c00      	cmp	r4, #0
    971e:	d1f9      	bne.n	9714 <__libc_fini_array+0x10>
    9720:	e8bd 4038 	ldmia.w	sp!, {r3, r4, r5, lr}
    9724:	f000 b850 	b.w	97c8 <_fini>
    9728:	000197f0 	.word	0x000197f0
    972c:	000197ec 	.word	0x000197ec

00009730 <__retarget_lock_acquire_recursive>:
    9730:	4770      	bx	lr
    9732:	bf00      	nop

00009734 <__retarget_lock_release_recursive>:
    9734:	4770      	bx	lr
    9736:	bf00      	nop

00009738 <__register_exitproc>:
    9738:	e92d 47f0 	stmdb	sp!, {r4, r5, r6, r7, r8, r9, sl, lr}
    973c:	f8df a07c 	ldr.w	sl, [pc, #124]	; 97bc <__register_exitproc+0x84>
    9740:	4606      	mov	r6, r0
    9742:	f8da 0000 	ldr.w	r0, [sl]
    9746:	4698      	mov	r8, r3
    9748:	460f      	mov	r7, r1
    974a:	4691      	mov	r9, r2
    974c:	f7ff fff0 	bl	9730 <__retarget_lock_acquire_recursive>
    9750:	4b1b      	ldr	r3, [pc, #108]	; (97c0 <__register_exitproc+0x88>)
    9752:	681b      	ldr	r3, [r3, #0]
    9754:	f8d3 4148 	ldr.w	r4, [r3, #328]	; 0x148
    9758:	b324      	cbz	r4, 97a4 <__register_exitproc+0x6c>
    975a:	6865      	ldr	r5, [r4, #4]
    975c:	2d1f      	cmp	r5, #31
    975e:	dc26      	bgt.n	97ae <__register_exitproc+0x76>
    9760:	b95e      	cbnz	r6, 977a <__register_exitproc+0x42>
    9762:	1c6b      	adds	r3, r5, #1
    9764:	3502      	adds	r5, #2
    9766:	f8da 0000 	ldr.w	r0, [sl]
    976a:	6063      	str	r3, [r4, #4]
    976c:	f844 7025 	str.w	r7, [r4, r5, lsl #2]
    9770:	f7ff ffe0 	bl	9734 <__retarget_lock_release_recursive>
    9774:	2000      	movs	r0, #0
    9776:	e8bd 87f0 	ldmia.w	sp!, {r4, r5, r6, r7, r8, r9, sl, pc}
    977a:	eb04 0185 	add.w	r1, r4, r5, lsl #2
    977e:	2301      	movs	r3, #1
    9780:	f8c1 9088 	str.w	r9, [r1, #136]	; 0x88
    9784:	f8d4 2188 	ldr.w	r2, [r4, #392]	; 0x188
    9788:	40ab      	lsls	r3, r5
    978a:	431a      	orrs	r2, r3
    978c:	2e02      	cmp	r6, #2
    978e:	f8c4 2188 	str.w	r2, [r4, #392]	; 0x188
    9792:	f8c1 8108 	str.w	r8, [r1, #264]	; 0x108
    9796:	d1e4      	bne.n	9762 <__register_exitproc+0x2a>
    9798:	f8d4 218c 	ldr.w	r2, [r4, #396]	; 0x18c
    979c:	4313      	orrs	r3, r2
    979e:	f8c4 318c 	str.w	r3, [r4, #396]	; 0x18c
    97a2:	e7de      	b.n	9762 <__register_exitproc+0x2a>
    97a4:	f503 74a6 	add.w	r4, r3, #332	; 0x14c
    97a8:	f8c3 4148 	str.w	r4, [r3, #328]	; 0x148
    97ac:	e7d5      	b.n	975a <__register_exitproc+0x22>
    97ae:	f8da 0000 	ldr.w	r0, [sl]
    97b2:	f7ff ffbf 	bl	9734 <__retarget_lock_release_recursive>
    97b6:	f04f 30ff 	mov.w	r0, #4294967295	; 0xffffffff
    97ba:	e7dc      	b.n	9776 <__register_exitproc+0x3e>
    97bc:	00019ca8 	.word	0x00019ca8
    97c0:	000097d4 	.word	0x000097d4

000097c4 <_exit>:
    97c4:	e7fe      	b.n	97c4 <_exit>
    97c6:	bf00      	nop

Disassembly of section .fini:

000097c8 <_fini>:
    97c8:	b5f8      	push	{r3, r4, r5, r6, r7, lr}
    97ca:	bf00      	nop
    97cc:	bcf8      	pop	{r3, r4, r5, r6, r7}
    97ce:	bc08      	pop	{r3}
    97d0:	469e      	mov	lr, r3
    97d2:	4770      	bx	lr
