
./arm-benchmarks/src/wikisort/wikisort:     file format elf32-littlearm


Disassembly of section .init:

00008000 <_init>:
    8000:	b5f8      	push	{r3, r4, r5, r6, r7, lr}
    8002:	bf00      	nop
    8004:	bcf8      	pop	{r3, r4, r5, r6, r7}
    8006:	bc08      	pop	{r3}
    8008:	469e      	mov	lr, r3
    800a:	4770      	bx	lr

Disassembly of section .text:

00008010 <exit>:
    8010:	b508      	push	{r3, lr}
    8012:	2100      	movs	r1, #0
    8014:	4604      	mov	r4, r0
    8016:	f004 fa09 	bl	c42c <__call_exitprocs>
    801a:	4b04      	ldr	r3, [pc, #16]	; (802c <exit+0x1c>)
    801c:	6818      	ldr	r0, [r3, #0]
    801e:	6bc3      	ldr	r3, [r0, #60]	; 0x3c
    8020:	b103      	cbz	r3, 8024 <exit+0x14>
    8022:	4798      	blx	r3
    8024:	4620      	mov	r0, r4
    8026:	f004 fac9 	bl	c5bc <_exit>
    802a:	bf00      	nop
    802c:	0000d274 	.word	0x0000d274

00008030 <register_fini>:
    8030:	4b02      	ldr	r3, [pc, #8]	; (803c <register_fini+0xc>)
    8032:	b113      	cbz	r3, 803a <register_fini+0xa>
    8034:	4802      	ldr	r0, [pc, #8]	; (8040 <register_fini+0x10>)
    8036:	f004 ba5b 	b.w	c4f0 <atexit>
    803a:	4770      	bx	lr
    803c:	00000000 	.word	0x00000000
    8040:	0000c4fd 	.word	0x0000c4fd

00008044 <__do_global_dtors_aux>:
    8044:	b510      	push	{r4, lr}
    8046:	4c05      	ldr	r4, [pc, #20]	; (805c <__do_global_dtors_aux+0x18>)
    8048:	7823      	ldrb	r3, [r4, #0]
    804a:	b933      	cbnz	r3, 805a <__do_global_dtors_aux+0x16>
    804c:	4b04      	ldr	r3, [pc, #16]	; (8060 <__do_global_dtors_aux+0x1c>)
    804e:	b113      	cbz	r3, 8056 <__do_global_dtors_aux+0x12>
    8050:	4804      	ldr	r0, [pc, #16]	; (8064 <__do_global_dtors_aux+0x20>)
    8052:	f3af 8000 	nop.w
    8056:	2301      	movs	r3, #1
    8058:	7023      	strb	r3, [r4, #0]
    805a:	bd10      	pop	{r4, pc}
    805c:	0001d6c4 	.word	0x0001d6c4
    8060:	00000000 	.word	0x00000000
    8064:	0000d280 	.word	0x0000d280

00008068 <frame_dummy>:
    8068:	b508      	push	{r3, lr}
    806a:	4b03      	ldr	r3, [pc, #12]	; (8078 <frame_dummy+0x10>)
    806c:	b11b      	cbz	r3, 8076 <frame_dummy+0xe>
    806e:	4903      	ldr	r1, [pc, #12]	; (807c <frame_dummy+0x14>)
    8070:	4803      	ldr	r0, [pc, #12]	; (8080 <frame_dummy+0x18>)
    8072:	f3af 8000 	nop.w
    8076:	bd08      	pop	{r3, pc}
    8078:	00000000 	.word	0x00000000
    807c:	0001d6c8 	.word	0x0001d6c8
    8080:	0000d280 	.word	0x0000d280

00008084 <_stack_init>:
    8084:	f5a3 3a80 	sub.w	sl, r3, #65536	; 0x10000
    8088:	4770      	bx	lr
    808a:	bf00      	nop

0000808c <_mainCRTStartup>:
    808c:	4b17      	ldr	r3, [pc, #92]	; (80ec <_mainCRTStartup+0x60>)
    808e:	2b00      	cmp	r3, #0
    8090:	bf08      	it	eq
    8092:	4b13      	ldreq	r3, [pc, #76]	; (80e0 <_mainCRTStartup+0x54>)
    8094:	469d      	mov	sp, r3
    8096:	f7ff fff5 	bl	8084 <_stack_init>
    809a:	2100      	movs	r1, #0
    809c:	468b      	mov	fp, r1
    809e:	460f      	mov	r7, r1
    80a0:	4813      	ldr	r0, [pc, #76]	; (80f0 <_mainCRTStartup+0x64>)
    80a2:	4a14      	ldr	r2, [pc, #80]	; (80f4 <_mainCRTStartup+0x68>)
    80a4:	1a12      	subs	r2, r2, r0
    80a6:	f004 f96f 	bl	c388 <memset>
    80aa:	4b0e      	ldr	r3, [pc, #56]	; (80e4 <_mainCRTStartup+0x58>)
    80ac:	2b00      	cmp	r3, #0
    80ae:	d000      	beq.n	80b2 <_mainCRTStartup+0x26>
    80b0:	4798      	blx	r3
    80b2:	4b0d      	ldr	r3, [pc, #52]	; (80e8 <_mainCRTStartup+0x5c>)
    80b4:	2b00      	cmp	r3, #0
    80b6:	d000      	beq.n	80ba <_mainCRTStartup+0x2e>
    80b8:	4798      	blx	r3
    80ba:	2000      	movs	r0, #0
    80bc:	2100      	movs	r1, #0
    80be:	0004      	movs	r4, r0
    80c0:	000d      	movs	r5, r1
    80c2:	480d      	ldr	r0, [pc, #52]	; (80f8 <_mainCRTStartup+0x6c>)
    80c4:	2800      	cmp	r0, #0
    80c6:	d002      	beq.n	80ce <_mainCRTStartup+0x42>
    80c8:	480c      	ldr	r0, [pc, #48]	; (80fc <_mainCRTStartup+0x70>)
    80ca:	f004 fa11 	bl	c4f0 <atexit>
    80ce:	f003 ffed 	bl	c0ac <__libc_init_array>
    80d2:	0020      	movs	r0, r4
    80d4:	0029      	movs	r1, r5
    80d6:	f003 fa15 	bl	b504 <main>
    80da:	f7ff ff99 	bl	8010 <exit>
    80de:	bf00      	nop
    80e0:	00080000 	.word	0x00080000
    80e4:	00000000 	.word	0x00000000
    80e8:	00000000 	.word	0x00000000
    80ec:	00000000 	.word	0x00000000
    80f0:	0001d6c4 	.word	0x0001d6c4
    80f4:	0001e374 	.word	0x0001e374
    80f8:	0000c4f1 	.word	0x0000c4f1
    80fc:	0000c4fd 	.word	0x0000c4fd

00008100 <Min>:
    8100:	b480      	push	{r7}
    8102:	b083      	sub	sp, #12
    8104:	af00      	add	r7, sp, #0
    8106:	6078      	str	r0, [r7, #4]
    8108:	6039      	str	r1, [r7, #0]
    810a:	687a      	ldr	r2, [r7, #4]
    810c:	683b      	ldr	r3, [r7, #0]
    810e:	429a      	cmp	r2, r3
    8110:	da01      	bge.n	8116 <Min+0x16>
    8112:	687b      	ldr	r3, [r7, #4]
    8114:	e000      	b.n	8118 <Min+0x18>
    8116:	683b      	ldr	r3, [r7, #0]
    8118:	4618      	mov	r0, r3
    811a:	370c      	adds	r7, #12
    811c:	46bd      	mov	sp, r7
    811e:	bc80      	pop	{r7}
    8120:	4770      	bx	lr

00008122 <TestCompare>:
    8122:	b490      	push	{r4, r7}
    8124:	b084      	sub	sp, #16
    8126:	af00      	add	r7, sp, #0
    8128:	f107 0408 	add.w	r4, r7, #8
    812c:	e884 0003 	stmia.w	r4, {r0, r1}
    8130:	4639      	mov	r1, r7
    8132:	e881 000c 	stmia.w	r1, {r2, r3}
    8136:	68ba      	ldr	r2, [r7, #8]
    8138:	683b      	ldr	r3, [r7, #0]
    813a:	429a      	cmp	r2, r3
    813c:	bfb4      	ite	lt
    813e:	2301      	movlt	r3, #1
    8140:	2300      	movge	r3, #0
    8142:	b2db      	uxtb	r3, r3
    8144:	4618      	mov	r0, r3
    8146:	3710      	adds	r7, #16
    8148:	46bd      	mov	sp, r7
    814a:	bc90      	pop	{r4, r7}
    814c:	4770      	bx	lr

0000814e <Range_length>:
    814e:	b480      	push	{r7}
    8150:	b083      	sub	sp, #12
    8152:	af00      	add	r7, sp, #0
    8154:	463b      	mov	r3, r7
    8156:	e883 0003 	stmia.w	r3, {r0, r1}
    815a:	687a      	ldr	r2, [r7, #4]
    815c:	683b      	ldr	r3, [r7, #0]
    815e:	1ad3      	subs	r3, r2, r3
    8160:	4618      	mov	r0, r3
    8162:	370c      	adds	r7, #12
    8164:	46bd      	mov	sp, r7
    8166:	bc80      	pop	{r7}
    8168:	4770      	bx	lr

0000816a <MakeRange>:
    816a:	b480      	push	{r7}
    816c:	b087      	sub	sp, #28
    816e:	af00      	add	r7, sp, #0
    8170:	60f8      	str	r0, [r7, #12]
    8172:	60b9      	str	r1, [r7, #8]
    8174:	607a      	str	r2, [r7, #4]
    8176:	68bb      	ldr	r3, [r7, #8]
    8178:	613b      	str	r3, [r7, #16]
    817a:	687b      	ldr	r3, [r7, #4]
    817c:	617b      	str	r3, [r7, #20]
    817e:	68fb      	ldr	r3, [r7, #12]
    8180:	461a      	mov	r2, r3
    8182:	f107 0310 	add.w	r3, r7, #16
    8186:	e893 0003 	ldmia.w	r3, {r0, r1}
    818a:	e882 0003 	stmia.w	r2, {r0, r1}
    818e:	68f8      	ldr	r0, [r7, #12]
    8190:	371c      	adds	r7, #28
    8192:	46bd      	mov	sp, r7
    8194:	bc80      	pop	{r7}
    8196:	4770      	bx	lr

00008198 <FloorPowerOfTwo>:
    8198:	b480      	push	{r7}
    819a:	b085      	sub	sp, #20
    819c:	af00      	add	r7, sp, #0
    819e:	6078      	str	r0, [r7, #4]
    81a0:	687b      	ldr	r3, [r7, #4]
    81a2:	60fb      	str	r3, [r7, #12]
    81a4:	68fb      	ldr	r3, [r7, #12]
    81a6:	105b      	asrs	r3, r3, #1
    81a8:	68fa      	ldr	r2, [r7, #12]
    81aa:	4313      	orrs	r3, r2
    81ac:	60fb      	str	r3, [r7, #12]
    81ae:	68fb      	ldr	r3, [r7, #12]
    81b0:	109b      	asrs	r3, r3, #2
    81b2:	68fa      	ldr	r2, [r7, #12]
    81b4:	4313      	orrs	r3, r2
    81b6:	60fb      	str	r3, [r7, #12]
    81b8:	68fb      	ldr	r3, [r7, #12]
    81ba:	111b      	asrs	r3, r3, #4
    81bc:	68fa      	ldr	r2, [r7, #12]
    81be:	4313      	orrs	r3, r2
    81c0:	60fb      	str	r3, [r7, #12]
    81c2:	68fb      	ldr	r3, [r7, #12]
    81c4:	121b      	asrs	r3, r3, #8
    81c6:	68fa      	ldr	r2, [r7, #12]
    81c8:	4313      	orrs	r3, r2
    81ca:	60fb      	str	r3, [r7, #12]
    81cc:	68fb      	ldr	r3, [r7, #12]
    81ce:	141b      	asrs	r3, r3, #16
    81d0:	68fa      	ldr	r2, [r7, #12]
    81d2:	4313      	orrs	r3, r2
    81d4:	60fb      	str	r3, [r7, #12]
    81d6:	68fb      	ldr	r3, [r7, #12]
    81d8:	105b      	asrs	r3, r3, #1
    81da:	68fa      	ldr	r2, [r7, #12]
    81dc:	1ad3      	subs	r3, r2, r3
    81de:	4618      	mov	r0, r3
    81e0:	3714      	adds	r7, #20
    81e2:	46bd      	mov	sp, r7
    81e4:	bc80      	pop	{r7}
    81e6:	4770      	bx	lr

000081e8 <BinaryFirst>:
    81e8:	b590      	push	{r4, r7, lr}
    81ea:	b089      	sub	sp, #36	; 0x24
    81ec:	af00      	add	r7, sp, #0
    81ee:	60f8      	str	r0, [r7, #12]
    81f0:	60b9      	str	r1, [r7, #8]
    81f2:	4639      	mov	r1, r7
    81f4:	e881 000c 	stmia.w	r1, {r2, r3}
    81f8:	683b      	ldr	r3, [r7, #0]
    81fa:	61fb      	str	r3, [r7, #28]
    81fc:	687b      	ldr	r3, [r7, #4]
    81fe:	3b01      	subs	r3, #1
    8200:	61bb      	str	r3, [r7, #24]
    8202:	e01e      	b.n	8242 <BinaryFirst+0x5a>
    8204:	69ba      	ldr	r2, [r7, #24]
    8206:	69fb      	ldr	r3, [r7, #28]
    8208:	1ad3      	subs	r3, r2, r3
    820a:	0fda      	lsrs	r2, r3, #31
    820c:	4413      	add	r3, r2
    820e:	105b      	asrs	r3, r3, #1
    8210:	461a      	mov	r2, r3
    8212:	69fb      	ldr	r3, [r7, #28]
    8214:	4413      	add	r3, r2
    8216:	617b      	str	r3, [r7, #20]
    8218:	697b      	ldr	r3, [r7, #20]
    821a:	00db      	lsls	r3, r3, #3
    821c:	68fa      	ldr	r2, [r7, #12]
    821e:	18d1      	adds	r1, r2, r3
    8220:	68bb      	ldr	r3, [r7, #8]
    8222:	00db      	lsls	r3, r3, #3
    8224:	68fa      	ldr	r2, [r7, #12]
    8226:	4413      	add	r3, r2
    8228:	6b3c      	ldr	r4, [r7, #48]	; 0x30
    822a:	cb0c      	ldmia	r3, {r2, r3}
    822c:	c903      	ldmia	r1, {r0, r1}
    822e:	47a0      	blx	r4
    8230:	4603      	mov	r3, r0
    8232:	2b00      	cmp	r3, #0
    8234:	d003      	beq.n	823e <BinaryFirst+0x56>
    8236:	697b      	ldr	r3, [r7, #20]
    8238:	3301      	adds	r3, #1
    823a:	61fb      	str	r3, [r7, #28]
    823c:	e001      	b.n	8242 <BinaryFirst+0x5a>
    823e:	697b      	ldr	r3, [r7, #20]
    8240:	61bb      	str	r3, [r7, #24]
    8242:	69fa      	ldr	r2, [r7, #28]
    8244:	69bb      	ldr	r3, [r7, #24]
    8246:	429a      	cmp	r2, r3
    8248:	dbdc      	blt.n	8204 <BinaryFirst+0x1c>
    824a:	687b      	ldr	r3, [r7, #4]
    824c:	3b01      	subs	r3, #1
    824e:	69fa      	ldr	r2, [r7, #28]
    8250:	429a      	cmp	r2, r3
    8252:	d111      	bne.n	8278 <BinaryFirst+0x90>
    8254:	69fb      	ldr	r3, [r7, #28]
    8256:	00db      	lsls	r3, r3, #3
    8258:	68fa      	ldr	r2, [r7, #12]
    825a:	18d1      	adds	r1, r2, r3
    825c:	68bb      	ldr	r3, [r7, #8]
    825e:	00db      	lsls	r3, r3, #3
    8260:	68fa      	ldr	r2, [r7, #12]
    8262:	4413      	add	r3, r2
    8264:	6b3c      	ldr	r4, [r7, #48]	; 0x30
    8266:	cb0c      	ldmia	r3, {r2, r3}
    8268:	c903      	ldmia	r1, {r0, r1}
    826a:	47a0      	blx	r4
    826c:	4603      	mov	r3, r0
    826e:	2b00      	cmp	r3, #0
    8270:	d002      	beq.n	8278 <BinaryFirst+0x90>
    8272:	69fb      	ldr	r3, [r7, #28]
    8274:	3301      	adds	r3, #1
    8276:	61fb      	str	r3, [r7, #28]
    8278:	69fb      	ldr	r3, [r7, #28]
    827a:	4618      	mov	r0, r3
    827c:	3724      	adds	r7, #36	; 0x24
    827e:	46bd      	mov	sp, r7
    8280:	bd90      	pop	{r4, r7, pc}

00008282 <BinaryLast>:
    8282:	b590      	push	{r4, r7, lr}
    8284:	b089      	sub	sp, #36	; 0x24
    8286:	af00      	add	r7, sp, #0
    8288:	60f8      	str	r0, [r7, #12]
    828a:	60b9      	str	r1, [r7, #8]
    828c:	4639      	mov	r1, r7
    828e:	e881 000c 	stmia.w	r1, {r2, r3}
    8292:	683b      	ldr	r3, [r7, #0]
    8294:	61fb      	str	r3, [r7, #28]
    8296:	687b      	ldr	r3, [r7, #4]
    8298:	3b01      	subs	r3, #1
    829a:	61bb      	str	r3, [r7, #24]
    829c:	e01e      	b.n	82dc <BinaryLast+0x5a>
    829e:	69ba      	ldr	r2, [r7, #24]
    82a0:	69fb      	ldr	r3, [r7, #28]
    82a2:	1ad3      	subs	r3, r2, r3
    82a4:	0fda      	lsrs	r2, r3, #31
    82a6:	4413      	add	r3, r2
    82a8:	105b      	asrs	r3, r3, #1
    82aa:	461a      	mov	r2, r3
    82ac:	69fb      	ldr	r3, [r7, #28]
    82ae:	4413      	add	r3, r2
    82b0:	617b      	str	r3, [r7, #20]
    82b2:	68bb      	ldr	r3, [r7, #8]
    82b4:	00db      	lsls	r3, r3, #3
    82b6:	68fa      	ldr	r2, [r7, #12]
    82b8:	18d1      	adds	r1, r2, r3
    82ba:	697b      	ldr	r3, [r7, #20]
    82bc:	00db      	lsls	r3, r3, #3
    82be:	68fa      	ldr	r2, [r7, #12]
    82c0:	4413      	add	r3, r2
    82c2:	6b3c      	ldr	r4, [r7, #48]	; 0x30
    82c4:	cb0c      	ldmia	r3, {r2, r3}
    82c6:	c903      	ldmia	r1, {r0, r1}
    82c8:	47a0      	blx	r4
    82ca:	4603      	mov	r3, r0
    82cc:	2b00      	cmp	r3, #0
    82ce:	d103      	bne.n	82d8 <BinaryLast+0x56>
    82d0:	697b      	ldr	r3, [r7, #20]
    82d2:	3301      	adds	r3, #1
    82d4:	61fb      	str	r3, [r7, #28]
    82d6:	e001      	b.n	82dc <BinaryLast+0x5a>
    82d8:	697b      	ldr	r3, [r7, #20]
    82da:	61bb      	str	r3, [r7, #24]
    82dc:	69fa      	ldr	r2, [r7, #28]
    82de:	69bb      	ldr	r3, [r7, #24]
    82e0:	429a      	cmp	r2, r3
    82e2:	dbdc      	blt.n	829e <BinaryLast+0x1c>
    82e4:	687b      	ldr	r3, [r7, #4]
    82e6:	3b01      	subs	r3, #1
    82e8:	69fa      	ldr	r2, [r7, #28]
    82ea:	429a      	cmp	r2, r3
    82ec:	d111      	bne.n	8312 <BinaryLast+0x90>
    82ee:	68bb      	ldr	r3, [r7, #8]
    82f0:	00db      	lsls	r3, r3, #3
    82f2:	68fa      	ldr	r2, [r7, #12]
    82f4:	18d1      	adds	r1, r2, r3
    82f6:	69fb      	ldr	r3, [r7, #28]
    82f8:	00db      	lsls	r3, r3, #3
    82fa:	68fa      	ldr	r2, [r7, #12]
    82fc:	4413      	add	r3, r2
    82fe:	6b3c      	ldr	r4, [r7, #48]	; 0x30
    8300:	cb0c      	ldmia	r3, {r2, r3}
    8302:	c903      	ldmia	r1, {r0, r1}
    8304:	47a0      	blx	r4
    8306:	4603      	mov	r3, r0
    8308:	2b00      	cmp	r3, #0
    830a:	d102      	bne.n	8312 <BinaryLast+0x90>
    830c:	69fb      	ldr	r3, [r7, #28]
    830e:	3301      	adds	r3, #1
    8310:	61fb      	str	r3, [r7, #28]
    8312:	69fb      	ldr	r3, [r7, #28]
    8314:	4618      	mov	r0, r3
    8316:	3724      	adds	r7, #36	; 0x24
    8318:	46bd      	mov	sp, r7
    831a:	bd90      	pop	{r4, r7, pc}

0000831c <InsertionSort>:
    831c:	b590      	push	{r4, r7, lr}
    831e:	b089      	sub	sp, #36	; 0x24
    8320:	af00      	add	r7, sp, #0
    8322:	60f8      	str	r0, [r7, #12]
    8324:	1d38      	adds	r0, r7, #4
    8326:	e880 0006 	stmia.w	r0, {r1, r2}
    832a:	603b      	str	r3, [r7, #0]
    832c:	687b      	ldr	r3, [r7, #4]
    832e:	3301      	adds	r3, #1
    8330:	61fb      	str	r3, [r7, #28]
    8332:	e041      	b.n	83b8 <InsertionSort+0x9c>
    8334:	69fb      	ldr	r3, [r7, #28]
    8336:	00db      	lsls	r3, r3, #3
    8338:	68fa      	ldr	r2, [r7, #12]
    833a:	441a      	add	r2, r3
    833c:	f107 0310 	add.w	r3, r7, #16
    8340:	e892 0003 	ldmia.w	r2, {r0, r1}
    8344:	e883 0003 	stmia.w	r3, {r0, r1}
    8348:	69fb      	ldr	r3, [r7, #28]
    834a:	61bb      	str	r3, [r7, #24]
    834c:	e012      	b.n	8374 <InsertionSort+0x58>
    834e:	69bb      	ldr	r3, [r7, #24]
    8350:	f103 5300 	add.w	r3, r3, #536870912	; 0x20000000
    8354:	3b01      	subs	r3, #1
    8356:	00db      	lsls	r3, r3, #3
    8358:	68fa      	ldr	r2, [r7, #12]
    835a:	18d1      	adds	r1, r2, r3
    835c:	69bb      	ldr	r3, [r7, #24]
    835e:	00db      	lsls	r3, r3, #3
    8360:	68fa      	ldr	r2, [r7, #12]
    8362:	4413      	add	r3, r2
    8364:	460a      	mov	r2, r1
    8366:	e892 0003 	ldmia.w	r2, {r0, r1}
    836a:	e883 0003 	stmia.w	r3, {r0, r1}
    836e:	69bb      	ldr	r3, [r7, #24]
    8370:	3b01      	subs	r3, #1
    8372:	61bb      	str	r3, [r7, #24]
    8374:	687b      	ldr	r3, [r7, #4]
    8376:	69ba      	ldr	r2, [r7, #24]
    8378:	429a      	cmp	r2, r3
    837a:	dd0f      	ble.n	839c <InsertionSort+0x80>
    837c:	69bb      	ldr	r3, [r7, #24]
    837e:	f103 5300 	add.w	r3, r3, #536870912	; 0x20000000
    8382:	3b01      	subs	r3, #1
    8384:	00db      	lsls	r3, r3, #3
    8386:	68fa      	ldr	r2, [r7, #12]
    8388:	4413      	add	r3, r2
    838a:	683c      	ldr	r4, [r7, #0]
    838c:	cb0c      	ldmia	r3, {r2, r3}
    838e:	f107 0110 	add.w	r1, r7, #16
    8392:	c903      	ldmia	r1, {r0, r1}
    8394:	47a0      	blx	r4
    8396:	4603      	mov	r3, r0
    8398:	2b00      	cmp	r3, #0
    839a:	d1d8      	bne.n	834e <InsertionSort+0x32>
    839c:	69bb      	ldr	r3, [r7, #24]
    839e:	00db      	lsls	r3, r3, #3
    83a0:	68fa      	ldr	r2, [r7, #12]
    83a2:	4413      	add	r3, r2
    83a4:	461a      	mov	r2, r3
    83a6:	f107 0310 	add.w	r3, r7, #16
    83aa:	e893 0003 	ldmia.w	r3, {r0, r1}
    83ae:	e882 0003 	stmia.w	r2, {r0, r1}
    83b2:	69fb      	ldr	r3, [r7, #28]
    83b4:	3301      	adds	r3, #1
    83b6:	61fb      	str	r3, [r7, #28]
    83b8:	68bb      	ldr	r3, [r7, #8]
    83ba:	69fa      	ldr	r2, [r7, #28]
    83bc:	429a      	cmp	r2, r3
    83be:	dbb9      	blt.n	8334 <InsertionSort+0x18>
    83c0:	bf00      	nop
    83c2:	bf00      	nop
    83c4:	3724      	adds	r7, #36	; 0x24
    83c6:	46bd      	mov	sp, r7
    83c8:	bd90      	pop	{r4, r7, pc}

000083ca <Reverse>:
    83ca:	b580      	push	{r7, lr}
    83cc:	b08a      	sub	sp, #40	; 0x28
    83ce:	af00      	add	r7, sp, #0
    83d0:	60f8      	str	r0, [r7, #12]
    83d2:	1d3b      	adds	r3, r7, #4
    83d4:	e883 0006 	stmia.w	r3, {r1, r2}
    83d8:	1d3b      	adds	r3, r7, #4
    83da:	e893 0003 	ldmia.w	r3, {r0, r1}
    83de:	f7ff feb6 	bl	814e <Range_length>
    83e2:	4603      	mov	r3, r0
    83e4:	0fda      	lsrs	r2, r3, #31
    83e6:	4413      	add	r3, r2
    83e8:	105b      	asrs	r3, r3, #1
    83ea:	3b01      	subs	r3, #1
    83ec:	627b      	str	r3, [r7, #36]	; 0x24
    83ee:	e028      	b.n	8442 <Reverse+0x78>
    83f0:	687a      	ldr	r2, [r7, #4]
    83f2:	6a7b      	ldr	r3, [r7, #36]	; 0x24
    83f4:	4413      	add	r3, r2
    83f6:	00db      	lsls	r3, r3, #3
    83f8:	68fa      	ldr	r2, [r7, #12]
    83fa:	4413      	add	r3, r2
    83fc:	623b      	str	r3, [r7, #32]
    83fe:	68ba      	ldr	r2, [r7, #8]
    8400:	6a7b      	ldr	r3, [r7, #36]	; 0x24
    8402:	1ad3      	subs	r3, r2, r3
    8404:	f103 5300 	add.w	r3, r3, #536870912	; 0x20000000
    8408:	3b01      	subs	r3, #1
    840a:	00db      	lsls	r3, r3, #3
    840c:	68fa      	ldr	r2, [r7, #12]
    840e:	4413      	add	r3, r2
    8410:	61fb      	str	r3, [r7, #28]
    8412:	6a3a      	ldr	r2, [r7, #32]
    8414:	f107 0314 	add.w	r3, r7, #20
    8418:	e892 0003 	ldmia.w	r2, {r0, r1}
    841c:	e883 0003 	stmia.w	r3, {r0, r1}
    8420:	6a3b      	ldr	r3, [r7, #32]
    8422:	69fa      	ldr	r2, [r7, #28]
    8424:	e892 0003 	ldmia.w	r2, {r0, r1}
    8428:	e883 0003 	stmia.w	r3, {r0, r1}
    842c:	69fb      	ldr	r3, [r7, #28]
    842e:	461a      	mov	r2, r3
    8430:	f107 0314 	add.w	r3, r7, #20
    8434:	e893 0003 	ldmia.w	r3, {r0, r1}
    8438:	e882 0003 	stmia.w	r2, {r0, r1}
    843c:	6a7b      	ldr	r3, [r7, #36]	; 0x24
    843e:	3b01      	subs	r3, #1
    8440:	627b      	str	r3, [r7, #36]	; 0x24
    8442:	6a7b      	ldr	r3, [r7, #36]	; 0x24
    8444:	2b00      	cmp	r3, #0
    8446:	dad3      	bge.n	83f0 <Reverse+0x26>
    8448:	bf00      	nop
    844a:	bf00      	nop
    844c:	3728      	adds	r7, #40	; 0x28
    844e:	46bd      	mov	sp, r7
    8450:	bd80      	pop	{r7, pc}

00008452 <BlockSwap>:
    8452:	b480      	push	{r7}
    8454:	b08b      	sub	sp, #44	; 0x2c
    8456:	af00      	add	r7, sp, #0
    8458:	60f8      	str	r0, [r7, #12]
    845a:	60b9      	str	r1, [r7, #8]
    845c:	607a      	str	r2, [r7, #4]
    845e:	603b      	str	r3, [r7, #0]
    8460:	2300      	movs	r3, #0
    8462:	627b      	str	r3, [r7, #36]	; 0x24
    8464:	e025      	b.n	84b2 <BlockSwap+0x60>
    8466:	68ba      	ldr	r2, [r7, #8]
    8468:	6a7b      	ldr	r3, [r7, #36]	; 0x24
    846a:	4413      	add	r3, r2
    846c:	00db      	lsls	r3, r3, #3
    846e:	68fa      	ldr	r2, [r7, #12]
    8470:	4413      	add	r3, r2
    8472:	623b      	str	r3, [r7, #32]
    8474:	687a      	ldr	r2, [r7, #4]
    8476:	6a7b      	ldr	r3, [r7, #36]	; 0x24
    8478:	4413      	add	r3, r2
    847a:	00db      	lsls	r3, r3, #3
    847c:	68fa      	ldr	r2, [r7, #12]
    847e:	4413      	add	r3, r2
    8480:	61fb      	str	r3, [r7, #28]
    8482:	6a3a      	ldr	r2, [r7, #32]
    8484:	f107 0314 	add.w	r3, r7, #20
    8488:	e892 0003 	ldmia.w	r2, {r0, r1}
    848c:	e883 0003 	stmia.w	r3, {r0, r1}
    8490:	6a3b      	ldr	r3, [r7, #32]
    8492:	69fa      	ldr	r2, [r7, #28]
    8494:	e892 0003 	ldmia.w	r2, {r0, r1}
    8498:	e883 0003 	stmia.w	r3, {r0, r1}
    849c:	69fb      	ldr	r3, [r7, #28]
    849e:	461a      	mov	r2, r3
    84a0:	f107 0314 	add.w	r3, r7, #20
    84a4:	e893 0003 	ldmia.w	r3, {r0, r1}
    84a8:	e882 0003 	stmia.w	r2, {r0, r1}
    84ac:	6a7b      	ldr	r3, [r7, #36]	; 0x24
    84ae:	3301      	adds	r3, #1
    84b0:	627b      	str	r3, [r7, #36]	; 0x24
    84b2:	6a7a      	ldr	r2, [r7, #36]	; 0x24
    84b4:	683b      	ldr	r3, [r7, #0]
    84b6:	429a      	cmp	r2, r3
    84b8:	dbd5      	blt.n	8466 <BlockSwap+0x14>
    84ba:	bf00      	nop
    84bc:	bf00      	nop
    84be:	372c      	adds	r7, #44	; 0x2c
    84c0:	46bd      	mov	sp, r7
    84c2:	bc80      	pop	{r7}
    84c4:	4770      	bx	lr

000084c6 <Rotate>:
    84c6:	b5b0      	push	{r4, r5, r7, lr}
    84c8:	b08a      	sub	sp, #40	; 0x28
    84ca:	af00      	add	r7, sp, #0
    84cc:	60f8      	str	r0, [r7, #12]
    84ce:	60b9      	str	r1, [r7, #8]
    84d0:	4639      	mov	r1, r7
    84d2:	e881 000c 	stmia.w	r1, {r2, r3}
    84d6:	463b      	mov	r3, r7
    84d8:	e893 0003 	ldmia.w	r3, {r0, r1}
    84dc:	f7ff fe37 	bl	814e <Range_length>
    84e0:	4603      	mov	r3, r0
    84e2:	2b00      	cmp	r3, #0
    84e4:	f000 80d4 	beq.w	8690 <Rotate+0x1ca>
    84e8:	68bb      	ldr	r3, [r7, #8]
    84ea:	2b00      	cmp	r3, #0
    84ec:	db04      	blt.n	84f8 <Rotate+0x32>
    84ee:	683b      	ldr	r3, [r7, #0]
    84f0:	68ba      	ldr	r2, [r7, #8]
    84f2:	4413      	add	r3, r2
    84f4:	627b      	str	r3, [r7, #36]	; 0x24
    84f6:	e003      	b.n	8500 <Rotate+0x3a>
    84f8:	687b      	ldr	r3, [r7, #4]
    84fa:	68ba      	ldr	r2, [r7, #8]
    84fc:	4413      	add	r3, r2
    84fe:	627b      	str	r3, [r7, #36]	; 0x24
    8500:	6839      	ldr	r1, [r7, #0]
    8502:	f107 031c 	add.w	r3, r7, #28
    8506:	6a7a      	ldr	r2, [r7, #36]	; 0x24
    8508:	4618      	mov	r0, r3
    850a:	f7ff fe2e 	bl	816a <MakeRange>
    850e:	687a      	ldr	r2, [r7, #4]
    8510:	f107 0314 	add.w	r3, r7, #20
    8514:	6a79      	ldr	r1, [r7, #36]	; 0x24
    8516:	4618      	mov	r0, r3
    8518:	f7ff fe27 	bl	816a <MakeRange>
    851c:	f107 031c 	add.w	r3, r7, #28
    8520:	e893 0003 	ldmia.w	r3, {r0, r1}
    8524:	f7ff fe13 	bl	814e <Range_length>
    8528:	4604      	mov	r4, r0
    852a:	f107 0314 	add.w	r3, r7, #20
    852e:	e893 0003 	ldmia.w	r3, {r0, r1}
    8532:	f7ff fe0c 	bl	814e <Range_length>
    8536:	4603      	mov	r3, r0
    8538:	429c      	cmp	r4, r3
    853a:	dc4a      	bgt.n	85d2 <Rotate+0x10c>
    853c:	f107 031c 	add.w	r3, r7, #28
    8540:	e893 0003 	ldmia.w	r3, {r0, r1}
    8544:	f7ff fe03 	bl	814e <Range_length>
    8548:	4602      	mov	r2, r0
    854a:	6bfb      	ldr	r3, [r7, #60]	; 0x3c
    854c:	4293      	cmp	r3, r2
    854e:	f2c0 808a 	blt.w	8666 <Rotate+0x1a0>
    8552:	69fb      	ldr	r3, [r7, #28]
    8554:	00db      	lsls	r3, r3, #3
    8556:	68fa      	ldr	r2, [r7, #12]
    8558:	18d4      	adds	r4, r2, r3
    855a:	f107 031c 	add.w	r3, r7, #28
    855e:	e893 0003 	ldmia.w	r3, {r0, r1}
    8562:	f7ff fdf4 	bl	814e <Range_length>
    8566:	4603      	mov	r3, r0
    8568:	00db      	lsls	r3, r3, #3
    856a:	461a      	mov	r2, r3
    856c:	4621      	mov	r1, r4
    856e:	6bb8      	ldr	r0, [r7, #56]	; 0x38
    8570:	f003 fdf4 	bl	c15c <memcpy>
    8574:	69fb      	ldr	r3, [r7, #28]
    8576:	00db      	lsls	r3, r3, #3
    8578:	68fa      	ldr	r2, [r7, #12]
    857a:	18d4      	adds	r4, r2, r3
    857c:	697b      	ldr	r3, [r7, #20]
    857e:	00db      	lsls	r3, r3, #3
    8580:	68fa      	ldr	r2, [r7, #12]
    8582:	18d5      	adds	r5, r2, r3
    8584:	f107 0314 	add.w	r3, r7, #20
    8588:	e893 0003 	ldmia.w	r3, {r0, r1}
    858c:	f7ff fddf 	bl	814e <Range_length>
    8590:	4603      	mov	r3, r0
    8592:	00db      	lsls	r3, r3, #3
    8594:	461a      	mov	r2, r3
    8596:	4629      	mov	r1, r5
    8598:	4620      	mov	r0, r4
    859a:	f003 fe79 	bl	c290 <memmove>
    859e:	69fc      	ldr	r4, [r7, #28]
    85a0:	f107 0314 	add.w	r3, r7, #20
    85a4:	e893 0003 	ldmia.w	r3, {r0, r1}
    85a8:	f7ff fdd1 	bl	814e <Range_length>
    85ac:	4603      	mov	r3, r0
    85ae:	4423      	add	r3, r4
    85b0:	00db      	lsls	r3, r3, #3
    85b2:	68fa      	ldr	r2, [r7, #12]
    85b4:	18d4      	adds	r4, r2, r3
    85b6:	f107 031c 	add.w	r3, r7, #28
    85ba:	e893 0003 	ldmia.w	r3, {r0, r1}
    85be:	f7ff fdc6 	bl	814e <Range_length>
    85c2:	4603      	mov	r3, r0
    85c4:	00db      	lsls	r3, r3, #3
    85c6:	461a      	mov	r2, r3
    85c8:	6bb9      	ldr	r1, [r7, #56]	; 0x38
    85ca:	4620      	mov	r0, r4
    85cc:	f003 fdc6 	bl	c15c <memcpy>
    85d0:	e05f      	b.n	8692 <Rotate+0x1cc>
    85d2:	f107 0314 	add.w	r3, r7, #20
    85d6:	e893 0003 	ldmia.w	r3, {r0, r1}
    85da:	f7ff fdb8 	bl	814e <Range_length>
    85de:	4602      	mov	r2, r0
    85e0:	6bfb      	ldr	r3, [r7, #60]	; 0x3c
    85e2:	4293      	cmp	r3, r2
    85e4:	db3f      	blt.n	8666 <Rotate+0x1a0>
    85e6:	697b      	ldr	r3, [r7, #20]
    85e8:	00db      	lsls	r3, r3, #3
    85ea:	68fa      	ldr	r2, [r7, #12]
    85ec:	18d4      	adds	r4, r2, r3
    85ee:	f107 0314 	add.w	r3, r7, #20
    85f2:	e893 0003 	ldmia.w	r3, {r0, r1}
    85f6:	f7ff fdaa 	bl	814e <Range_length>
    85fa:	4603      	mov	r3, r0
    85fc:	00db      	lsls	r3, r3, #3
    85fe:	461a      	mov	r2, r3
    8600:	4621      	mov	r1, r4
    8602:	6bb8      	ldr	r0, [r7, #56]	; 0x38
    8604:	f003 fdaa 	bl	c15c <memcpy>
    8608:	69bc      	ldr	r4, [r7, #24]
    860a:	f107 031c 	add.w	r3, r7, #28
    860e:	e893 0003 	ldmia.w	r3, {r0, r1}
    8612:	f7ff fd9c 	bl	814e <Range_length>
    8616:	4603      	mov	r3, r0
    8618:	1ae3      	subs	r3, r4, r3
    861a:	00db      	lsls	r3, r3, #3
    861c:	68fa      	ldr	r2, [r7, #12]
    861e:	18d4      	adds	r4, r2, r3
    8620:	69fb      	ldr	r3, [r7, #28]
    8622:	00db      	lsls	r3, r3, #3
    8624:	68fa      	ldr	r2, [r7, #12]
    8626:	18d5      	adds	r5, r2, r3
    8628:	f107 031c 	add.w	r3, r7, #28
    862c:	e893 0003 	ldmia.w	r3, {r0, r1}
    8630:	f7ff fd8d 	bl	814e <Range_length>
    8634:	4603      	mov	r3, r0
    8636:	00db      	lsls	r3, r3, #3
    8638:	461a      	mov	r2, r3
    863a:	4629      	mov	r1, r5
    863c:	4620      	mov	r0, r4
    863e:	f003 fe27 	bl	c290 <memmove>
    8642:	69fb      	ldr	r3, [r7, #28]
    8644:	00db      	lsls	r3, r3, #3
    8646:	68fa      	ldr	r2, [r7, #12]
    8648:	18d4      	adds	r4, r2, r3
    864a:	f107 0314 	add.w	r3, r7, #20
    864e:	e893 0003 	ldmia.w	r3, {r0, r1}
    8652:	f7ff fd7c 	bl	814e <Range_length>
    8656:	4603      	mov	r3, r0
    8658:	00db      	lsls	r3, r3, #3
    865a:	461a      	mov	r2, r3
    865c:	6bb9      	ldr	r1, [r7, #56]	; 0x38
    865e:	4620      	mov	r0, r4
    8660:	f003 fd7c 	bl	c15c <memcpy>
    8664:	e015      	b.n	8692 <Rotate+0x1cc>
    8666:	f107 031c 	add.w	r3, r7, #28
    866a:	e893 0006 	ldmia.w	r3, {r1, r2}
    866e:	68f8      	ldr	r0, [r7, #12]
    8670:	f7ff feab 	bl	83ca <Reverse>
    8674:	f107 0314 	add.w	r3, r7, #20
    8678:	e893 0006 	ldmia.w	r3, {r1, r2}
    867c:	68f8      	ldr	r0, [r7, #12]
    867e:	f7ff fea4 	bl	83ca <Reverse>
    8682:	463b      	mov	r3, r7
    8684:	e893 0006 	ldmia.w	r3, {r1, r2}
    8688:	68f8      	ldr	r0, [r7, #12]
    868a:	f7ff fe9e 	bl	83ca <Reverse>
    868e:	e000      	b.n	8692 <Rotate+0x1cc>
    8690:	bf00      	nop
    8692:	3728      	adds	r7, #40	; 0x28
    8694:	46bd      	mov	sp, r7
    8696:	bdb0      	pop	{r4, r5, r7, pc}

00008698 <WikiMerge>:
    8698:	b082      	sub	sp, #8
    869a:	b5b0      	push	{r4, r5, r7, lr}
    869c:	b094      	sub	sp, #80	; 0x50
    869e:	af00      	add	r7, sp, #0
    86a0:	60f8      	str	r0, [r7, #12]
    86a2:	1d38      	adds	r0, r7, #4
    86a4:	e880 0006 	stmia.w	r0, {r1, r2}
    86a8:	667b      	str	r3, [r7, #100]	; 0x64
    86aa:	f107 0364 	add.w	r3, r7, #100	; 0x64
    86ae:	e893 0003 	ldmia.w	r3, {r0, r1}
    86b2:	f7ff fd4c 	bl	814e <Range_length>
    86b6:	4602      	mov	r2, r0
    86b8:	6ffb      	ldr	r3, [r7, #124]	; 0x7c
    86ba:	4293      	cmp	r3, r2
    86bc:	db62      	blt.n	8784 <WikiMerge+0xec>
    86be:	6fbb      	ldr	r3, [r7, #120]	; 0x78
    86c0:	64fb      	str	r3, [r7, #76]	; 0x4c
    86c2:	6efb      	ldr	r3, [r7, #108]	; 0x6c
    86c4:	00db      	lsls	r3, r3, #3
    86c6:	68fa      	ldr	r2, [r7, #12]
    86c8:	4413      	add	r3, r2
    86ca:	64bb      	str	r3, [r7, #72]	; 0x48
    86cc:	6e7b      	ldr	r3, [r7, #100]	; 0x64
    86ce:	00db      	lsls	r3, r3, #3
    86d0:	68fa      	ldr	r2, [r7, #12]
    86d2:	4413      	add	r3, r2
    86d4:	647b      	str	r3, [r7, #68]	; 0x44
    86d6:	f107 0364 	add.w	r3, r7, #100	; 0x64
    86da:	e893 0003 	ldmia.w	r3, {r0, r1}
    86de:	f7ff fd36 	bl	814e <Range_length>
    86e2:	4603      	mov	r3, r0
    86e4:	00db      	lsls	r3, r3, #3
    86e6:	6fba      	ldr	r2, [r7, #120]	; 0x78
    86e8:	4413      	add	r3, r2
    86ea:	627b      	str	r3, [r7, #36]	; 0x24
    86ec:	6f3b      	ldr	r3, [r7, #112]	; 0x70
    86ee:	00db      	lsls	r3, r3, #3
    86f0:	68fa      	ldr	r2, [r7, #12]
    86f2:	4413      	add	r3, r2
    86f4:	623b      	str	r3, [r7, #32]
    86f6:	f107 036c 	add.w	r3, r7, #108	; 0x6c
    86fa:	e893 0003 	ldmia.w	r3, {r0, r1}
    86fe:	f7ff fd26 	bl	814e <Range_length>
    8702:	4603      	mov	r3, r0
    8704:	2b00      	cmp	r3, #0
    8706:	dd34      	ble.n	8772 <WikiMerge+0xda>
    8708:	f107 0364 	add.w	r3, r7, #100	; 0x64
    870c:	e893 0003 	ldmia.w	r3, {r0, r1}
    8710:	f7ff fd1d 	bl	814e <Range_length>
    8714:	4603      	mov	r3, r0
    8716:	2b00      	cmp	r3, #0
    8718:	dd2b      	ble.n	8772 <WikiMerge+0xda>
    871a:	6cfb      	ldr	r3, [r7, #76]	; 0x4c
    871c:	6cb9      	ldr	r1, [r7, #72]	; 0x48
    871e:	6f7c      	ldr	r4, [r7, #116]	; 0x74
    8720:	cb0c      	ldmia	r3, {r2, r3}
    8722:	c903      	ldmia	r1, {r0, r1}
    8724:	47a0      	blx	r4
    8726:	4603      	mov	r3, r0
    8728:	2b00      	cmp	r3, #0
    872a:	d110      	bne.n	874e <WikiMerge+0xb6>
    872c:	6c7b      	ldr	r3, [r7, #68]	; 0x44
    872e:	6cfa      	ldr	r2, [r7, #76]	; 0x4c
    8730:	e892 0003 	ldmia.w	r2, {r0, r1}
    8734:	e883 0003 	stmia.w	r3, {r0, r1}
    8738:	6cfb      	ldr	r3, [r7, #76]	; 0x4c
    873a:	3308      	adds	r3, #8
    873c:	64fb      	str	r3, [r7, #76]	; 0x4c
    873e:	6c7b      	ldr	r3, [r7, #68]	; 0x44
    8740:	3308      	adds	r3, #8
    8742:	647b      	str	r3, [r7, #68]	; 0x44
    8744:	6cfa      	ldr	r2, [r7, #76]	; 0x4c
    8746:	6a7b      	ldr	r3, [r7, #36]	; 0x24
    8748:	429a      	cmp	r2, r3
    874a:	d1e6      	bne.n	871a <WikiMerge+0x82>
    874c:	e011      	b.n	8772 <WikiMerge+0xda>
    874e:	6c7b      	ldr	r3, [r7, #68]	; 0x44
    8750:	6cba      	ldr	r2, [r7, #72]	; 0x48
    8752:	e892 0003 	ldmia.w	r2, {r0, r1}
    8756:	e883 0003 	stmia.w	r3, {r0, r1}
    875a:	6cbb      	ldr	r3, [r7, #72]	; 0x48
    875c:	3308      	adds	r3, #8
    875e:	64bb      	str	r3, [r7, #72]	; 0x48
    8760:	6c7b      	ldr	r3, [r7, #68]	; 0x44
    8762:	3308      	adds	r3, #8
    8764:	647b      	str	r3, [r7, #68]	; 0x44
    8766:	6cba      	ldr	r2, [r7, #72]	; 0x48
    8768:	6a3b      	ldr	r3, [r7, #32]
    876a:	429a      	cmp	r2, r3
    876c:	d000      	beq.n	8770 <WikiMerge+0xd8>
    876e:	e7d4      	b.n	871a <WikiMerge+0x82>
    8770:	bf00      	nop
    8772:	6a7a      	ldr	r2, [r7, #36]	; 0x24
    8774:	6cfb      	ldr	r3, [r7, #76]	; 0x4c
    8776:	1ad3      	subs	r3, r2, r3
    8778:	461a      	mov	r2, r3
    877a:	6cf9      	ldr	r1, [r7, #76]	; 0x4c
    877c:	6c78      	ldr	r0, [r7, #68]	; 0x44
    877e:	f003 fced 	bl	c15c <memcpy>
    8782:	e0a8      	b.n	88d6 <WikiMerge+0x23e>
    8784:	2300      	movs	r3, #0
    8786:	643b      	str	r3, [r7, #64]	; 0x40
    8788:	2300      	movs	r3, #0
    878a:	63fb      	str	r3, [r7, #60]	; 0x3c
    878c:	2300      	movs	r3, #0
    878e:	63bb      	str	r3, [r7, #56]	; 0x38
    8790:	f107 036c 	add.w	r3, r7, #108	; 0x6c
    8794:	e893 0003 	ldmia.w	r3, {r0, r1}
    8798:	f7ff fcd9 	bl	814e <Range_length>
    879c:	4603      	mov	r3, r0
    879e:	2b00      	cmp	r3, #0
    87a0:	f340 8085 	ble.w	88ae <WikiMerge+0x216>
    87a4:	f107 0364 	add.w	r3, r7, #100	; 0x64
    87a8:	e893 0003 	ldmia.w	r3, {r0, r1}
    87ac:	f7ff fccf 	bl	814e <Range_length>
    87b0:	4603      	mov	r3, r0
    87b2:	2b00      	cmp	r3, #0
    87b4:	dd7b      	ble.n	88ae <WikiMerge+0x216>
    87b6:	6efa      	ldr	r2, [r7, #108]	; 0x6c
    87b8:	6bfb      	ldr	r3, [r7, #60]	; 0x3c
    87ba:	4413      	add	r3, r2
    87bc:	00db      	lsls	r3, r3, #3
    87be:	68fa      	ldr	r2, [r7, #12]
    87c0:	18d1      	adds	r1, r2, r3
    87c2:	687a      	ldr	r2, [r7, #4]
    87c4:	6c3b      	ldr	r3, [r7, #64]	; 0x40
    87c6:	4413      	add	r3, r2
    87c8:	00db      	lsls	r3, r3, #3
    87ca:	68fa      	ldr	r2, [r7, #12]
    87cc:	4413      	add	r3, r2
    87ce:	6f7c      	ldr	r4, [r7, #116]	; 0x74
    87d0:	cb0c      	ldmia	r3, {r2, r3}
    87d2:	c903      	ldmia	r1, {r0, r1}
    87d4:	47a0      	blx	r4
    87d6:	4603      	mov	r3, r0
    87d8:	2b00      	cmp	r3, #0
    87da:	d133      	bne.n	8844 <WikiMerge+0x1ac>
    87dc:	6e7a      	ldr	r2, [r7, #100]	; 0x64
    87de:	6bbb      	ldr	r3, [r7, #56]	; 0x38
    87e0:	4413      	add	r3, r2
    87e2:	00db      	lsls	r3, r3, #3
    87e4:	68fa      	ldr	r2, [r7, #12]
    87e6:	4413      	add	r3, r2
    87e8:	62fb      	str	r3, [r7, #44]	; 0x2c
    87ea:	687a      	ldr	r2, [r7, #4]
    87ec:	6c3b      	ldr	r3, [r7, #64]	; 0x40
    87ee:	4413      	add	r3, r2
    87f0:	00db      	lsls	r3, r3, #3
    87f2:	68fa      	ldr	r2, [r7, #12]
    87f4:	4413      	add	r3, r2
    87f6:	62bb      	str	r3, [r7, #40]	; 0x28
    87f8:	6afa      	ldr	r2, [r7, #44]	; 0x2c
    87fa:	f107 0318 	add.w	r3, r7, #24
    87fe:	e892 0003 	ldmia.w	r2, {r0, r1}
    8802:	e883 0003 	stmia.w	r3, {r0, r1}
    8806:	6afb      	ldr	r3, [r7, #44]	; 0x2c
    8808:	6aba      	ldr	r2, [r7, #40]	; 0x28
    880a:	e892 0003 	ldmia.w	r2, {r0, r1}
    880e:	e883 0003 	stmia.w	r3, {r0, r1}
    8812:	6abb      	ldr	r3, [r7, #40]	; 0x28
    8814:	461a      	mov	r2, r3
    8816:	f107 0318 	add.w	r3, r7, #24
    881a:	e893 0003 	ldmia.w	r3, {r0, r1}
    881e:	e882 0003 	stmia.w	r2, {r0, r1}
    8822:	6c3b      	ldr	r3, [r7, #64]	; 0x40
    8824:	3301      	adds	r3, #1
    8826:	643b      	str	r3, [r7, #64]	; 0x40
    8828:	6bbb      	ldr	r3, [r7, #56]	; 0x38
    882a:	3301      	adds	r3, #1
    882c:	63bb      	str	r3, [r7, #56]	; 0x38
    882e:	f107 0364 	add.w	r3, r7, #100	; 0x64
    8832:	e893 0003 	ldmia.w	r3, {r0, r1}
    8836:	f7ff fc8a 	bl	814e <Range_length>
    883a:	4602      	mov	r2, r0
    883c:	6c3b      	ldr	r3, [r7, #64]	; 0x40
    883e:	4293      	cmp	r3, r2
    8840:	dbb9      	blt.n	87b6 <WikiMerge+0x11e>
    8842:	e034      	b.n	88ae <WikiMerge+0x216>
    8844:	6e7a      	ldr	r2, [r7, #100]	; 0x64
    8846:	6bbb      	ldr	r3, [r7, #56]	; 0x38
    8848:	4413      	add	r3, r2
    884a:	00db      	lsls	r3, r3, #3
    884c:	68fa      	ldr	r2, [r7, #12]
    884e:	4413      	add	r3, r2
    8850:	637b      	str	r3, [r7, #52]	; 0x34
    8852:	6efa      	ldr	r2, [r7, #108]	; 0x6c
    8854:	6bfb      	ldr	r3, [r7, #60]	; 0x3c
    8856:	4413      	add	r3, r2
    8858:	00db      	lsls	r3, r3, #3
    885a:	68fa      	ldr	r2, [r7, #12]
    885c:	4413      	add	r3, r2
    885e:	633b      	str	r3, [r7, #48]	; 0x30
    8860:	6b7a      	ldr	r2, [r7, #52]	; 0x34
    8862:	f107 0310 	add.w	r3, r7, #16
    8866:	e892 0003 	ldmia.w	r2, {r0, r1}
    886a:	e883 0003 	stmia.w	r3, {r0, r1}
    886e:	6b7b      	ldr	r3, [r7, #52]	; 0x34
    8870:	6b3a      	ldr	r2, [r7, #48]	; 0x30
    8872:	e892 0003 	ldmia.w	r2, {r0, r1}
    8876:	e883 0003 	stmia.w	r3, {r0, r1}
    887a:	6b3b      	ldr	r3, [r7, #48]	; 0x30
    887c:	461a      	mov	r2, r3
    887e:	f107 0310 	add.w	r3, r7, #16
    8882:	e893 0003 	ldmia.w	r3, {r0, r1}
    8886:	e882 0003 	stmia.w	r2, {r0, r1}
    888a:	6bfb      	ldr	r3, [r7, #60]	; 0x3c
    888c:	3301      	adds	r3, #1
    888e:	63fb      	str	r3, [r7, #60]	; 0x3c
    8890:	6bbb      	ldr	r3, [r7, #56]	; 0x38
    8892:	3301      	adds	r3, #1
    8894:	63bb      	str	r3, [r7, #56]	; 0x38
    8896:	f107 036c 	add.w	r3, r7, #108	; 0x6c
    889a:	e893 0003 	ldmia.w	r3, {r0, r1}
    889e:	f7ff fc56 	bl	814e <Range_length>
    88a2:	4602      	mov	r2, r0
    88a4:	6bfb      	ldr	r3, [r7, #60]	; 0x3c
    88a6:	4293      	cmp	r3, r2
    88a8:	da00      	bge.n	88ac <WikiMerge+0x214>
    88aa:	e784      	b.n	87b6 <WikiMerge+0x11e>
    88ac:	bf00      	nop
    88ae:	687a      	ldr	r2, [r7, #4]
    88b0:	6c3b      	ldr	r3, [r7, #64]	; 0x40
    88b2:	18d4      	adds	r4, r2, r3
    88b4:	6e7a      	ldr	r2, [r7, #100]	; 0x64
    88b6:	6bbb      	ldr	r3, [r7, #56]	; 0x38
    88b8:	18d5      	adds	r5, r2, r3
    88ba:	f107 0364 	add.w	r3, r7, #100	; 0x64
    88be:	e893 0003 	ldmia.w	r3, {r0, r1}
    88c2:	f7ff fc44 	bl	814e <Range_length>
    88c6:	4602      	mov	r2, r0
    88c8:	6c3b      	ldr	r3, [r7, #64]	; 0x40
    88ca:	1ad3      	subs	r3, r2, r3
    88cc:	462a      	mov	r2, r5
    88ce:	4621      	mov	r1, r4
    88d0:	68f8      	ldr	r0, [r7, #12]
    88d2:	f7ff fdbe 	bl	8452 <BlockSwap>
    88d6:	bf00      	nop
    88d8:	3750      	adds	r7, #80	; 0x50
    88da:	46bd      	mov	sp, r7
    88dc:	e8bd 40b0 	ldmia.w	sp!, {r4, r5, r7, lr}
    88e0:	b002      	add	sp, #8
    88e2:	4770      	bx	lr

000088e4 <WikiSort>:
    88e4:	b5f0      	push	{r4, r5, r6, r7, lr}
    88e6:	f5ad 5d8c 	sub.w	sp, sp, #4480	; 0x1180
    88ea:	b087      	sub	sp, #28
    88ec:	af06      	add	r7, sp, #24
    88ee:	f507 73c0 	add.w	r3, r7, #384	; 0x180
    88f2:	f5a3 73b6 	sub.w	r3, r3, #364	; 0x16c
    88f6:	6018      	str	r0, [r3, #0]
    88f8:	f507 73c0 	add.w	r3, r7, #384	; 0x180
    88fc:	f5a3 73b8 	sub.w	r3, r3, #368	; 0x170
    8900:	6019      	str	r1, [r3, #0]
    8902:	f507 73c0 	add.w	r3, r7, #384	; 0x180
    8906:	f5a3 73ba 	sub.w	r3, r3, #372	; 0x174
    890a:	601a      	str	r2, [r3, #0]
    890c:	f44f 7300 	mov.w	r3, #512	; 0x200
    8910:	f507 528a 	add.w	r2, r7, #4416	; 0x1140
    8914:	f102 0214 	add.w	r2, r2, #20
    8918:	6013      	str	r3, [r2, #0]
    891a:	f507 73c0 	add.w	r3, r7, #384	; 0x180
    891e:	f5a3 73b8 	sub.w	r3, r3, #368	; 0x170
    8922:	681b      	ldr	r3, [r3, #0]
    8924:	2b20      	cmp	r3, #32
    8926:	dc1e      	bgt.n	8966 <WikiSort+0x82>
    8928:	f507 5085 	add.w	r0, r7, #4256	; 0x10a0
    892c:	f100 0008 	add.w	r0, r0, #8
    8930:	f507 73c0 	add.w	r3, r7, #384	; 0x180
    8934:	f5a3 73b8 	sub.w	r3, r3, #368	; 0x170
    8938:	681a      	ldr	r2, [r3, #0]
    893a:	2100      	movs	r1, #0
    893c:	f7ff fc15 	bl	816a <MakeRange>
    8940:	f507 73c0 	add.w	r3, r7, #384	; 0x180
    8944:	f5a3 73ba 	sub.w	r3, r3, #372	; 0x174
    8948:	f507 72c0 	add.w	r2, r7, #384	; 0x180
    894c:	f5a2 70b6 	sub.w	r0, r2, #364	; 0x16c
    8950:	681b      	ldr	r3, [r3, #0]
    8952:	f507 5285 	add.w	r2, r7, #4256	; 0x10a0
    8956:	f102 0208 	add.w	r2, r2, #8
    895a:	ca06      	ldmia	r2, {r1, r2}
    895c:	6800      	ldr	r0, [r0, #0]
    895e:	f7ff fcdd 	bl	831c <InsertionSort>
    8962:	f002 bbd8 	b.w	b116 <WikiSort+0x2832>
    8966:	f507 73c0 	add.w	r3, r7, #384	; 0x180
    896a:	f5a3 73b8 	sub.w	r3, r3, #368	; 0x170
    896e:	6818      	ldr	r0, [r3, #0]
    8970:	f7ff fc12 	bl	8198 <FloorPowerOfTwo>
    8974:	f507 538a 	add.w	r3, r7, #4416	; 0x1140
    8978:	f103 0310 	add.w	r3, r3, #16
    897c:	6018      	str	r0, [r3, #0]
    897e:	f507 538a 	add.w	r3, r7, #4416	; 0x1140
    8982:	f103 0310 	add.w	r3, r3, #16
    8986:	681b      	ldr	r3, [r3, #0]
    8988:	2b00      	cmp	r3, #0
    898a:	da00      	bge.n	898e <WikiSort+0xaa>
    898c:	330f      	adds	r3, #15
    898e:	111b      	asrs	r3, r3, #4
    8990:	f507 528a 	add.w	r2, r7, #4416	; 0x1140
    8994:	f102 020c 	add.w	r2, r2, #12
    8998:	6013      	str	r3, [r2, #0]
    899a:	f507 73c0 	add.w	r3, r7, #384	; 0x180
    899e:	f5a3 73b8 	sub.w	r3, r3, #368	; 0x170
    89a2:	681b      	ldr	r3, [r3, #0]
    89a4:	f507 528a 	add.w	r2, r7, #4416	; 0x1140
    89a8:	f102 020c 	add.w	r2, r2, #12
    89ac:	6812      	ldr	r2, [r2, #0]
    89ae:	fb93 f2f2 	sdiv	r2, r3, r2
    89b2:	f507 518a 	add.w	r1, r7, #4416	; 0x1140
    89b6:	f101 010c 	add.w	r1, r1, #12
    89ba:	6809      	ldr	r1, [r1, #0]
    89bc:	fb01 f202 	mul.w	r2, r1, r2
    89c0:	1a9b      	subs	r3, r3, r2
    89c2:	f507 528b 	add.w	r2, r7, #4448	; 0x1160
    89c6:	f102 020c 	add.w	r2, r2, #12
    89ca:	6013      	str	r3, [r2, #0]
    89cc:	f507 73c0 	add.w	r3, r7, #384	; 0x180
    89d0:	f5a3 73b8 	sub.w	r3, r3, #368	; 0x170
    89d4:	681a      	ldr	r2, [r3, #0]
    89d6:	f507 538a 	add.w	r3, r7, #4416	; 0x1140
    89da:	f103 030c 	add.w	r3, r3, #12
    89de:	681b      	ldr	r3, [r3, #0]
    89e0:	fb92 f3f3 	sdiv	r3, r2, r3
    89e4:	f507 528b 	add.w	r2, r7, #4448	; 0x1160
    89e8:	f102 0208 	add.w	r2, r2, #8
    89ec:	6013      	str	r3, [r2, #0]
    89ee:	2300      	movs	r3, #0
    89f0:	f507 528b 	add.w	r2, r7, #4448	; 0x1160
    89f4:	f102 0210 	add.w	r2, r2, #16
    89f8:	6013      	str	r3, [r2, #0]
    89fa:	2300      	movs	r3, #0
    89fc:	f507 528b 	add.w	r2, r7, #4448	; 0x1160
    8a00:	f102 0214 	add.w	r2, r2, #20
    8a04:	6013      	str	r3, [r2, #0]
    8a06:	e07c      	b.n	8b02 <WikiSort+0x21e>
    8a08:	f507 538b 	add.w	r3, r7, #4448	; 0x1160
    8a0c:	f103 0310 	add.w	r3, r3, #16
    8a10:	681b      	ldr	r3, [r3, #0]
    8a12:	f507 5289 	add.w	r2, r7, #4384	; 0x1120
    8a16:	f102 0214 	add.w	r2, r2, #20
    8a1a:	6013      	str	r3, [r2, #0]
    8a1c:	f507 538b 	add.w	r3, r7, #4448	; 0x1160
    8a20:	f103 0310 	add.w	r3, r3, #16
    8a24:	681a      	ldr	r2, [r3, #0]
    8a26:	f507 538b 	add.w	r3, r7, #4448	; 0x1160
    8a2a:	f103 0308 	add.w	r3, r3, #8
    8a2e:	681b      	ldr	r3, [r3, #0]
    8a30:	4413      	add	r3, r2
    8a32:	f507 528b 	add.w	r2, r7, #4448	; 0x1160
    8a36:	f102 0210 	add.w	r2, r2, #16
    8a3a:	6013      	str	r3, [r2, #0]
    8a3c:	f507 538b 	add.w	r3, r7, #4448	; 0x1160
    8a40:	f103 0314 	add.w	r3, r3, #20
    8a44:	681a      	ldr	r2, [r3, #0]
    8a46:	f507 538b 	add.w	r3, r7, #4448	; 0x1160
    8a4a:	f103 030c 	add.w	r3, r3, #12
    8a4e:	681b      	ldr	r3, [r3, #0]
    8a50:	4413      	add	r3, r2
    8a52:	f507 528b 	add.w	r2, r7, #4448	; 0x1160
    8a56:	f102 0214 	add.w	r2, r2, #20
    8a5a:	6013      	str	r3, [r2, #0]
    8a5c:	f507 538b 	add.w	r3, r7, #4448	; 0x1160
    8a60:	f103 0314 	add.w	r3, r3, #20
    8a64:	681a      	ldr	r2, [r3, #0]
    8a66:	f507 538a 	add.w	r3, r7, #4416	; 0x1140
    8a6a:	f103 030c 	add.w	r3, r3, #12
    8a6e:	681b      	ldr	r3, [r3, #0]
    8a70:	429a      	cmp	r2, r3
    8a72:	db1a      	blt.n	8aaa <WikiSort+0x1c6>
    8a74:	f507 538b 	add.w	r3, r7, #4448	; 0x1160
    8a78:	f103 0314 	add.w	r3, r3, #20
    8a7c:	681a      	ldr	r2, [r3, #0]
    8a7e:	f507 538a 	add.w	r3, r7, #4416	; 0x1140
    8a82:	f103 030c 	add.w	r3, r3, #12
    8a86:	681b      	ldr	r3, [r3, #0]
    8a88:	1ad3      	subs	r3, r2, r3
    8a8a:	f507 528b 	add.w	r2, r7, #4448	; 0x1160
    8a8e:	f102 0214 	add.w	r2, r2, #20
    8a92:	6013      	str	r3, [r2, #0]
    8a94:	f507 538b 	add.w	r3, r7, #4448	; 0x1160
    8a98:	f103 0310 	add.w	r3, r3, #16
    8a9c:	681b      	ldr	r3, [r3, #0]
    8a9e:	3301      	adds	r3, #1
    8aa0:	f507 528b 	add.w	r2, r7, #4448	; 0x1160
    8aa4:	f102 0210 	add.w	r2, r2, #16
    8aa8:	6013      	str	r3, [r2, #0]
    8aaa:	f507 538b 	add.w	r3, r7, #4448	; 0x1160
    8aae:	f103 0310 	add.w	r3, r3, #16
    8ab2:	681b      	ldr	r3, [r3, #0]
    8ab4:	f507 5289 	add.w	r2, r7, #4384	; 0x1120
    8ab8:	f102 020c 	add.w	r2, r2, #12
    8abc:	6013      	str	r3, [r2, #0]
    8abe:	f507 5385 	add.w	r3, r7, #4256	; 0x10a0
    8ac2:	f103 0310 	add.w	r3, r3, #16
    8ac6:	f507 5289 	add.w	r2, r7, #4384	; 0x1120
    8aca:	f102 020c 	add.w	r2, r2, #12
    8ace:	6812      	ldr	r2, [r2, #0]
    8ad0:	f507 5189 	add.w	r1, r7, #4384	; 0x1120
    8ad4:	f101 0114 	add.w	r1, r1, #20
    8ad8:	6809      	ldr	r1, [r1, #0]
    8ada:	4618      	mov	r0, r3
    8adc:	f7ff fb45 	bl	816a <MakeRange>
    8ae0:	f507 73c0 	add.w	r3, r7, #384	; 0x180
    8ae4:	f5a3 73ba 	sub.w	r3, r3, #372	; 0x174
    8ae8:	f507 72c0 	add.w	r2, r7, #384	; 0x180
    8aec:	f5a2 70b6 	sub.w	r0, r2, #364	; 0x16c
    8af0:	681b      	ldr	r3, [r3, #0]
    8af2:	f507 5285 	add.w	r2, r7, #4256	; 0x10a0
    8af6:	f102 0210 	add.w	r2, r2, #16
    8afa:	ca06      	ldmia	r2, {r1, r2}
    8afc:	6800      	ldr	r0, [r0, #0]
    8afe:	f7ff fc0d 	bl	831c <InsertionSort>
    8b02:	f507 73c0 	add.w	r3, r7, #384	; 0x180
    8b06:	f5a3 73b8 	sub.w	r3, r3, #368	; 0x170
    8b0a:	f507 528b 	add.w	r2, r7, #4448	; 0x1160
    8b0e:	f102 0210 	add.w	r2, r2, #16
    8b12:	6812      	ldr	r2, [r2, #0]
    8b14:	681b      	ldr	r3, [r3, #0]
    8b16:	429a      	cmp	r2, r3
    8b18:	f6ff af76 	blt.w	8a08 <WikiSort+0x124>
    8b1c:	2310      	movs	r3, #16
    8b1e:	f507 528b 	add.w	r2, r7, #4448	; 0x1160
    8b22:	f102 0218 	add.w	r2, r2, #24
    8b26:	6013      	str	r3, [r2, #0]
    8b28:	f002 bae8 	b.w	b0fc <WikiSort+0x2818>
    8b2c:	f507 538b 	add.w	r3, r7, #4448	; 0x1160
    8b30:	f103 0308 	add.w	r3, r3, #8
    8b34:	6818      	ldr	r0, [r3, #0]
    8b36:	f002 ff71 	bl	ba1c <__aeabi_i2d>
    8b3a:	4602      	mov	r2, r0
    8b3c:	460b      	mov	r3, r1
    8b3e:	4610      	mov	r0, r2
    8b40:	4619      	mov	r1, r3
    8b42:	f002 fd2b 	bl	b59c <sqrt>
    8b46:	4602      	mov	r2, r0
    8b48:	460b      	mov	r3, r1
    8b4a:	4610      	mov	r0, r2
    8b4c:	4619      	mov	r1, r3
    8b4e:	f003 fa7f 	bl	c050 <__aeabi_d2iz>
    8b52:	4603      	mov	r3, r0
    8b54:	f507 528a 	add.w	r2, r7, #4416	; 0x1140
    8b58:	f102 0208 	add.w	r2, r2, #8
    8b5c:	6013      	str	r3, [r2, #0]
    8b5e:	f507 538b 	add.w	r3, r7, #4448	; 0x1160
    8b62:	f103 0308 	add.w	r3, r3, #8
    8b66:	681a      	ldr	r2, [r3, #0]
    8b68:	f507 538a 	add.w	r3, r7, #4416	; 0x1140
    8b6c:	f103 0308 	add.w	r3, r3, #8
    8b70:	681b      	ldr	r3, [r3, #0]
    8b72:	fb92 f3f3 	sdiv	r3, r2, r3
    8b76:	3301      	adds	r3, #1
    8b78:	f507 528a 	add.w	r2, r7, #4416	; 0x1140
    8b7c:	f102 0204 	add.w	r2, r2, #4
    8b80:	6013      	str	r3, [r2, #0]
    8b82:	f507 73c0 	add.w	r3, r7, #384	; 0x180
    8b86:	3be0      	subs	r3, #224	; 0xe0
    8b88:	2200      	movs	r2, #0
    8b8a:	2100      	movs	r1, #0
    8b8c:	4618      	mov	r0, r3
    8b8e:	f7ff faec 	bl	816a <MakeRange>
    8b92:	f507 73c0 	add.w	r3, r7, #384	; 0x180
    8b96:	3be8      	subs	r3, #232	; 0xe8
    8b98:	2200      	movs	r2, #0
    8b9a:	2100      	movs	r1, #0
    8b9c:	4618      	mov	r0, r3
    8b9e:	f7ff fae4 	bl	816a <MakeRange>
    8ba2:	f507 73c0 	add.w	r3, r7, #384	; 0x180
    8ba6:	3bf0      	subs	r3, #240	; 0xf0
    8ba8:	2200      	movs	r2, #0
    8baa:	2100      	movs	r1, #0
    8bac:	4618      	mov	r0, r3
    8bae:	f7ff fadc 	bl	816a <MakeRange>
    8bb2:	f507 73c0 	add.w	r3, r7, #384	; 0x180
    8bb6:	3bf8      	subs	r3, #248	; 0xf8
    8bb8:	2200      	movs	r2, #0
    8bba:	2100      	movs	r1, #0
    8bbc:	4618      	mov	r0, r3
    8bbe:	f7ff fad4 	bl	816a <MakeRange>
    8bc2:	2300      	movs	r3, #0
    8bc4:	f507 528b 	add.w	r2, r7, #4448	; 0x1160
    8bc8:	f102 0214 	add.w	r2, r2, #20
    8bcc:	6013      	str	r3, [r2, #0]
    8bce:	f507 538b 	add.w	r3, r7, #4448	; 0x1160
    8bd2:	f103 0314 	add.w	r3, r3, #20
    8bd6:	681b      	ldr	r3, [r3, #0]
    8bd8:	f507 528b 	add.w	r2, r7, #4448	; 0x1160
    8bdc:	f102 0210 	add.w	r2, r2, #16
    8be0:	6013      	str	r3, [r2, #0]
    8be2:	f002 b8b3 	b.w	ad4c <WikiSort+0x2468>
    8be6:	f507 538b 	add.w	r3, r7, #4448	; 0x1160
    8bea:	f103 0310 	add.w	r3, r3, #16
    8bee:	681b      	ldr	r3, [r3, #0]
    8bf0:	f507 5289 	add.w	r2, r7, #4384	; 0x1120
    8bf4:	f102 0214 	add.w	r2, r2, #20
    8bf8:	6013      	str	r3, [r2, #0]
    8bfa:	f507 538b 	add.w	r3, r7, #4448	; 0x1160
    8bfe:	f103 0310 	add.w	r3, r3, #16
    8c02:	681a      	ldr	r2, [r3, #0]
    8c04:	f507 538b 	add.w	r3, r7, #4448	; 0x1160
    8c08:	f103 0308 	add.w	r3, r3, #8
    8c0c:	681b      	ldr	r3, [r3, #0]
    8c0e:	4413      	add	r3, r2
    8c10:	f507 528b 	add.w	r2, r7, #4448	; 0x1160
    8c14:	f102 0210 	add.w	r2, r2, #16
    8c18:	6013      	str	r3, [r2, #0]
    8c1a:	f507 538b 	add.w	r3, r7, #4448	; 0x1160
    8c1e:	f103 0314 	add.w	r3, r3, #20
    8c22:	681a      	ldr	r2, [r3, #0]
    8c24:	f507 538b 	add.w	r3, r7, #4448	; 0x1160
    8c28:	f103 030c 	add.w	r3, r3, #12
    8c2c:	681b      	ldr	r3, [r3, #0]
    8c2e:	4413      	add	r3, r2
    8c30:	f507 528b 	add.w	r2, r7, #4448	; 0x1160
    8c34:	f102 0214 	add.w	r2, r2, #20
    8c38:	6013      	str	r3, [r2, #0]
    8c3a:	f507 538b 	add.w	r3, r7, #4448	; 0x1160
    8c3e:	f103 0314 	add.w	r3, r3, #20
    8c42:	681a      	ldr	r2, [r3, #0]
    8c44:	f507 538a 	add.w	r3, r7, #4416	; 0x1140
    8c48:	f103 030c 	add.w	r3, r3, #12
    8c4c:	681b      	ldr	r3, [r3, #0]
    8c4e:	429a      	cmp	r2, r3
    8c50:	db1a      	blt.n	8c88 <WikiSort+0x3a4>
    8c52:	f507 538b 	add.w	r3, r7, #4448	; 0x1160
    8c56:	f103 0314 	add.w	r3, r3, #20
    8c5a:	681a      	ldr	r2, [r3, #0]
    8c5c:	f507 538a 	add.w	r3, r7, #4416	; 0x1140
    8c60:	f103 030c 	add.w	r3, r3, #12
    8c64:	681b      	ldr	r3, [r3, #0]
    8c66:	1ad3      	subs	r3, r2, r3
    8c68:	f507 528b 	add.w	r2, r7, #4448	; 0x1160
    8c6c:	f102 0214 	add.w	r2, r2, #20
    8c70:	6013      	str	r3, [r2, #0]
    8c72:	f507 538b 	add.w	r3, r7, #4448	; 0x1160
    8c76:	f103 0310 	add.w	r3, r3, #16
    8c7a:	681b      	ldr	r3, [r3, #0]
    8c7c:	3301      	adds	r3, #1
    8c7e:	f507 528b 	add.w	r2, r7, #4448	; 0x1160
    8c82:	f102 0210 	add.w	r2, r2, #16
    8c86:	6013      	str	r3, [r2, #0]
    8c88:	f507 538b 	add.w	r3, r7, #4448	; 0x1160
    8c8c:	f103 0310 	add.w	r3, r3, #16
    8c90:	681b      	ldr	r3, [r3, #0]
    8c92:	f507 5289 	add.w	r2, r7, #4384	; 0x1120
    8c96:	f102 0210 	add.w	r2, r2, #16
    8c9a:	6013      	str	r3, [r2, #0]
    8c9c:	f507 538b 	add.w	r3, r7, #4448	; 0x1160
    8ca0:	f103 0310 	add.w	r3, r3, #16
    8ca4:	681a      	ldr	r2, [r3, #0]
    8ca6:	f507 538b 	add.w	r3, r7, #4448	; 0x1160
    8caa:	f103 0308 	add.w	r3, r3, #8
    8cae:	681b      	ldr	r3, [r3, #0]
    8cb0:	4413      	add	r3, r2
    8cb2:	f507 528b 	add.w	r2, r7, #4448	; 0x1160
    8cb6:	f102 0210 	add.w	r2, r2, #16
    8cba:	6013      	str	r3, [r2, #0]
    8cbc:	f507 538b 	add.w	r3, r7, #4448	; 0x1160
    8cc0:	f103 0314 	add.w	r3, r3, #20
    8cc4:	681a      	ldr	r2, [r3, #0]
    8cc6:	f507 538b 	add.w	r3, r7, #4448	; 0x1160
    8cca:	f103 030c 	add.w	r3, r3, #12
    8cce:	681b      	ldr	r3, [r3, #0]
    8cd0:	4413      	add	r3, r2
    8cd2:	f507 528b 	add.w	r2, r7, #4448	; 0x1160
    8cd6:	f102 0214 	add.w	r2, r2, #20
    8cda:	6013      	str	r3, [r2, #0]
    8cdc:	f507 538b 	add.w	r3, r7, #4448	; 0x1160
    8ce0:	f103 0314 	add.w	r3, r3, #20
    8ce4:	681a      	ldr	r2, [r3, #0]
    8ce6:	f507 538a 	add.w	r3, r7, #4416	; 0x1140
    8cea:	f103 030c 	add.w	r3, r3, #12
    8cee:	681b      	ldr	r3, [r3, #0]
    8cf0:	429a      	cmp	r2, r3
    8cf2:	db1a      	blt.n	8d2a <WikiSort+0x446>
    8cf4:	f507 538b 	add.w	r3, r7, #4448	; 0x1160
    8cf8:	f103 0314 	add.w	r3, r3, #20
    8cfc:	681a      	ldr	r2, [r3, #0]
    8cfe:	f507 538a 	add.w	r3, r7, #4416	; 0x1140
    8d02:	f103 030c 	add.w	r3, r3, #12
    8d06:	681b      	ldr	r3, [r3, #0]
    8d08:	1ad3      	subs	r3, r2, r3
    8d0a:	f507 528b 	add.w	r2, r7, #4448	; 0x1160
    8d0e:	f102 0214 	add.w	r2, r2, #20
    8d12:	6013      	str	r3, [r2, #0]
    8d14:	f507 538b 	add.w	r3, r7, #4448	; 0x1160
    8d18:	f103 0310 	add.w	r3, r3, #16
    8d1c:	681b      	ldr	r3, [r3, #0]
    8d1e:	3301      	adds	r3, #1
    8d20:	f507 528b 	add.w	r2, r7, #4448	; 0x1160
    8d24:	f102 0210 	add.w	r2, r2, #16
    8d28:	6013      	str	r3, [r2, #0]
    8d2a:	f507 538b 	add.w	r3, r7, #4448	; 0x1160
    8d2e:	f103 0310 	add.w	r3, r3, #16
    8d32:	681b      	ldr	r3, [r3, #0]
    8d34:	f507 5289 	add.w	r2, r7, #4384	; 0x1120
    8d38:	f102 020c 	add.w	r2, r2, #12
    8d3c:	6013      	str	r3, [r2, #0]
    8d3e:	f507 5389 	add.w	r3, r7, #4384	; 0x1120
    8d42:	f103 030c 	add.w	r3, r3, #12
    8d46:	681b      	ldr	r3, [r3, #0]
    8d48:	f103 5300 	add.w	r3, r3, #536870912	; 0x20000000
    8d4c:	3b01      	subs	r3, #1
    8d4e:	00db      	lsls	r3, r3, #3
    8d50:	f507 72c0 	add.w	r2, r7, #384	; 0x180
    8d54:	f5a2 72b6 	sub.w	r2, r2, #364	; 0x16c
    8d58:	6812      	ldr	r2, [r2, #0]
    8d5a:	18d1      	adds	r1, r2, r3
    8d5c:	f507 5389 	add.w	r3, r7, #4384	; 0x1120
    8d60:	f103 0314 	add.w	r3, r3, #20
    8d64:	681b      	ldr	r3, [r3, #0]
    8d66:	00db      	lsls	r3, r3, #3
    8d68:	f507 72c0 	add.w	r2, r7, #384	; 0x180
    8d6c:	f5a2 72b6 	sub.w	r2, r2, #364	; 0x16c
    8d70:	6812      	ldr	r2, [r2, #0]
    8d72:	4413      	add	r3, r2
    8d74:	f507 72c0 	add.w	r2, r7, #384	; 0x180
    8d78:	f5a2 72ba 	sub.w	r2, r2, #372	; 0x174
    8d7c:	6814      	ldr	r4, [r2, #0]
    8d7e:	cb0c      	ldmia	r3, {r2, r3}
    8d80:	c903      	ldmia	r1, {r0, r1}
    8d82:	47a0      	blx	r4
    8d84:	4603      	mov	r3, r0
    8d86:	2b00      	cmp	r3, #0
    8d88:	d034      	beq.n	8df4 <WikiSort+0x510>
    8d8a:	f507 5389 	add.w	r3, r7, #4384	; 0x1120
    8d8e:	f103 0310 	add.w	r3, r3, #16
    8d92:	681a      	ldr	r2, [r3, #0]
    8d94:	f507 5389 	add.w	r3, r7, #4384	; 0x1120
    8d98:	f103 0314 	add.w	r3, r3, #20
    8d9c:	681b      	ldr	r3, [r3, #0]
    8d9e:	1ad4      	subs	r4, r2, r3
    8da0:	f507 5385 	add.w	r3, r7, #4256	; 0x10a0
    8da4:	f103 0318 	add.w	r3, r3, #24
    8da8:	f507 5289 	add.w	r2, r7, #4384	; 0x1120
    8dac:	f102 020c 	add.w	r2, r2, #12
    8db0:	6812      	ldr	r2, [r2, #0]
    8db2:	f507 5189 	add.w	r1, r7, #4384	; 0x1120
    8db6:	f101 0114 	add.w	r1, r1, #20
    8dba:	6809      	ldr	r1, [r1, #0]
    8dbc:	4618      	mov	r0, r3
    8dbe:	f7ff f9d4 	bl	816a <MakeRange>
    8dc2:	f507 73c0 	add.w	r3, r7, #384	; 0x180
    8dc6:	f5a3 70b6 	sub.w	r0, r3, #364	; 0x16c
    8dca:	f507 538a 	add.w	r3, r7, #4416	; 0x1140
    8dce:	f103 0314 	add.w	r3, r3, #20
    8dd2:	681b      	ldr	r3, [r3, #0]
    8dd4:	9301      	str	r3, [sp, #4]
    8dd6:	f107 03c0 	add.w	r3, r7, #192	; 0xc0
    8dda:	3b18      	subs	r3, #24
    8ddc:	9300      	str	r3, [sp, #0]
    8dde:	f507 5385 	add.w	r3, r7, #4256	; 0x10a0
    8de2:	f103 0318 	add.w	r3, r3, #24
    8de6:	cb0c      	ldmia	r3, {r2, r3}
    8de8:	4621      	mov	r1, r4
    8dea:	6800      	ldr	r0, [r0, #0]
    8dec:	f7ff fb6b 	bl	84c6 <Rotate>
    8df0:	f001 bfac 	b.w	ad4c <WikiSort+0x2468>
    8df4:	f507 5389 	add.w	r3, r7, #4384	; 0x1120
    8df8:	f103 0310 	add.w	r3, r3, #16
    8dfc:	681b      	ldr	r3, [r3, #0]
    8dfe:	00db      	lsls	r3, r3, #3
    8e00:	f507 72c0 	add.w	r2, r7, #384	; 0x180
    8e04:	f5a2 72b6 	sub.w	r2, r2, #364	; 0x16c
    8e08:	6812      	ldr	r2, [r2, #0]
    8e0a:	18d1      	adds	r1, r2, r3
    8e0c:	f507 5389 	add.w	r3, r7, #4384	; 0x1120
    8e10:	f103 0310 	add.w	r3, r3, #16
    8e14:	681b      	ldr	r3, [r3, #0]
    8e16:	f103 5300 	add.w	r3, r3, #536870912	; 0x20000000
    8e1a:	3b01      	subs	r3, #1
    8e1c:	00db      	lsls	r3, r3, #3
    8e1e:	f507 72c0 	add.w	r2, r7, #384	; 0x180
    8e22:	f5a2 72b6 	sub.w	r2, r2, #364	; 0x16c
    8e26:	6812      	ldr	r2, [r2, #0]
    8e28:	4413      	add	r3, r2
    8e2a:	f507 72c0 	add.w	r2, r7, #384	; 0x180
    8e2e:	f5a2 72ba 	sub.w	r2, r2, #372	; 0x174
    8e32:	6814      	ldr	r4, [r2, #0]
    8e34:	cb0c      	ldmia	r3, {r2, r3}
    8e36:	c903      	ldmia	r1, {r0, r1}
    8e38:	47a0      	blx	r4
    8e3a:	4603      	mov	r3, r0
    8e3c:	2b00      	cmp	r3, #0
    8e3e:	f001 8785 	beq.w	ad4c <WikiSort+0x2468>
    8e42:	f507 73c0 	add.w	r3, r7, #384	; 0x180
    8e46:	f5a3 73a8 	sub.w	r3, r3, #336	; 0x150
    8e4a:	f507 5289 	add.w	r2, r7, #4384	; 0x1120
    8e4e:	f102 0210 	add.w	r2, r2, #16
    8e52:	6812      	ldr	r2, [r2, #0]
    8e54:	f507 5189 	add.w	r1, r7, #4384	; 0x1120
    8e58:	f101 0114 	add.w	r1, r1, #20
    8e5c:	6809      	ldr	r1, [r1, #0]
    8e5e:	4618      	mov	r0, r3
    8e60:	f7ff f983 	bl	816a <MakeRange>
    8e64:	f507 73c0 	add.w	r3, r7, #384	; 0x180
    8e68:	f5a3 73ac 	sub.w	r3, r3, #344	; 0x158
    8e6c:	f507 5289 	add.w	r2, r7, #4384	; 0x1120
    8e70:	f102 020c 	add.w	r2, r2, #12
    8e74:	6812      	ldr	r2, [r2, #0]
    8e76:	f507 5189 	add.w	r1, r7, #4384	; 0x1120
    8e7a:	f101 0110 	add.w	r1, r1, #16
    8e7e:	6809      	ldr	r1, [r1, #0]
    8e80:	4618      	mov	r0, r3
    8e82:	f7ff f972 	bl	816a <MakeRange>
    8e86:	f507 73c0 	add.w	r3, r7, #384	; 0x180
    8e8a:	f5a3 73a8 	sub.w	r3, r3, #336	; 0x150
    8e8e:	e893 0003 	ldmia.w	r3, {r0, r1}
    8e92:	f7ff f95c 	bl	814e <Range_length>
    8e96:	4602      	mov	r2, r0
    8e98:	f507 538a 	add.w	r3, r7, #4416	; 0x1140
    8e9c:	f103 0314 	add.w	r3, r3, #20
    8ea0:	681b      	ldr	r3, [r3, #0]
    8ea2:	4293      	cmp	r3, r2
    8ea4:	db4e      	blt.n	8f44 <WikiSort+0x660>
    8ea6:	f507 73c0 	add.w	r3, r7, #384	; 0x180
    8eaa:	f5a3 73a8 	sub.w	r3, r3, #336	; 0x150
    8eae:	681b      	ldr	r3, [r3, #0]
    8eb0:	00db      	lsls	r3, r3, #3
    8eb2:	f507 72c0 	add.w	r2, r7, #384	; 0x180
    8eb6:	f5a2 72b6 	sub.w	r2, r2, #364	; 0x16c
    8eba:	6812      	ldr	r2, [r2, #0]
    8ebc:	18d4      	adds	r4, r2, r3
    8ebe:	f507 73c0 	add.w	r3, r7, #384	; 0x180
    8ec2:	f5a3 73a8 	sub.w	r3, r3, #336	; 0x150
    8ec6:	e893 0003 	ldmia.w	r3, {r0, r1}
    8eca:	f7ff f940 	bl	814e <Range_length>
    8ece:	4603      	mov	r3, r0
    8ed0:	00da      	lsls	r2, r3, #3
    8ed2:	f107 03c0 	add.w	r3, r7, #192	; 0xc0
    8ed6:	3b18      	subs	r3, #24
    8ed8:	4621      	mov	r1, r4
    8eda:	4618      	mov	r0, r3
    8edc:	f003 f93e 	bl	c15c <memcpy>
    8ee0:	f507 5386 	add.w	r3, r7, #4288	; 0x10c0
    8ee4:	2200      	movs	r2, #0
    8ee6:	2100      	movs	r1, #0
    8ee8:	4618      	mov	r0, r3
    8eea:	f7ff f93e 	bl	816a <MakeRange>
    8eee:	f507 73c0 	add.w	r3, r7, #384	; 0x180
    8ef2:	f5a3 72a8 	sub.w	r2, r3, #336	; 0x150
    8ef6:	f507 73c0 	add.w	r3, r7, #384	; 0x180
    8efa:	f5a3 74b6 	sub.w	r4, r3, #364	; 0x16c
    8efe:	f507 538a 	add.w	r3, r7, #4416	; 0x1140
    8f02:	f103 0314 	add.w	r3, r3, #20
    8f06:	681b      	ldr	r3, [r3, #0]
    8f08:	9305      	str	r3, [sp, #20]
    8f0a:	f107 03c0 	add.w	r3, r7, #192	; 0xc0
    8f0e:	3b18      	subs	r3, #24
    8f10:	9304      	str	r3, [sp, #16]
    8f12:	f507 73c0 	add.w	r3, r7, #384	; 0x180
    8f16:	f5a3 73ba 	sub.w	r3, r3, #372	; 0x174
    8f1a:	681b      	ldr	r3, [r3, #0]
    8f1c:	9303      	str	r3, [sp, #12]
    8f1e:	f507 73c0 	add.w	r3, r7, #384	; 0x180
    8f22:	f5a3 71ac 	sub.w	r1, r3, #344	; 0x158
    8f26:	ab01      	add	r3, sp, #4
    8f28:	c903      	ldmia	r1, {r0, r1}
    8f2a:	e883 0003 	stmia.w	r3, {r0, r1}
    8f2e:	6853      	ldr	r3, [r2, #4]
    8f30:	9300      	str	r3, [sp, #0]
    8f32:	6813      	ldr	r3, [r2, #0]
    8f34:	f507 5286 	add.w	r2, r7, #4288	; 0x10c0
    8f38:	ca06      	ldmia	r2, {r1, r2}
    8f3a:	6820      	ldr	r0, [r4, #0]
    8f3c:	f7ff fbac 	bl	8698 <WikiMerge>
    8f40:	f001 bf04 	b.w	ad4c <WikiSort+0x2468>
    8f44:	f507 73c0 	add.w	r3, r7, #384	; 0x180
    8f48:	3be0      	subs	r3, #224	; 0xe0
    8f4a:	e893 0003 	ldmia.w	r3, {r0, r1}
    8f4e:	f7ff f8fe 	bl	814e <Range_length>
    8f52:	4603      	mov	r3, r0
    8f54:	2b00      	cmp	r3, #0
    8f56:	dd39      	ble.n	8fcc <WikiSort+0x6e8>
    8f58:	f507 73c0 	add.w	r3, r7, #384	; 0x180
    8f5c:	f5a3 73a8 	sub.w	r3, r3, #336	; 0x150
    8f60:	6819      	ldr	r1, [r3, #0]
    8f62:	f507 73c0 	add.w	r3, r7, #384	; 0x180
    8f66:	f5a3 73a8 	sub.w	r3, r3, #336	; 0x150
    8f6a:	681a      	ldr	r2, [r3, #0]
    8f6c:	f507 73c0 	add.w	r3, r7, #384	; 0x180
    8f70:	f5a3 7380 	sub.w	r3, r3, #256	; 0x100
    8f74:	4618      	mov	r0, r3
    8f76:	f7ff f8f8 	bl	816a <MakeRange>
    8f7a:	f507 73c0 	add.w	r3, r7, #384	; 0x180
    8f7e:	f5a3 73ac 	sub.w	r3, r3, #344	; 0x158
    8f82:	6859      	ldr	r1, [r3, #4]
    8f84:	f507 73c0 	add.w	r3, r7, #384	; 0x180
    8f88:	f5a3 73ac 	sub.w	r3, r3, #344	; 0x158
    8f8c:	685a      	ldr	r2, [r3, #4]
    8f8e:	f507 73c0 	add.w	r3, r7, #384	; 0x180
    8f92:	f5a3 7384 	sub.w	r3, r3, #264	; 0x108
    8f96:	4618      	mov	r0, r3
    8f98:	f7ff f8e7 	bl	816a <MakeRange>
    8f9c:	f507 73c0 	add.w	r3, r7, #384	; 0x180
    8fa0:	f5a3 7288 	sub.w	r2, r3, #272	; 0x110
    8fa4:	f507 73c0 	add.w	r3, r7, #384	; 0x180
    8fa8:	3be0      	subs	r3, #224	; 0xe0
    8faa:	e893 0003 	ldmia.w	r3, {r0, r1}
    8fae:	e882 0003 	stmia.w	r2, {r0, r1}
    8fb2:	f507 73c0 	add.w	r3, r7, #384	; 0x180
    8fb6:	f5a3 728c 	sub.w	r2, r3, #280	; 0x118
    8fba:	f507 73c0 	add.w	r3, r7, #384	; 0x180
    8fbe:	3be8      	subs	r3, #232	; 0xe8
    8fc0:	e893 0003 	ldmia.w	r3, {r0, r1}
    8fc4:	e882 0003 	stmia.w	r2, {r0, r1}
    8fc8:	f001 b96c 	b.w	a2a4 <WikiSort+0x19c0>
    8fcc:	2301      	movs	r3, #1
    8fce:	f507 528a 	add.w	r2, r7, #4416	; 0x1140
    8fd2:	f102 0218 	add.w	r2, r2, #24
    8fd6:	6013      	str	r3, [r2, #0]
    8fd8:	f507 73c0 	add.w	r3, r7, #384	; 0x180
    8fdc:	f5a3 73a8 	sub.w	r3, r3, #336	; 0x150
    8fe0:	681b      	ldr	r3, [r3, #0]
    8fe2:	1c5a      	adds	r2, r3, #1
    8fe4:	f507 73c0 	add.w	r3, r7, #384	; 0x180
    8fe8:	f5a3 7388 	sub.w	r3, r3, #272	; 0x110
    8fec:	601a      	str	r2, [r3, #0]
    8fee:	e06d      	b.n	90cc <WikiSort+0x7e8>
    8ff0:	f507 73c0 	add.w	r3, r7, #384	; 0x180
    8ff4:	f5a3 7388 	sub.w	r3, r3, #272	; 0x110
    8ff8:	681b      	ldr	r3, [r3, #0]
    8ffa:	f103 5300 	add.w	r3, r3, #536870912	; 0x20000000
    8ffe:	3b01      	subs	r3, #1
    9000:	00db      	lsls	r3, r3, #3
    9002:	f507 72c0 	add.w	r2, r7, #384	; 0x180
    9006:	f5a2 72b6 	sub.w	r2, r2, #364	; 0x16c
    900a:	6812      	ldr	r2, [r2, #0]
    900c:	18d1      	adds	r1, r2, r3
    900e:	f507 73c0 	add.w	r3, r7, #384	; 0x180
    9012:	f5a3 7388 	sub.w	r3, r3, #272	; 0x110
    9016:	681b      	ldr	r3, [r3, #0]
    9018:	00db      	lsls	r3, r3, #3
    901a:	f507 72c0 	add.w	r2, r7, #384	; 0x180
    901e:	f5a2 72b6 	sub.w	r2, r2, #364	; 0x16c
    9022:	6812      	ldr	r2, [r2, #0]
    9024:	4413      	add	r3, r2
    9026:	f507 72c0 	add.w	r2, r7, #384	; 0x180
    902a:	f5a2 72ba 	sub.w	r2, r2, #372	; 0x174
    902e:	6814      	ldr	r4, [r2, #0]
    9030:	cb0c      	ldmia	r3, {r2, r3}
    9032:	c903      	ldmia	r1, {r0, r1}
    9034:	47a0      	blx	r4
    9036:	4603      	mov	r3, r0
    9038:	2b00      	cmp	r3, #0
    903a:	d125      	bne.n	9088 <WikiSort+0x7a4>
    903c:	f507 73c0 	add.w	r3, r7, #384	; 0x180
    9040:	f5a3 7388 	sub.w	r3, r3, #272	; 0x110
    9044:	681b      	ldr	r3, [r3, #0]
    9046:	00db      	lsls	r3, r3, #3
    9048:	f507 72c0 	add.w	r2, r7, #384	; 0x180
    904c:	f5a2 72b6 	sub.w	r2, r2, #364	; 0x16c
    9050:	6812      	ldr	r2, [r2, #0]
    9052:	18d1      	adds	r1, r2, r3
    9054:	f507 73c0 	add.w	r3, r7, #384	; 0x180
    9058:	f5a3 7388 	sub.w	r3, r3, #272	; 0x110
    905c:	681b      	ldr	r3, [r3, #0]
    905e:	f103 5300 	add.w	r3, r3, #536870912	; 0x20000000
    9062:	3b01      	subs	r3, #1
    9064:	00db      	lsls	r3, r3, #3
    9066:	f507 72c0 	add.w	r2, r7, #384	; 0x180
    906a:	f5a2 72b6 	sub.w	r2, r2, #364	; 0x16c
    906e:	6812      	ldr	r2, [r2, #0]
    9070:	4413      	add	r3, r2
    9072:	f507 72c0 	add.w	r2, r7, #384	; 0x180
    9076:	f5a2 72ba 	sub.w	r2, r2, #372	; 0x174
    907a:	6814      	ldr	r4, [r2, #0]
    907c:	cb0c      	ldmia	r3, {r2, r3}
    907e:	c903      	ldmia	r1, {r0, r1}
    9080:	47a0      	blx	r4
    9082:	4603      	mov	r3, r0
    9084:	2b00      	cmp	r3, #0
    9086:	d016      	beq.n	90b6 <WikiSort+0x7d2>
    9088:	f507 538a 	add.w	r3, r7, #4416	; 0x1140
    908c:	f103 0318 	add.w	r3, r3, #24
    9090:	681b      	ldr	r3, [r3, #0]
    9092:	3301      	adds	r3, #1
    9094:	f507 528a 	add.w	r2, r7, #4416	; 0x1140
    9098:	f102 0218 	add.w	r2, r2, #24
    909c:	6013      	str	r3, [r2, #0]
    909e:	f507 538a 	add.w	r3, r7, #4416	; 0x1140
    90a2:	f103 0318 	add.w	r3, r3, #24
    90a6:	681a      	ldr	r2, [r3, #0]
    90a8:	f507 538a 	add.w	r3, r7, #4416	; 0x1140
    90ac:	f103 0304 	add.w	r3, r3, #4
    90b0:	681b      	ldr	r3, [r3, #0]
    90b2:	429a      	cmp	r2, r3
    90b4:	d017      	beq.n	90e6 <WikiSort+0x802>
    90b6:	f507 73c0 	add.w	r3, r7, #384	; 0x180
    90ba:	f5a3 7388 	sub.w	r3, r3, #272	; 0x110
    90be:	681b      	ldr	r3, [r3, #0]
    90c0:	1c5a      	adds	r2, r3, #1
    90c2:	f507 73c0 	add.w	r3, r7, #384	; 0x180
    90c6:	f5a3 7388 	sub.w	r3, r3, #272	; 0x110
    90ca:	601a      	str	r2, [r3, #0]
    90cc:	f507 73c0 	add.w	r3, r7, #384	; 0x180
    90d0:	f5a3 7388 	sub.w	r3, r3, #272	; 0x110
    90d4:	681a      	ldr	r2, [r3, #0]
    90d6:	f507 73c0 	add.w	r3, r7, #384	; 0x180
    90da:	f5a3 73a8 	sub.w	r3, r3, #336	; 0x150
    90de:	685b      	ldr	r3, [r3, #4]
    90e0:	429a      	cmp	r2, r3
    90e2:	db85      	blt.n	8ff0 <WikiSort+0x70c>
    90e4:	e000      	b.n	90e8 <WikiSort+0x804>
    90e6:	bf00      	nop
    90e8:	f507 73c0 	add.w	r3, r7, #384	; 0x180
    90ec:	f5a3 7388 	sub.w	r3, r3, #272	; 0x110
    90f0:	681a      	ldr	r2, [r3, #0]
    90f2:	f507 538a 	add.w	r3, r7, #4416	; 0x1140
    90f6:	f103 0318 	add.w	r3, r3, #24
    90fa:	681b      	ldr	r3, [r3, #0]
    90fc:	441a      	add	r2, r3
    90fe:	f507 73c0 	add.w	r3, r7, #384	; 0x180
    9102:	f5a3 7388 	sub.w	r3, r3, #272	; 0x110
    9106:	605a      	str	r2, [r3, #4]
    9108:	f507 538a 	add.w	r3, r7, #4416	; 0x1140
    910c:	f103 0304 	add.w	r3, r3, #4
    9110:	681a      	ldr	r2, [r3, #0]
    9112:	f507 538a 	add.w	r3, r7, #4416	; 0x1140
    9116:	f103 0314 	add.w	r3, r3, #20
    911a:	681b      	ldr	r3, [r3, #0]
    911c:	429a      	cmp	r2, r3
    911e:	f300 819b 	bgt.w	9458 <WikiSort+0xb74>
    9122:	f507 73c0 	add.w	r3, r7, #384	; 0x180
    9126:	f5a3 73a8 	sub.w	r3, r3, #336	; 0x150
    912a:	6819      	ldr	r1, [r3, #0]
    912c:	f507 73c0 	add.w	r3, r7, #384	; 0x180
    9130:	f5a3 73a8 	sub.w	r3, r3, #336	; 0x150
    9134:	681a      	ldr	r2, [r3, #0]
    9136:	f507 73c0 	add.w	r3, r7, #384	; 0x180
    913a:	f5a3 738c 	sub.w	r3, r3, #280	; 0x118
    913e:	4618      	mov	r0, r3
    9140:	f7ff f813 	bl	816a <MakeRange>
    9144:	f507 73c0 	add.w	r3, r7, #384	; 0x180
    9148:	f5a3 7388 	sub.w	r3, r3, #272	; 0x110
    914c:	e893 0003 	ldmia.w	r3, {r0, r1}
    9150:	f7fe fffd 	bl	814e <Range_length>
    9154:	4602      	mov	r2, r0
    9156:	f507 538a 	add.w	r3, r7, #4416	; 0x1140
    915a:	f103 0304 	add.w	r3, r3, #4
    915e:	681b      	ldr	r3, [r3, #0]
    9160:	4293      	cmp	r3, r2
    9162:	d154      	bne.n	920e <WikiSort+0x92a>
    9164:	f507 73c0 	add.w	r3, r7, #384	; 0x180
    9168:	f5a3 7388 	sub.w	r3, r3, #272	; 0x110
    916c:	6819      	ldr	r1, [r3, #0]
    916e:	f507 73c0 	add.w	r3, r7, #384	; 0x180
    9172:	f5a3 7388 	sub.w	r3, r3, #272	; 0x110
    9176:	681a      	ldr	r2, [r3, #0]
    9178:	f507 538a 	add.w	r3, r7, #4416	; 0x1140
    917c:	f103 0304 	add.w	r3, r3, #4
    9180:	681b      	ldr	r3, [r3, #0]
    9182:	441a      	add	r2, r3
    9184:	f507 73c0 	add.w	r3, r7, #384	; 0x180
    9188:	f5a3 7480 	sub.w	r4, r3, #256	; 0x100
    918c:	463b      	mov	r3, r7
    918e:	4618      	mov	r0, r3
    9190:	f7fe ffeb 	bl	816a <MakeRange>
    9194:	f507 73c0 	add.w	r3, r7, #384	; 0x180
    9198:	f5a3 72c0 	sub.w	r2, r3, #384	; 0x180
    919c:	4623      	mov	r3, r4
    919e:	e892 0003 	ldmia.w	r2, {r0, r1}
    91a2:	e883 0003 	stmia.w	r3, {r0, r1}
    91a6:	f507 73c0 	add.w	r3, r7, #384	; 0x180
    91aa:	f5a3 73ac 	sub.w	r3, r3, #344	; 0x158
    91ae:	6859      	ldr	r1, [r3, #4]
    91b0:	f507 73c0 	add.w	r3, r7, #384	; 0x180
    91b4:	f5a3 73ac 	sub.w	r3, r3, #344	; 0x158
    91b8:	685a      	ldr	r2, [r3, #4]
    91ba:	f507 73c0 	add.w	r3, r7, #384	; 0x180
    91be:	f5a3 7484 	sub.w	r4, r3, #264	; 0x108
    91c2:	463b      	mov	r3, r7
    91c4:	4618      	mov	r0, r3
    91c6:	f7fe ffd0 	bl	816a <MakeRange>
    91ca:	f507 73c0 	add.w	r3, r7, #384	; 0x180
    91ce:	f5a3 72c0 	sub.w	r2, r3, #384	; 0x180
    91d2:	4623      	mov	r3, r4
    91d4:	e892 0003 	ldmia.w	r2, {r0, r1}
    91d8:	e883 0003 	stmia.w	r3, {r0, r1}
    91dc:	f507 73c0 	add.w	r3, r7, #384	; 0x180
    91e0:	f5a3 73a8 	sub.w	r3, r3, #336	; 0x150
    91e4:	6819      	ldr	r1, [r3, #0]
    91e6:	f507 73c0 	add.w	r3, r7, #384	; 0x180
    91ea:	f5a3 73a8 	sub.w	r3, r3, #336	; 0x150
    91ee:	681a      	ldr	r2, [r3, #0]
    91f0:	f507 538a 	add.w	r3, r7, #4416	; 0x1140
    91f4:	f103 0304 	add.w	r3, r3, #4
    91f8:	681b      	ldr	r3, [r3, #0]
    91fa:	441a      	add	r2, r3
    91fc:	f507 73c0 	add.w	r3, r7, #384	; 0x180
    9200:	f5a3 7388 	sub.w	r3, r3, #272	; 0x110
    9204:	4618      	mov	r0, r3
    9206:	f7fe ffb0 	bl	816a <MakeRange>
    920a:	f000 bd74 	b.w	9cf6 <WikiSort+0x1412>
    920e:	f507 73c0 	add.w	r3, r7, #384	; 0x180
    9212:	f5a3 7388 	sub.w	r3, r3, #272	; 0x110
    9216:	6819      	ldr	r1, [r3, #0]
    9218:	f507 73c0 	add.w	r3, r7, #384	; 0x180
    921c:	f5a3 7388 	sub.w	r3, r3, #272	; 0x110
    9220:	681a      	ldr	r2, [r3, #0]
    9222:	f507 73c0 	add.w	r3, r7, #384	; 0x180
    9226:	f5a3 7480 	sub.w	r4, r3, #256	; 0x100
    922a:	463b      	mov	r3, r7
    922c:	4618      	mov	r0, r3
    922e:	f7fe ff9c 	bl	816a <MakeRange>
    9232:	f507 73c0 	add.w	r3, r7, #384	; 0x180
    9236:	f5a3 72c0 	sub.w	r2, r3, #384	; 0x180
    923a:	4623      	mov	r3, r4
    923c:	e892 0003 	ldmia.w	r2, {r0, r1}
    9240:	e883 0003 	stmia.w	r3, {r0, r1}
    9244:	f507 73c0 	add.w	r3, r7, #384	; 0x180
    9248:	f5a3 73a8 	sub.w	r3, r3, #336	; 0x150
    924c:	6819      	ldr	r1, [r3, #0]
    924e:	f507 73c0 	add.w	r3, r7, #384	; 0x180
    9252:	f5a3 73a8 	sub.w	r3, r3, #336	; 0x150
    9256:	681a      	ldr	r2, [r3, #0]
    9258:	f507 73c0 	add.w	r3, r7, #384	; 0x180
    925c:	f5a3 7488 	sub.w	r4, r3, #272	; 0x110
    9260:	463b      	mov	r3, r7
    9262:	4618      	mov	r0, r3
    9264:	f7fe ff81 	bl	816a <MakeRange>
    9268:	f507 73c0 	add.w	r3, r7, #384	; 0x180
    926c:	f5a3 72c0 	sub.w	r2, r3, #384	; 0x180
    9270:	4623      	mov	r3, r4
    9272:	e892 0003 	ldmia.w	r2, {r0, r1}
    9276:	e883 0003 	stmia.w	r3, {r0, r1}
    927a:	2301      	movs	r3, #1
    927c:	f507 528a 	add.w	r2, r7, #4416	; 0x1140
    9280:	f102 0218 	add.w	r2, r2, #24
    9284:	6013      	str	r3, [r2, #0]
    9286:	f507 73c0 	add.w	r3, r7, #384	; 0x180
    928a:	f5a3 73ac 	sub.w	r3, r3, #344	; 0x158
    928e:	685b      	ldr	r3, [r3, #4]
    9290:	1e9a      	subs	r2, r3, #2
    9292:	f507 73c0 	add.w	r3, r7, #384	; 0x180
    9296:	f5a3 7388 	sub.w	r3, r3, #272	; 0x110
    929a:	601a      	str	r2, [r3, #0]
    929c:	e069      	b.n	9372 <WikiSort+0xa8e>
    929e:	f507 73c0 	add.w	r3, r7, #384	; 0x180
    92a2:	f5a3 7388 	sub.w	r3, r3, #272	; 0x110
    92a6:	681b      	ldr	r3, [r3, #0]
    92a8:	00db      	lsls	r3, r3, #3
    92aa:	f507 72c0 	add.w	r2, r7, #384	; 0x180
    92ae:	f5a2 72b6 	sub.w	r2, r2, #364	; 0x16c
    92b2:	6812      	ldr	r2, [r2, #0]
    92b4:	18d1      	adds	r1, r2, r3
    92b6:	f507 73c0 	add.w	r3, r7, #384	; 0x180
    92ba:	f5a3 7388 	sub.w	r3, r3, #272	; 0x110
    92be:	681b      	ldr	r3, [r3, #0]
    92c0:	3301      	adds	r3, #1
    92c2:	00db      	lsls	r3, r3, #3
    92c4:	f507 72c0 	add.w	r2, r7, #384	; 0x180
    92c8:	f5a2 72b6 	sub.w	r2, r2, #364	; 0x16c
    92cc:	6812      	ldr	r2, [r2, #0]
    92ce:	4413      	add	r3, r2
    92d0:	f507 72c0 	add.w	r2, r7, #384	; 0x180
    92d4:	f5a2 72ba 	sub.w	r2, r2, #372	; 0x174
    92d8:	6814      	ldr	r4, [r2, #0]
    92da:	cb0c      	ldmia	r3, {r2, r3}
    92dc:	c903      	ldmia	r1, {r0, r1}
    92de:	47a0      	blx	r4
    92e0:	4603      	mov	r3, r0
    92e2:	2b00      	cmp	r3, #0
    92e4:	d123      	bne.n	932e <WikiSort+0xa4a>
    92e6:	f507 73c0 	add.w	r3, r7, #384	; 0x180
    92ea:	f5a3 7388 	sub.w	r3, r3, #272	; 0x110
    92ee:	681b      	ldr	r3, [r3, #0]
    92f0:	3301      	adds	r3, #1
    92f2:	00db      	lsls	r3, r3, #3
    92f4:	f507 72c0 	add.w	r2, r7, #384	; 0x180
    92f8:	f5a2 72b6 	sub.w	r2, r2, #364	; 0x16c
    92fc:	6812      	ldr	r2, [r2, #0]
    92fe:	18d1      	adds	r1, r2, r3
    9300:	f507 73c0 	add.w	r3, r7, #384	; 0x180
    9304:	f5a3 7388 	sub.w	r3, r3, #272	; 0x110
    9308:	681b      	ldr	r3, [r3, #0]
    930a:	00db      	lsls	r3, r3, #3
    930c:	f507 72c0 	add.w	r2, r7, #384	; 0x180
    9310:	f5a2 72b6 	sub.w	r2, r2, #364	; 0x16c
    9314:	6812      	ldr	r2, [r2, #0]
    9316:	4413      	add	r3, r2
    9318:	f507 72c0 	add.w	r2, r7, #384	; 0x180
    931c:	f5a2 72ba 	sub.w	r2, r2, #372	; 0x174
    9320:	6814      	ldr	r4, [r2, #0]
    9322:	cb0c      	ldmia	r3, {r2, r3}
    9324:	c903      	ldmia	r1, {r0, r1}
    9326:	47a0      	blx	r4
    9328:	4603      	mov	r3, r0
    932a:	2b00      	cmp	r3, #0
    932c:	d016      	beq.n	935c <WikiSort+0xa78>
    932e:	f507 538a 	add.w	r3, r7, #4416	; 0x1140
    9332:	f103 0318 	add.w	r3, r3, #24
    9336:	681b      	ldr	r3, [r3, #0]
    9338:	3301      	adds	r3, #1
    933a:	f507 528a 	add.w	r2, r7, #4416	; 0x1140
    933e:	f102 0218 	add.w	r2, r2, #24
    9342:	6013      	str	r3, [r2, #0]
    9344:	f507 538a 	add.w	r3, r7, #4416	; 0x1140
    9348:	f103 0318 	add.w	r3, r3, #24
    934c:	681a      	ldr	r2, [r3, #0]
    934e:	f507 538a 	add.w	r3, r7, #4416	; 0x1140
    9352:	f103 0304 	add.w	r3, r3, #4
    9356:	681b      	ldr	r3, [r3, #0]
    9358:	429a      	cmp	r2, r3
    935a:	d017      	beq.n	938c <WikiSort+0xaa8>
    935c:	f507 73c0 	add.w	r3, r7, #384	; 0x180
    9360:	f5a3 7388 	sub.w	r3, r3, #272	; 0x110
    9364:	681b      	ldr	r3, [r3, #0]
    9366:	1e5a      	subs	r2, r3, #1
    9368:	f507 73c0 	add.w	r3, r7, #384	; 0x180
    936c:	f5a3 7388 	sub.w	r3, r3, #272	; 0x110
    9370:	601a      	str	r2, [r3, #0]
    9372:	f507 73c0 	add.w	r3, r7, #384	; 0x180
    9376:	f5a3 7388 	sub.w	r3, r3, #272	; 0x110
    937a:	681a      	ldr	r2, [r3, #0]
    937c:	f507 73c0 	add.w	r3, r7, #384	; 0x180
    9380:	f5a3 73ac 	sub.w	r3, r3, #344	; 0x158
    9384:	681b      	ldr	r3, [r3, #0]
    9386:	429a      	cmp	r2, r3
    9388:	da89      	bge.n	929e <WikiSort+0x9ba>
    938a:	e000      	b.n	938e <WikiSort+0xaaa>
    938c:	bf00      	nop
    938e:	f507 73c0 	add.w	r3, r7, #384	; 0x180
    9392:	f5a3 7388 	sub.w	r3, r3, #272	; 0x110
    9396:	681a      	ldr	r2, [r3, #0]
    9398:	f507 538a 	add.w	r3, r7, #4416	; 0x1140
    939c:	f103 0318 	add.w	r3, r3, #24
    93a0:	681b      	ldr	r3, [r3, #0]
    93a2:	441a      	add	r2, r3
    93a4:	f507 73c0 	add.w	r3, r7, #384	; 0x180
    93a8:	f5a3 7388 	sub.w	r3, r3, #272	; 0x110
    93ac:	605a      	str	r2, [r3, #4]
    93ae:	f507 73c0 	add.w	r3, r7, #384	; 0x180
    93b2:	f5a3 7388 	sub.w	r3, r3, #272	; 0x110
    93b6:	e893 0003 	ldmia.w	r3, {r0, r1}
    93ba:	f7fe fec8 	bl	814e <Range_length>
    93be:	4602      	mov	r2, r0
    93c0:	f507 538a 	add.w	r3, r7, #4416	; 0x1140
    93c4:	f103 0304 	add.w	r3, r3, #4
    93c8:	681b      	ldr	r3, [r3, #0]
    93ca:	4293      	cmp	r3, r2
    93cc:	f040 8493 	bne.w	9cf6 <WikiSort+0x1412>
    93d0:	f507 73c0 	add.w	r3, r7, #384	; 0x180
    93d4:	f5a3 7388 	sub.w	r3, r3, #272	; 0x110
    93d8:	6819      	ldr	r1, [r3, #0]
    93da:	f507 73c0 	add.w	r3, r7, #384	; 0x180
    93de:	f5a3 7388 	sub.w	r3, r3, #272	; 0x110
    93e2:	681a      	ldr	r2, [r3, #0]
    93e4:	f507 538a 	add.w	r3, r7, #4416	; 0x1140
    93e8:	f103 0304 	add.w	r3, r3, #4
    93ec:	681b      	ldr	r3, [r3, #0]
    93ee:	441a      	add	r2, r3
    93f0:	f507 73c0 	add.w	r3, r7, #384	; 0x180
    93f4:	f5a3 7484 	sub.w	r4, r3, #264	; 0x108
    93f8:	463b      	mov	r3, r7
    93fa:	4618      	mov	r0, r3
    93fc:	f7fe feb5 	bl	816a <MakeRange>
    9400:	f507 73c0 	add.w	r3, r7, #384	; 0x180
    9404:	f5a3 72c0 	sub.w	r2, r3, #384	; 0x180
    9408:	4623      	mov	r3, r4
    940a:	e892 0003 	ldmia.w	r2, {r0, r1}
    940e:	e883 0003 	stmia.w	r3, {r0, r1}
    9412:	f507 73c0 	add.w	r3, r7, #384	; 0x180
    9416:	f5a3 73ac 	sub.w	r3, r3, #344	; 0x158
    941a:	685a      	ldr	r2, [r3, #4]
    941c:	f507 538a 	add.w	r3, r7, #4416	; 0x1140
    9420:	f103 0304 	add.w	r3, r3, #4
    9424:	681b      	ldr	r3, [r3, #0]
    9426:	1ad1      	subs	r1, r2, r3
    9428:	f507 73c0 	add.w	r3, r7, #384	; 0x180
    942c:	f5a3 73ac 	sub.w	r3, r3, #344	; 0x158
    9430:	685a      	ldr	r2, [r3, #4]
    9432:	f507 73c0 	add.w	r3, r7, #384	; 0x180
    9436:	f5a3 7488 	sub.w	r4, r3, #272	; 0x110
    943a:	463b      	mov	r3, r7
    943c:	4618      	mov	r0, r3
    943e:	f7fe fe94 	bl	816a <MakeRange>
    9442:	f507 73c0 	add.w	r3, r7, #384	; 0x180
    9446:	f5a3 72c0 	sub.w	r2, r3, #384	; 0x180
    944a:	4623      	mov	r3, r4
    944c:	e892 0003 	ldmia.w	r2, {r0, r1}
    9450:	e883 0003 	stmia.w	r3, {r0, r1}
    9454:	f000 bc4f 	b.w	9cf6 <WikiSort+0x1412>
    9458:	2300      	movs	r3, #0
    945a:	f507 528a 	add.w	r2, r7, #4416	; 0x1140
    945e:	f102 0218 	add.w	r2, r2, #24
    9462:	6013      	str	r3, [r2, #0]
    9464:	f507 73c0 	add.w	r3, r7, #384	; 0x180
    9468:	f5a3 7388 	sub.w	r3, r3, #272	; 0x110
    946c:	681b      	ldr	r3, [r3, #0]
    946e:	1c5a      	adds	r2, r3, #1
    9470:	f507 73c0 	add.w	r3, r7, #384	; 0x180
    9474:	f5a3 738c 	sub.w	r3, r3, #280	; 0x118
    9478:	601a      	str	r2, [r3, #0]
    947a:	e06d      	b.n	9558 <WikiSort+0xc74>
    947c:	f507 73c0 	add.w	r3, r7, #384	; 0x180
    9480:	f5a3 738c 	sub.w	r3, r3, #280	; 0x118
    9484:	681b      	ldr	r3, [r3, #0]
    9486:	f103 5300 	add.w	r3, r3, #536870912	; 0x20000000
    948a:	3b01      	subs	r3, #1
    948c:	00db      	lsls	r3, r3, #3
    948e:	f507 72c0 	add.w	r2, r7, #384	; 0x180
    9492:	f5a2 72b6 	sub.w	r2, r2, #364	; 0x16c
    9496:	6812      	ldr	r2, [r2, #0]
    9498:	18d1      	adds	r1, r2, r3
    949a:	f507 73c0 	add.w	r3, r7, #384	; 0x180
    949e:	f5a3 738c 	sub.w	r3, r3, #280	; 0x118
    94a2:	681b      	ldr	r3, [r3, #0]
    94a4:	00db      	lsls	r3, r3, #3
    94a6:	f507 72c0 	add.w	r2, r7, #384	; 0x180
    94aa:	f5a2 72b6 	sub.w	r2, r2, #364	; 0x16c
    94ae:	6812      	ldr	r2, [r2, #0]
    94b0:	4413      	add	r3, r2
    94b2:	f507 72c0 	add.w	r2, r7, #384	; 0x180
    94b6:	f5a2 72ba 	sub.w	r2, r2, #372	; 0x174
    94ba:	6814      	ldr	r4, [r2, #0]
    94bc:	cb0c      	ldmia	r3, {r2, r3}
    94be:	c903      	ldmia	r1, {r0, r1}
    94c0:	47a0      	blx	r4
    94c2:	4603      	mov	r3, r0
    94c4:	2b00      	cmp	r3, #0
    94c6:	d125      	bne.n	9514 <WikiSort+0xc30>
    94c8:	f507 73c0 	add.w	r3, r7, #384	; 0x180
    94cc:	f5a3 738c 	sub.w	r3, r3, #280	; 0x118
    94d0:	681b      	ldr	r3, [r3, #0]
    94d2:	00db      	lsls	r3, r3, #3
    94d4:	f507 72c0 	add.w	r2, r7, #384	; 0x180
    94d8:	f5a2 72b6 	sub.w	r2, r2, #364	; 0x16c
    94dc:	6812      	ldr	r2, [r2, #0]
    94de:	18d1      	adds	r1, r2, r3
    94e0:	f507 73c0 	add.w	r3, r7, #384	; 0x180
    94e4:	f5a3 738c 	sub.w	r3, r3, #280	; 0x118
    94e8:	681b      	ldr	r3, [r3, #0]
    94ea:	f103 5300 	add.w	r3, r3, #536870912	; 0x20000000
    94ee:	3b01      	subs	r3, #1
    94f0:	00db      	lsls	r3, r3, #3
    94f2:	f507 72c0 	add.w	r2, r7, #384	; 0x180
    94f6:	f5a2 72b6 	sub.w	r2, r2, #364	; 0x16c
    94fa:	6812      	ldr	r2, [r2, #0]
    94fc:	4413      	add	r3, r2
    94fe:	f507 72c0 	add.w	r2, r7, #384	; 0x180
    9502:	f5a2 72ba 	sub.w	r2, r2, #372	; 0x174
    9506:	6814      	ldr	r4, [r2, #0]
    9508:	cb0c      	ldmia	r3, {r2, r3}
    950a:	c903      	ldmia	r1, {r0, r1}
    950c:	47a0      	blx	r4
    950e:	4603      	mov	r3, r0
    9510:	2b00      	cmp	r3, #0
    9512:	d016      	beq.n	9542 <WikiSort+0xc5e>
    9514:	f507 538a 	add.w	r3, r7, #4416	; 0x1140
    9518:	f103 0318 	add.w	r3, r3, #24
    951c:	681b      	ldr	r3, [r3, #0]
    951e:	3301      	adds	r3, #1
    9520:	f507 528a 	add.w	r2, r7, #4416	; 0x1140
    9524:	f102 0218 	add.w	r2, r2, #24
    9528:	6013      	str	r3, [r2, #0]
    952a:	f507 538a 	add.w	r3, r7, #4416	; 0x1140
    952e:	f103 0318 	add.w	r3, r3, #24
    9532:	681a      	ldr	r2, [r3, #0]
    9534:	f507 538a 	add.w	r3, r7, #4416	; 0x1140
    9538:	f103 0304 	add.w	r3, r3, #4
    953c:	681b      	ldr	r3, [r3, #0]
    953e:	429a      	cmp	r2, r3
    9540:	d017      	beq.n	9572 <WikiSort+0xc8e>
    9542:	f507 73c0 	add.w	r3, r7, #384	; 0x180
    9546:	f5a3 738c 	sub.w	r3, r3, #280	; 0x118
    954a:	681b      	ldr	r3, [r3, #0]
    954c:	1c5a      	adds	r2, r3, #1
    954e:	f507 73c0 	add.w	r3, r7, #384	; 0x180
    9552:	f5a3 738c 	sub.w	r3, r3, #280	; 0x118
    9556:	601a      	str	r2, [r3, #0]
    9558:	f507 73c0 	add.w	r3, r7, #384	; 0x180
    955c:	f5a3 738c 	sub.w	r3, r3, #280	; 0x118
    9560:	681a      	ldr	r2, [r3, #0]
    9562:	f507 73c0 	add.w	r3, r7, #384	; 0x180
    9566:	f5a3 73a8 	sub.w	r3, r3, #336	; 0x150
    956a:	685b      	ldr	r3, [r3, #4]
    956c:	429a      	cmp	r2, r3
    956e:	db85      	blt.n	947c <WikiSort+0xb98>
    9570:	e000      	b.n	9574 <WikiSort+0xc90>
    9572:	bf00      	nop
    9574:	f507 73c0 	add.w	r3, r7, #384	; 0x180
    9578:	f5a3 738c 	sub.w	r3, r3, #280	; 0x118
    957c:	681a      	ldr	r2, [r3, #0]
    957e:	f507 538a 	add.w	r3, r7, #4416	; 0x1140
    9582:	f103 0318 	add.w	r3, r3, #24
    9586:	681b      	ldr	r3, [r3, #0]
    9588:	441a      	add	r2, r3
    958a:	f507 73c0 	add.w	r3, r7, #384	; 0x180
    958e:	f5a3 738c 	sub.w	r3, r3, #280	; 0x118
    9592:	605a      	str	r2, [r3, #4]
    9594:	f507 73c0 	add.w	r3, r7, #384	; 0x180
    9598:	f5a3 738c 	sub.w	r3, r3, #280	; 0x118
    959c:	e893 0003 	ldmia.w	r3, {r0, r1}
    95a0:	f7fe fdd5 	bl	814e <Range_length>
    95a4:	4602      	mov	r2, r0
    95a6:	f507 538a 	add.w	r3, r7, #4416	; 0x1140
    95aa:	f103 0304 	add.w	r3, r3, #4
    95ae:	681b      	ldr	r3, [r3, #0]
    95b0:	4293      	cmp	r3, r2
    95b2:	f040 8087 	bne.w	96c4 <WikiSort+0xde0>
    95b6:	f507 73c0 	add.w	r3, r7, #384	; 0x180
    95ba:	f5a3 738c 	sub.w	r3, r3, #280	; 0x118
    95be:	6819      	ldr	r1, [r3, #0]
    95c0:	f507 73c0 	add.w	r3, r7, #384	; 0x180
    95c4:	f5a3 738c 	sub.w	r3, r3, #280	; 0x118
    95c8:	681a      	ldr	r2, [r3, #0]
    95ca:	f507 538a 	add.w	r3, r7, #4416	; 0x1140
    95ce:	f103 0304 	add.w	r3, r3, #4
    95d2:	681b      	ldr	r3, [r3, #0]
    95d4:	005b      	lsls	r3, r3, #1
    95d6:	441a      	add	r2, r3
    95d8:	f507 73c0 	add.w	r3, r7, #384	; 0x180
    95dc:	f5a3 7480 	sub.w	r4, r3, #256	; 0x100
    95e0:	463b      	mov	r3, r7
    95e2:	4618      	mov	r0, r3
    95e4:	f7fe fdc1 	bl	816a <MakeRange>
    95e8:	f507 73c0 	add.w	r3, r7, #384	; 0x180
    95ec:	f5a3 72c0 	sub.w	r2, r3, #384	; 0x180
    95f0:	4623      	mov	r3, r4
    95f2:	e892 0003 	ldmia.w	r2, {r0, r1}
    95f6:	e883 0003 	stmia.w	r3, {r0, r1}
    95fa:	f507 73c0 	add.w	r3, r7, #384	; 0x180
    95fe:	f5a3 73ac 	sub.w	r3, r3, #344	; 0x158
    9602:	6859      	ldr	r1, [r3, #4]
    9604:	f507 73c0 	add.w	r3, r7, #384	; 0x180
    9608:	f5a3 73ac 	sub.w	r3, r3, #344	; 0x158
    960c:	685a      	ldr	r2, [r3, #4]
    960e:	f507 73c0 	add.w	r3, r7, #384	; 0x180
    9612:	f5a3 7484 	sub.w	r4, r3, #264	; 0x108
    9616:	463b      	mov	r3, r7
    9618:	4618      	mov	r0, r3
    961a:	f7fe fda6 	bl	816a <MakeRange>
    961e:	f507 73c0 	add.w	r3, r7, #384	; 0x180
    9622:	f5a3 72c0 	sub.w	r2, r3, #384	; 0x180
    9626:	4623      	mov	r3, r4
    9628:	e892 0003 	ldmia.w	r2, {r0, r1}
    962c:	e883 0003 	stmia.w	r3, {r0, r1}
    9630:	f507 73c0 	add.w	r3, r7, #384	; 0x180
    9634:	f5a3 73a8 	sub.w	r3, r3, #336	; 0x150
    9638:	6819      	ldr	r1, [r3, #0]
    963a:	f507 73c0 	add.w	r3, r7, #384	; 0x180
    963e:	f5a3 73a8 	sub.w	r3, r3, #336	; 0x150
    9642:	681a      	ldr	r2, [r3, #0]
    9644:	f507 538a 	add.w	r3, r7, #4416	; 0x1140
    9648:	f103 0304 	add.w	r3, r3, #4
    964c:	681b      	ldr	r3, [r3, #0]
    964e:	441a      	add	r2, r3
    9650:	f507 73c0 	add.w	r3, r7, #384	; 0x180
    9654:	f5a3 7488 	sub.w	r4, r3, #272	; 0x110
    9658:	463b      	mov	r3, r7
    965a:	4618      	mov	r0, r3
    965c:	f7fe fd85 	bl	816a <MakeRange>
    9660:	f507 73c0 	add.w	r3, r7, #384	; 0x180
    9664:	f5a3 72c0 	sub.w	r2, r3, #384	; 0x180
    9668:	4623      	mov	r3, r4
    966a:	e892 0003 	ldmia.w	r2, {r0, r1}
    966e:	e883 0003 	stmia.w	r3, {r0, r1}
    9672:	f507 73c0 	add.w	r3, r7, #384	; 0x180
    9676:	f5a3 73a8 	sub.w	r3, r3, #336	; 0x150
    967a:	681a      	ldr	r2, [r3, #0]
    967c:	f507 538a 	add.w	r3, r7, #4416	; 0x1140
    9680:	f103 0304 	add.w	r3, r3, #4
    9684:	681b      	ldr	r3, [r3, #0]
    9686:	18d1      	adds	r1, r2, r3
    9688:	f507 73c0 	add.w	r3, r7, #384	; 0x180
    968c:	f5a3 73a8 	sub.w	r3, r3, #336	; 0x150
    9690:	681a      	ldr	r2, [r3, #0]
    9692:	f507 538a 	add.w	r3, r7, #4416	; 0x1140
    9696:	f103 0304 	add.w	r3, r3, #4
    969a:	681b      	ldr	r3, [r3, #0]
    969c:	005b      	lsls	r3, r3, #1
    969e:	441a      	add	r2, r3
    96a0:	f507 73c0 	add.w	r3, r7, #384	; 0x180
    96a4:	f5a3 748c 	sub.w	r4, r3, #280	; 0x118
    96a8:	463b      	mov	r3, r7
    96aa:	4618      	mov	r0, r3
    96ac:	f7fe fd5d 	bl	816a <MakeRange>
    96b0:	f507 73c0 	add.w	r3, r7, #384	; 0x180
    96b4:	f5a3 72c0 	sub.w	r2, r3, #384	; 0x180
    96b8:	4623      	mov	r3, r4
    96ba:	e892 0003 	ldmia.w	r2, {r0, r1}
    96be:	e883 0003 	stmia.w	r3, {r0, r1}
    96c2:	e318      	b.n	9cf6 <WikiSort+0x1412>
    96c4:	f507 73c0 	add.w	r3, r7, #384	; 0x180
    96c8:	f5a3 7388 	sub.w	r3, r3, #272	; 0x110
    96cc:	e893 0003 	ldmia.w	r3, {r0, r1}
    96d0:	f7fe fd3d 	bl	814e <Range_length>
    96d4:	4602      	mov	r2, r0
    96d6:	f507 538a 	add.w	r3, r7, #4416	; 0x1140
    96da:	f103 0304 	add.w	r3, r3, #4
    96de:	681b      	ldr	r3, [r3, #0]
    96e0:	4293      	cmp	r3, r2
    96e2:	f040 813a 	bne.w	995a <WikiSort+0x1076>
    96e6:	f507 73c0 	add.w	r3, r7, #384	; 0x180
    96ea:	f5a3 7388 	sub.w	r3, r3, #272	; 0x110
    96ee:	6819      	ldr	r1, [r3, #0]
    96f0:	f507 73c0 	add.w	r3, r7, #384	; 0x180
    96f4:	f5a3 7388 	sub.w	r3, r3, #272	; 0x110
    96f8:	681a      	ldr	r2, [r3, #0]
    96fa:	f507 538a 	add.w	r3, r7, #4416	; 0x1140
    96fe:	f103 0304 	add.w	r3, r3, #4
    9702:	681b      	ldr	r3, [r3, #0]
    9704:	441a      	add	r2, r3
    9706:	f507 73c0 	add.w	r3, r7, #384	; 0x180
    970a:	f5a3 7480 	sub.w	r4, r3, #256	; 0x100
    970e:	463b      	mov	r3, r7
    9710:	4618      	mov	r0, r3
    9712:	f7fe fd2a 	bl	816a <MakeRange>
    9716:	f507 73c0 	add.w	r3, r7, #384	; 0x180
    971a:	f5a3 72c0 	sub.w	r2, r3, #384	; 0x180
    971e:	4623      	mov	r3, r4
    9720:	e892 0003 	ldmia.w	r2, {r0, r1}
    9724:	e883 0003 	stmia.w	r3, {r0, r1}
    9728:	f507 73c0 	add.w	r3, r7, #384	; 0x180
    972c:	f5a3 73a8 	sub.w	r3, r3, #336	; 0x150
    9730:	6819      	ldr	r1, [r3, #0]
    9732:	f507 73c0 	add.w	r3, r7, #384	; 0x180
    9736:	f5a3 73a8 	sub.w	r3, r3, #336	; 0x150
    973a:	681a      	ldr	r2, [r3, #0]
    973c:	f507 538a 	add.w	r3, r7, #4416	; 0x1140
    9740:	f103 0304 	add.w	r3, r3, #4
    9744:	681b      	ldr	r3, [r3, #0]
    9746:	441a      	add	r2, r3
    9748:	f507 73c0 	add.w	r3, r7, #384	; 0x180
    974c:	f5a3 7488 	sub.w	r4, r3, #272	; 0x110
    9750:	463b      	mov	r3, r7
    9752:	4618      	mov	r0, r3
    9754:	f7fe fd09 	bl	816a <MakeRange>
    9758:	f507 73c0 	add.w	r3, r7, #384	; 0x180
    975c:	f5a3 72c0 	sub.w	r2, r3, #384	; 0x180
    9760:	4623      	mov	r3, r4
    9762:	e892 0003 	ldmia.w	r2, {r0, r1}
    9766:	e883 0003 	stmia.w	r3, {r0, r1}
    976a:	2301      	movs	r3, #1
    976c:	f507 528a 	add.w	r2, r7, #4416	; 0x1140
    9770:	f102 0218 	add.w	r2, r2, #24
    9774:	6013      	str	r3, [r2, #0]
    9776:	f507 73c0 	add.w	r3, r7, #384	; 0x180
    977a:	f5a3 73ac 	sub.w	r3, r3, #344	; 0x158
    977e:	685b      	ldr	r3, [r3, #4]
    9780:	1e9a      	subs	r2, r3, #2
    9782:	f507 73c0 	add.w	r3, r7, #384	; 0x180
    9786:	f5a3 738c 	sub.w	r3, r3, #280	; 0x118
    978a:	601a      	str	r2, [r3, #0]
    978c:	e069      	b.n	9862 <WikiSort+0xf7e>
    978e:	f507 73c0 	add.w	r3, r7, #384	; 0x180
    9792:	f5a3 738c 	sub.w	r3, r3, #280	; 0x118
    9796:	681b      	ldr	r3, [r3, #0]
    9798:	00db      	lsls	r3, r3, #3
    979a:	f507 72c0 	add.w	r2, r7, #384	; 0x180
    979e:	f5a2 72b6 	sub.w	r2, r2, #364	; 0x16c
    97a2:	6812      	ldr	r2, [r2, #0]
    97a4:	18d1      	adds	r1, r2, r3
    97a6:	f507 73c0 	add.w	r3, r7, #384	; 0x180
    97aa:	f5a3 738c 	sub.w	r3, r3, #280	; 0x118
    97ae:	681b      	ldr	r3, [r3, #0]
    97b0:	3301      	adds	r3, #1
    97b2:	00db      	lsls	r3, r3, #3
    97b4:	f507 72c0 	add.w	r2, r7, #384	; 0x180
    97b8:	f5a2 72b6 	sub.w	r2, r2, #364	; 0x16c
    97bc:	6812      	ldr	r2, [r2, #0]
    97be:	4413      	add	r3, r2
    97c0:	f507 72c0 	add.w	r2, r7, #384	; 0x180
    97c4:	f5a2 72ba 	sub.w	r2, r2, #372	; 0x174
    97c8:	6814      	ldr	r4, [r2, #0]
    97ca:	cb0c      	ldmia	r3, {r2, r3}
    97cc:	c903      	ldmia	r1, {r0, r1}
    97ce:	47a0      	blx	r4
    97d0:	4603      	mov	r3, r0
    97d2:	2b00      	cmp	r3, #0
    97d4:	d123      	bne.n	981e <WikiSort+0xf3a>
    97d6:	f507 73c0 	add.w	r3, r7, #384	; 0x180
    97da:	f5a3 738c 	sub.w	r3, r3, #280	; 0x118
    97de:	681b      	ldr	r3, [r3, #0]
    97e0:	3301      	adds	r3, #1
    97e2:	00db      	lsls	r3, r3, #3
    97e4:	f507 72c0 	add.w	r2, r7, #384	; 0x180
    97e8:	f5a2 72b6 	sub.w	r2, r2, #364	; 0x16c
    97ec:	6812      	ldr	r2, [r2, #0]
    97ee:	18d1      	adds	r1, r2, r3
    97f0:	f507 73c0 	add.w	r3, r7, #384	; 0x180
    97f4:	f5a3 738c 	sub.w	r3, r3, #280	; 0x118
    97f8:	681b      	ldr	r3, [r3, #0]
    97fa:	00db      	lsls	r3, r3, #3
    97fc:	f507 72c0 	add.w	r2, r7, #384	; 0x180
    9800:	f5a2 72b6 	sub.w	r2, r2, #364	; 0x16c
    9804:	6812      	ldr	r2, [r2, #0]
    9806:	4413      	add	r3, r2
    9808:	f507 72c0 	add.w	r2, r7, #384	; 0x180
    980c:	f5a2 72ba 	sub.w	r2, r2, #372	; 0x174
    9810:	6814      	ldr	r4, [r2, #0]
    9812:	cb0c      	ldmia	r3, {r2, r3}
    9814:	c903      	ldmia	r1, {r0, r1}
    9816:	47a0      	blx	r4
    9818:	4603      	mov	r3, r0
    981a:	2b00      	cmp	r3, #0
    981c:	d016      	beq.n	984c <WikiSort+0xf68>
    981e:	f507 538a 	add.w	r3, r7, #4416	; 0x1140
    9822:	f103 0318 	add.w	r3, r3, #24
    9826:	681b      	ldr	r3, [r3, #0]
    9828:	3301      	adds	r3, #1
    982a:	f507 528a 	add.w	r2, r7, #4416	; 0x1140
    982e:	f102 0218 	add.w	r2, r2, #24
    9832:	6013      	str	r3, [r2, #0]
    9834:	f507 538a 	add.w	r3, r7, #4416	; 0x1140
    9838:	f103 0318 	add.w	r3, r3, #24
    983c:	681a      	ldr	r2, [r3, #0]
    983e:	f507 538a 	add.w	r3, r7, #4416	; 0x1140
    9842:	f103 0304 	add.w	r3, r3, #4
    9846:	681b      	ldr	r3, [r3, #0]
    9848:	429a      	cmp	r2, r3
    984a:	d017      	beq.n	987c <WikiSort+0xf98>
    984c:	f507 73c0 	add.w	r3, r7, #384	; 0x180
    9850:	f5a3 738c 	sub.w	r3, r3, #280	; 0x118
    9854:	681b      	ldr	r3, [r3, #0]
    9856:	1e5a      	subs	r2, r3, #1
    9858:	f507 73c0 	add.w	r3, r7, #384	; 0x180
    985c:	f5a3 738c 	sub.w	r3, r3, #280	; 0x118
    9860:	601a      	str	r2, [r3, #0]
    9862:	f507 73c0 	add.w	r3, r7, #384	; 0x180
    9866:	f5a3 738c 	sub.w	r3, r3, #280	; 0x118
    986a:	681a      	ldr	r2, [r3, #0]
    986c:	f507 73c0 	add.w	r3, r7, #384	; 0x180
    9870:	f5a3 73ac 	sub.w	r3, r3, #344	; 0x158
    9874:	681b      	ldr	r3, [r3, #0]
    9876:	429a      	cmp	r2, r3
    9878:	da89      	bge.n	978e <WikiSort+0xeaa>
    987a:	e000      	b.n	987e <WikiSort+0xf9a>
    987c:	bf00      	nop
    987e:	f507 73c0 	add.w	r3, r7, #384	; 0x180
    9882:	f5a3 738c 	sub.w	r3, r3, #280	; 0x118
    9886:	681a      	ldr	r2, [r3, #0]
    9888:	f507 538a 	add.w	r3, r7, #4416	; 0x1140
    988c:	f103 0318 	add.w	r3, r3, #24
    9890:	681b      	ldr	r3, [r3, #0]
    9892:	441a      	add	r2, r3
    9894:	f507 73c0 	add.w	r3, r7, #384	; 0x180
    9898:	f5a3 738c 	sub.w	r3, r3, #280	; 0x118
    989c:	605a      	str	r2, [r3, #4]
    989e:	f507 73c0 	add.w	r3, r7, #384	; 0x180
    98a2:	f5a3 738c 	sub.w	r3, r3, #280	; 0x118
    98a6:	e893 0003 	ldmia.w	r3, {r0, r1}
    98aa:	f7fe fc50 	bl	814e <Range_length>
    98ae:	4602      	mov	r2, r0
    98b0:	f507 538a 	add.w	r3, r7, #4416	; 0x1140
    98b4:	f103 0304 	add.w	r3, r3, #4
    98b8:	681b      	ldr	r3, [r3, #0]
    98ba:	4293      	cmp	r3, r2
    98bc:	d142      	bne.n	9944 <WikiSort+0x1060>
    98be:	f507 73c0 	add.w	r3, r7, #384	; 0x180
    98c2:	f5a3 738c 	sub.w	r3, r3, #280	; 0x118
    98c6:	6819      	ldr	r1, [r3, #0]
    98c8:	f507 73c0 	add.w	r3, r7, #384	; 0x180
    98cc:	f5a3 738c 	sub.w	r3, r3, #280	; 0x118
    98d0:	681a      	ldr	r2, [r3, #0]
    98d2:	f507 538a 	add.w	r3, r7, #4416	; 0x1140
    98d6:	f103 0304 	add.w	r3, r3, #4
    98da:	681b      	ldr	r3, [r3, #0]
    98dc:	441a      	add	r2, r3
    98de:	f507 73c0 	add.w	r3, r7, #384	; 0x180
    98e2:	f5a3 7484 	sub.w	r4, r3, #264	; 0x108
    98e6:	463b      	mov	r3, r7
    98e8:	4618      	mov	r0, r3
    98ea:	f7fe fc3e 	bl	816a <MakeRange>
    98ee:	f507 73c0 	add.w	r3, r7, #384	; 0x180
    98f2:	f5a3 72c0 	sub.w	r2, r3, #384	; 0x180
    98f6:	4623      	mov	r3, r4
    98f8:	e892 0003 	ldmia.w	r2, {r0, r1}
    98fc:	e883 0003 	stmia.w	r3, {r0, r1}
    9900:	f507 73c0 	add.w	r3, r7, #384	; 0x180
    9904:	f5a3 73ac 	sub.w	r3, r3, #344	; 0x158
    9908:	685a      	ldr	r2, [r3, #4]
    990a:	f507 538a 	add.w	r3, r7, #4416	; 0x1140
    990e:	f103 0304 	add.w	r3, r3, #4
    9912:	681b      	ldr	r3, [r3, #0]
    9914:	1ad1      	subs	r1, r2, r3
    9916:	f507 73c0 	add.w	r3, r7, #384	; 0x180
    991a:	f5a3 73ac 	sub.w	r3, r3, #344	; 0x158
    991e:	685a      	ldr	r2, [r3, #4]
    9920:	f507 73c0 	add.w	r3, r7, #384	; 0x180
    9924:	f5a3 748c 	sub.w	r4, r3, #280	; 0x118
    9928:	463b      	mov	r3, r7
    992a:	4618      	mov	r0, r3
    992c:	f7fe fc1d 	bl	816a <MakeRange>
    9930:	f507 73c0 	add.w	r3, r7, #384	; 0x180
    9934:	f5a3 72c0 	sub.w	r2, r3, #384	; 0x180
    9938:	4623      	mov	r3, r4
    993a:	e892 0003 	ldmia.w	r2, {r0, r1}
    993e:	e883 0003 	stmia.w	r3, {r0, r1}
    9942:	e1d8      	b.n	9cf6 <WikiSort+0x1412>
    9944:	f507 73c0 	add.w	r3, r7, #384	; 0x180
    9948:	f5a3 7388 	sub.w	r3, r3, #272	; 0x110
    994c:	681a      	ldr	r2, [r3, #0]
    994e:	f507 73c0 	add.w	r3, r7, #384	; 0x180
    9952:	f5a3 7388 	sub.w	r3, r3, #272	; 0x110
    9956:	605a      	str	r2, [r3, #4]
    9958:	e1cd      	b.n	9cf6 <WikiSort+0x1412>
    995a:	2301      	movs	r3, #1
    995c:	f507 528a 	add.w	r2, r7, #4416	; 0x1140
    9960:	f102 0218 	add.w	r2, r2, #24
    9964:	6013      	str	r3, [r2, #0]
    9966:	f507 73c0 	add.w	r3, r7, #384	; 0x180
    996a:	f5a3 73ac 	sub.w	r3, r3, #344	; 0x158
    996e:	685b      	ldr	r3, [r3, #4]
    9970:	1e9a      	subs	r2, r3, #2
    9972:	f507 73c0 	add.w	r3, r7, #384	; 0x180
    9976:	f5a3 7388 	sub.w	r3, r3, #272	; 0x110
    997a:	601a      	str	r2, [r3, #0]
    997c:	e069      	b.n	9a52 <WikiSort+0x116e>
    997e:	f507 73c0 	add.w	r3, r7, #384	; 0x180
    9982:	f5a3 7388 	sub.w	r3, r3, #272	; 0x110
    9986:	681b      	ldr	r3, [r3, #0]
    9988:	00db      	lsls	r3, r3, #3
    998a:	f507 72c0 	add.w	r2, r7, #384	; 0x180
    998e:	f5a2 72b6 	sub.w	r2, r2, #364	; 0x16c
    9992:	6812      	ldr	r2, [r2, #0]
    9994:	18d1      	adds	r1, r2, r3
    9996:	f507 73c0 	add.w	r3, r7, #384	; 0x180
    999a:	f5a3 7388 	sub.w	r3, r3, #272	; 0x110
    999e:	681b      	ldr	r3, [r3, #0]
    99a0:	3301      	adds	r3, #1
    99a2:	00db      	lsls	r3, r3, #3
    99a4:	f507 72c0 	add.w	r2, r7, #384	; 0x180
    99a8:	f5a2 72b6 	sub.w	r2, r2, #364	; 0x16c
    99ac:	6812      	ldr	r2, [r2, #0]
    99ae:	4413      	add	r3, r2
    99b0:	f507 72c0 	add.w	r2, r7, #384	; 0x180
    99b4:	f5a2 72ba 	sub.w	r2, r2, #372	; 0x174
    99b8:	6814      	ldr	r4, [r2, #0]
    99ba:	cb0c      	ldmia	r3, {r2, r3}
    99bc:	c903      	ldmia	r1, {r0, r1}
    99be:	47a0      	blx	r4
    99c0:	4603      	mov	r3, r0
    99c2:	2b00      	cmp	r3, #0
    99c4:	d123      	bne.n	9a0e <WikiSort+0x112a>
    99c6:	f507 73c0 	add.w	r3, r7, #384	; 0x180
    99ca:	f5a3 7388 	sub.w	r3, r3, #272	; 0x110
    99ce:	681b      	ldr	r3, [r3, #0]
    99d0:	3301      	adds	r3, #1
    99d2:	00db      	lsls	r3, r3, #3
    99d4:	f507 72c0 	add.w	r2, r7, #384	; 0x180
    99d8:	f5a2 72b6 	sub.w	r2, r2, #364	; 0x16c
    99dc:	6812      	ldr	r2, [r2, #0]
    99de:	18d1      	adds	r1, r2, r3
    99e0:	f507 73c0 	add.w	r3, r7, #384	; 0x180
    99e4:	f5a3 7388 	sub.w	r3, r3, #272	; 0x110
    99e8:	681b      	ldr	r3, [r3, #0]
    99ea:	00db      	lsls	r3, r3, #3
    99ec:	f507 72c0 	add.w	r2, r7, #384	; 0x180
    99f0:	f5a2 72b6 	sub.w	r2, r2, #364	; 0x16c
    99f4:	6812      	ldr	r2, [r2, #0]
    99f6:	4413      	add	r3, r2
    99f8:	f507 72c0 	add.w	r2, r7, #384	; 0x180
    99fc:	f5a2 72ba 	sub.w	r2, r2, #372	; 0x174
    9a00:	6814      	ldr	r4, [r2, #0]
    9a02:	cb0c      	ldmia	r3, {r2, r3}
    9a04:	c903      	ldmia	r1, {r0, r1}
    9a06:	47a0      	blx	r4
    9a08:	4603      	mov	r3, r0
    9a0a:	2b00      	cmp	r3, #0
    9a0c:	d016      	beq.n	9a3c <WikiSort+0x1158>
    9a0e:	f507 538a 	add.w	r3, r7, #4416	; 0x1140
    9a12:	f103 0318 	add.w	r3, r3, #24
    9a16:	681b      	ldr	r3, [r3, #0]
    9a18:	3301      	adds	r3, #1
    9a1a:	f507 528a 	add.w	r2, r7, #4416	; 0x1140
    9a1e:	f102 0218 	add.w	r2, r2, #24
    9a22:	6013      	str	r3, [r2, #0]
    9a24:	f507 538a 	add.w	r3, r7, #4416	; 0x1140
    9a28:	f103 0318 	add.w	r3, r3, #24
    9a2c:	681a      	ldr	r2, [r3, #0]
    9a2e:	f507 538a 	add.w	r3, r7, #4416	; 0x1140
    9a32:	f103 0304 	add.w	r3, r3, #4
    9a36:	681b      	ldr	r3, [r3, #0]
    9a38:	429a      	cmp	r2, r3
    9a3a:	d017      	beq.n	9a6c <WikiSort+0x1188>
    9a3c:	f507 73c0 	add.w	r3, r7, #384	; 0x180
    9a40:	f5a3 7388 	sub.w	r3, r3, #272	; 0x110
    9a44:	681b      	ldr	r3, [r3, #0]
    9a46:	1e5a      	subs	r2, r3, #1
    9a48:	f507 73c0 	add.w	r3, r7, #384	; 0x180
    9a4c:	f5a3 7388 	sub.w	r3, r3, #272	; 0x110
    9a50:	601a      	str	r2, [r3, #0]
    9a52:	f507 73c0 	add.w	r3, r7, #384	; 0x180
    9a56:	f5a3 7388 	sub.w	r3, r3, #272	; 0x110
    9a5a:	681a      	ldr	r2, [r3, #0]
    9a5c:	f507 73c0 	add.w	r3, r7, #384	; 0x180
    9a60:	f5a3 73ac 	sub.w	r3, r3, #344	; 0x158
    9a64:	681b      	ldr	r3, [r3, #0]
    9a66:	429a      	cmp	r2, r3
    9a68:	da89      	bge.n	997e <WikiSort+0x109a>
    9a6a:	e000      	b.n	9a6e <WikiSort+0x118a>
    9a6c:	bf00      	nop
    9a6e:	f507 73c0 	add.w	r3, r7, #384	; 0x180
    9a72:	f5a3 7388 	sub.w	r3, r3, #272	; 0x110
    9a76:	681a      	ldr	r2, [r3, #0]
    9a78:	f507 538a 	add.w	r3, r7, #4416	; 0x1140
    9a7c:	f103 0318 	add.w	r3, r3, #24
    9a80:	681b      	ldr	r3, [r3, #0]
    9a82:	441a      	add	r2, r3
    9a84:	f507 73c0 	add.w	r3, r7, #384	; 0x180
    9a88:	f5a3 7388 	sub.w	r3, r3, #272	; 0x110
    9a8c:	605a      	str	r2, [r3, #4]
    9a8e:	2300      	movs	r3, #0
    9a90:	f507 528a 	add.w	r2, r7, #4416	; 0x1140
    9a94:	f102 0218 	add.w	r2, r2, #24
    9a98:	6013      	str	r3, [r2, #0]
    9a9a:	f507 73c0 	add.w	r3, r7, #384	; 0x180
    9a9e:	f5a3 7388 	sub.w	r3, r3, #272	; 0x110
    9aa2:	681b      	ldr	r3, [r3, #0]
    9aa4:	1e5a      	subs	r2, r3, #1
    9aa6:	f507 73c0 	add.w	r3, r7, #384	; 0x180
    9aaa:	f5a3 738c 	sub.w	r3, r3, #280	; 0x118
    9aae:	601a      	str	r2, [r3, #0]
    9ab0:	e069      	b.n	9b86 <WikiSort+0x12a2>
    9ab2:	f507 73c0 	add.w	r3, r7, #384	; 0x180
    9ab6:	f5a3 738c 	sub.w	r3, r3, #280	; 0x118
    9aba:	681b      	ldr	r3, [r3, #0]
    9abc:	00db      	lsls	r3, r3, #3
    9abe:	f507 72c0 	add.w	r2, r7, #384	; 0x180
    9ac2:	f5a2 72b6 	sub.w	r2, r2, #364	; 0x16c
    9ac6:	6812      	ldr	r2, [r2, #0]
    9ac8:	18d1      	adds	r1, r2, r3
    9aca:	f507 73c0 	add.w	r3, r7, #384	; 0x180
    9ace:	f5a3 738c 	sub.w	r3, r3, #280	; 0x118
    9ad2:	681b      	ldr	r3, [r3, #0]
    9ad4:	3301      	adds	r3, #1
    9ad6:	00db      	lsls	r3, r3, #3
    9ad8:	f507 72c0 	add.w	r2, r7, #384	; 0x180
    9adc:	f5a2 72b6 	sub.w	r2, r2, #364	; 0x16c
    9ae0:	6812      	ldr	r2, [r2, #0]
    9ae2:	4413      	add	r3, r2
    9ae4:	f507 72c0 	add.w	r2, r7, #384	; 0x180
    9ae8:	f5a2 72ba 	sub.w	r2, r2, #372	; 0x174
    9aec:	6814      	ldr	r4, [r2, #0]
    9aee:	cb0c      	ldmia	r3, {r2, r3}
    9af0:	c903      	ldmia	r1, {r0, r1}
    9af2:	47a0      	blx	r4
    9af4:	4603      	mov	r3, r0
    9af6:	2b00      	cmp	r3, #0
    9af8:	d123      	bne.n	9b42 <WikiSort+0x125e>
    9afa:	f507 73c0 	add.w	r3, r7, #384	; 0x180
    9afe:	f5a3 738c 	sub.w	r3, r3, #280	; 0x118
    9b02:	681b      	ldr	r3, [r3, #0]
    9b04:	3301      	adds	r3, #1
    9b06:	00db      	lsls	r3, r3, #3
    9b08:	f507 72c0 	add.w	r2, r7, #384	; 0x180
    9b0c:	f5a2 72b6 	sub.w	r2, r2, #364	; 0x16c
    9b10:	6812      	ldr	r2, [r2, #0]
    9b12:	18d1      	adds	r1, r2, r3
    9b14:	f507 73c0 	add.w	r3, r7, #384	; 0x180
    9b18:	f5a3 738c 	sub.w	r3, r3, #280	; 0x118
    9b1c:	681b      	ldr	r3, [r3, #0]
    9b1e:	00db      	lsls	r3, r3, #3
    9b20:	f507 72c0 	add.w	r2, r7, #384	; 0x180
    9b24:	f5a2 72b6 	sub.w	r2, r2, #364	; 0x16c
    9b28:	6812      	ldr	r2, [r2, #0]
    9b2a:	4413      	add	r3, r2
    9b2c:	f507 72c0 	add.w	r2, r7, #384	; 0x180
    9b30:	f5a2 72ba 	sub.w	r2, r2, #372	; 0x174
    9b34:	6814      	ldr	r4, [r2, #0]
    9b36:	cb0c      	ldmia	r3, {r2, r3}
    9b38:	c903      	ldmia	r1, {r0, r1}
    9b3a:	47a0      	blx	r4
    9b3c:	4603      	mov	r3, r0
    9b3e:	2b00      	cmp	r3, #0
    9b40:	d016      	beq.n	9b70 <WikiSort+0x128c>
    9b42:	f507 538a 	add.w	r3, r7, #4416	; 0x1140
    9b46:	f103 0318 	add.w	r3, r3, #24
    9b4a:	681b      	ldr	r3, [r3, #0]
    9b4c:	3301      	adds	r3, #1
    9b4e:	f507 528a 	add.w	r2, r7, #4416	; 0x1140
    9b52:	f102 0218 	add.w	r2, r2, #24
    9b56:	6013      	str	r3, [r2, #0]
    9b58:	f507 538a 	add.w	r3, r7, #4416	; 0x1140
    9b5c:	f103 0318 	add.w	r3, r3, #24
    9b60:	681a      	ldr	r2, [r3, #0]
    9b62:	f507 538a 	add.w	r3, r7, #4416	; 0x1140
    9b66:	f103 0304 	add.w	r3, r3, #4
    9b6a:	681b      	ldr	r3, [r3, #0]
    9b6c:	429a      	cmp	r2, r3
    9b6e:	d017      	beq.n	9ba0 <WikiSort+0x12bc>
    9b70:	f507 73c0 	add.w	r3, r7, #384	; 0x180
    9b74:	f5a3 738c 	sub.w	r3, r3, #280	; 0x118
    9b78:	681b      	ldr	r3, [r3, #0]
    9b7a:	1e5a      	subs	r2, r3, #1
    9b7c:	f507 73c0 	add.w	r3, r7, #384	; 0x180
    9b80:	f5a3 738c 	sub.w	r3, r3, #280	; 0x118
    9b84:	601a      	str	r2, [r3, #0]
    9b86:	f507 73c0 	add.w	r3, r7, #384	; 0x180
    9b8a:	f5a3 738c 	sub.w	r3, r3, #280	; 0x118
    9b8e:	681a      	ldr	r2, [r3, #0]
    9b90:	f507 73c0 	add.w	r3, r7, #384	; 0x180
    9b94:	f5a3 73ac 	sub.w	r3, r3, #344	; 0x158
    9b98:	681b      	ldr	r3, [r3, #0]
    9b9a:	429a      	cmp	r2, r3
    9b9c:	da89      	bge.n	9ab2 <WikiSort+0x11ce>
    9b9e:	e000      	b.n	9ba2 <WikiSort+0x12be>
    9ba0:	bf00      	nop
    9ba2:	f507 73c0 	add.w	r3, r7, #384	; 0x180
    9ba6:	f5a3 738c 	sub.w	r3, r3, #280	; 0x118
    9baa:	681a      	ldr	r2, [r3, #0]
    9bac:	f507 538a 	add.w	r3, r7, #4416	; 0x1140
    9bb0:	f103 0318 	add.w	r3, r3, #24
    9bb4:	681b      	ldr	r3, [r3, #0]
    9bb6:	441a      	add	r2, r3
    9bb8:	f507 73c0 	add.w	r3, r7, #384	; 0x180
    9bbc:	f5a3 738c 	sub.w	r3, r3, #280	; 0x118
    9bc0:	605a      	str	r2, [r3, #4]
    9bc2:	f507 73c0 	add.w	r3, r7, #384	; 0x180
    9bc6:	f5a3 738c 	sub.w	r3, r3, #280	; 0x118
    9bca:	e893 0003 	ldmia.w	r3, {r0, r1}
    9bce:	f7fe fabe 	bl	814e <Range_length>
    9bd2:	4602      	mov	r2, r0
    9bd4:	f507 538a 	add.w	r3, r7, #4416	; 0x1140
    9bd8:	f103 0304 	add.w	r3, r3, #4
    9bdc:	681b      	ldr	r3, [r3, #0]
    9bde:	4293      	cmp	r3, r2
    9be0:	d17f      	bne.n	9ce2 <WikiSort+0x13fe>
    9be2:	f507 73c0 	add.w	r3, r7, #384	; 0x180
    9be6:	f5a3 73a8 	sub.w	r3, r3, #336	; 0x150
    9bea:	6819      	ldr	r1, [r3, #0]
    9bec:	f507 73c0 	add.w	r3, r7, #384	; 0x180
    9bf0:	f5a3 73a8 	sub.w	r3, r3, #336	; 0x150
    9bf4:	681a      	ldr	r2, [r3, #0]
    9bf6:	f507 73c0 	add.w	r3, r7, #384	; 0x180
    9bfa:	f5a3 7480 	sub.w	r4, r3, #256	; 0x100
    9bfe:	463b      	mov	r3, r7
    9c00:	4618      	mov	r0, r3
    9c02:	f7fe fab2 	bl	816a <MakeRange>
    9c06:	f507 73c0 	add.w	r3, r7, #384	; 0x180
    9c0a:	f5a3 72c0 	sub.w	r2, r3, #384	; 0x180
    9c0e:	4623      	mov	r3, r4
    9c10:	e892 0003 	ldmia.w	r2, {r0, r1}
    9c14:	e883 0003 	stmia.w	r3, {r0, r1}
    9c18:	f507 73c0 	add.w	r3, r7, #384	; 0x180
    9c1c:	f5a3 738c 	sub.w	r3, r3, #280	; 0x118
    9c20:	6819      	ldr	r1, [r3, #0]
    9c22:	f507 73c0 	add.w	r3, r7, #384	; 0x180
    9c26:	f5a3 738c 	sub.w	r3, r3, #280	; 0x118
    9c2a:	681a      	ldr	r2, [r3, #0]
    9c2c:	f507 538a 	add.w	r3, r7, #4416	; 0x1140
    9c30:	f103 0304 	add.w	r3, r3, #4
    9c34:	681b      	ldr	r3, [r3, #0]
    9c36:	005b      	lsls	r3, r3, #1
    9c38:	441a      	add	r2, r3
    9c3a:	f507 73c0 	add.w	r3, r7, #384	; 0x180
    9c3e:	f5a3 7484 	sub.w	r4, r3, #264	; 0x108
    9c42:	463b      	mov	r3, r7
    9c44:	4618      	mov	r0, r3
    9c46:	f7fe fa90 	bl	816a <MakeRange>
    9c4a:	f507 73c0 	add.w	r3, r7, #384	; 0x180
    9c4e:	f5a3 72c0 	sub.w	r2, r3, #384	; 0x180
    9c52:	4623      	mov	r3, r4
    9c54:	e892 0003 	ldmia.w	r2, {r0, r1}
    9c58:	e883 0003 	stmia.w	r3, {r0, r1}
    9c5c:	f507 73c0 	add.w	r3, r7, #384	; 0x180
    9c60:	f5a3 73ac 	sub.w	r3, r3, #344	; 0x158
    9c64:	685a      	ldr	r2, [r3, #4]
    9c66:	f507 538a 	add.w	r3, r7, #4416	; 0x1140
    9c6a:	f103 0304 	add.w	r3, r3, #4
    9c6e:	681b      	ldr	r3, [r3, #0]
    9c70:	1ad1      	subs	r1, r2, r3
    9c72:	f507 73c0 	add.w	r3, r7, #384	; 0x180
    9c76:	f5a3 73ac 	sub.w	r3, r3, #344	; 0x158
    9c7a:	685a      	ldr	r2, [r3, #4]
    9c7c:	f507 73c0 	add.w	r3, r7, #384	; 0x180
    9c80:	f5a3 7488 	sub.w	r4, r3, #272	; 0x110
    9c84:	463b      	mov	r3, r7
    9c86:	4618      	mov	r0, r3
    9c88:	f7fe fa6f 	bl	816a <MakeRange>
    9c8c:	f507 73c0 	add.w	r3, r7, #384	; 0x180
    9c90:	f5a3 72c0 	sub.w	r2, r3, #384	; 0x180
    9c94:	4623      	mov	r3, r4
    9c96:	e892 0003 	ldmia.w	r2, {r0, r1}
    9c9a:	e883 0003 	stmia.w	r3, {r0, r1}
    9c9e:	f507 73c0 	add.w	r3, r7, #384	; 0x180
    9ca2:	f5a3 7388 	sub.w	r3, r3, #272	; 0x110
    9ca6:	681a      	ldr	r2, [r3, #0]
    9ca8:	f507 538a 	add.w	r3, r7, #4416	; 0x1140
    9cac:	f103 0304 	add.w	r3, r3, #4
    9cb0:	681b      	ldr	r3, [r3, #0]
    9cb2:	1ad1      	subs	r1, r2, r3
    9cb4:	f507 73c0 	add.w	r3, r7, #384	; 0x180
    9cb8:	f5a3 7388 	sub.w	r3, r3, #272	; 0x110
    9cbc:	681a      	ldr	r2, [r3, #0]
    9cbe:	f507 73c0 	add.w	r3, r7, #384	; 0x180
    9cc2:	f5a3 748c 	sub.w	r4, r3, #280	; 0x118
    9cc6:	463b      	mov	r3, r7
    9cc8:	4618      	mov	r0, r3
    9cca:	f7fe fa4e 	bl	816a <MakeRange>
    9cce:	f507 73c0 	add.w	r3, r7, #384	; 0x180
    9cd2:	f5a3 72c0 	sub.w	r2, r3, #384	; 0x180
    9cd6:	4623      	mov	r3, r4
    9cd8:	e892 0003 	ldmia.w	r2, {r0, r1}
    9cdc:	e883 0003 	stmia.w	r3, {r0, r1}
    9ce0:	e009      	b.n	9cf6 <WikiSort+0x1412>
    9ce2:	f507 73c0 	add.w	r3, r7, #384	; 0x180
    9ce6:	f5a3 7388 	sub.w	r3, r3, #272	; 0x110
    9cea:	681a      	ldr	r2, [r3, #0]
    9cec:	f507 73c0 	add.w	r3, r7, #384	; 0x180
    9cf0:	f5a3 7388 	sub.w	r3, r3, #272	; 0x110
    9cf4:	605a      	str	r2, [r3, #4]
    9cf6:	f507 73c0 	add.w	r3, r7, #384	; 0x180
    9cfa:	f5a3 7388 	sub.w	r3, r3, #272	; 0x110
    9cfe:	e893 0003 	ldmia.w	r3, {r0, r1}
    9d02:	f7fe fa24 	bl	814e <Range_length>
    9d06:	4602      	mov	r2, r0
    9d08:	f507 538a 	add.w	r3, r7, #4416	; 0x1140
    9d0c:	f103 0304 	add.w	r3, r3, #4
    9d10:	681b      	ldr	r3, [r3, #0]
    9d12:	4293      	cmp	r3, r2
    9d14:	f340 80ad 	ble.w	9e72 <WikiSort+0x158e>
    9d18:	e091      	b.n	9e3e <WikiSort+0x155a>
    9d1a:	f507 73c0 	add.w	r3, r7, #384	; 0x180
    9d1e:	f5a3 73a8 	sub.w	r3, r3, #336	; 0x150
    9d22:	6819      	ldr	r1, [r3, #0]
    9d24:	f507 73c0 	add.w	r3, r7, #384	; 0x180
    9d28:	f5a3 73ac 	sub.w	r3, r3, #344	; 0x158
    9d2c:	f507 72c0 	add.w	r2, r7, #384	; 0x180
    9d30:	f5a2 70b6 	sub.w	r0, r2, #364	; 0x16c
    9d34:	f507 72c0 	add.w	r2, r7, #384	; 0x180
    9d38:	f5a2 72ba 	sub.w	r2, r2, #372	; 0x174
    9d3c:	6812      	ldr	r2, [r2, #0]
    9d3e:	9200      	str	r2, [sp, #0]
    9d40:	cb0c      	ldmia	r3, {r2, r3}
    9d42:	6800      	ldr	r0, [r0, #0]
    9d44:	f7fe fa50 	bl	81e8 <BinaryFirst>
    9d48:	f507 5389 	add.w	r3, r7, #4384	; 0x1120
    9d4c:	f103 0304 	add.w	r3, r3, #4
    9d50:	6018      	str	r0, [r3, #0]
    9d52:	f507 73c0 	add.w	r3, r7, #384	; 0x180
    9d56:	f5a3 73a8 	sub.w	r3, r3, #336	; 0x150
    9d5a:	685b      	ldr	r3, [r3, #4]
    9d5c:	f507 5289 	add.w	r2, r7, #4384	; 0x1120
    9d60:	f102 0204 	add.w	r2, r2, #4
    9d64:	6812      	ldr	r2, [r2, #0]
    9d66:	1ad3      	subs	r3, r2, r3
    9d68:	f507 5289 	add.w	r2, r7, #4384	; 0x1120
    9d6c:	6013      	str	r3, [r2, #0]
    9d6e:	f507 5389 	add.w	r3, r7, #4384	; 0x1120
    9d72:	681b      	ldr	r3, [r3, #0]
    9d74:	425c      	negs	r4, r3
    9d76:	f507 73c0 	add.w	r3, r7, #384	; 0x180
    9d7a:	f5a3 73a8 	sub.w	r3, r3, #336	; 0x150
    9d7e:	6819      	ldr	r1, [r3, #0]
    9d80:	f507 5386 	add.w	r3, r7, #4288	; 0x10c0
    9d84:	f103 0308 	add.w	r3, r3, #8
    9d88:	f507 5289 	add.w	r2, r7, #4384	; 0x1120
    9d8c:	f102 0204 	add.w	r2, r2, #4
    9d90:	6812      	ldr	r2, [r2, #0]
    9d92:	4618      	mov	r0, r3
    9d94:	f7fe f9e9 	bl	816a <MakeRange>
    9d98:	f507 73c0 	add.w	r3, r7, #384	; 0x180
    9d9c:	f5a3 70b6 	sub.w	r0, r3, #364	; 0x16c
    9da0:	f507 538a 	add.w	r3, r7, #4416	; 0x1140
    9da4:	f103 0314 	add.w	r3, r3, #20
    9da8:	681b      	ldr	r3, [r3, #0]
    9daa:	9301      	str	r3, [sp, #4]
    9dac:	f107 03c0 	add.w	r3, r7, #192	; 0xc0
    9db0:	3b18      	subs	r3, #24
    9db2:	9300      	str	r3, [sp, #0]
    9db4:	f507 5386 	add.w	r3, r7, #4288	; 0x10c0
    9db8:	f103 0308 	add.w	r3, r3, #8
    9dbc:	cb0c      	ldmia	r3, {r2, r3}
    9dbe:	4621      	mov	r1, r4
    9dc0:	6800      	ldr	r0, [r0, #0]
    9dc2:	f7fe fb80 	bl	84c6 <Rotate>
    9dc6:	f507 73c0 	add.w	r3, r7, #384	; 0x180
    9dca:	f5a3 73ac 	sub.w	r3, r3, #344	; 0x158
    9dce:	f507 5289 	add.w	r2, r7, #4384	; 0x1120
    9dd2:	f102 0204 	add.w	r2, r2, #4
    9dd6:	6812      	ldr	r2, [r2, #0]
    9dd8:	601a      	str	r2, [r3, #0]
    9dda:	f507 73c0 	add.w	r3, r7, #384	; 0x180
    9dde:	f5a3 73a8 	sub.w	r3, r3, #336	; 0x150
    9de2:	681a      	ldr	r2, [r3, #0]
    9de4:	f507 5389 	add.w	r3, r7, #4384	; 0x1120
    9de8:	681b      	ldr	r3, [r3, #0]
    9dea:	18d1      	adds	r1, r2, r3
    9dec:	f507 73c0 	add.w	r3, r7, #384	; 0x180
    9df0:	f5a3 73a8 	sub.w	r3, r3, #336	; 0x150
    9df4:	f507 72c0 	add.w	r2, r7, #384	; 0x180
    9df8:	f5a2 70b6 	sub.w	r0, r2, #364	; 0x16c
    9dfc:	f507 72c0 	add.w	r2, r7, #384	; 0x180
    9e00:	f5a2 72ba 	sub.w	r2, r2, #372	; 0x174
    9e04:	6812      	ldr	r2, [r2, #0]
    9e06:	9200      	str	r2, [sp, #0]
    9e08:	cb0c      	ldmia	r3, {r2, r3}
    9e0a:	6800      	ldr	r0, [r0, #0]
    9e0c:	f7fe fa39 	bl	8282 <BinaryLast>
    9e10:	4601      	mov	r1, r0
    9e12:	f507 73c0 	add.w	r3, r7, #384	; 0x180
    9e16:	f5a3 73ac 	sub.w	r3, r3, #344	; 0x158
    9e1a:	681a      	ldr	r2, [r3, #0]
    9e1c:	f507 73c0 	add.w	r3, r7, #384	; 0x180
    9e20:	f5a3 74a8 	sub.w	r4, r3, #336	; 0x150
    9e24:	463b      	mov	r3, r7
    9e26:	4618      	mov	r0, r3
    9e28:	f7fe f99f 	bl	816a <MakeRange>
    9e2c:	f507 73c0 	add.w	r3, r7, #384	; 0x180
    9e30:	f5a3 72c0 	sub.w	r2, r3, #384	; 0x180
    9e34:	4623      	mov	r3, r4
    9e36:	e892 0003 	ldmia.w	r2, {r0, r1}
    9e3a:	e883 0003 	stmia.w	r3, {r0, r1}
    9e3e:	f507 73c0 	add.w	r3, r7, #384	; 0x180
    9e42:	f5a3 73a8 	sub.w	r3, r3, #336	; 0x150
    9e46:	e893 0003 	ldmia.w	r3, {r0, r1}
    9e4a:	f7fe f980 	bl	814e <Range_length>
    9e4e:	4603      	mov	r3, r0
    9e50:	2b00      	cmp	r3, #0
    9e52:	f340 877a 	ble.w	ad4a <WikiSort+0x2466>
    9e56:	f507 73c0 	add.w	r3, r7, #384	; 0x180
    9e5a:	f5a3 73ac 	sub.w	r3, r3, #344	; 0x158
    9e5e:	e893 0003 	ldmia.w	r3, {r0, r1}
    9e62:	f7fe f974 	bl	814e <Range_length>
    9e66:	4603      	mov	r3, r0
    9e68:	2b00      	cmp	r3, #0
    9e6a:	f73f af56 	bgt.w	9d1a <WikiSort+0x1436>
    9e6e:	f000 bf6c 	b.w	ad4a <WikiSort+0x2466>
    9e72:	f507 73c0 	add.w	r3, r7, #384	; 0x180
    9e76:	f5a3 7380 	sub.w	r3, r3, #256	; 0x100
    9e7a:	e893 0003 	ldmia.w	r3, {r0, r1}
    9e7e:	f7fe f966 	bl	814e <Range_length>
    9e82:	f507 5389 	add.w	r3, r7, #4384	; 0x1120
    9e86:	f103 0308 	add.w	r3, r3, #8
    9e8a:	6018      	str	r0, [r3, #0]
    9e8c:	2300      	movs	r3, #0
    9e8e:	f507 528a 	add.w	r2, r7, #4416	; 0x1140
    9e92:	f102 0218 	add.w	r2, r2, #24
    9e96:	6013      	str	r3, [r2, #0]
    9e98:	f507 73c0 	add.w	r3, r7, #384	; 0x180
    9e9c:	f5a3 7380 	sub.w	r3, r3, #256	; 0x100
    9ea0:	681b      	ldr	r3, [r3, #0]
    9ea2:	f507 528b 	add.w	r2, r7, #4448	; 0x1160
    9ea6:	f102 021c 	add.w	r2, r2, #28
    9eaa:	6013      	str	r3, [r2, #0]
    9eac:	e0ad      	b.n	a00a <WikiSort+0x1726>
    9eae:	f507 73c0 	add.w	r3, r7, #384	; 0x180
    9eb2:	f5a3 73a8 	sub.w	r3, r3, #336	; 0x150
    9eb6:	681b      	ldr	r3, [r3, #0]
    9eb8:	f507 528b 	add.w	r2, r7, #4448	; 0x1160
    9ebc:	f102 021c 	add.w	r2, r2, #28
    9ec0:	6812      	ldr	r2, [r2, #0]
    9ec2:	429a      	cmp	r2, r3
    9ec4:	d04b      	beq.n	9f5e <WikiSort+0x167a>
    9ec6:	f507 538b 	add.w	r3, r7, #4448	; 0x1160
    9eca:	f103 031c 	add.w	r3, r3, #28
    9ece:	681b      	ldr	r3, [r3, #0]
    9ed0:	f103 5300 	add.w	r3, r3, #536870912	; 0x20000000
    9ed4:	3b01      	subs	r3, #1
    9ed6:	00db      	lsls	r3, r3, #3
    9ed8:	f507 72c0 	add.w	r2, r7, #384	; 0x180
    9edc:	f5a2 72b6 	sub.w	r2, r2, #364	; 0x16c
    9ee0:	6812      	ldr	r2, [r2, #0]
    9ee2:	18d1      	adds	r1, r2, r3
    9ee4:	f507 538b 	add.w	r3, r7, #4448	; 0x1160
    9ee8:	f103 031c 	add.w	r3, r3, #28
    9eec:	681b      	ldr	r3, [r3, #0]
    9eee:	00db      	lsls	r3, r3, #3
    9ef0:	f507 72c0 	add.w	r2, r7, #384	; 0x180
    9ef4:	f5a2 72b6 	sub.w	r2, r2, #364	; 0x16c
    9ef8:	6812      	ldr	r2, [r2, #0]
    9efa:	4413      	add	r3, r2
    9efc:	f507 72c0 	add.w	r2, r7, #384	; 0x180
    9f00:	f5a2 72ba 	sub.w	r2, r2, #372	; 0x174
    9f04:	6814      	ldr	r4, [r2, #0]
    9f06:	cb0c      	ldmia	r3, {r2, r3}
    9f08:	c903      	ldmia	r1, {r0, r1}
    9f0a:	47a0      	blx	r4
    9f0c:	4603      	mov	r3, r0
    9f0e:	2b00      	cmp	r3, #0
    9f10:	d125      	bne.n	9f5e <WikiSort+0x167a>
    9f12:	f507 538b 	add.w	r3, r7, #4448	; 0x1160
    9f16:	f103 031c 	add.w	r3, r3, #28
    9f1a:	681b      	ldr	r3, [r3, #0]
    9f1c:	00db      	lsls	r3, r3, #3
    9f1e:	f507 72c0 	add.w	r2, r7, #384	; 0x180
    9f22:	f5a2 72b6 	sub.w	r2, r2, #364	; 0x16c
    9f26:	6812      	ldr	r2, [r2, #0]
    9f28:	18d1      	adds	r1, r2, r3
    9f2a:	f507 538b 	add.w	r3, r7, #4448	; 0x1160
    9f2e:	f103 031c 	add.w	r3, r3, #28
    9f32:	681b      	ldr	r3, [r3, #0]
    9f34:	f103 5300 	add.w	r3, r3, #536870912	; 0x20000000
    9f38:	3b01      	subs	r3, #1
    9f3a:	00db      	lsls	r3, r3, #3
    9f3c:	f507 72c0 	add.w	r2, r7, #384	; 0x180
    9f40:	f5a2 72b6 	sub.w	r2, r2, #364	; 0x16c
    9f44:	6812      	ldr	r2, [r2, #0]
    9f46:	4413      	add	r3, r2
    9f48:	f507 72c0 	add.w	r2, r7, #384	; 0x180
    9f4c:	f5a2 72ba 	sub.w	r2, r2, #372	; 0x174
    9f50:	6814      	ldr	r4, [r2, #0]
    9f52:	cb0c      	ldmia	r3, {r2, r3}
    9f54:	c903      	ldmia	r1, {r0, r1}
    9f56:	47a0      	blx	r4
    9f58:	4603      	mov	r3, r0
    9f5a:	2b00      	cmp	r3, #0
    9f5c:	d04a      	beq.n	9ff4 <WikiSort+0x1710>
    9f5e:	f507 538a 	add.w	r3, r7, #4416	; 0x1140
    9f62:	f103 0318 	add.w	r3, r3, #24
    9f66:	681b      	ldr	r3, [r3, #0]
    9f68:	425c      	negs	r4, r3
    9f6a:	f507 538b 	add.w	r3, r7, #4448	; 0x1160
    9f6e:	f103 031c 	add.w	r3, r3, #28
    9f72:	681b      	ldr	r3, [r3, #0]
    9f74:	1c59      	adds	r1, r3, #1
    9f76:	f507 73c0 	add.w	r3, r7, #384	; 0x180
    9f7a:	f5a3 7380 	sub.w	r3, r3, #256	; 0x100
    9f7e:	681b      	ldr	r3, [r3, #0]
    9f80:	1c5a      	adds	r2, r3, #1
    9f82:	f507 5386 	add.w	r3, r7, #4288	; 0x10c0
    9f86:	f103 0310 	add.w	r3, r3, #16
    9f8a:	4618      	mov	r0, r3
    9f8c:	f7fe f8ed 	bl	816a <MakeRange>
    9f90:	f507 73c0 	add.w	r3, r7, #384	; 0x180
    9f94:	f5a3 70b6 	sub.w	r0, r3, #364	; 0x16c
    9f98:	f507 538a 	add.w	r3, r7, #4416	; 0x1140
    9f9c:	f103 0314 	add.w	r3, r3, #20
    9fa0:	681b      	ldr	r3, [r3, #0]
    9fa2:	9301      	str	r3, [sp, #4]
    9fa4:	f107 03c0 	add.w	r3, r7, #192	; 0xc0
    9fa8:	3b18      	subs	r3, #24
    9faa:	9300      	str	r3, [sp, #0]
    9fac:	f507 5386 	add.w	r3, r7, #4288	; 0x10c0
    9fb0:	f103 0310 	add.w	r3, r3, #16
    9fb4:	cb0c      	ldmia	r3, {r2, r3}
    9fb6:	4621      	mov	r1, r4
    9fb8:	6800      	ldr	r0, [r0, #0]
    9fba:	f7fe fa84 	bl	84c6 <Rotate>
    9fbe:	f507 538b 	add.w	r3, r7, #4448	; 0x1160
    9fc2:	f103 031c 	add.w	r3, r3, #28
    9fc6:	681a      	ldr	r2, [r3, #0]
    9fc8:	f507 538a 	add.w	r3, r7, #4416	; 0x1140
    9fcc:	f103 0318 	add.w	r3, r3, #24
    9fd0:	681b      	ldr	r3, [r3, #0]
    9fd2:	441a      	add	r2, r3
    9fd4:	f507 73c0 	add.w	r3, r7, #384	; 0x180
    9fd8:	f5a3 7380 	sub.w	r3, r3, #256	; 0x100
    9fdc:	601a      	str	r2, [r3, #0]
    9fde:	f507 538a 	add.w	r3, r7, #4416	; 0x1140
    9fe2:	f103 0318 	add.w	r3, r3, #24
    9fe6:	681b      	ldr	r3, [r3, #0]
    9fe8:	3301      	adds	r3, #1
    9fea:	f507 528a 	add.w	r2, r7, #4416	; 0x1140
    9fee:	f102 0218 	add.w	r2, r2, #24
    9ff2:	6013      	str	r3, [r2, #0]
    9ff4:	f507 538b 	add.w	r3, r7, #4448	; 0x1160
    9ff8:	f103 031c 	add.w	r3, r3, #28
    9ffc:	681b      	ldr	r3, [r3, #0]
    9ffe:	3b01      	subs	r3, #1
    a000:	f507 528b 	add.w	r2, r7, #4448	; 0x1160
    a004:	f102 021c 	add.w	r2, r2, #28
    a008:	6013      	str	r3, [r2, #0]
    a00a:	f507 538a 	add.w	r3, r7, #4416	; 0x1140
    a00e:	f103 0318 	add.w	r3, r3, #24
    a012:	681a      	ldr	r2, [r3, #0]
    a014:	f507 5389 	add.w	r3, r7, #4384	; 0x1120
    a018:	f103 0308 	add.w	r3, r3, #8
    a01c:	681b      	ldr	r3, [r3, #0]
    a01e:	429a      	cmp	r2, r3
    a020:	f6ff af45 	blt.w	9eae <WikiSort+0x15ca>
    a024:	f507 73c0 	add.w	r3, r7, #384	; 0x180
    a028:	f5a3 73a8 	sub.w	r3, r3, #336	; 0x150
    a02c:	6819      	ldr	r1, [r3, #0]
    a02e:	f507 73c0 	add.w	r3, r7, #384	; 0x180
    a032:	f5a3 73a8 	sub.w	r3, r3, #336	; 0x150
    a036:	681a      	ldr	r2, [r3, #0]
    a038:	f507 5389 	add.w	r3, r7, #4384	; 0x1120
    a03c:	f103 0308 	add.w	r3, r3, #8
    a040:	681b      	ldr	r3, [r3, #0]
    a042:	441a      	add	r2, r3
    a044:	f507 73c0 	add.w	r3, r7, #384	; 0x180
    a048:	f5a3 7480 	sub.w	r4, r3, #256	; 0x100
    a04c:	463b      	mov	r3, r7
    a04e:	4618      	mov	r0, r3
    a050:	f7fe f88b 	bl	816a <MakeRange>
    a054:	f507 73c0 	add.w	r3, r7, #384	; 0x180
    a058:	f5a3 72c0 	sub.w	r2, r3, #384	; 0x180
    a05c:	4623      	mov	r3, r4
    a05e:	e892 0003 	ldmia.w	r2, {r0, r1}
    a062:	e883 0003 	stmia.w	r3, {r0, r1}
    a066:	f507 73c0 	add.w	r3, r7, #384	; 0x180
    a06a:	f5a3 7384 	sub.w	r3, r3, #264	; 0x108
    a06e:	e893 0003 	ldmia.w	r3, {r0, r1}
    a072:	f7fe f86c 	bl	814e <Range_length>
    a076:	f507 5389 	add.w	r3, r7, #4384	; 0x1120
    a07a:	f103 0308 	add.w	r3, r3, #8
    a07e:	6018      	str	r0, [r3, #0]
    a080:	2300      	movs	r3, #0
    a082:	f507 528a 	add.w	r2, r7, #4416	; 0x1140
    a086:	f102 0218 	add.w	r2, r2, #24
    a08a:	6013      	str	r3, [r2, #0]
    a08c:	f507 73c0 	add.w	r3, r7, #384	; 0x180
    a090:	f5a3 7384 	sub.w	r3, r3, #264	; 0x108
    a094:	681b      	ldr	r3, [r3, #0]
    a096:	f507 528b 	add.w	r2, r7, #4448	; 0x1160
    a09a:	f102 021c 	add.w	r2, r2, #28
    a09e:	6013      	str	r3, [r2, #0]
    a0a0:	e0a6      	b.n	a1f0 <WikiSort+0x190c>
    a0a2:	f507 73c0 	add.w	r3, r7, #384	; 0x180
    a0a6:	f5a3 73ac 	sub.w	r3, r3, #344	; 0x158
    a0aa:	685b      	ldr	r3, [r3, #4]
    a0ac:	3b01      	subs	r3, #1
    a0ae:	f507 528b 	add.w	r2, r7, #4448	; 0x1160
    a0b2:	f102 021c 	add.w	r2, r2, #28
    a0b6:	6812      	ldr	r2, [r2, #0]
    a0b8:	429a      	cmp	r2, r3
    a0ba:	d047      	beq.n	a14c <WikiSort+0x1868>
    a0bc:	f507 538b 	add.w	r3, r7, #4448	; 0x1160
    a0c0:	f103 031c 	add.w	r3, r3, #28
    a0c4:	681b      	ldr	r3, [r3, #0]
    a0c6:	00db      	lsls	r3, r3, #3
    a0c8:	f507 72c0 	add.w	r2, r7, #384	; 0x180
    a0cc:	f5a2 72b6 	sub.w	r2, r2, #364	; 0x16c
    a0d0:	6812      	ldr	r2, [r2, #0]
    a0d2:	18d1      	adds	r1, r2, r3
    a0d4:	f507 538b 	add.w	r3, r7, #4448	; 0x1160
    a0d8:	f103 031c 	add.w	r3, r3, #28
    a0dc:	681b      	ldr	r3, [r3, #0]
    a0de:	3301      	adds	r3, #1
    a0e0:	00db      	lsls	r3, r3, #3
    a0e2:	f507 72c0 	add.w	r2, r7, #384	; 0x180
    a0e6:	f5a2 72b6 	sub.w	r2, r2, #364	; 0x16c
    a0ea:	6812      	ldr	r2, [r2, #0]
    a0ec:	4413      	add	r3, r2
    a0ee:	f507 72c0 	add.w	r2, r7, #384	; 0x180
    a0f2:	f5a2 72ba 	sub.w	r2, r2, #372	; 0x174
    a0f6:	6814      	ldr	r4, [r2, #0]
    a0f8:	cb0c      	ldmia	r3, {r2, r3}
    a0fa:	c903      	ldmia	r1, {r0, r1}
    a0fc:	47a0      	blx	r4
    a0fe:	4603      	mov	r3, r0
    a100:	2b00      	cmp	r3, #0
    a102:	d123      	bne.n	a14c <WikiSort+0x1868>
    a104:	f507 538b 	add.w	r3, r7, #4448	; 0x1160
    a108:	f103 031c 	add.w	r3, r3, #28
    a10c:	681b      	ldr	r3, [r3, #0]
    a10e:	3301      	adds	r3, #1
    a110:	00db      	lsls	r3, r3, #3
    a112:	f507 72c0 	add.w	r2, r7, #384	; 0x180
    a116:	f5a2 72b6 	sub.w	r2, r2, #364	; 0x16c
    a11a:	6812      	ldr	r2, [r2, #0]
    a11c:	18d1      	adds	r1, r2, r3
    a11e:	f507 538b 	add.w	r3, r7, #4448	; 0x1160
    a122:	f103 031c 	add.w	r3, r3, #28
    a126:	681b      	ldr	r3, [r3, #0]
    a128:	00db      	lsls	r3, r3, #3
    a12a:	f507 72c0 	add.w	r2, r7, #384	; 0x180
    a12e:	f5a2 72b6 	sub.w	r2, r2, #364	; 0x16c
    a132:	6812      	ldr	r2, [r2, #0]
    a134:	4413      	add	r3, r2
    a136:	f507 72c0 	add.w	r2, r7, #384	; 0x180
    a13a:	f5a2 72ba 	sub.w	r2, r2, #372	; 0x174
    a13e:	6814      	ldr	r4, [r2, #0]
    a140:	cb0c      	ldmia	r3, {r2, r3}
    a142:	c903      	ldmia	r1, {r0, r1}
    a144:	47a0      	blx	r4
    a146:	4603      	mov	r3, r0
    a148:	2b00      	cmp	r3, #0
    a14a:	d046      	beq.n	a1da <WikiSort+0x18f6>
    a14c:	f507 73c0 	add.w	r3, r7, #384	; 0x180
    a150:	f5a3 7384 	sub.w	r3, r3, #264	; 0x108
    a154:	6819      	ldr	r1, [r3, #0]
    a156:	f507 5386 	add.w	r3, r7, #4288	; 0x10c0
    a15a:	f103 0318 	add.w	r3, r3, #24
    a15e:	f507 528b 	add.w	r2, r7, #4448	; 0x1160
    a162:	f102 021c 	add.w	r2, r2, #28
    a166:	6812      	ldr	r2, [r2, #0]
    a168:	4618      	mov	r0, r3
    a16a:	f7fd fffe 	bl	816a <MakeRange>
    a16e:	f507 73c0 	add.w	r3, r7, #384	; 0x180
    a172:	f5a3 70b6 	sub.w	r0, r3, #364	; 0x16c
    a176:	f507 538a 	add.w	r3, r7, #4416	; 0x1140
    a17a:	f103 0314 	add.w	r3, r3, #20
    a17e:	681b      	ldr	r3, [r3, #0]
    a180:	9301      	str	r3, [sp, #4]
    a182:	f107 03c0 	add.w	r3, r7, #192	; 0xc0
    a186:	3b18      	subs	r3, #24
    a188:	9300      	str	r3, [sp, #0]
    a18a:	f507 5386 	add.w	r3, r7, #4288	; 0x10c0
    a18e:	f103 0318 	add.w	r3, r3, #24
    a192:	cb0c      	ldmia	r3, {r2, r3}
    a194:	f507 518a 	add.w	r1, r7, #4416	; 0x1140
    a198:	f101 0118 	add.w	r1, r1, #24
    a19c:	6809      	ldr	r1, [r1, #0]
    a19e:	6800      	ldr	r0, [r0, #0]
    a1a0:	f7fe f991 	bl	84c6 <Rotate>
    a1a4:	f507 538b 	add.w	r3, r7, #4448	; 0x1160
    a1a8:	f103 031c 	add.w	r3, r3, #28
    a1ac:	681a      	ldr	r2, [r3, #0]
    a1ae:	f507 538a 	add.w	r3, r7, #4416	; 0x1140
    a1b2:	f103 0318 	add.w	r3, r3, #24
    a1b6:	681b      	ldr	r3, [r3, #0]
    a1b8:	1ad2      	subs	r2, r2, r3
    a1ba:	f507 73c0 	add.w	r3, r7, #384	; 0x180
    a1be:	f5a3 7384 	sub.w	r3, r3, #264	; 0x108
    a1c2:	601a      	str	r2, [r3, #0]
    a1c4:	f507 538a 	add.w	r3, r7, #4416	; 0x1140
    a1c8:	f103 0318 	add.w	r3, r3, #24
    a1cc:	681b      	ldr	r3, [r3, #0]
    a1ce:	3301      	adds	r3, #1
    a1d0:	f507 528a 	add.w	r2, r7, #4416	; 0x1140
    a1d4:	f102 0218 	add.w	r2, r2, #24
    a1d8:	6013      	str	r3, [r2, #0]
    a1da:	f507 538b 	add.w	r3, r7, #4448	; 0x1160
    a1de:	f103 031c 	add.w	r3, r3, #28
    a1e2:	681b      	ldr	r3, [r3, #0]
    a1e4:	3301      	adds	r3, #1
    a1e6:	f507 528b 	add.w	r2, r7, #4448	; 0x1160
    a1ea:	f102 021c 	add.w	r2, r2, #28
    a1ee:	6013      	str	r3, [r2, #0]
    a1f0:	f507 538a 	add.w	r3, r7, #4416	; 0x1140
    a1f4:	f103 0318 	add.w	r3, r3, #24
    a1f8:	681a      	ldr	r2, [r3, #0]
    a1fa:	f507 5389 	add.w	r3, r7, #4384	; 0x1120
    a1fe:	f103 0308 	add.w	r3, r3, #8
    a202:	681b      	ldr	r3, [r3, #0]
    a204:	429a      	cmp	r2, r3
    a206:	f6ff af4c 	blt.w	a0a2 <WikiSort+0x17be>
    a20a:	f507 73c0 	add.w	r3, r7, #384	; 0x180
    a20e:	f5a3 73ac 	sub.w	r3, r3, #344	; 0x158
    a212:	685a      	ldr	r2, [r3, #4]
    a214:	f507 5389 	add.w	r3, r7, #4384	; 0x1120
    a218:	f103 0308 	add.w	r3, r3, #8
    a21c:	681b      	ldr	r3, [r3, #0]
    a21e:	1ad1      	subs	r1, r2, r3
    a220:	f507 73c0 	add.w	r3, r7, #384	; 0x180
    a224:	f5a3 73ac 	sub.w	r3, r3, #344	; 0x158
    a228:	685a      	ldr	r2, [r3, #4]
    a22a:	f507 73c0 	add.w	r3, r7, #384	; 0x180
    a22e:	f5a3 7484 	sub.w	r4, r3, #264	; 0x108
    a232:	463b      	mov	r3, r7
    a234:	4618      	mov	r0, r3
    a236:	f7fd ff98 	bl	816a <MakeRange>
    a23a:	f507 73c0 	add.w	r3, r7, #384	; 0x180
    a23e:	f5a3 72c0 	sub.w	r2, r3, #384	; 0x180
    a242:	4623      	mov	r3, r4
    a244:	e892 0003 	ldmia.w	r2, {r0, r1}
    a248:	e883 0003 	stmia.w	r3, {r0, r1}
    a24c:	f507 73c0 	add.w	r3, r7, #384	; 0x180
    a250:	f507 72c0 	add.w	r2, r7, #384	; 0x180
    a254:	f5a2 7288 	sub.w	r2, r2, #272	; 0x110
    a258:	3be0      	subs	r3, #224	; 0xe0
    a25a:	e892 0003 	ldmia.w	r2, {r0, r1}
    a25e:	e883 0003 	stmia.w	r3, {r0, r1}
    a262:	f507 73c0 	add.w	r3, r7, #384	; 0x180
    a266:	f507 72c0 	add.w	r2, r7, #384	; 0x180
    a26a:	f5a2 728c 	sub.w	r2, r2, #280	; 0x118
    a26e:	3be8      	subs	r3, #232	; 0xe8
    a270:	e892 0003 	ldmia.w	r2, {r0, r1}
    a274:	e883 0003 	stmia.w	r3, {r0, r1}
    a278:	f507 73c0 	add.w	r3, r7, #384	; 0x180
    a27c:	f507 72c0 	add.w	r2, r7, #384	; 0x180
    a280:	f5a2 7280 	sub.w	r2, r2, #256	; 0x100
    a284:	3bf0      	subs	r3, #240	; 0xf0
    a286:	e892 0003 	ldmia.w	r2, {r0, r1}
    a28a:	e883 0003 	stmia.w	r3, {r0, r1}
    a28e:	f507 73c0 	add.w	r3, r7, #384	; 0x180
    a292:	f507 72c0 	add.w	r2, r7, #384	; 0x180
    a296:	f5a2 7284 	sub.w	r2, r2, #264	; 0x108
    a29a:	3bf8      	subs	r3, #248	; 0xf8
    a29c:	e892 0003 	ldmia.w	r2, {r0, r1}
    a2a0:	e883 0003 	stmia.w	r3, {r0, r1}
    a2a4:	f507 73c0 	add.w	r3, r7, #384	; 0x180
    a2a8:	f5a3 7380 	sub.w	r3, r3, #256	; 0x100
    a2ac:	6859      	ldr	r1, [r3, #4]
    a2ae:	f507 73c0 	add.w	r3, r7, #384	; 0x180
    a2b2:	f5a3 73a8 	sub.w	r3, r3, #336	; 0x150
    a2b6:	685a      	ldr	r2, [r3, #4]
    a2b8:	f507 73c0 	add.w	r3, r7, #384	; 0x180
    a2bc:	f5a3 7390 	sub.w	r3, r3, #288	; 0x120
    a2c0:	4618      	mov	r0, r3
    a2c2:	f7fd ff52 	bl	816a <MakeRange>
    a2c6:	f507 73c0 	add.w	r3, r7, #384	; 0x180
    a2ca:	f5a3 7380 	sub.w	r3, r3, #256	; 0x100
    a2ce:	685d      	ldr	r5, [r3, #4]
    a2d0:	f507 73c0 	add.w	r3, r7, #384	; 0x180
    a2d4:	f5a3 7380 	sub.w	r3, r3, #256	; 0x100
    a2d8:	685c      	ldr	r4, [r3, #4]
    a2da:	f507 73c0 	add.w	r3, r7, #384	; 0x180
    a2de:	f5a3 7390 	sub.w	r3, r3, #288	; 0x120
    a2e2:	e893 0003 	ldmia.w	r3, {r0, r1}
    a2e6:	f7fd ff32 	bl	814e <Range_length>
    a2ea:	4603      	mov	r3, r0
    a2ec:	f507 528a 	add.w	r2, r7, #4416	; 0x1140
    a2f0:	f102 0208 	add.w	r2, r2, #8
    a2f4:	6812      	ldr	r2, [r2, #0]
    a2f6:	fb93 f2f2 	sdiv	r2, r3, r2
    a2fa:	f507 518a 	add.w	r1, r7, #4416	; 0x1140
    a2fe:	f101 0108 	add.w	r1, r1, #8
    a302:	6809      	ldr	r1, [r1, #0]
    a304:	fb01 f202 	mul.w	r2, r1, r2
    a308:	1a9b      	subs	r3, r3, r2
    a30a:	18e2      	adds	r2, r4, r3
    a30c:	f507 73c0 	add.w	r3, r7, #384	; 0x180
    a310:	f5a3 7398 	sub.w	r3, r3, #304	; 0x130
    a314:	4629      	mov	r1, r5
    a316:	4618      	mov	r0, r3
    a318:	f7fd ff27 	bl	816a <MakeRange>
    a31c:	2300      	movs	r3, #0
    a31e:	f507 528b 	add.w	r2, r7, #4448	; 0x1160
    a322:	f102 021c 	add.w	r2, r2, #28
    a326:	6013      	str	r3, [r2, #0]
    a328:	f507 73c0 	add.w	r3, r7, #384	; 0x180
    a32c:	f5a3 7398 	sub.w	r3, r3, #304	; 0x130
    a330:	685b      	ldr	r3, [r3, #4]
    a332:	3301      	adds	r3, #1
    a334:	f507 528b 	add.w	r2, r7, #4448	; 0x1160
    a338:	f102 0204 	add.w	r2, r2, #4
    a33c:	6013      	str	r3, [r2, #0]
    a33e:	e06a      	b.n	a416 <WikiSort+0x1b32>
    a340:	f507 73c0 	add.w	r3, r7, #384	; 0x180
    a344:	f5a3 7388 	sub.w	r3, r3, #272	; 0x110
    a348:	681a      	ldr	r2, [r3, #0]
    a34a:	f507 538b 	add.w	r3, r7, #4448	; 0x1160
    a34e:	f103 031c 	add.w	r3, r3, #28
    a352:	681b      	ldr	r3, [r3, #0]
    a354:	4413      	add	r3, r2
    a356:	00db      	lsls	r3, r3, #3
    a358:	f507 72c0 	add.w	r2, r7, #384	; 0x180
    a35c:	f5a2 72b6 	sub.w	r2, r2, #364	; 0x16c
    a360:	6812      	ldr	r2, [r2, #0]
    a362:	4413      	add	r3, r2
    a364:	f507 5288 	add.w	r2, r7, #4352	; 0x1100
    a368:	f102 020c 	add.w	r2, r2, #12
    a36c:	6013      	str	r3, [r2, #0]
    a36e:	f507 538b 	add.w	r3, r7, #4448	; 0x1160
    a372:	f103 0304 	add.w	r3, r3, #4
    a376:	681b      	ldr	r3, [r3, #0]
    a378:	00db      	lsls	r3, r3, #3
    a37a:	f507 72c0 	add.w	r2, r7, #384	; 0x180
    a37e:	f5a2 72b6 	sub.w	r2, r2, #364	; 0x16c
    a382:	6812      	ldr	r2, [r2, #0]
    a384:	4413      	add	r3, r2
    a386:	f507 5288 	add.w	r2, r7, #4352	; 0x1100
    a38a:	f102 0208 	add.w	r2, r2, #8
    a38e:	6013      	str	r3, [r2, #0]
    a390:	f507 73c0 	add.w	r3, r7, #384	; 0x180
    a394:	f5a3 73b0 	sub.w	r3, r3, #352	; 0x160
    a398:	f507 5288 	add.w	r2, r7, #4352	; 0x1100
    a39c:	f102 020c 	add.w	r2, r2, #12
    a3a0:	6812      	ldr	r2, [r2, #0]
    a3a2:	e892 0003 	ldmia.w	r2, {r0, r1}
    a3a6:	e883 0003 	stmia.w	r3, {r0, r1}
    a3aa:	f507 5388 	add.w	r3, r7, #4352	; 0x1100
    a3ae:	f103 030c 	add.w	r3, r3, #12
    a3b2:	681b      	ldr	r3, [r3, #0]
    a3b4:	f507 5288 	add.w	r2, r7, #4352	; 0x1100
    a3b8:	f102 0208 	add.w	r2, r2, #8
    a3bc:	6812      	ldr	r2, [r2, #0]
    a3be:	e892 0003 	ldmia.w	r2, {r0, r1}
    a3c2:	e883 0003 	stmia.w	r3, {r0, r1}
    a3c6:	f507 5388 	add.w	r3, r7, #4352	; 0x1100
    a3ca:	f103 0308 	add.w	r3, r3, #8
    a3ce:	681b      	ldr	r3, [r3, #0]
    a3d0:	f507 72c0 	add.w	r2, r7, #384	; 0x180
    a3d4:	f5a2 72b0 	sub.w	r2, r2, #352	; 0x160
    a3d8:	e892 0003 	ldmia.w	r2, {r0, r1}
    a3dc:	e883 0003 	stmia.w	r3, {r0, r1}
    a3e0:	f507 538b 	add.w	r3, r7, #4448	; 0x1160
    a3e4:	f103 031c 	add.w	r3, r3, #28
    a3e8:	681b      	ldr	r3, [r3, #0]
    a3ea:	3301      	adds	r3, #1
    a3ec:	f507 528b 	add.w	r2, r7, #4448	; 0x1160
    a3f0:	f102 021c 	add.w	r2, r2, #28
    a3f4:	6013      	str	r3, [r2, #0]
    a3f6:	f507 538b 	add.w	r3, r7, #4448	; 0x1160
    a3fa:	f103 0304 	add.w	r3, r3, #4
    a3fe:	681a      	ldr	r2, [r3, #0]
    a400:	f507 538a 	add.w	r3, r7, #4416	; 0x1140
    a404:	f103 0308 	add.w	r3, r3, #8
    a408:	681b      	ldr	r3, [r3, #0]
    a40a:	4413      	add	r3, r2
    a40c:	f507 528b 	add.w	r2, r7, #4448	; 0x1160
    a410:	f102 0204 	add.w	r2, r2, #4
    a414:	6013      	str	r3, [r2, #0]
    a416:	f507 73c0 	add.w	r3, r7, #384	; 0x180
    a41a:	f5a3 7390 	sub.w	r3, r3, #288	; 0x120
    a41e:	685b      	ldr	r3, [r3, #4]
    a420:	f507 528b 	add.w	r2, r7, #4448	; 0x1160
    a424:	f102 0204 	add.w	r2, r2, #4
    a428:	6812      	ldr	r2, [r2, #0]
    a42a:	429a      	cmp	r2, r3
    a42c:	db88      	blt.n	a340 <WikiSort+0x1a5c>
    a42e:	f507 73c0 	add.w	r3, r7, #384	; 0x180
    a432:	f5a3 739c 	sub.w	r3, r3, #312	; 0x138
    a436:	f507 72c0 	add.w	r2, r7, #384	; 0x180
    a43a:	f5a2 7298 	sub.w	r2, r2, #304	; 0x130
    a43e:	e892 0003 	ldmia.w	r2, {r0, r1}
    a442:	e883 0003 	stmia.w	r3, {r0, r1}
    a446:	f507 73c0 	add.w	r3, r7, #384	; 0x180
    a44a:	f5a3 73a0 	sub.w	r3, r3, #320	; 0x140
    a44e:	2200      	movs	r2, #0
    a450:	2100      	movs	r1, #0
    a452:	4618      	mov	r0, r3
    a454:	f7fd fe89 	bl	816a <MakeRange>
    a458:	f507 73c0 	add.w	r3, r7, #384	; 0x180
    a45c:	f5a3 73ac 	sub.w	r3, r3, #344	; 0x158
    a460:	681d      	ldr	r5, [r3, #0]
    a462:	f507 73c0 	add.w	r3, r7, #384	; 0x180
    a466:	f5a3 73ac 	sub.w	r3, r3, #344	; 0x158
    a46a:	681c      	ldr	r4, [r3, #0]
    a46c:	f507 73c0 	add.w	r3, r7, #384	; 0x180
    a470:	f5a3 73ac 	sub.w	r3, r3, #344	; 0x158
    a474:	e893 0003 	ldmia.w	r3, {r0, r1}
    a478:	f7fd fe69 	bl	814e <Range_length>
    a47c:	4606      	mov	r6, r0
    a47e:	f507 73c0 	add.w	r3, r7, #384	; 0x180
    a482:	f5a3 7384 	sub.w	r3, r3, #264	; 0x108
    a486:	e893 0003 	ldmia.w	r3, {r0, r1}
    a48a:	f7fd fe60 	bl	814e <Range_length>
    a48e:	4603      	mov	r3, r0
    a490:	1af3      	subs	r3, r6, r3
    a492:	4619      	mov	r1, r3
    a494:	f507 538a 	add.w	r3, r7, #4416	; 0x1140
    a498:	f103 0308 	add.w	r3, r3, #8
    a49c:	6818      	ldr	r0, [r3, #0]
    a49e:	f7fd fe2f 	bl	8100 <Min>
    a4a2:	4603      	mov	r3, r0
    a4a4:	18e2      	adds	r2, r4, r3
    a4a6:	f507 73c0 	add.w	r3, r7, #384	; 0x180
    a4aa:	f5a3 7394 	sub.w	r3, r3, #296	; 0x128
    a4ae:	4629      	mov	r1, r5
    a4b0:	4618      	mov	r0, r3
    a4b2:	f7fd fe5a 	bl	816a <MakeRange>
    a4b6:	f507 73c0 	add.w	r3, r7, #384	; 0x180
    a4ba:	f5a3 7398 	sub.w	r3, r3, #304	; 0x130
    a4be:	e893 0003 	ldmia.w	r3, {r0, r1}
    a4c2:	f7fd fe44 	bl	814e <Range_length>
    a4c6:	4602      	mov	r2, r0
    a4c8:	f507 73c0 	add.w	r3, r7, #384	; 0x180
    a4cc:	f5a3 7390 	sub.w	r3, r3, #288	; 0x120
    a4d0:	681b      	ldr	r3, [r3, #0]
    a4d2:	441a      	add	r2, r3
    a4d4:	f507 73c0 	add.w	r3, r7, #384	; 0x180
    a4d8:	f5a3 7390 	sub.w	r3, r3, #288	; 0x120
    a4dc:	601a      	str	r2, [r3, #0]
    a4de:	f507 73c0 	add.w	r3, r7, #384	; 0x180
    a4e2:	f5a3 7390 	sub.w	r3, r3, #288	; 0x120
    a4e6:	681b      	ldr	r3, [r3, #0]
    a4e8:	f507 528b 	add.w	r2, r7, #4448	; 0x1160
    a4ec:	6013      	str	r3, [r2, #0]
    a4ee:	f507 538b 	add.w	r3, r7, #4448	; 0x1160
    a4f2:	681b      	ldr	r3, [r3, #0]
    a4f4:	00db      	lsls	r3, r3, #3
    a4f6:	f507 72c0 	add.w	r2, r7, #384	; 0x180
    a4fa:	f5a2 72b6 	sub.w	r2, r2, #364	; 0x16c
    a4fe:	6812      	ldr	r2, [r2, #0]
    a500:	441a      	add	r2, r3
    a502:	f507 73c0 	add.w	r3, r7, #384	; 0x180
    a506:	f5a3 73a4 	sub.w	r3, r3, #328	; 0x148
    a50a:	e892 0003 	ldmia.w	r2, {r0, r1}
    a50e:	e883 0003 	stmia.w	r3, {r0, r1}
    a512:	2300      	movs	r3, #0
    a514:	f507 528b 	add.w	r2, r7, #4448	; 0x1160
    a518:	f102 0204 	add.w	r2, r2, #4
    a51c:	6013      	str	r3, [r2, #0]
    a51e:	f507 73c0 	add.w	r3, r7, #384	; 0x180
    a522:	f5a3 739c 	sub.w	r3, r3, #312	; 0x138
    a526:	e893 0003 	ldmia.w	r3, {r0, r1}
    a52a:	f7fd fe10 	bl	814e <Range_length>
    a52e:	4602      	mov	r2, r0
    a530:	f507 538a 	add.w	r3, r7, #4416	; 0x1140
    a534:	f103 0314 	add.w	r3, r3, #20
    a538:	681b      	ldr	r3, [r3, #0]
    a53a:	4293      	cmp	r3, r2
    a53c:	db1d      	blt.n	a57a <WikiSort+0x1c96>
    a53e:	f507 73c0 	add.w	r3, r7, #384	; 0x180
    a542:	f5a3 739c 	sub.w	r3, r3, #312	; 0x138
    a546:	681b      	ldr	r3, [r3, #0]
    a548:	00db      	lsls	r3, r3, #3
    a54a:	f507 72c0 	add.w	r2, r7, #384	; 0x180
    a54e:	f5a2 72b6 	sub.w	r2, r2, #364	; 0x16c
    a552:	6812      	ldr	r2, [r2, #0]
    a554:	18d4      	adds	r4, r2, r3
    a556:	f507 73c0 	add.w	r3, r7, #384	; 0x180
    a55a:	f5a3 739c 	sub.w	r3, r3, #312	; 0x138
    a55e:	e893 0003 	ldmia.w	r3, {r0, r1}
    a562:	f7fd fdf4 	bl	814e <Range_length>
    a566:	4603      	mov	r3, r0
    a568:	00da      	lsls	r2, r3, #3
    a56a:	f107 03c0 	add.w	r3, r7, #192	; 0xc0
    a56e:	3b18      	subs	r3, #24
    a570:	4621      	mov	r1, r4
    a572:	4618      	mov	r0, r3
    a574:	f001 fdf2 	bl	c15c <memcpy>
    a578:	e01b      	b.n	a5b2 <WikiSort+0x1cce>
    a57a:	f507 73c0 	add.w	r3, r7, #384	; 0x180
    a57e:	f5a3 739c 	sub.w	r3, r3, #312	; 0x138
    a582:	681c      	ldr	r4, [r3, #0]
    a584:	f507 73c0 	add.w	r3, r7, #384	; 0x180
    a588:	f5a3 738c 	sub.w	r3, r3, #280	; 0x118
    a58c:	681d      	ldr	r5, [r3, #0]
    a58e:	f507 73c0 	add.w	r3, r7, #384	; 0x180
    a592:	f5a3 739c 	sub.w	r3, r3, #312	; 0x138
    a596:	e893 0003 	ldmia.w	r3, {r0, r1}
    a59a:	f7fd fdd8 	bl	814e <Range_length>
    a59e:	4603      	mov	r3, r0
    a5a0:	f507 72c0 	add.w	r2, r7, #384	; 0x180
    a5a4:	f5a2 70b6 	sub.w	r0, r2, #364	; 0x16c
    a5a8:	462a      	mov	r2, r5
    a5aa:	4621      	mov	r1, r4
    a5ac:	6800      	ldr	r0, [r0, #0]
    a5ae:	f7fd ff50 	bl	8452 <BlockSwap>
    a5b2:	f507 73c0 	add.w	r3, r7, #384	; 0x180
    a5b6:	f5a3 73a0 	sub.w	r3, r3, #320	; 0x140
    a5ba:	e893 0003 	ldmia.w	r3, {r0, r1}
    a5be:	f7fd fdc6 	bl	814e <Range_length>
    a5c2:	4603      	mov	r3, r0
    a5c4:	2b00      	cmp	r3, #0
    a5c6:	dd1d      	ble.n	a604 <WikiSort+0x1d20>
    a5c8:	f507 73c0 	add.w	r3, r7, #384	; 0x180
    a5cc:	f5a3 73a0 	sub.w	r3, r3, #320	; 0x140
    a5d0:	685b      	ldr	r3, [r3, #4]
    a5d2:	f103 5300 	add.w	r3, r3, #536870912	; 0x20000000
    a5d6:	3b01      	subs	r3, #1
    a5d8:	00db      	lsls	r3, r3, #3
    a5da:	f507 72c0 	add.w	r2, r7, #384	; 0x180
    a5de:	f5a2 72b6 	sub.w	r2, r2, #364	; 0x16c
    a5e2:	6812      	ldr	r2, [r2, #0]
    a5e4:	18d1      	adds	r1, r2, r3
    a5e6:	f507 73c0 	add.w	r3, r7, #384	; 0x180
    a5ea:	f5a3 73a4 	sub.w	r3, r3, #328	; 0x148
    a5ee:	f507 72c0 	add.w	r2, r7, #384	; 0x180
    a5f2:	f5a2 72ba 	sub.w	r2, r2, #372	; 0x174
    a5f6:	6814      	ldr	r4, [r2, #0]
    a5f8:	cb0c      	ldmia	r3, {r2, r3}
    a5fa:	c903      	ldmia	r1, {r0, r1}
    a5fc:	47a0      	blx	r4
    a5fe:	4603      	mov	r3, r0
    a600:	2b00      	cmp	r3, #0
    a602:	d00b      	beq.n	a61c <WikiSort+0x1d38>
    a604:	f507 73c0 	add.w	r3, r7, #384	; 0x180
    a608:	f5a3 7394 	sub.w	r3, r3, #296	; 0x128
    a60c:	e893 0003 	ldmia.w	r3, {r0, r1}
    a610:	f7fd fd9d 	bl	814e <Range_length>
    a614:	4603      	mov	r3, r0
    a616:	2b00      	cmp	r3, #0
    a618:	f040 8203 	bne.w	aa22 <WikiSort+0x213e>
    a61c:	f507 73c0 	add.w	r3, r7, #384	; 0x180
    a620:	f5a3 73a0 	sub.w	r3, r3, #320	; 0x140
    a624:	f507 72c0 	add.w	r2, r7, #384	; 0x180
    a628:	f5a2 70b6 	sub.w	r0, r2, #364	; 0x16c
    a62c:	f507 72c0 	add.w	r2, r7, #384	; 0x180
    a630:	f5a2 72ba 	sub.w	r2, r2, #372	; 0x174
    a634:	6812      	ldr	r2, [r2, #0]
    a636:	9200      	str	r2, [sp, #0]
    a638:	cb0c      	ldmia	r3, {r2, r3}
    a63a:	f507 518b 	add.w	r1, r7, #4448	; 0x1160
    a63e:	6809      	ldr	r1, [r1, #0]
    a640:	6800      	ldr	r0, [r0, #0]
    a642:	f7fd fdd1 	bl	81e8 <BinaryFirst>
    a646:	f507 5388 	add.w	r3, r7, #4352	; 0x1100
    a64a:	f103 031c 	add.w	r3, r3, #28
    a64e:	6018      	str	r0, [r3, #0]
    a650:	f507 73c0 	add.w	r3, r7, #384	; 0x180
    a654:	f5a3 73a0 	sub.w	r3, r3, #320	; 0x140
    a658:	685a      	ldr	r2, [r3, #4]
    a65a:	f507 5388 	add.w	r3, r7, #4352	; 0x1100
    a65e:	f103 031c 	add.w	r3, r3, #28
    a662:	681b      	ldr	r3, [r3, #0]
    a664:	1ad3      	subs	r3, r2, r3
    a666:	f507 5288 	add.w	r2, r7, #4352	; 0x1100
    a66a:	f102 0218 	add.w	r2, r2, #24
    a66e:	6013      	str	r3, [r2, #0]
    a670:	f507 73c0 	add.w	r3, r7, #384	; 0x180
    a674:	f5a3 7390 	sub.w	r3, r3, #288	; 0x120
    a678:	6819      	ldr	r1, [r3, #0]
    a67a:	f507 73c0 	add.w	r3, r7, #384	; 0x180
    a67e:	f5a3 70b6 	sub.w	r0, r3, #364	; 0x16c
    a682:	f507 538a 	add.w	r3, r7, #4416	; 0x1140
    a686:	f103 0308 	add.w	r3, r3, #8
    a68a:	681b      	ldr	r3, [r3, #0]
    a68c:	f507 528b 	add.w	r2, r7, #4448	; 0x1160
    a690:	6812      	ldr	r2, [r2, #0]
    a692:	6800      	ldr	r0, [r0, #0]
    a694:	f7fd fedd 	bl	8452 <BlockSwap>
    a698:	f507 73c0 	add.w	r3, r7, #384	; 0x180
    a69c:	f5a3 7390 	sub.w	r3, r3, #288	; 0x120
    a6a0:	681b      	ldr	r3, [r3, #0]
    a6a2:	3301      	adds	r3, #1
    a6a4:	00db      	lsls	r3, r3, #3
    a6a6:	f507 72c0 	add.w	r2, r7, #384	; 0x180
    a6aa:	f5a2 72b6 	sub.w	r2, r2, #364	; 0x16c
    a6ae:	6812      	ldr	r2, [r2, #0]
    a6b0:	4413      	add	r3, r2
    a6b2:	f507 5288 	add.w	r2, r7, #4352	; 0x1100
    a6b6:	f102 0214 	add.w	r2, r2, #20
    a6ba:	6013      	str	r3, [r2, #0]
    a6bc:	f507 73c0 	add.w	r3, r7, #384	; 0x180
    a6c0:	f5a3 7388 	sub.w	r3, r3, #272	; 0x110
    a6c4:	681a      	ldr	r2, [r3, #0]
    a6c6:	f507 538b 	add.w	r3, r7, #4448	; 0x1160
    a6ca:	f103 0304 	add.w	r3, r3, #4
    a6ce:	681b      	ldr	r3, [r3, #0]
    a6d0:	1c59      	adds	r1, r3, #1
    a6d2:	f507 508b 	add.w	r0, r7, #4448	; 0x1160
    a6d6:	f100 0004 	add.w	r0, r0, #4
    a6da:	6001      	str	r1, [r0, #0]
    a6dc:	4413      	add	r3, r2
    a6de:	00db      	lsls	r3, r3, #3
    a6e0:	f507 72c0 	add.w	r2, r7, #384	; 0x180
    a6e4:	f5a2 72b6 	sub.w	r2, r2, #364	; 0x16c
    a6e8:	6812      	ldr	r2, [r2, #0]
    a6ea:	4413      	add	r3, r2
    a6ec:	f507 5288 	add.w	r2, r7, #4352	; 0x1100
    a6f0:	f102 0210 	add.w	r2, r2, #16
    a6f4:	6013      	str	r3, [r2, #0]
    a6f6:	f507 73c0 	add.w	r3, r7, #384	; 0x180
    a6fa:	f5a3 73b4 	sub.w	r3, r3, #360	; 0x168
    a6fe:	f507 5288 	add.w	r2, r7, #4352	; 0x1100
    a702:	f102 0214 	add.w	r2, r2, #20
    a706:	6812      	ldr	r2, [r2, #0]
    a708:	e892 0003 	ldmia.w	r2, {r0, r1}
    a70c:	e883 0003 	stmia.w	r3, {r0, r1}
    a710:	f507 5388 	add.w	r3, r7, #4352	; 0x1100
    a714:	f103 0314 	add.w	r3, r3, #20
    a718:	681b      	ldr	r3, [r3, #0]
    a71a:	f507 5288 	add.w	r2, r7, #4352	; 0x1100
    a71e:	f102 0210 	add.w	r2, r2, #16
    a722:	6812      	ldr	r2, [r2, #0]
    a724:	e892 0003 	ldmia.w	r2, {r0, r1}
    a728:	e883 0003 	stmia.w	r3, {r0, r1}
    a72c:	f507 5388 	add.w	r3, r7, #4352	; 0x1100
    a730:	f103 0310 	add.w	r3, r3, #16
    a734:	681b      	ldr	r3, [r3, #0]
    a736:	f507 72c0 	add.w	r2, r7, #384	; 0x180
    a73a:	f5a2 72b4 	sub.w	r2, r2, #360	; 0x168
    a73e:	e892 0003 	ldmia.w	r2, {r0, r1}
    a742:	e883 0003 	stmia.w	r3, {r0, r1}
    a746:	f507 73c0 	add.w	r3, r7, #384	; 0x180
    a74a:	f5a3 739c 	sub.w	r3, r3, #312	; 0x138
    a74e:	6859      	ldr	r1, [r3, #4]
    a750:	f507 5387 	add.w	r3, r7, #4320	; 0x10e0
    a754:	f507 5288 	add.w	r2, r7, #4352	; 0x1100
    a758:	f102 021c 	add.w	r2, r2, #28
    a75c:	6812      	ldr	r2, [r2, #0]
    a75e:	4618      	mov	r0, r3
    a760:	f7fd fd03 	bl	816a <MakeRange>
    a764:	f507 73c0 	add.w	r3, r7, #384	; 0x180
    a768:	f5a3 729c 	sub.w	r2, r3, #312	; 0x138
    a76c:	f507 73c0 	add.w	r3, r7, #384	; 0x180
    a770:	f5a3 758c 	sub.w	r5, r3, #280	; 0x118
    a774:	f507 73c0 	add.w	r3, r7, #384	; 0x180
    a778:	f5a3 74b6 	sub.w	r4, r3, #364	; 0x16c
    a77c:	f507 538a 	add.w	r3, r7, #4416	; 0x1140
    a780:	f103 0314 	add.w	r3, r3, #20
    a784:	681b      	ldr	r3, [r3, #0]
    a786:	9305      	str	r3, [sp, #20]
    a788:	f107 03c0 	add.w	r3, r7, #192	; 0xc0
    a78c:	3b18      	subs	r3, #24
    a78e:	9304      	str	r3, [sp, #16]
    a790:	f507 73c0 	add.w	r3, r7, #384	; 0x180
    a794:	f5a3 73ba 	sub.w	r3, r3, #372	; 0x174
    a798:	681b      	ldr	r3, [r3, #0]
    a79a:	9303      	str	r3, [sp, #12]
    a79c:	ae01      	add	r6, sp, #4
    a79e:	f507 5387 	add.w	r3, r7, #4320	; 0x10e0
    a7a2:	e893 0003 	ldmia.w	r3, {r0, r1}
    a7a6:	e886 0003 	stmia.w	r6, {r0, r1}
    a7aa:	6853      	ldr	r3, [r2, #4]
    a7ac:	9300      	str	r3, [sp, #0]
    a7ae:	6813      	ldr	r3, [r2, #0]
    a7b0:	e895 0006 	ldmia.w	r5, {r1, r2}
    a7b4:	6820      	ldr	r0, [r4, #0]
    a7b6:	f7fd ff6f 	bl	8698 <WikiMerge>
    a7ba:	f507 538a 	add.w	r3, r7, #4416	; 0x1140
    a7be:	f103 0308 	add.w	r3, r3, #8
    a7c2:	681a      	ldr	r2, [r3, #0]
    a7c4:	f507 538a 	add.w	r3, r7, #4416	; 0x1140
    a7c8:	f103 0314 	add.w	r3, r3, #20
    a7cc:	681b      	ldr	r3, [r3, #0]
    a7ce:	429a      	cmp	r2, r3
    a7d0:	dc18      	bgt.n	a804 <WikiSort+0x1f20>
    a7d2:	f507 73c0 	add.w	r3, r7, #384	; 0x180
    a7d6:	f5a3 7390 	sub.w	r3, r3, #288	; 0x120
    a7da:	681b      	ldr	r3, [r3, #0]
    a7dc:	00db      	lsls	r3, r3, #3
    a7de:	f507 72c0 	add.w	r2, r7, #384	; 0x180
    a7e2:	f5a2 72b6 	sub.w	r2, r2, #364	; 0x16c
    a7e6:	6812      	ldr	r2, [r2, #0]
    a7e8:	18d1      	adds	r1, r2, r3
    a7ea:	f507 538a 	add.w	r3, r7, #4416	; 0x1140
    a7ee:	f103 0308 	add.w	r3, r3, #8
    a7f2:	681b      	ldr	r3, [r3, #0]
    a7f4:	00da      	lsls	r2, r3, #3
    a7f6:	f107 03c0 	add.w	r3, r7, #192	; 0xc0
    a7fa:	3b18      	subs	r3, #24
    a7fc:	4618      	mov	r0, r3
    a7fe:	f001 fcad 	bl	c15c <memcpy>
    a802:	e015      	b.n	a830 <WikiSort+0x1f4c>
    a804:	f507 73c0 	add.w	r3, r7, #384	; 0x180
    a808:	f5a3 7390 	sub.w	r3, r3, #288	; 0x120
    a80c:	6819      	ldr	r1, [r3, #0]
    a80e:	f507 73c0 	add.w	r3, r7, #384	; 0x180
    a812:	f5a3 738c 	sub.w	r3, r3, #280	; 0x118
    a816:	681a      	ldr	r2, [r3, #0]
    a818:	f507 73c0 	add.w	r3, r7, #384	; 0x180
    a81c:	f5a3 70b6 	sub.w	r0, r3, #364	; 0x16c
    a820:	f507 538a 	add.w	r3, r7, #4416	; 0x1140
    a824:	f103 0308 	add.w	r3, r3, #8
    a828:	681b      	ldr	r3, [r3, #0]
    a82a:	6800      	ldr	r0, [r0, #0]
    a82c:	f7fd fe11 	bl	8452 <BlockSwap>
    a830:	f507 73c0 	add.w	r3, r7, #384	; 0x180
    a834:	f5a3 7390 	sub.w	r3, r3, #288	; 0x120
    a838:	681a      	ldr	r2, [r3, #0]
    a83a:	f507 538a 	add.w	r3, r7, #4416	; 0x1140
    a83e:	f103 0308 	add.w	r3, r3, #8
    a842:	681b      	ldr	r3, [r3, #0]
    a844:	441a      	add	r2, r3
    a846:	f507 5388 	add.w	r3, r7, #4352	; 0x1100
    a84a:	f103 0318 	add.w	r3, r3, #24
    a84e:	681b      	ldr	r3, [r3, #0]
    a850:	1ad2      	subs	r2, r2, r3
    a852:	f507 73c0 	add.w	r3, r7, #384	; 0x180
    a856:	f5a3 70b6 	sub.w	r0, r3, #364	; 0x16c
    a85a:	f507 5388 	add.w	r3, r7, #4352	; 0x1100
    a85e:	f103 0318 	add.w	r3, r3, #24
    a862:	681b      	ldr	r3, [r3, #0]
    a864:	f507 5188 	add.w	r1, r7, #4352	; 0x1100
    a868:	f101 011c 	add.w	r1, r1, #28
    a86c:	6809      	ldr	r1, [r1, #0]
    a86e:	6800      	ldr	r0, [r0, #0]
    a870:	f7fd fdef 	bl	8452 <BlockSwap>
    a874:	f507 73c0 	add.w	r3, r7, #384	; 0x180
    a878:	f5a3 7390 	sub.w	r3, r3, #288	; 0x120
    a87c:	681a      	ldr	r2, [r3, #0]
    a87e:	f507 5388 	add.w	r3, r7, #4352	; 0x1100
    a882:	f103 0318 	add.w	r3, r3, #24
    a886:	681b      	ldr	r3, [r3, #0]
    a888:	1ad1      	subs	r1, r2, r3
    a88a:	f507 73c0 	add.w	r3, r7, #384	; 0x180
    a88e:	f5a3 7390 	sub.w	r3, r3, #288	; 0x120
    a892:	681a      	ldr	r2, [r3, #0]
    a894:	f507 5388 	add.w	r3, r7, #4352	; 0x1100
    a898:	f103 0318 	add.w	r3, r3, #24
    a89c:	681b      	ldr	r3, [r3, #0]
    a89e:	1ad2      	subs	r2, r2, r3
    a8a0:	f507 538a 	add.w	r3, r7, #4416	; 0x1140
    a8a4:	f103 0308 	add.w	r3, r3, #8
    a8a8:	681b      	ldr	r3, [r3, #0]
    a8aa:	441a      	add	r2, r3
    a8ac:	f507 73c0 	add.w	r3, r7, #384	; 0x180
    a8b0:	f5a3 739c 	sub.w	r3, r3, #312	; 0x138
    a8b4:	4618      	mov	r0, r3
    a8b6:	f7fd fc58 	bl	816a <MakeRange>
    a8ba:	f507 73c0 	add.w	r3, r7, #384	; 0x180
    a8be:	f5a3 739c 	sub.w	r3, r3, #312	; 0x138
    a8c2:	6859      	ldr	r1, [r3, #4]
    a8c4:	f507 73c0 	add.w	r3, r7, #384	; 0x180
    a8c8:	f5a3 739c 	sub.w	r3, r3, #312	; 0x138
    a8cc:	685a      	ldr	r2, [r3, #4]
    a8ce:	f507 5388 	add.w	r3, r7, #4352	; 0x1100
    a8d2:	f103 0318 	add.w	r3, r3, #24
    a8d6:	681b      	ldr	r3, [r3, #0]
    a8d8:	441a      	add	r2, r3
    a8da:	f507 73c0 	add.w	r3, r7, #384	; 0x180
    a8de:	f5a3 74a0 	sub.w	r4, r3, #320	; 0x140
    a8e2:	463b      	mov	r3, r7
    a8e4:	4618      	mov	r0, r3
    a8e6:	f7fd fc40 	bl	816a <MakeRange>
    a8ea:	f507 73c0 	add.w	r3, r7, #384	; 0x180
    a8ee:	f5a3 72c0 	sub.w	r2, r3, #384	; 0x180
    a8f2:	4623      	mov	r3, r4
    a8f4:	e892 0003 	ldmia.w	r2, {r0, r1}
    a8f8:	e883 0003 	stmia.w	r3, {r0, r1}
    a8fc:	f507 73c0 	add.w	r3, r7, #384	; 0x180
    a900:	f5a3 7390 	sub.w	r3, r3, #288	; 0x120
    a904:	681a      	ldr	r2, [r3, #0]
    a906:	f507 538a 	add.w	r3, r7, #4416	; 0x1140
    a90a:	f103 0308 	add.w	r3, r3, #8
    a90e:	681b      	ldr	r3, [r3, #0]
    a910:	441a      	add	r2, r3
    a912:	f507 73c0 	add.w	r3, r7, #384	; 0x180
    a916:	f5a3 7390 	sub.w	r3, r3, #288	; 0x120
    a91a:	601a      	str	r2, [r3, #0]
    a91c:	f507 73c0 	add.w	r3, r7, #384	; 0x180
    a920:	f5a3 7390 	sub.w	r3, r3, #288	; 0x120
    a924:	e893 0003 	ldmia.w	r3, {r0, r1}
    a928:	f7fd fc11 	bl	814e <Range_length>
    a92c:	4603      	mov	r3, r0
    a92e:	2b00      	cmp	r3, #0
    a930:	f000 81c0 	beq.w	acb4 <WikiSort+0x23d0>
    a934:	f507 73c0 	add.w	r3, r7, #384	; 0x180
    a938:	f5a3 7390 	sub.w	r3, r3, #288	; 0x120
    a93c:	681b      	ldr	r3, [r3, #0]
    a93e:	3301      	adds	r3, #1
    a940:	f507 528b 	add.w	r2, r7, #4448	; 0x1160
    a944:	6013      	str	r3, [r2, #0]
    a946:	f507 538b 	add.w	r3, r7, #4448	; 0x1160
    a94a:	681a      	ldr	r2, [r3, #0]
    a94c:	f507 538a 	add.w	r3, r7, #4416	; 0x1140
    a950:	f103 0308 	add.w	r3, r3, #8
    a954:	681b      	ldr	r3, [r3, #0]
    a956:	4413      	add	r3, r2
    a958:	f507 528a 	add.w	r2, r7, #4416	; 0x1140
    a95c:	f102 021c 	add.w	r2, r2, #28
    a960:	6013      	str	r3, [r2, #0]
    a962:	e038      	b.n	a9d6 <WikiSort+0x20f2>
    a964:	f507 538a 	add.w	r3, r7, #4416	; 0x1140
    a968:	f103 031c 	add.w	r3, r3, #28
    a96c:	681b      	ldr	r3, [r3, #0]
    a96e:	00db      	lsls	r3, r3, #3
    a970:	f507 72c0 	add.w	r2, r7, #384	; 0x180
    a974:	f5a2 72b6 	sub.w	r2, r2, #364	; 0x16c
    a978:	6812      	ldr	r2, [r2, #0]
    a97a:	18d1      	adds	r1, r2, r3
    a97c:	f507 538b 	add.w	r3, r7, #4448	; 0x1160
    a980:	681b      	ldr	r3, [r3, #0]
    a982:	00db      	lsls	r3, r3, #3
    a984:	f507 72c0 	add.w	r2, r7, #384	; 0x180
    a988:	f5a2 72b6 	sub.w	r2, r2, #364	; 0x16c
    a98c:	6812      	ldr	r2, [r2, #0]
    a98e:	4413      	add	r3, r2
    a990:	f507 72c0 	add.w	r2, r7, #384	; 0x180
    a994:	f5a2 72ba 	sub.w	r2, r2, #372	; 0x174
    a998:	6814      	ldr	r4, [r2, #0]
    a99a:	cb0c      	ldmia	r3, {r2, r3}
    a99c:	c903      	ldmia	r1, {r0, r1}
    a99e:	47a0      	blx	r4
    a9a0:	4603      	mov	r3, r0
    a9a2:	2b00      	cmp	r3, #0
    a9a4:	d007      	beq.n	a9b6 <WikiSort+0x20d2>
    a9a6:	f507 538a 	add.w	r3, r7, #4416	; 0x1140
    a9aa:	f103 031c 	add.w	r3, r3, #28
    a9ae:	681b      	ldr	r3, [r3, #0]
    a9b0:	f507 528b 	add.w	r2, r7, #4448	; 0x1160
    a9b4:	6013      	str	r3, [r2, #0]
    a9b6:	f507 538a 	add.w	r3, r7, #4416	; 0x1140
    a9ba:	f103 031c 	add.w	r3, r3, #28
    a9be:	681a      	ldr	r2, [r3, #0]
    a9c0:	f507 538a 	add.w	r3, r7, #4416	; 0x1140
    a9c4:	f103 0308 	add.w	r3, r3, #8
    a9c8:	681b      	ldr	r3, [r3, #0]
    a9ca:	4413      	add	r3, r2
    a9cc:	f507 528a 	add.w	r2, r7, #4416	; 0x1140
    a9d0:	f102 021c 	add.w	r2, r2, #28
    a9d4:	6013      	str	r3, [r2, #0]
    a9d6:	f507 73c0 	add.w	r3, r7, #384	; 0x180
    a9da:	f5a3 7390 	sub.w	r3, r3, #288	; 0x120
    a9de:	685b      	ldr	r3, [r3, #4]
    a9e0:	f507 528a 	add.w	r2, r7, #4416	; 0x1140
    a9e4:	f102 021c 	add.w	r2, r2, #28
    a9e8:	6812      	ldr	r2, [r2, #0]
    a9ea:	429a      	cmp	r2, r3
    a9ec:	dbba      	blt.n	a964 <WikiSort+0x2080>
    a9ee:	f507 538b 	add.w	r3, r7, #4448	; 0x1160
    a9f2:	681b      	ldr	r3, [r3, #0]
    a9f4:	3b01      	subs	r3, #1
    a9f6:	f507 528b 	add.w	r2, r7, #4448	; 0x1160
    a9fa:	6013      	str	r3, [r2, #0]
    a9fc:	f507 538b 	add.w	r3, r7, #4448	; 0x1160
    aa00:	681b      	ldr	r3, [r3, #0]
    aa02:	00db      	lsls	r3, r3, #3
    aa04:	f507 72c0 	add.w	r2, r7, #384	; 0x180
    aa08:	f5a2 72b6 	sub.w	r2, r2, #364	; 0x16c
    aa0c:	6812      	ldr	r2, [r2, #0]
    aa0e:	441a      	add	r2, r3
    aa10:	f507 73c0 	add.w	r3, r7, #384	; 0x180
    aa14:	f5a3 73a4 	sub.w	r3, r3, #328	; 0x148
    aa18:	e892 0003 	ldmia.w	r2, {r0, r1}
    aa1c:	e883 0003 	stmia.w	r3, {r0, r1}
    aa20:	e147      	b.n	acb2 <WikiSort+0x23ce>
    aa22:	f507 73c0 	add.w	r3, r7, #384	; 0x180
    aa26:	f5a3 7394 	sub.w	r3, r3, #296	; 0x128
    aa2a:	e893 0003 	ldmia.w	r3, {r0, r1}
    aa2e:	f7fd fb8e 	bl	814e <Range_length>
    aa32:	4602      	mov	r2, r0
    aa34:	f507 538a 	add.w	r3, r7, #4416	; 0x1140
    aa38:	f103 0308 	add.w	r3, r3, #8
    aa3c:	681b      	ldr	r3, [r3, #0]
    aa3e:	4293      	cmp	r3, r2
    aa40:	f340 8097 	ble.w	ab72 <WikiSort+0x228e>
    aa44:	f507 73c0 	add.w	r3, r7, #384	; 0x180
    aa48:	f5a3 7394 	sub.w	r3, r3, #296	; 0x128
    aa4c:	e893 0003 	ldmia.w	r3, {r0, r1}
    aa50:	f7fd fb7d 	bl	814e <Range_length>
    aa54:	4603      	mov	r3, r0
    aa56:	425c      	negs	r4, r3
    aa58:	f507 73c0 	add.w	r3, r7, #384	; 0x180
    aa5c:	f5a3 7390 	sub.w	r3, r3, #288	; 0x120
    aa60:	6819      	ldr	r1, [r3, #0]
    aa62:	f507 73c0 	add.w	r3, r7, #384	; 0x180
    aa66:	f5a3 7394 	sub.w	r3, r3, #296	; 0x128
    aa6a:	685a      	ldr	r2, [r3, #4]
    aa6c:	f507 5387 	add.w	r3, r7, #4320	; 0x10e0
    aa70:	f103 0308 	add.w	r3, r3, #8
    aa74:	4618      	mov	r0, r3
    aa76:	f7fd fb78 	bl	816a <MakeRange>
    aa7a:	f507 73c0 	add.w	r3, r7, #384	; 0x180
    aa7e:	f5a3 70b6 	sub.w	r0, r3, #364	; 0x16c
    aa82:	2300      	movs	r3, #0
    aa84:	9301      	str	r3, [sp, #4]
    aa86:	f107 03c0 	add.w	r3, r7, #192	; 0xc0
    aa8a:	3b18      	subs	r3, #24
    aa8c:	9300      	str	r3, [sp, #0]
    aa8e:	f507 5387 	add.w	r3, r7, #4320	; 0x10e0
    aa92:	f103 0308 	add.w	r3, r3, #8
    aa96:	cb0c      	ldmia	r3, {r2, r3}
    aa98:	4621      	mov	r1, r4
    aa9a:	6800      	ldr	r0, [r0, #0]
    aa9c:	f7fd fd13 	bl	84c6 <Rotate>
    aaa0:	f507 73c0 	add.w	r3, r7, #384	; 0x180
    aaa4:	f5a3 7390 	sub.w	r3, r3, #288	; 0x120
    aaa8:	681d      	ldr	r5, [r3, #0]
    aaaa:	f507 73c0 	add.w	r3, r7, #384	; 0x180
    aaae:	f5a3 7390 	sub.w	r3, r3, #288	; 0x120
    aab2:	681c      	ldr	r4, [r3, #0]
    aab4:	f507 73c0 	add.w	r3, r7, #384	; 0x180
    aab8:	f5a3 7394 	sub.w	r3, r3, #296	; 0x128
    aabc:	e893 0003 	ldmia.w	r3, {r0, r1}
    aac0:	f7fd fb45 	bl	814e <Range_length>
    aac4:	4603      	mov	r3, r0
    aac6:	18e2      	adds	r2, r4, r3
    aac8:	f507 73c0 	add.w	r3, r7, #384	; 0x180
    aacc:	f5a3 74a0 	sub.w	r4, r3, #320	; 0x140
    aad0:	463b      	mov	r3, r7
    aad2:	4629      	mov	r1, r5
    aad4:	4618      	mov	r0, r3
    aad6:	f7fd fb48 	bl	816a <MakeRange>
    aada:	f507 73c0 	add.w	r3, r7, #384	; 0x180
    aade:	f5a3 72c0 	sub.w	r2, r3, #384	; 0x180
    aae2:	4623      	mov	r3, r4
    aae4:	e892 0003 	ldmia.w	r2, {r0, r1}
    aae8:	e883 0003 	stmia.w	r3, {r0, r1}
    aaec:	f507 73c0 	add.w	r3, r7, #384	; 0x180
    aaf0:	f5a3 7394 	sub.w	r3, r3, #296	; 0x128
    aaf4:	e893 0003 	ldmia.w	r3, {r0, r1}
    aaf8:	f7fd fb29 	bl	814e <Range_length>
    aafc:	4602      	mov	r2, r0
    aafe:	f507 73c0 	add.w	r3, r7, #384	; 0x180
    ab02:	f5a3 7390 	sub.w	r3, r3, #288	; 0x120
    ab06:	681b      	ldr	r3, [r3, #0]
    ab08:	441a      	add	r2, r3
    ab0a:	f507 73c0 	add.w	r3, r7, #384	; 0x180
    ab0e:	f5a3 7390 	sub.w	r3, r3, #288	; 0x120
    ab12:	601a      	str	r2, [r3, #0]
    ab14:	f507 73c0 	add.w	r3, r7, #384	; 0x180
    ab18:	f5a3 7394 	sub.w	r3, r3, #296	; 0x128
    ab1c:	e893 0003 	ldmia.w	r3, {r0, r1}
    ab20:	f7fd fb15 	bl	814e <Range_length>
    ab24:	4602      	mov	r2, r0
    ab26:	f507 73c0 	add.w	r3, r7, #384	; 0x180
    ab2a:	f5a3 7390 	sub.w	r3, r3, #288	; 0x120
    ab2e:	685b      	ldr	r3, [r3, #4]
    ab30:	441a      	add	r2, r3
    ab32:	f507 73c0 	add.w	r3, r7, #384	; 0x180
    ab36:	f5a3 7390 	sub.w	r3, r3, #288	; 0x120
    ab3a:	605a      	str	r2, [r3, #4]
    ab3c:	f507 73c0 	add.w	r3, r7, #384	; 0x180
    ab40:	f5a3 7394 	sub.w	r3, r3, #296	; 0x128
    ab44:	e893 0003 	ldmia.w	r3, {r0, r1}
    ab48:	f7fd fb01 	bl	814e <Range_length>
    ab4c:	4602      	mov	r2, r0
    ab4e:	f507 538b 	add.w	r3, r7, #4448	; 0x1160
    ab52:	681b      	ldr	r3, [r3, #0]
    ab54:	4413      	add	r3, r2
    ab56:	f507 528b 	add.w	r2, r7, #4448	; 0x1160
    ab5a:	6013      	str	r3, [r2, #0]
    ab5c:	f507 73c0 	add.w	r3, r7, #384	; 0x180
    ab60:	f5a3 7394 	sub.w	r3, r3, #296	; 0x128
    ab64:	681a      	ldr	r2, [r3, #0]
    ab66:	f507 73c0 	add.w	r3, r7, #384	; 0x180
    ab6a:	f5a3 7394 	sub.w	r3, r3, #296	; 0x128
    ab6e:	605a      	str	r2, [r3, #4]
    ab70:	e51f      	b.n	a5b2 <WikiSort+0x1cce>
    ab72:	f507 73c0 	add.w	r3, r7, #384	; 0x180
    ab76:	f5a3 7390 	sub.w	r3, r3, #288	; 0x120
    ab7a:	6819      	ldr	r1, [r3, #0]
    ab7c:	f507 73c0 	add.w	r3, r7, #384	; 0x180
    ab80:	f5a3 7394 	sub.w	r3, r3, #296	; 0x128
    ab84:	681a      	ldr	r2, [r3, #0]
    ab86:	f507 73c0 	add.w	r3, r7, #384	; 0x180
    ab8a:	f5a3 70b6 	sub.w	r0, r3, #364	; 0x16c
    ab8e:	f507 538a 	add.w	r3, r7, #4416	; 0x1140
    ab92:	f103 0308 	add.w	r3, r3, #8
    ab96:	681b      	ldr	r3, [r3, #0]
    ab98:	6800      	ldr	r0, [r0, #0]
    ab9a:	f7fd fc5a 	bl	8452 <BlockSwap>
    ab9e:	f507 73c0 	add.w	r3, r7, #384	; 0x180
    aba2:	f5a3 7390 	sub.w	r3, r3, #288	; 0x120
    aba6:	6819      	ldr	r1, [r3, #0]
    aba8:	f507 73c0 	add.w	r3, r7, #384	; 0x180
    abac:	f5a3 7390 	sub.w	r3, r3, #288	; 0x120
    abb0:	681a      	ldr	r2, [r3, #0]
    abb2:	f507 538a 	add.w	r3, r7, #4416	; 0x1140
    abb6:	f103 0308 	add.w	r3, r3, #8
    abba:	681b      	ldr	r3, [r3, #0]
    abbc:	441a      	add	r2, r3
    abbe:	f507 73c0 	add.w	r3, r7, #384	; 0x180
    abc2:	f5a3 74a0 	sub.w	r4, r3, #320	; 0x140
    abc6:	463b      	mov	r3, r7
    abc8:	4618      	mov	r0, r3
    abca:	f7fd face 	bl	816a <MakeRange>
    abce:	f507 73c0 	add.w	r3, r7, #384	; 0x180
    abd2:	f5a3 72c0 	sub.w	r2, r3, #384	; 0x180
    abd6:	4623      	mov	r3, r4
    abd8:	e892 0003 	ldmia.w	r2, {r0, r1}
    abdc:	e883 0003 	stmia.w	r3, {r0, r1}
    abe0:	f507 73c0 	add.w	r3, r7, #384	; 0x180
    abe4:	f5a3 7390 	sub.w	r3, r3, #288	; 0x120
    abe8:	681b      	ldr	r3, [r3, #0]
    abea:	f507 528b 	add.w	r2, r7, #4448	; 0x1160
    abee:	6812      	ldr	r2, [r2, #0]
    abf0:	429a      	cmp	r2, r3
    abf2:	d107      	bne.n	ac04 <WikiSort+0x2320>
    abf4:	f507 73c0 	add.w	r3, r7, #384	; 0x180
    abf8:	f5a3 7390 	sub.w	r3, r3, #288	; 0x120
    abfc:	685b      	ldr	r3, [r3, #4]
    abfe:	f507 528b 	add.w	r2, r7, #4448	; 0x1160
    ac02:	6013      	str	r3, [r2, #0]
    ac04:	f507 73c0 	add.w	r3, r7, #384	; 0x180
    ac08:	f5a3 7390 	sub.w	r3, r3, #288	; 0x120
    ac0c:	681a      	ldr	r2, [r3, #0]
    ac0e:	f507 538a 	add.w	r3, r7, #4416	; 0x1140
    ac12:	f103 0308 	add.w	r3, r3, #8
    ac16:	681b      	ldr	r3, [r3, #0]
    ac18:	441a      	add	r2, r3
    ac1a:	f507 73c0 	add.w	r3, r7, #384	; 0x180
    ac1e:	f5a3 7390 	sub.w	r3, r3, #288	; 0x120
    ac22:	601a      	str	r2, [r3, #0]
    ac24:	f507 73c0 	add.w	r3, r7, #384	; 0x180
    ac28:	f5a3 7390 	sub.w	r3, r3, #288	; 0x120
    ac2c:	685a      	ldr	r2, [r3, #4]
    ac2e:	f507 538a 	add.w	r3, r7, #4416	; 0x1140
    ac32:	f103 0308 	add.w	r3, r3, #8
    ac36:	681b      	ldr	r3, [r3, #0]
    ac38:	441a      	add	r2, r3
    ac3a:	f507 73c0 	add.w	r3, r7, #384	; 0x180
    ac3e:	f5a3 7390 	sub.w	r3, r3, #288	; 0x120
    ac42:	605a      	str	r2, [r3, #4]
    ac44:	f507 73c0 	add.w	r3, r7, #384	; 0x180
    ac48:	f5a3 7394 	sub.w	r3, r3, #296	; 0x128
    ac4c:	681a      	ldr	r2, [r3, #0]
    ac4e:	f507 538a 	add.w	r3, r7, #4416	; 0x1140
    ac52:	f103 0308 	add.w	r3, r3, #8
    ac56:	681b      	ldr	r3, [r3, #0]
    ac58:	441a      	add	r2, r3
    ac5a:	f507 73c0 	add.w	r3, r7, #384	; 0x180
    ac5e:	f5a3 7394 	sub.w	r3, r3, #296	; 0x128
    ac62:	601a      	str	r2, [r3, #0]
    ac64:	f507 73c0 	add.w	r3, r7, #384	; 0x180
    ac68:	f5a3 7394 	sub.w	r3, r3, #296	; 0x128
    ac6c:	685a      	ldr	r2, [r3, #4]
    ac6e:	f507 538a 	add.w	r3, r7, #4416	; 0x1140
    ac72:	f103 0308 	add.w	r3, r3, #8
    ac76:	681b      	ldr	r3, [r3, #0]
    ac78:	441a      	add	r2, r3
    ac7a:	f507 73c0 	add.w	r3, r7, #384	; 0x180
    ac7e:	f5a3 7394 	sub.w	r3, r3, #296	; 0x128
    ac82:	605a      	str	r2, [r3, #4]
    ac84:	f507 73c0 	add.w	r3, r7, #384	; 0x180
    ac88:	f5a3 7394 	sub.w	r3, r3, #296	; 0x128
    ac8c:	685a      	ldr	r2, [r3, #4]
    ac8e:	f507 73c0 	add.w	r3, r7, #384	; 0x180
    ac92:	f5a3 7384 	sub.w	r3, r3, #264	; 0x108
    ac96:	681b      	ldr	r3, [r3, #0]
    ac98:	429a      	cmp	r2, r3
    ac9a:	f77f ac8a 	ble.w	a5b2 <WikiSort+0x1cce>
    ac9e:	f507 73c0 	add.w	r3, r7, #384	; 0x180
    aca2:	f5a3 7384 	sub.w	r3, r3, #264	; 0x108
    aca6:	681a      	ldr	r2, [r3, #0]
    aca8:	f507 73c0 	add.w	r3, r7, #384	; 0x180
    acac:	f5a3 7394 	sub.w	r3, r3, #296	; 0x128
    acb0:	605a      	str	r2, [r3, #4]
    acb2:	e47e      	b.n	a5b2 <WikiSort+0x1cce>
    acb4:	bf00      	nop
    acb6:	f507 73c0 	add.w	r3, r7, #384	; 0x180
    acba:	f5a3 739c 	sub.w	r3, r3, #312	; 0x138
    acbe:	685d      	ldr	r5, [r3, #4]
    acc0:	f507 73c0 	add.w	r3, r7, #384	; 0x180
    acc4:	f5a3 73ac 	sub.w	r3, r3, #344	; 0x158
    acc8:	685c      	ldr	r4, [r3, #4]
    acca:	f507 73c0 	add.w	r3, r7, #384	; 0x180
    acce:	f5a3 7384 	sub.w	r3, r3, #264	; 0x108
    acd2:	e893 0003 	ldmia.w	r3, {r0, r1}
    acd6:	f7fd fa3a 	bl	814e <Range_length>
    acda:	4603      	mov	r3, r0
    acdc:	1ae2      	subs	r2, r4, r3
    acde:	f507 5387 	add.w	r3, r7, #4320	; 0x10e0
    ace2:	f103 0310 	add.w	r3, r3, #16
    ace6:	4629      	mov	r1, r5
    ace8:	4618      	mov	r0, r3
    acea:	f7fd fa3e 	bl	816a <MakeRange>
    acee:	f507 73c0 	add.w	r3, r7, #384	; 0x180
    acf2:	f5a3 729c 	sub.w	r2, r3, #312	; 0x138
    acf6:	f507 73c0 	add.w	r3, r7, #384	; 0x180
    acfa:	f5a3 758c 	sub.w	r5, r3, #280	; 0x118
    acfe:	f507 73c0 	add.w	r3, r7, #384	; 0x180
    ad02:	f5a3 74b6 	sub.w	r4, r3, #364	; 0x16c
    ad06:	f507 538a 	add.w	r3, r7, #4416	; 0x1140
    ad0a:	f103 0314 	add.w	r3, r3, #20
    ad0e:	681b      	ldr	r3, [r3, #0]
    ad10:	9305      	str	r3, [sp, #20]
    ad12:	f107 03c0 	add.w	r3, r7, #192	; 0xc0
    ad16:	3b18      	subs	r3, #24
    ad18:	9304      	str	r3, [sp, #16]
    ad1a:	f507 73c0 	add.w	r3, r7, #384	; 0x180
    ad1e:	f5a3 73ba 	sub.w	r3, r3, #372	; 0x174
    ad22:	681b      	ldr	r3, [r3, #0]
    ad24:	9303      	str	r3, [sp, #12]
    ad26:	ae01      	add	r6, sp, #4
    ad28:	f507 5387 	add.w	r3, r7, #4320	; 0x10e0
    ad2c:	f103 0310 	add.w	r3, r3, #16
    ad30:	e893 0003 	ldmia.w	r3, {r0, r1}
    ad34:	e886 0003 	stmia.w	r6, {r0, r1}
    ad38:	6853      	ldr	r3, [r2, #4]
    ad3a:	9300      	str	r3, [sp, #0]
    ad3c:	6813      	ldr	r3, [r2, #0]
    ad3e:	e895 0006 	ldmia.w	r5, {r1, r2}
    ad42:	6820      	ldr	r0, [r4, #0]
    ad44:	f7fd fca8 	bl	8698 <WikiMerge>
    ad48:	e000      	b.n	ad4c <WikiSort+0x2468>
    ad4a:	bf00      	nop
    ad4c:	f507 73c0 	add.w	r3, r7, #384	; 0x180
    ad50:	f5a3 73b8 	sub.w	r3, r3, #368	; 0x170
    ad54:	f507 528b 	add.w	r2, r7, #4448	; 0x1160
    ad58:	f102 0210 	add.w	r2, r2, #16
    ad5c:	6812      	ldr	r2, [r2, #0]
    ad5e:	681b      	ldr	r3, [r3, #0]
    ad60:	429a      	cmp	r2, r3
    ad62:	f6fd af40 	blt.w	8be6 <WikiSort+0x302>
    ad66:	f507 73c0 	add.w	r3, r7, #384	; 0x180
    ad6a:	3be0      	subs	r3, #224	; 0xe0
    ad6c:	e893 0003 	ldmia.w	r3, {r0, r1}
    ad70:	f7fd f9ed 	bl	814e <Range_length>
    ad74:	4603      	mov	r3, r0
    ad76:	2b00      	cmp	r3, #0
    ad78:	f340 8178 	ble.w	b06c <WikiSort+0x2788>
    ad7c:	f507 73c0 	add.w	r3, r7, #384	; 0x180
    ad80:	f5a3 73ba 	sub.w	r3, r3, #372	; 0x174
    ad84:	f507 72c0 	add.w	r2, r7, #384	; 0x180
    ad88:	f507 71c0 	add.w	r1, r7, #384	; 0x180
    ad8c:	f5a1 70b6 	sub.w	r0, r1, #364	; 0x16c
    ad90:	681b      	ldr	r3, [r3, #0]
    ad92:	3ae8      	subs	r2, #232	; 0xe8
    ad94:	ca06      	ldmia	r2, {r1, r2}
    ad96:	6800      	ldr	r0, [r0, #0]
    ad98:	f7fd fac0 	bl	831c <InsertionSort>
    ad9c:	f507 73c0 	add.w	r3, r7, #384	; 0x180
    ada0:	f853 3cf0 	ldr.w	r3, [r3, #-240]
    ada4:	f507 528a 	add.w	r2, r7, #4416	; 0x1140
    ada8:	6013      	str	r3, [r2, #0]
    adaa:	f507 73c0 	add.w	r3, r7, #384	; 0x180
    adae:	f853 3cec 	ldr.w	r3, [r3, #-236]
    adb2:	f507 528b 	add.w	r2, r7, #4448	; 0x1160
    adb6:	f102 021c 	add.w	r2, r2, #28
    adba:	6013      	str	r3, [r2, #0]
    adbc:	e09b      	b.n	aef6 <WikiSort+0x2612>
    adbe:	f507 73c0 	add.w	r3, r7, #384	; 0x180
    adc2:	f853 3cf8 	ldr.w	r3, [r3, #-248]
    adc6:	f507 528b 	add.w	r2, r7, #4448	; 0x1160
    adca:	f102 021c 	add.w	r2, r2, #28
    adce:	6812      	ldr	r2, [r2, #0]
    add0:	429a      	cmp	r2, r3
    add2:	d021      	beq.n	ae18 <WikiSort+0x2534>
    add4:	f507 538b 	add.w	r3, r7, #4448	; 0x1160
    add8:	f103 031c 	add.w	r3, r3, #28
    addc:	681b      	ldr	r3, [r3, #0]
    adde:	00db      	lsls	r3, r3, #3
    ade0:	f507 72c0 	add.w	r2, r7, #384	; 0x180
    ade4:	f5a2 72b6 	sub.w	r2, r2, #364	; 0x16c
    ade8:	6812      	ldr	r2, [r2, #0]
    adea:	18d1      	adds	r1, r2, r3
    adec:	f507 73c0 	add.w	r3, r7, #384	; 0x180
    adf0:	f853 3cf0 	ldr.w	r3, [r3, #-240]
    adf4:	00db      	lsls	r3, r3, #3
    adf6:	f507 72c0 	add.w	r2, r7, #384	; 0x180
    adfa:	f5a2 72b6 	sub.w	r2, r2, #364	; 0x16c
    adfe:	6812      	ldr	r2, [r2, #0]
    ae00:	4413      	add	r3, r2
    ae02:	f507 72c0 	add.w	r2, r7, #384	; 0x180
    ae06:	f5a2 72ba 	sub.w	r2, r2, #372	; 0x174
    ae0a:	6814      	ldr	r4, [r2, #0]
    ae0c:	cb0c      	ldmia	r3, {r2, r3}
    ae0e:	c903      	ldmia	r1, {r0, r1}
    ae10:	47a0      	blx	r4
    ae12:	4603      	mov	r3, r0
    ae14:	2b00      	cmp	r3, #0
    ae16:	d163      	bne.n	aee0 <WikiSort+0x25fc>
    ae18:	f507 73c0 	add.w	r3, r7, #384	; 0x180
    ae1c:	f853 3cec 	ldr.w	r3, [r3, #-236]
    ae20:	f507 528b 	add.w	r2, r7, #4448	; 0x1160
    ae24:	f102 021c 	add.w	r2, r2, #28
    ae28:	6812      	ldr	r2, [r2, #0]
    ae2a:	1ad3      	subs	r3, r2, r3
    ae2c:	f507 5289 	add.w	r2, r7, #4384	; 0x1120
    ae30:	f102 0218 	add.w	r2, r2, #24
    ae34:	6013      	str	r3, [r2, #0]
    ae36:	f507 5389 	add.w	r3, r7, #4384	; 0x1120
    ae3a:	f103 0318 	add.w	r3, r3, #24
    ae3e:	681b      	ldr	r3, [r3, #0]
    ae40:	425c      	negs	r4, r3
    ae42:	f507 73c0 	add.w	r3, r7, #384	; 0x180
    ae46:	f853 1cf0 	ldr.w	r1, [r3, #-240]
    ae4a:	f507 5387 	add.w	r3, r7, #4320	; 0x10e0
    ae4e:	f103 0318 	add.w	r3, r3, #24
    ae52:	f507 528b 	add.w	r2, r7, #4448	; 0x1160
    ae56:	f102 021c 	add.w	r2, r2, #28
    ae5a:	6812      	ldr	r2, [r2, #0]
    ae5c:	4618      	mov	r0, r3
    ae5e:	f7fd f984 	bl	816a <MakeRange>
    ae62:	f507 73c0 	add.w	r3, r7, #384	; 0x180
    ae66:	f5a3 70b6 	sub.w	r0, r3, #364	; 0x16c
    ae6a:	f507 538a 	add.w	r3, r7, #4416	; 0x1140
    ae6e:	f103 0314 	add.w	r3, r3, #20
    ae72:	681b      	ldr	r3, [r3, #0]
    ae74:	9301      	str	r3, [sp, #4]
    ae76:	f107 03c0 	add.w	r3, r7, #192	; 0xc0
    ae7a:	3b18      	subs	r3, #24
    ae7c:	9300      	str	r3, [sp, #0]
    ae7e:	f507 5387 	add.w	r3, r7, #4320	; 0x10e0
    ae82:	f103 0318 	add.w	r3, r3, #24
    ae86:	cb0c      	ldmia	r3, {r2, r3}
    ae88:	4621      	mov	r1, r4
    ae8a:	6800      	ldr	r0, [r0, #0]
    ae8c:	f7fd fb1b 	bl	84c6 <Rotate>
    ae90:	f507 73c0 	add.w	r3, r7, #384	; 0x180
    ae94:	f853 2cf0 	ldr.w	r2, [r3, #-240]
    ae98:	f507 5389 	add.w	r3, r7, #4384	; 0x1120
    ae9c:	f103 0318 	add.w	r3, r3, #24
    aea0:	681b      	ldr	r3, [r3, #0]
    aea2:	3301      	adds	r3, #1
    aea4:	4413      	add	r3, r2
    aea6:	f507 72c0 	add.w	r2, r7, #384	; 0x180
    aeaa:	f842 3cf0 	str.w	r3, [r2, #-240]
    aeae:	f507 73c0 	add.w	r3, r7, #384	; 0x180
    aeb2:	f853 2cec 	ldr.w	r2, [r3, #-236]
    aeb6:	f507 5389 	add.w	r3, r7, #4384	; 0x1120
    aeba:	f103 0318 	add.w	r3, r3, #24
    aebe:	681b      	ldr	r3, [r3, #0]
    aec0:	4413      	add	r3, r2
    aec2:	f507 72c0 	add.w	r2, r7, #384	; 0x180
    aec6:	f842 3cec 	str.w	r3, [r2, #-236]
    aeca:	f507 538b 	add.w	r3, r7, #4448	; 0x1160
    aece:	f103 031c 	add.w	r3, r3, #28
    aed2:	681b      	ldr	r3, [r3, #0]
    aed4:	3b01      	subs	r3, #1
    aed6:	f507 528b 	add.w	r2, r7, #4448	; 0x1160
    aeda:	f102 021c 	add.w	r2, r2, #28
    aede:	6013      	str	r3, [r2, #0]
    aee0:	f507 538b 	add.w	r3, r7, #4448	; 0x1160
    aee4:	f103 031c 	add.w	r3, r3, #28
    aee8:	681b      	ldr	r3, [r3, #0]
    aeea:	3301      	adds	r3, #1
    aeec:	f507 528b 	add.w	r2, r7, #4448	; 0x1160
    aef0:	f102 021c 	add.w	r2, r2, #28
    aef4:	6013      	str	r3, [r2, #0]
    aef6:	f507 73c0 	add.w	r3, r7, #384	; 0x180
    aefa:	3bf0      	subs	r3, #240	; 0xf0
    aefc:	e893 0003 	ldmia.w	r3, {r0, r1}
    af00:	f7fd f925 	bl	814e <Range_length>
    af04:	4603      	mov	r3, r0
    af06:	2b00      	cmp	r3, #0
    af08:	f73f af59 	bgt.w	adbe <WikiSort+0x24da>
    af0c:	f507 73c0 	add.w	r3, r7, #384	; 0x180
    af10:	f853 3cf8 	ldr.w	r3, [r3, #-248]
    af14:	f507 528b 	add.w	r2, r7, #4448	; 0x1160
    af18:	f102 021c 	add.w	r2, r2, #28
    af1c:	6013      	str	r3, [r2, #0]
    af1e:	e09a      	b.n	b056 <WikiSort+0x2772>
    af20:	f507 538b 	add.w	r3, r7, #4448	; 0x1160
    af24:	f103 031c 	add.w	r3, r3, #28
    af28:	681a      	ldr	r2, [r3, #0]
    af2a:	f507 538a 	add.w	r3, r7, #4416	; 0x1140
    af2e:	681b      	ldr	r3, [r3, #0]
    af30:	429a      	cmp	r2, r3
    af32:	d027      	beq.n	af84 <WikiSort+0x26a0>
    af34:	f507 73c0 	add.w	r3, r7, #384	; 0x180
    af38:	f853 3cf4 	ldr.w	r3, [r3, #-244]
    af3c:	f103 5300 	add.w	r3, r3, #536870912	; 0x20000000
    af40:	3b01      	subs	r3, #1
    af42:	00db      	lsls	r3, r3, #3
    af44:	f507 72c0 	add.w	r2, r7, #384	; 0x180
    af48:	f5a2 72b6 	sub.w	r2, r2, #364	; 0x16c
    af4c:	6812      	ldr	r2, [r2, #0]
    af4e:	18d1      	adds	r1, r2, r3
    af50:	f507 538b 	add.w	r3, r7, #4448	; 0x1160
    af54:	f103 031c 	add.w	r3, r3, #28
    af58:	681b      	ldr	r3, [r3, #0]
    af5a:	f103 5300 	add.w	r3, r3, #536870912	; 0x20000000
    af5e:	3b01      	subs	r3, #1
    af60:	00db      	lsls	r3, r3, #3
    af62:	f507 72c0 	add.w	r2, r7, #384	; 0x180
    af66:	f5a2 72b6 	sub.w	r2, r2, #364	; 0x16c
    af6a:	6812      	ldr	r2, [r2, #0]
    af6c:	4413      	add	r3, r2
    af6e:	f507 72c0 	add.w	r2, r7, #384	; 0x180
    af72:	f5a2 72ba 	sub.w	r2, r2, #372	; 0x174
    af76:	6814      	ldr	r4, [r2, #0]
    af78:	cb0c      	ldmia	r3, {r2, r3}
    af7a:	c903      	ldmia	r1, {r0, r1}
    af7c:	47a0      	blx	r4
    af7e:	4603      	mov	r3, r0
    af80:	2b00      	cmp	r3, #0
    af82:	d15d      	bne.n	b040 <WikiSort+0x275c>
    af84:	f507 73c0 	add.w	r3, r7, #384	; 0x180
    af88:	f853 2cf8 	ldr.w	r2, [r3, #-248]
    af8c:	f507 538b 	add.w	r3, r7, #4448	; 0x1160
    af90:	f103 031c 	add.w	r3, r3, #28
    af94:	681b      	ldr	r3, [r3, #0]
    af96:	1ad3      	subs	r3, r2, r3
    af98:	f507 5289 	add.w	r2, r7, #4384	; 0x1120
    af9c:	f102 021c 	add.w	r2, r2, #28
    afa0:	6013      	str	r3, [r2, #0]
    afa2:	f507 73c0 	add.w	r3, r7, #384	; 0x180
    afa6:	f853 2cf4 	ldr.w	r2, [r3, #-244]
    afaa:	f507 5388 	add.w	r3, r7, #4352	; 0x1100
    afae:	f507 518b 	add.w	r1, r7, #4448	; 0x1160
    afb2:	f101 011c 	add.w	r1, r1, #28
    afb6:	6809      	ldr	r1, [r1, #0]
    afb8:	4618      	mov	r0, r3
    afba:	f7fd f8d6 	bl	816a <MakeRange>
    afbe:	f507 73c0 	add.w	r3, r7, #384	; 0x180
    afc2:	f5a3 70b6 	sub.w	r0, r3, #364	; 0x16c
    afc6:	f507 538a 	add.w	r3, r7, #4416	; 0x1140
    afca:	f103 0314 	add.w	r3, r3, #20
    afce:	681b      	ldr	r3, [r3, #0]
    afd0:	9301      	str	r3, [sp, #4]
    afd2:	f107 03c0 	add.w	r3, r7, #192	; 0xc0
    afd6:	3b18      	subs	r3, #24
    afd8:	9300      	str	r3, [sp, #0]
    afda:	f507 5388 	add.w	r3, r7, #4352	; 0x1100
    afde:	cb0c      	ldmia	r3, {r2, r3}
    afe0:	f507 5189 	add.w	r1, r7, #4384	; 0x1120
    afe4:	f101 011c 	add.w	r1, r1, #28
    afe8:	6809      	ldr	r1, [r1, #0]
    afea:	6800      	ldr	r0, [r0, #0]
    afec:	f7fd fa6b 	bl	84c6 <Rotate>
    aff0:	f507 73c0 	add.w	r3, r7, #384	; 0x180
    aff4:	f853 2cf8 	ldr.w	r2, [r3, #-248]
    aff8:	f507 5389 	add.w	r3, r7, #4384	; 0x1120
    affc:	f103 031c 	add.w	r3, r3, #28
    b000:	681b      	ldr	r3, [r3, #0]
    b002:	1ad3      	subs	r3, r2, r3
    b004:	f507 72c0 	add.w	r2, r7, #384	; 0x180
    b008:	f842 3cf8 	str.w	r3, [r2, #-248]
    b00c:	f507 73c0 	add.w	r3, r7, #384	; 0x180
    b010:	f853 2cf4 	ldr.w	r2, [r3, #-244]
    b014:	f507 5389 	add.w	r3, r7, #4384	; 0x1120
    b018:	f103 031c 	add.w	r3, r3, #28
    b01c:	681b      	ldr	r3, [r3, #0]
    b01e:	3301      	adds	r3, #1
    b020:	1ad3      	subs	r3, r2, r3
    b022:	f507 72c0 	add.w	r2, r7, #384	; 0x180
    b026:	f842 3cf4 	str.w	r3, [r2, #-244]
    b02a:	f507 538b 	add.w	r3, r7, #4448	; 0x1160
    b02e:	f103 031c 	add.w	r3, r3, #28
    b032:	681b      	ldr	r3, [r3, #0]
    b034:	3301      	adds	r3, #1
    b036:	f507 528b 	add.w	r2, r7, #4448	; 0x1160
    b03a:	f102 021c 	add.w	r2, r2, #28
    b03e:	6013      	str	r3, [r2, #0]
    b040:	f507 538b 	add.w	r3, r7, #4448	; 0x1160
    b044:	f103 031c 	add.w	r3, r3, #28
    b048:	681b      	ldr	r3, [r3, #0]
    b04a:	3b01      	subs	r3, #1
    b04c:	f507 528b 	add.w	r2, r7, #4448	; 0x1160
    b050:	f102 021c 	add.w	r2, r2, #28
    b054:	6013      	str	r3, [r2, #0]
    b056:	f507 73c0 	add.w	r3, r7, #384	; 0x180
    b05a:	3bf8      	subs	r3, #248	; 0xf8
    b05c:	e893 0003 	ldmia.w	r3, {r0, r1}
    b060:	f7fd f875 	bl	814e <Range_length>
    b064:	4603      	mov	r3, r0
    b066:	2b00      	cmp	r3, #0
    b068:	f73f af5a 	bgt.w	af20 <WikiSort+0x263c>
    b06c:	f507 538b 	add.w	r3, r7, #4448	; 0x1160
    b070:	f103 0308 	add.w	r3, r3, #8
    b074:	681b      	ldr	r3, [r3, #0]
    b076:	005b      	lsls	r3, r3, #1
    b078:	f507 528b 	add.w	r2, r7, #4448	; 0x1160
    b07c:	f102 0208 	add.w	r2, r2, #8
    b080:	6013      	str	r3, [r2, #0]
    b082:	f507 538b 	add.w	r3, r7, #4448	; 0x1160
    b086:	f103 030c 	add.w	r3, r3, #12
    b08a:	681b      	ldr	r3, [r3, #0]
    b08c:	005b      	lsls	r3, r3, #1
    b08e:	f507 528b 	add.w	r2, r7, #4448	; 0x1160
    b092:	f102 020c 	add.w	r2, r2, #12
    b096:	6013      	str	r3, [r2, #0]
    b098:	f507 538b 	add.w	r3, r7, #4448	; 0x1160
    b09c:	f103 030c 	add.w	r3, r3, #12
    b0a0:	681a      	ldr	r2, [r3, #0]
    b0a2:	f507 538a 	add.w	r3, r7, #4416	; 0x1140
    b0a6:	f103 030c 	add.w	r3, r3, #12
    b0aa:	681b      	ldr	r3, [r3, #0]
    b0ac:	429a      	cmp	r2, r3
    b0ae:	db1a      	blt.n	b0e6 <WikiSort+0x2802>
    b0b0:	f507 538b 	add.w	r3, r7, #4448	; 0x1160
    b0b4:	f103 030c 	add.w	r3, r3, #12
    b0b8:	681a      	ldr	r2, [r3, #0]
    b0ba:	f507 538a 	add.w	r3, r7, #4416	; 0x1140
    b0be:	f103 030c 	add.w	r3, r3, #12
    b0c2:	681b      	ldr	r3, [r3, #0]
    b0c4:	1ad3      	subs	r3, r2, r3
    b0c6:	f507 528b 	add.w	r2, r7, #4448	; 0x1160
    b0ca:	f102 020c 	add.w	r2, r2, #12
    b0ce:	6013      	str	r3, [r2, #0]
    b0d0:	f507 538b 	add.w	r3, r7, #4448	; 0x1160
    b0d4:	f103 0308 	add.w	r3, r3, #8
    b0d8:	681b      	ldr	r3, [r3, #0]
    b0da:	3301      	adds	r3, #1
    b0dc:	f507 528b 	add.w	r2, r7, #4448	; 0x1160
    b0e0:	f102 0208 	add.w	r2, r2, #8
    b0e4:	6013      	str	r3, [r2, #0]
    b0e6:	f507 538b 	add.w	r3, r7, #4448	; 0x1160
    b0ea:	f103 0318 	add.w	r3, r3, #24
    b0ee:	681b      	ldr	r3, [r3, #0]
    b0f0:	005b      	lsls	r3, r3, #1
    b0f2:	f507 528b 	add.w	r2, r7, #4448	; 0x1160
    b0f6:	f102 0218 	add.w	r2, r2, #24
    b0fa:	6013      	str	r3, [r2, #0]
    b0fc:	f507 538b 	add.w	r3, r7, #4448	; 0x1160
    b100:	f103 0318 	add.w	r3, r3, #24
    b104:	681a      	ldr	r2, [r3, #0]
    b106:	f507 538a 	add.w	r3, r7, #4416	; 0x1140
    b10a:	f103 0310 	add.w	r3, r3, #16
    b10e:	681b      	ldr	r3, [r3, #0]
    b110:	429a      	cmp	r2, r3
    b112:	f6fd ad0b 	blt.w	8b2c <WikiSort+0x248>
    b116:	f507 578c 	add.w	r7, r7, #4480	; 0x1180
    b11a:	3704      	adds	r7, #4
    b11c:	46bd      	mov	sp, r7
    b11e:	bdf0      	pop	{r4, r5, r6, r7, pc}

0000b120 <TestingPathological>:
    b120:	b480      	push	{r7}
    b122:	b083      	sub	sp, #12
    b124:	af00      	add	r7, sp, #0
    b126:	6078      	str	r0, [r7, #4]
    b128:	6039      	str	r1, [r7, #0]
    b12a:	687b      	ldr	r3, [r7, #4]
    b12c:	2b00      	cmp	r3, #0
    b12e:	d101      	bne.n	b134 <TestingPathological+0x14>
    b130:	230a      	movs	r3, #10
    b132:	e011      	b.n	b158 <TestingPathological+0x38>
    b134:	683b      	ldr	r3, [r7, #0]
    b136:	0fda      	lsrs	r2, r3, #31
    b138:	4413      	add	r3, r2
    b13a:	105b      	asrs	r3, r3, #1
    b13c:	461a      	mov	r2, r3
    b13e:	687b      	ldr	r3, [r7, #4]
    b140:	4293      	cmp	r3, r2
    b142:	da01      	bge.n	b148 <TestingPathological+0x28>
    b144:	230b      	movs	r3, #11
    b146:	e007      	b.n	b158 <TestingPathological+0x38>
    b148:	683b      	ldr	r3, [r7, #0]
    b14a:	3b01      	subs	r3, #1
    b14c:	687a      	ldr	r2, [r7, #4]
    b14e:	429a      	cmp	r2, r3
    b150:	d101      	bne.n	b156 <TestingPathological+0x36>
    b152:	230a      	movs	r3, #10
    b154:	e000      	b.n	b158 <TestingPathological+0x38>
    b156:	2309      	movs	r3, #9
    b158:	4618      	mov	r0, r3
    b15a:	370c      	adds	r7, #12
    b15c:	46bd      	mov	sp, r7
    b15e:	bc80      	pop	{r7}
    b160:	4770      	bx	lr

0000b162 <TestingRandom>:
    b162:	b580      	push	{r7, lr}
    b164:	b082      	sub	sp, #8
    b166:	af00      	add	r7, sp, #0
    b168:	6078      	str	r0, [r7, #4]
    b16a:	6039      	str	r1, [r7, #0]
    b16c:	f000 f9ee 	bl	b54c <rand_beebs>
    b170:	4603      	mov	r3, r0
    b172:	4618      	mov	r0, r3
    b174:	3708      	adds	r7, #8
    b176:	46bd      	mov	sp, r7
    b178:	bd80      	pop	{r7, pc}
    b17a:	0000      	movs	r0, r0
    b17c:	0000      	movs	r0, r0
    b17e:	0000      	movs	r0, r0

0000b180 <TestingMostlyDescending>:
    b180:	b5b0      	push	{r4, r5, r7, lr}
    b182:	b082      	sub	sp, #8
    b184:	af00      	add	r7, sp, #0
    b186:	6078      	str	r0, [r7, #4]
    b188:	6039      	str	r1, [r7, #0]
    b18a:	683a      	ldr	r2, [r7, #0]
    b18c:	687b      	ldr	r3, [r7, #4]
    b18e:	1ad3      	subs	r3, r2, r3
    b190:	4618      	mov	r0, r3
    b192:	f000 fc43 	bl	ba1c <__aeabi_i2d>
    b196:	4604      	mov	r4, r0
    b198:	460d      	mov	r5, r1
    b19a:	f000 f9d7 	bl	b54c <rand_beebs>
    b19e:	4603      	mov	r3, r0
    b1a0:	4618      	mov	r0, r3
    b1a2:	f000 fc3b 	bl	ba1c <__aeabi_i2d>
    b1a6:	a314      	add	r3, pc, #80	; (adr r3, b1f8 <TestingMostlyDescending+0x78>)
    b1a8:	e9d3 2300 	ldrd	r2, r3, [r3]
    b1ac:	f000 fdca 	bl	bd44 <__aeabi_ddiv>
    b1b0:	4602      	mov	r2, r0
    b1b2:	460b      	mov	r3, r1
    b1b4:	4610      	mov	r0, r2
    b1b6:	4619      	mov	r1, r3
    b1b8:	f04f 0200 	mov.w	r2, #0
    b1bc:	4b10      	ldr	r3, [pc, #64]	; (b200 <TestingMostlyDescending+0x80>)
    b1be:	f000 fc97 	bl	baf0 <__aeabi_dmul>
    b1c2:	4602      	mov	r2, r0
    b1c4:	460b      	mov	r3, r1
    b1c6:	4620      	mov	r0, r4
    b1c8:	4629      	mov	r1, r5
    b1ca:	f000 fadb 	bl	b784 <__adddf3>
    b1ce:	4602      	mov	r2, r0
    b1d0:	460b      	mov	r3, r1
    b1d2:	4610      	mov	r0, r2
    b1d4:	4619      	mov	r1, r3
    b1d6:	f04f 0200 	mov.w	r2, #0
    b1da:	4b0a      	ldr	r3, [pc, #40]	; (b204 <TestingMostlyDescending+0x84>)
    b1dc:	f000 fad0 	bl	b780 <__aeabi_dsub>
    b1e0:	4602      	mov	r2, r0
    b1e2:	460b      	mov	r3, r1
    b1e4:	4610      	mov	r0, r2
    b1e6:	4619      	mov	r1, r3
    b1e8:	f000 ff32 	bl	c050 <__aeabi_d2iz>
    b1ec:	4603      	mov	r3, r0
    b1ee:	4618      	mov	r0, r3
    b1f0:	3708      	adds	r7, #8
    b1f2:	46bd      	mov	sp, r7
    b1f4:	bdb0      	pop	{r4, r5, r7, pc}
    b1f6:	bf00      	nop
    b1f8:	ffc00000 	.word	0xffc00000
    b1fc:	41dfffff 	.word	0x41dfffff
    b200:	40140000 	.word	0x40140000
    b204:	40040000 	.word	0x40040000

0000b208 <TestingMostlyAscending>:
    b208:	b5b0      	push	{r4, r5, r7, lr}
    b20a:	b082      	sub	sp, #8
    b20c:	af00      	add	r7, sp, #0
    b20e:	6078      	str	r0, [r7, #4]
    b210:	6039      	str	r1, [r7, #0]
    b212:	6878      	ldr	r0, [r7, #4]
    b214:	f000 fc02 	bl	ba1c <__aeabi_i2d>
    b218:	4604      	mov	r4, r0
    b21a:	460d      	mov	r5, r1
    b21c:	f000 f996 	bl	b54c <rand_beebs>
    b220:	4603      	mov	r3, r0
    b222:	4618      	mov	r0, r3
    b224:	f000 fbfa 	bl	ba1c <__aeabi_i2d>
    b228:	a313      	add	r3, pc, #76	; (adr r3, b278 <TestingMostlyAscending+0x70>)
    b22a:	e9d3 2300 	ldrd	r2, r3, [r3]
    b22e:	f000 fd89 	bl	bd44 <__aeabi_ddiv>
    b232:	4602      	mov	r2, r0
    b234:	460b      	mov	r3, r1
    b236:	4610      	mov	r0, r2
    b238:	4619      	mov	r1, r3
    b23a:	f04f 0200 	mov.w	r2, #0
    b23e:	4b10      	ldr	r3, [pc, #64]	; (b280 <TestingMostlyAscending+0x78>)
    b240:	f000 fc56 	bl	baf0 <__aeabi_dmul>
    b244:	4602      	mov	r2, r0
    b246:	460b      	mov	r3, r1
    b248:	4620      	mov	r0, r4
    b24a:	4629      	mov	r1, r5
    b24c:	f000 fa9a 	bl	b784 <__adddf3>
    b250:	4602      	mov	r2, r0
    b252:	460b      	mov	r3, r1
    b254:	4610      	mov	r0, r2
    b256:	4619      	mov	r1, r3
    b258:	f04f 0200 	mov.w	r2, #0
    b25c:	4b09      	ldr	r3, [pc, #36]	; (b284 <TestingMostlyAscending+0x7c>)
    b25e:	f000 fa8f 	bl	b780 <__aeabi_dsub>
    b262:	4602      	mov	r2, r0
    b264:	460b      	mov	r3, r1
    b266:	4610      	mov	r0, r2
    b268:	4619      	mov	r1, r3
    b26a:	f000 fef1 	bl	c050 <__aeabi_d2iz>
    b26e:	4603      	mov	r3, r0
    b270:	4618      	mov	r0, r3
    b272:	3708      	adds	r7, #8
    b274:	46bd      	mov	sp, r7
    b276:	bdb0      	pop	{r4, r5, r7, pc}
    b278:	ffc00000 	.word	0xffc00000
    b27c:	41dfffff 	.word	0x41dfffff
    b280:	40140000 	.word	0x40140000
    b284:	40040000 	.word	0x40040000

0000b288 <TestingAscending>:
    b288:	b480      	push	{r7}
    b28a:	b083      	sub	sp, #12
    b28c:	af00      	add	r7, sp, #0
    b28e:	6078      	str	r0, [r7, #4]
    b290:	6039      	str	r1, [r7, #0]
    b292:	687b      	ldr	r3, [r7, #4]
    b294:	4618      	mov	r0, r3
    b296:	370c      	adds	r7, #12
    b298:	46bd      	mov	sp, r7
    b29a:	bc80      	pop	{r7}
    b29c:	4770      	bx	lr

0000b29e <TestingDescending>:
    b29e:	b480      	push	{r7}
    b2a0:	b083      	sub	sp, #12
    b2a2:	af00      	add	r7, sp, #0
    b2a4:	6078      	str	r0, [r7, #4]
    b2a6:	6039      	str	r1, [r7, #0]
    b2a8:	683a      	ldr	r2, [r7, #0]
    b2aa:	687b      	ldr	r3, [r7, #4]
    b2ac:	1ad3      	subs	r3, r2, r3
    b2ae:	4618      	mov	r0, r3
    b2b0:	370c      	adds	r7, #12
    b2b2:	46bd      	mov	sp, r7
    b2b4:	bc80      	pop	{r7}
    b2b6:	4770      	bx	lr

0000b2b8 <TestingEqual>:
    b2b8:	b480      	push	{r7}
    b2ba:	b083      	sub	sp, #12
    b2bc:	af00      	add	r7, sp, #0
    b2be:	6078      	str	r0, [r7, #4]
    b2c0:	6039      	str	r1, [r7, #0]
    b2c2:	f44f 737a 	mov.w	r3, #1000	; 0x3e8
    b2c6:	4618      	mov	r0, r3
    b2c8:	370c      	adds	r7, #12
    b2ca:	46bd      	mov	sp, r7
    b2cc:	bc80      	pop	{r7}
    b2ce:	4770      	bx	lr

0000b2d0 <TestingJittered>:
    b2d0:	b580      	push	{r7, lr}
    b2d2:	b082      	sub	sp, #8
    b2d4:	af00      	add	r7, sp, #0
    b2d6:	6078      	str	r0, [r7, #4]
    b2d8:	6039      	str	r1, [r7, #0]
    b2da:	f000 f937 	bl	b54c <rand_beebs>
    b2de:	4603      	mov	r3, r0
    b2e0:	4618      	mov	r0, r3
    b2e2:	f000 fb9b 	bl	ba1c <__aeabi_i2d>
    b2e6:	a30c      	add	r3, pc, #48	; (adr r3, b318 <TestingJittered+0x48>)
    b2e8:	e9d3 2300 	ldrd	r2, r3, [r3]
    b2ec:	f000 fd2a 	bl	bd44 <__aeabi_ddiv>
    b2f0:	4602      	mov	r2, r0
    b2f2:	460b      	mov	r3, r1
    b2f4:	4610      	mov	r0, r2
    b2f6:	4619      	mov	r1, r3
    b2f8:	a309      	add	r3, pc, #36	; (adr r3, b320 <TestingJittered+0x50>)
    b2fa:	e9d3 2300 	ldrd	r2, r3, [r3]
    b2fe:	f000 fe73 	bl	bfe8 <__aeabi_dcmple>
    b302:	4603      	mov	r3, r0
    b304:	2b00      	cmp	r3, #0
    b306:	d001      	beq.n	b30c <TestingJittered+0x3c>
    b308:	687b      	ldr	r3, [r7, #4]
    b30a:	e001      	b.n	b310 <TestingJittered+0x40>
    b30c:	687b      	ldr	r3, [r7, #4]
    b30e:	3b02      	subs	r3, #2
    b310:	4618      	mov	r0, r3
    b312:	3708      	adds	r7, #8
    b314:	46bd      	mov	sp, r7
    b316:	bd80      	pop	{r7, pc}
    b318:	ffc00000 	.word	0xffc00000
    b31c:	41dfffff 	.word	0x41dfffff
    b320:	cccccccd 	.word	0xcccccccd
    b324:	3feccccc 	.word	0x3feccccc

0000b328 <TestingMostlyEqual>:
    b328:	b580      	push	{r7, lr}
    b32a:	b082      	sub	sp, #8
    b32c:	af00      	add	r7, sp, #0
    b32e:	6078      	str	r0, [r7, #4]
    b330:	6039      	str	r1, [r7, #0]
    b332:	f000 f90b 	bl	b54c <rand_beebs>
    b336:	4603      	mov	r3, r0
    b338:	425a      	negs	r2, r3
    b33a:	f003 0303 	and.w	r3, r3, #3
    b33e:	f002 0203 	and.w	r2, r2, #3
    b342:	bf58      	it	pl
    b344:	4253      	negpl	r3, r2
    b346:	f503 737a 	add.w	r3, r3, #1000	; 0x3e8
    b34a:	4618      	mov	r0, r3
    b34c:	3708      	adds	r7, #8
    b34e:	46bd      	mov	sp, r7
    b350:	bd80      	pop	{r7, pc}
    b352:	0000      	movs	r0, r0

0000b354 <verify_benchmark>:
    b354:	b580      	push	{r7, lr}
    b356:	f6ad 4d88 	subw	sp, sp, #3208	; 0xc88
    b35a:	af00      	add	r7, sp, #0
    b35c:	f607 4388 	addw	r3, r7, #3208	; 0xc88
    b360:	f6a3 4384 	subw	r3, r3, #3204	; 0xc84
    b364:	6018      	str	r0, [r3, #0]
    b366:	f607 4388 	addw	r3, r7, #3208	; 0xc88
    b36a:	f5a3 6348 	sub.w	r3, r3, #3200	; 0xc80
    b36e:	4a0e      	ldr	r2, [pc, #56]	; (b3a8 <verify_benchmark+0x54>)
    b370:	4618      	mov	r0, r3
    b372:	4611      	mov	r1, r2
    b374:	f44f 6348 	mov.w	r3, #3200	; 0xc80
    b378:	461a      	mov	r2, r3
    b37a:	f000 feef 	bl	c15c <memcpy>
    b37e:	f44f 73c8 	mov.w	r3, #400	; 0x190
    b382:	00da      	lsls	r2, r3, #3
    b384:	f107 0308 	add.w	r3, r7, #8
    b388:	4619      	mov	r1, r3
    b38a:	4808      	ldr	r0, [pc, #32]	; (b3ac <verify_benchmark+0x58>)
    b38c:	f000 feb2 	bl	c0f4 <memcmp>
    b390:	4603      	mov	r3, r0
    b392:	2b00      	cmp	r3, #0
    b394:	bf0c      	ite	eq
    b396:	2301      	moveq	r3, #1
    b398:	2300      	movne	r3, #0
    b39a:	b2db      	uxtb	r3, r3
    b39c:	4618      	mov	r0, r3
    b39e:	f607 4788 	addw	r7, r7, #3208	; 0xc88
    b3a2:	46bd      	mov	sp, r7
    b3a4:	bd80      	pop	{r7, pc}
    b3a6:	bf00      	nop
    b3a8:	0000c5d0 	.word	0x0000c5d0
    b3ac:	0001d6e0 	.word	0x0001d6e0

0000b3b0 <initialise_benchmark>:
    b3b0:	b480      	push	{r7}
    b3b2:	af00      	add	r7, sp, #0
    b3b4:	bf00      	nop
    b3b6:	46bd      	mov	sp, r7
    b3b8:	bc80      	pop	{r7}
    b3ba:	4770      	bx	lr

0000b3bc <warm_caches>:
    b3bc:	b580      	push	{r7, lr}
    b3be:	b084      	sub	sp, #16
    b3c0:	af00      	add	r7, sp, #0
    b3c2:	6078      	str	r0, [r7, #4]
    b3c4:	6878      	ldr	r0, [r7, #4]
    b3c6:	f000 f80d 	bl	b3e4 <benchmark_body>
    b3ca:	60f8      	str	r0, [r7, #12]
    b3cc:	bf00      	nop
    b3ce:	3710      	adds	r7, #16
    b3d0:	46bd      	mov	sp, r7
    b3d2:	bd80      	pop	{r7, pc}

0000b3d4 <benchmark>:
    b3d4:	b580      	push	{r7, lr}
    b3d6:	af00      	add	r7, sp, #0
    b3d8:	2001      	movs	r0, #1
    b3da:	f000 f803 	bl	b3e4 <benchmark_body>
    b3de:	4603      	mov	r3, r0
    b3e0:	4618      	mov	r0, r3
    b3e2:	bd80      	pop	{r7, pc}

0000b3e4 <benchmark_body>:
    b3e4:	b5b0      	push	{r4, r5, r7, lr}
    b3e6:	b092      	sub	sp, #72	; 0x48
    b3e8:	af00      	add	r7, sp, #0
    b3ea:	6078      	str	r0, [r7, #4]
    b3ec:	4b27      	ldr	r3, [pc, #156]	; (b48c <benchmark_body+0xa8>)
    b3ee:	63bb      	str	r3, [r7, #56]	; 0x38
    b3f0:	4b27      	ldr	r3, [pc, #156]	; (b490 <benchmark_body+0xac>)
    b3f2:	f107 0410 	add.w	r4, r7, #16
    b3f6:	461d      	mov	r5, r3
    b3f8:	cd0f      	ldmia	r5!, {r0, r1, r2, r3}
    b3fa:	c40f      	stmia	r4!, {r0, r1, r2, r3}
    b3fc:	cd0f      	ldmia	r5!, {r0, r1, r2, r3}
    b3fe:	c40f      	stmia	r4!, {r0, r1, r2, r3}
    b400:	682b      	ldr	r3, [r5, #0]
    b402:	6023      	str	r3, [r4, #0]
    b404:	2300      	movs	r3, #0
    b406:	63fb      	str	r3, [r7, #60]	; 0x3c
    b408:	e037      	b.n	b47a <benchmark_body+0x96>
    b40a:	2000      	movs	r0, #0
    b40c:	f000 f8b8 	bl	b580 <srand_beebs>
    b410:	f44f 73c8 	mov.w	r3, #400	; 0x190
    b414:	637b      	str	r3, [r7, #52]	; 0x34
    b416:	2300      	movs	r3, #0
    b418:	643b      	str	r3, [r7, #64]	; 0x40
    b41a:	e028      	b.n	b46e <benchmark_body+0x8a>
    b41c:	2300      	movs	r3, #0
    b41e:	647b      	str	r3, [r7, #68]	; 0x44
    b420:	e019      	b.n	b456 <benchmark_body+0x72>
    b422:	6c3b      	ldr	r3, [r7, #64]	; 0x40
    b424:	009b      	lsls	r3, r3, #2
    b426:	3348      	adds	r3, #72	; 0x48
    b428:	443b      	add	r3, r7
    b42a:	f853 3c38 	ldr.w	r3, [r3, #-56]
    b42e:	6b79      	ldr	r1, [r7, #52]	; 0x34
    b430:	6c78      	ldr	r0, [r7, #68]	; 0x44
    b432:	4798      	blx	r3
    b434:	4603      	mov	r3, r0
    b436:	60bb      	str	r3, [r7, #8]
    b438:	6c7b      	ldr	r3, [r7, #68]	; 0x44
    b43a:	60fb      	str	r3, [r7, #12]
    b43c:	4a15      	ldr	r2, [pc, #84]	; (b494 <benchmark_body+0xb0>)
    b43e:	6c7b      	ldr	r3, [r7, #68]	; 0x44
    b440:	00db      	lsls	r3, r3, #3
    b442:	4413      	add	r3, r2
    b444:	f107 0208 	add.w	r2, r7, #8
    b448:	e892 0003 	ldmia.w	r2, {r0, r1}
    b44c:	e883 0003 	stmia.w	r3, {r0, r1}
    b450:	6c7b      	ldr	r3, [r7, #68]	; 0x44
    b452:	3301      	adds	r3, #1
    b454:	647b      	str	r3, [r7, #68]	; 0x44
    b456:	6c7a      	ldr	r2, [r7, #68]	; 0x44
    b458:	6b7b      	ldr	r3, [r7, #52]	; 0x34
    b45a:	429a      	cmp	r2, r3
    b45c:	dbe1      	blt.n	b422 <benchmark_body+0x3e>
    b45e:	6bba      	ldr	r2, [r7, #56]	; 0x38
    b460:	6b79      	ldr	r1, [r7, #52]	; 0x34
    b462:	480c      	ldr	r0, [pc, #48]	; (b494 <benchmark_body+0xb0>)
    b464:	f7fd fa3e 	bl	88e4 <WikiSort>
    b468:	6c3b      	ldr	r3, [r7, #64]	; 0x40
    b46a:	3301      	adds	r3, #1
    b46c:	643b      	str	r3, [r7, #64]	; 0x40
    b46e:	6c3b      	ldr	r3, [r7, #64]	; 0x40
    b470:	2b08      	cmp	r3, #8
    b472:	ddd3      	ble.n	b41c <benchmark_body+0x38>
    b474:	6bfb      	ldr	r3, [r7, #60]	; 0x3c
    b476:	3301      	adds	r3, #1
    b478:	63fb      	str	r3, [r7, #60]	; 0x3c
    b47a:	6bfa      	ldr	r2, [r7, #60]	; 0x3c
    b47c:	687b      	ldr	r3, [r7, #4]
    b47e:	429a      	cmp	r2, r3
    b480:	dbc3      	blt.n	b40a <benchmark_body+0x26>
    b482:	2300      	movs	r3, #0
    b484:	4618      	mov	r0, r3
    b486:	3748      	adds	r7, #72	; 0x48
    b488:	46bd      	mov	sp, r7
    b48a:	bdb0      	pop	{r4, r5, r7, pc}
    b48c:	00008123 	.word	0x00008123
    b490:	0000d250 	.word	0x0000d250
    b494:	0001d6e0 	.word	0x0001d6e0

0000b498 <initialise_board>:
    b498:	b480      	push	{r7}
    b49a:	af00      	add	r7, sp, #0
    b49c:	4b06      	ldr	r3, [pc, #24]	; (b4b8 <initialise_board+0x20>)
    b49e:	681b      	ldr	r3, [r3, #0]
    b4a0:	4a05      	ldr	r2, [pc, #20]	; (b4b8 <initialise_board+0x20>)
    b4a2:	f043 7380 	orr.w	r3, r3, #16777216	; 0x1000000
    b4a6:	6013      	str	r3, [r2, #0]
    b4a8:	4b04      	ldr	r3, [pc, #16]	; (b4bc <initialise_board+0x24>)
    b4aa:	2200      	movs	r2, #0
    b4ac:	601a      	str	r2, [r3, #0]
    b4ae:	bf00      	nop
    b4b0:	46bd      	mov	sp, r7
    b4b2:	bc80      	pop	{r7}
    b4b4:	4770      	bx	lr
    b4b6:	bf00      	nop
    b4b8:	e000edfc 	.word	0xe000edfc
    b4bc:	e0001004 	.word	0xe0001004

0000b4c0 <start_trigger>:
    b4c0:	b480      	push	{r7}
    b4c2:	af00      	add	r7, sp, #0
    b4c4:	4b04      	ldr	r3, [pc, #16]	; (b4d8 <start_trigger+0x18>)
    b4c6:	681b      	ldr	r3, [r3, #0]
    b4c8:	4a03      	ldr	r2, [pc, #12]	; (b4d8 <start_trigger+0x18>)
    b4ca:	f043 0301 	orr.w	r3, r3, #1
    b4ce:	6013      	str	r3, [r2, #0]
    b4d0:	bf00      	nop
    b4d2:	46bd      	mov	sp, r7
    b4d4:	bc80      	pop	{r7}
    b4d6:	4770      	bx	lr
    b4d8:	e0001000 	.word	0xe0001000

0000b4dc <stop_trigger>:
    b4dc:	b480      	push	{r7}
    b4de:	af00      	add	r7, sp, #0
    b4e0:	4b06      	ldr	r3, [pc, #24]	; (b4fc <stop_trigger+0x20>)
    b4e2:	2200      	movs	r2, #0
    b4e4:	601a      	str	r2, [r3, #0]
    b4e6:	4b06      	ldr	r3, [pc, #24]	; (b500 <stop_trigger+0x24>)
    b4e8:	681b      	ldr	r3, [r3, #0]
    b4ea:	4a05      	ldr	r2, [pc, #20]	; (b500 <stop_trigger+0x24>)
    b4ec:	f023 0301 	bic.w	r3, r3, #1
    b4f0:	6013      	str	r3, [r2, #0]
    b4f2:	bf00      	nop
    b4f4:	46bd      	mov	sp, r7
    b4f6:	bc80      	pop	{r7}
    b4f8:	4770      	bx	lr
    b4fa:	bf00      	nop
    b4fc:	e0001004 	.word	0xe0001004
    b500:	e0001000 	.word	0xe0001000

0000b504 <main>:
    b504:	b580      	push	{r7, lr}
    b506:	b084      	sub	sp, #16
    b508:	af00      	add	r7, sp, #0
    b50a:	6078      	str	r0, [r7, #4]
    b50c:	6039      	str	r1, [r7, #0]
    b50e:	f7ff ffc3 	bl	b498 <initialise_board>
    b512:	f7ff ff4d 	bl	b3b0 <initialise_benchmark>
    b516:	2001      	movs	r0, #1
    b518:	f7ff ff50 	bl	b3bc <warm_caches>
    b51c:	f7ff ffd0 	bl	b4c0 <start_trigger>
    b520:	f7ff ff58 	bl	b3d4 <benchmark>
    b524:	4603      	mov	r3, r0
    b526:	60bb      	str	r3, [r7, #8]
    b528:	f7ff ffd8 	bl	b4dc <stop_trigger>
    b52c:	68bb      	ldr	r3, [r7, #8]
    b52e:	4618      	mov	r0, r3
    b530:	f7ff ff10 	bl	b354 <verify_benchmark>
    b534:	60f8      	str	r0, [r7, #12]
    b536:	68fb      	ldr	r3, [r7, #12]
    b538:	2b00      	cmp	r3, #0
    b53a:	bf0c      	ite	eq
    b53c:	2301      	moveq	r3, #1
    b53e:	2300      	movne	r3, #0
    b540:	b2db      	uxtb	r3, r3
    b542:	4618      	mov	r0, r3
    b544:	3710      	adds	r7, #16
    b546:	46bd      	mov	sp, r7
    b548:	bd80      	pop	{r7, pc}
    b54a:	0000      	movs	r0, r0

0000b54c <rand_beebs>:
    b54c:	b480      	push	{r7}
    b54e:	af00      	add	r7, sp, #0
    b550:	4b09      	ldr	r3, [pc, #36]	; (b578 <rand_beebs+0x2c>)
    b552:	681b      	ldr	r3, [r3, #0]
    b554:	4a09      	ldr	r2, [pc, #36]	; (b57c <rand_beebs+0x30>)
    b556:	fb02 f303 	mul.w	r3, r2, r3
    b55a:	f503 5340 	add.w	r3, r3, #12288	; 0x3000
    b55e:	3339      	adds	r3, #57	; 0x39
    b560:	f023 4300 	bic.w	r3, r3, #2147483648	; 0x80000000
    b564:	4a04      	ldr	r2, [pc, #16]	; (b578 <rand_beebs+0x2c>)
    b566:	6013      	str	r3, [r2, #0]
    b568:	4b03      	ldr	r3, [pc, #12]	; (b578 <rand_beebs+0x2c>)
    b56a:	681b      	ldr	r3, [r3, #0]
    b56c:	141b      	asrs	r3, r3, #16
    b56e:	4618      	mov	r0, r3
    b570:	46bd      	mov	sp, r7
    b572:	bc80      	pop	{r7}
    b574:	4770      	bx	lr
    b576:	bf00      	nop
    b578:	0001e360 	.word	0x0001e360
    b57c:	41c64e6d 	.word	0x41c64e6d

0000b580 <srand_beebs>:
    b580:	b480      	push	{r7}
    b582:	b083      	sub	sp, #12
    b584:	af00      	add	r7, sp, #0
    b586:	6078      	str	r0, [r7, #4]
    b588:	687b      	ldr	r3, [r7, #4]
    b58a:	4a03      	ldr	r2, [pc, #12]	; (b598 <srand_beebs+0x18>)
    b58c:	6013      	str	r3, [r2, #0]
    b58e:	bf00      	nop
    b590:	370c      	adds	r7, #12
    b592:	46bd      	mov	sp, r7
    b594:	bc80      	pop	{r7}
    b596:	4770      	bx	lr
    b598:	0001e360 	.word	0x0001e360

0000b59c <sqrt>:
    b59c:	b5f8      	push	{r3, r4, r5, r6, r7, lr}
    b59e:	4604      	mov	r4, r0
    b5a0:	460d      	mov	r5, r1
    b5a2:	f000 f823 	bl	b5ec <__ieee754_sqrt>
    b5a6:	4622      	mov	r2, r4
    b5a8:	4606      	mov	r6, r0
    b5aa:	460f      	mov	r7, r1
    b5ac:	462b      	mov	r3, r5
    b5ae:	4620      	mov	r0, r4
    b5b0:	4629      	mov	r1, r5
    b5b2:	f000 fd37 	bl	c024 <__aeabi_dcmpun>
    b5b6:	b930      	cbnz	r0, b5c6 <sqrt+0x2a>
    b5b8:	4620      	mov	r0, r4
    b5ba:	4629      	mov	r1, r5
    b5bc:	2200      	movs	r2, #0
    b5be:	2300      	movs	r3, #0
    b5c0:	f000 fd08 	bl	bfd4 <__aeabi_dcmplt>
    b5c4:	b910      	cbnz	r0, b5cc <sqrt+0x30>
    b5c6:	4630      	mov	r0, r6
    b5c8:	4639      	mov	r1, r7
    b5ca:	bdf8      	pop	{r3, r4, r5, r6, r7, pc}
    b5cc:	f000 fd68 	bl	c0a0 <__errno>
    b5d0:	2200      	movs	r2, #0
    b5d2:	2300      	movs	r3, #0
    b5d4:	2121      	movs	r1, #33	; 0x21
    b5d6:	6001      	str	r1, [r0, #0]
    b5d8:	4610      	mov	r0, r2
    b5da:	4619      	mov	r1, r3
    b5dc:	f000 fbb2 	bl	bd44 <__aeabi_ddiv>
    b5e0:	4606      	mov	r6, r0
    b5e2:	460f      	mov	r7, r1
    b5e4:	4630      	mov	r0, r6
    b5e6:	4639      	mov	r1, r7
    b5e8:	bdf8      	pop	{r3, r4, r5, r6, r7, pc}
    b5ea:	bf00      	nop

0000b5ec <__ieee754_sqrt>:
    b5ec:	4a61      	ldr	r2, [pc, #388]	; (b774 <__ieee754_sqrt+0x188>)
    b5ee:	438a      	bics	r2, r1
    b5f0:	e92d 43f8 	stmdb	sp!, {r3, r4, r5, r6, r7, r8, r9, lr}
    b5f4:	4605      	mov	r5, r0
    b5f6:	460c      	mov	r4, r1
    b5f8:	f000 809e 	beq.w	b738 <__ieee754_sqrt+0x14c>
    b5fc:	2900      	cmp	r1, #0
    b5fe:	460b      	mov	r3, r1
    b600:	4684      	mov	ip, r0
    b602:	dd54      	ble.n	b6ae <__ieee754_sqrt+0xc2>
    b604:	1509      	asrs	r1, r1, #20
    b606:	d062      	beq.n	b6ce <__ieee754_sqrt+0xe2>
    b608:	f3c3 0313 	ubfx	r3, r3, #0, #20
    b60c:	07c8      	lsls	r0, r1, #31
    b60e:	f2a1 37ff 	subw	r7, r1, #1023	; 0x3ff
    b612:	f443 1380 	orr.w	r3, r3, #1048576	; 0x100000
    b616:	d404      	bmi.n	b622 <__ieee754_sqrt+0x36>
    b618:	005b      	lsls	r3, r3, #1
    b61a:	eb03 73dc 	add.w	r3, r3, ip, lsr #31
    b61e:	ea4f 0c4c 	mov.w	ip, ip, lsl #1
    b622:	ea4f 72dc 	mov.w	r2, ip, lsr #31
    b626:	2600      	movs	r6, #0
    b628:	eb02 0343 	add.w	r3, r2, r3, lsl #1
    b62c:	107f      	asrs	r7, r7, #1
    b62e:	ea4f 0c4c 	mov.w	ip, ip, lsl #1
    b632:	f04f 0e16 	mov.w	lr, #22
    b636:	4634      	mov	r4, r6
    b638:	f44f 1200 	mov.w	r2, #2097152	; 0x200000
    b63c:	18a1      	adds	r1, r4, r2
    b63e:	4299      	cmp	r1, r3
    b640:	dc02      	bgt.n	b648 <__ieee754_sqrt+0x5c>
    b642:	1a5b      	subs	r3, r3, r1
    b644:	188c      	adds	r4, r1, r2
    b646:	4416      	add	r6, r2
    b648:	005b      	lsls	r3, r3, #1
    b64a:	f1be 0e01 	subs.w	lr, lr, #1
    b64e:	eb03 73dc 	add.w	r3, r3, ip, lsr #31
    b652:	ea4f 0252 	mov.w	r2, r2, lsr #1
    b656:	ea4f 0c4c 	mov.w	ip, ip, lsl #1
    b65a:	d1ef      	bne.n	b63c <__ieee754_sqrt+0x50>
    b65c:	4675      	mov	r5, lr
    b65e:	2020      	movs	r0, #32
    b660:	f04f 4200 	mov.w	r2, #2147483648	; 0x80000000
    b664:	e00a      	b.n	b67c <__ieee754_sqrt+0x90>
    b666:	d043      	beq.n	b6f0 <__ieee754_sqrt+0x104>
    b668:	ea4f 71dc 	mov.w	r1, ip, lsr #31
    b66c:	3801      	subs	r0, #1
    b66e:	eb01 0343 	add.w	r3, r1, r3, lsl #1
    b672:	ea4f 0c4c 	mov.w	ip, ip, lsl #1
    b676:	ea4f 0252 	mov.w	r2, r2, lsr #1
    b67a:	d042      	beq.n	b702 <__ieee754_sqrt+0x116>
    b67c:	42a3      	cmp	r3, r4
    b67e:	eb02 010e 	add.w	r1, r2, lr
    b682:	ddf0      	ble.n	b666 <__ieee754_sqrt+0x7a>
    b684:	2900      	cmp	r1, #0
    b686:	eb01 0e02 	add.w	lr, r1, r2
    b68a:	db0a      	blt.n	b6a2 <__ieee754_sqrt+0xb6>
    b68c:	46a0      	mov	r8, r4
    b68e:	1b1b      	subs	r3, r3, r4
    b690:	4561      	cmp	r1, ip
    b692:	bf88      	it	hi
    b694:	f103 33ff 	addhi.w	r3, r3, #4294967295	; 0xffffffff
    b698:	ebac 0c01 	sub.w	ip, ip, r1
    b69c:	4415      	add	r5, r2
    b69e:	4644      	mov	r4, r8
    b6a0:	e7e2      	b.n	b668 <__ieee754_sqrt+0x7c>
    b6a2:	f1be 0f00 	cmp.w	lr, #0
    b6a6:	dbf1      	blt.n	b68c <__ieee754_sqrt+0xa0>
    b6a8:	f104 0801 	add.w	r8, r4, #1
    b6ac:	e7ef      	b.n	b68e <__ieee754_sqrt+0xa2>
    b6ae:	f021 4200 	bic.w	r2, r1, #2147483648	; 0x80000000
    b6b2:	4302      	orrs	r2, r0
    b6b4:	d036      	beq.n	b724 <__ieee754_sqrt+0x138>
    b6b6:	2900      	cmp	r1, #0
    b6b8:	d14c      	bne.n	b754 <__ieee754_sqrt+0x168>
    b6ba:	ea4f 22dc 	mov.w	r2, ip, lsr #11
    b6be:	3915      	subs	r1, #21
    b6c0:	4613      	mov	r3, r2
    b6c2:	ea4f 5c4c 	mov.w	ip, ip, lsl #21
    b6c6:	2a00      	cmp	r2, #0
    b6c8:	d0f7      	beq.n	b6ba <__ieee754_sqrt+0xce>
    b6ca:	02d6      	lsls	r6, r2, #11
    b6cc:	d44c      	bmi.n	b768 <__ieee754_sqrt+0x17c>
    b6ce:	2000      	movs	r0, #0
    b6d0:	005b      	lsls	r3, r3, #1
    b6d2:	02dd      	lsls	r5, r3, #11
    b6d4:	4604      	mov	r4, r0
    b6d6:	f100 0001 	add.w	r0, r0, #1
    b6da:	d5f9      	bpl.n	b6d0 <__ieee754_sqrt+0xe4>
    b6dc:	461a      	mov	r2, r3
    b6de:	4663      	mov	r3, ip
    b6e0:	fa0c fc00 	lsl.w	ip, ip, r0
    b6e4:	f1c0 0020 	rsb	r0, r0, #32
    b6e8:	40c3      	lsrs	r3, r0
    b6ea:	1b09      	subs	r1, r1, r4
    b6ec:	4313      	orrs	r3, r2
    b6ee:	e78b      	b.n	b608 <__ieee754_sqrt+0x1c>
    b6f0:	4561      	cmp	r1, ip
    b6f2:	d8b9      	bhi.n	b668 <__ieee754_sqrt+0x7c>
    b6f4:	2900      	cmp	r1, #0
    b6f6:	eb01 0e02 	add.w	lr, r1, r2
    b6fa:	dbd2      	blt.n	b6a2 <__ieee754_sqrt+0xb6>
    b6fc:	4698      	mov	r8, r3
    b6fe:	2300      	movs	r3, #0
    b700:	e7ca      	b.n	b698 <__ieee754_sqrt+0xac>
    b702:	ea53 030c 	orrs.w	r3, r3, ip
    b706:	d111      	bne.n	b72c <__ieee754_sqrt+0x140>
    b708:	0868      	lsrs	r0, r5, #1
    b70a:	1073      	asrs	r3, r6, #1
    b70c:	f103 537f 	add.w	r3, r3, #1069547520	; 0x3fc00000
    b710:	f503 1300 	add.w	r3, r3, #2097152	; 0x200000
    b714:	07f2      	lsls	r2, r6, #31
    b716:	bf48      	it	mi
    b718:	f040 4000 	orrmi.w	r0, r0, #2147483648	; 0x80000000
    b71c:	eb03 5907 	add.w	r9, r3, r7, lsl #20
    b720:	4605      	mov	r5, r0
    b722:	464c      	mov	r4, r9
    b724:	4628      	mov	r0, r5
    b726:	4621      	mov	r1, r4
    b728:	e8bd 83f8 	ldmia.w	sp!, {r3, r4, r5, r6, r7, r8, r9, pc}
    b72c:	1c69      	adds	r1, r5, #1
    b72e:	bf16      	itet	ne
    b730:	1c68      	addne	r0, r5, #1
    b732:	3601      	addeq	r6, #1
    b734:	0840      	lsrne	r0, r0, #1
    b736:	e7e8      	b.n	b70a <__ieee754_sqrt+0x11e>
    b738:	4602      	mov	r2, r0
    b73a:	460b      	mov	r3, r1
    b73c:	f000 f9d8 	bl	baf0 <__aeabi_dmul>
    b740:	462a      	mov	r2, r5
    b742:	4623      	mov	r3, r4
    b744:	f000 f81e 	bl	b784 <__adddf3>
    b748:	4605      	mov	r5, r0
    b74a:	460c      	mov	r4, r1
    b74c:	4628      	mov	r0, r5
    b74e:	4621      	mov	r1, r4
    b750:	e8bd 83f8 	ldmia.w	sp!, {r3, r4, r5, r6, r7, r8, r9, pc}
    b754:	4602      	mov	r2, r0
    b756:	f000 f813 	bl	b780 <__aeabi_dsub>
    b75a:	4602      	mov	r2, r0
    b75c:	460b      	mov	r3, r1
    b75e:	f000 faf1 	bl	bd44 <__aeabi_ddiv>
    b762:	4605      	mov	r5, r0
    b764:	460c      	mov	r4, r1
    b766:	e7dd      	b.n	b724 <__ieee754_sqrt+0x138>
    b768:	4663      	mov	r3, ip
    b76a:	2020      	movs	r0, #32
    b76c:	f04f 34ff 	mov.w	r4, #4294967295	; 0xffffffff
    b770:	e7ba      	b.n	b6e8 <__ieee754_sqrt+0xfc>
    b772:	bf00      	nop
    b774:	7ff00000 	.word	0x7ff00000

0000b778 <__aeabi_drsub>:
    b778:	f081 4100 	eor.w	r1, r1, #2147483648	; 0x80000000
    b77c:	e002      	b.n	b784 <__adddf3>
    b77e:	bf00      	nop

0000b780 <__aeabi_dsub>:
    b780:	f083 4300 	eor.w	r3, r3, #2147483648	; 0x80000000

0000b784 <__adddf3>:
    b784:	b530      	push	{r4, r5, lr}
    b786:	ea4f 0441 	mov.w	r4, r1, lsl #1
    b78a:	ea4f 0543 	mov.w	r5, r3, lsl #1
    b78e:	ea94 0f05 	teq	r4, r5
    b792:	bf08      	it	eq
    b794:	ea90 0f02 	teqeq	r0, r2
    b798:	bf1f      	itttt	ne
    b79a:	ea54 0c00 	orrsne.w	ip, r4, r0
    b79e:	ea55 0c02 	orrsne.w	ip, r5, r2
    b7a2:	ea7f 5c64 	mvnsne.w	ip, r4, asr #21
    b7a6:	ea7f 5c65 	mvnsne.w	ip, r5, asr #21
    b7aa:	f000 80e2 	beq.w	b972 <__adddf3+0x1ee>
    b7ae:	ea4f 5454 	mov.w	r4, r4, lsr #21
    b7b2:	ebd4 5555 	rsbs	r5, r4, r5, lsr #21
    b7b6:	bfb8      	it	lt
    b7b8:	426d      	neglt	r5, r5
    b7ba:	dd0c      	ble.n	b7d6 <__adddf3+0x52>
    b7bc:	442c      	add	r4, r5
    b7be:	ea80 0202 	eor.w	r2, r0, r2
    b7c2:	ea81 0303 	eor.w	r3, r1, r3
    b7c6:	ea82 0000 	eor.w	r0, r2, r0
    b7ca:	ea83 0101 	eor.w	r1, r3, r1
    b7ce:	ea80 0202 	eor.w	r2, r0, r2
    b7d2:	ea81 0303 	eor.w	r3, r1, r3
    b7d6:	2d36      	cmp	r5, #54	; 0x36
    b7d8:	bf88      	it	hi
    b7da:	bd30      	pophi	{r4, r5, pc}
    b7dc:	f011 4f00 	tst.w	r1, #2147483648	; 0x80000000
    b7e0:	ea4f 3101 	mov.w	r1, r1, lsl #12
    b7e4:	f44f 1c80 	mov.w	ip, #1048576	; 0x100000
    b7e8:	ea4c 3111 	orr.w	r1, ip, r1, lsr #12
    b7ec:	d002      	beq.n	b7f4 <__adddf3+0x70>
    b7ee:	4240      	negs	r0, r0
    b7f0:	eb61 0141 	sbc.w	r1, r1, r1, lsl #1
    b7f4:	f013 4f00 	tst.w	r3, #2147483648	; 0x80000000
    b7f8:	ea4f 3303 	mov.w	r3, r3, lsl #12
    b7fc:	ea4c 3313 	orr.w	r3, ip, r3, lsr #12
    b800:	d002      	beq.n	b808 <__adddf3+0x84>
    b802:	4252      	negs	r2, r2
    b804:	eb63 0343 	sbc.w	r3, r3, r3, lsl #1
    b808:	ea94 0f05 	teq	r4, r5
    b80c:	f000 80a7 	beq.w	b95e <__adddf3+0x1da>
    b810:	f1a4 0401 	sub.w	r4, r4, #1
    b814:	f1d5 0e20 	rsbs	lr, r5, #32
    b818:	db0d      	blt.n	b836 <__adddf3+0xb2>
    b81a:	fa02 fc0e 	lsl.w	ip, r2, lr
    b81e:	fa22 f205 	lsr.w	r2, r2, r5
    b822:	1880      	adds	r0, r0, r2
    b824:	f141 0100 	adc.w	r1, r1, #0
    b828:	fa03 f20e 	lsl.w	r2, r3, lr
    b82c:	1880      	adds	r0, r0, r2
    b82e:	fa43 f305 	asr.w	r3, r3, r5
    b832:	4159      	adcs	r1, r3
    b834:	e00e      	b.n	b854 <__adddf3+0xd0>
    b836:	f1a5 0520 	sub.w	r5, r5, #32
    b83a:	f10e 0e20 	add.w	lr, lr, #32
    b83e:	2a01      	cmp	r2, #1
    b840:	fa03 fc0e 	lsl.w	ip, r3, lr
    b844:	bf28      	it	cs
    b846:	f04c 0c02 	orrcs.w	ip, ip, #2
    b84a:	fa43 f305 	asr.w	r3, r3, r5
    b84e:	18c0      	adds	r0, r0, r3
    b850:	eb51 71e3 	adcs.w	r1, r1, r3, asr #31
    b854:	f001 4500 	and.w	r5, r1, #2147483648	; 0x80000000
    b858:	d507      	bpl.n	b86a <__adddf3+0xe6>
    b85a:	f04f 0e00 	mov.w	lr, #0
    b85e:	f1dc 0c00 	rsbs	ip, ip, #0
    b862:	eb7e 0000 	sbcs.w	r0, lr, r0
    b866:	eb6e 0101 	sbc.w	r1, lr, r1
    b86a:	f5b1 1f80 	cmp.w	r1, #1048576	; 0x100000
    b86e:	d31b      	bcc.n	b8a8 <__adddf3+0x124>
    b870:	f5b1 1f00 	cmp.w	r1, #2097152	; 0x200000
    b874:	d30c      	bcc.n	b890 <__adddf3+0x10c>
    b876:	0849      	lsrs	r1, r1, #1
    b878:	ea5f 0030 	movs.w	r0, r0, rrx
    b87c:	ea4f 0c3c 	mov.w	ip, ip, rrx
    b880:	f104 0401 	add.w	r4, r4, #1
    b884:	ea4f 5244 	mov.w	r2, r4, lsl #21
    b888:	f512 0f80 	cmn.w	r2, #4194304	; 0x400000
    b88c:	f080 809a 	bcs.w	b9c4 <__adddf3+0x240>
    b890:	f1bc 4f00 	cmp.w	ip, #2147483648	; 0x80000000
    b894:	bf08      	it	eq
    b896:	ea5f 0c50 	movseq.w	ip, r0, lsr #1
    b89a:	f150 0000 	adcs.w	r0, r0, #0
    b89e:	eb41 5104 	adc.w	r1, r1, r4, lsl #20
    b8a2:	ea41 0105 	orr.w	r1, r1, r5
    b8a6:	bd30      	pop	{r4, r5, pc}
    b8a8:	ea5f 0c4c 	movs.w	ip, ip, lsl #1
    b8ac:	4140      	adcs	r0, r0
    b8ae:	eb41 0101 	adc.w	r1, r1, r1
    b8b2:	3c01      	subs	r4, #1
    b8b4:	bf28      	it	cs
    b8b6:	f5b1 1f80 	cmpcs.w	r1, #1048576	; 0x100000
    b8ba:	d2e9      	bcs.n	b890 <__adddf3+0x10c>
    b8bc:	f091 0f00 	teq	r1, #0
    b8c0:	bf04      	itt	eq
    b8c2:	4601      	moveq	r1, r0
    b8c4:	2000      	moveq	r0, #0
    b8c6:	fab1 f381 	clz	r3, r1
    b8ca:	bf08      	it	eq
    b8cc:	3320      	addeq	r3, #32
    b8ce:	f1a3 030b 	sub.w	r3, r3, #11
    b8d2:	f1b3 0220 	subs.w	r2, r3, #32
    b8d6:	da0c      	bge.n	b8f2 <__adddf3+0x16e>
    b8d8:	320c      	adds	r2, #12
    b8da:	dd08      	ble.n	b8ee <__adddf3+0x16a>
    b8dc:	f102 0c14 	add.w	ip, r2, #20
    b8e0:	f1c2 020c 	rsb	r2, r2, #12
    b8e4:	fa01 f00c 	lsl.w	r0, r1, ip
    b8e8:	fa21 f102 	lsr.w	r1, r1, r2
    b8ec:	e00c      	b.n	b908 <__adddf3+0x184>
    b8ee:	f102 0214 	add.w	r2, r2, #20
    b8f2:	bfd8      	it	le
    b8f4:	f1c2 0c20 	rsble	ip, r2, #32
    b8f8:	fa01 f102 	lsl.w	r1, r1, r2
    b8fc:	fa20 fc0c 	lsr.w	ip, r0, ip
    b900:	bfdc      	itt	le
    b902:	ea41 010c 	orrle.w	r1, r1, ip
    b906:	4090      	lslle	r0, r2
    b908:	1ae4      	subs	r4, r4, r3
    b90a:	bfa2      	ittt	ge
    b90c:	eb01 5104 	addge.w	r1, r1, r4, lsl #20
    b910:	4329      	orrge	r1, r5
    b912:	bd30      	popge	{r4, r5, pc}
    b914:	ea6f 0404 	mvn.w	r4, r4
    b918:	3c1f      	subs	r4, #31
    b91a:	da1c      	bge.n	b956 <__adddf3+0x1d2>
    b91c:	340c      	adds	r4, #12
    b91e:	dc0e      	bgt.n	b93e <__adddf3+0x1ba>
    b920:	f104 0414 	add.w	r4, r4, #20
    b924:	f1c4 0220 	rsb	r2, r4, #32
    b928:	fa20 f004 	lsr.w	r0, r0, r4
    b92c:	fa01 f302 	lsl.w	r3, r1, r2
    b930:	ea40 0003 	orr.w	r0, r0, r3
    b934:	fa21 f304 	lsr.w	r3, r1, r4
    b938:	ea45 0103 	orr.w	r1, r5, r3
    b93c:	bd30      	pop	{r4, r5, pc}
    b93e:	f1c4 040c 	rsb	r4, r4, #12
    b942:	f1c4 0220 	rsb	r2, r4, #32
    b946:	fa20 f002 	lsr.w	r0, r0, r2
    b94a:	fa01 f304 	lsl.w	r3, r1, r4
    b94e:	ea40 0003 	orr.w	r0, r0, r3
    b952:	4629      	mov	r1, r5
    b954:	bd30      	pop	{r4, r5, pc}
    b956:	fa21 f004 	lsr.w	r0, r1, r4
    b95a:	4629      	mov	r1, r5
    b95c:	bd30      	pop	{r4, r5, pc}
    b95e:	f094 0f00 	teq	r4, #0
    b962:	f483 1380 	eor.w	r3, r3, #1048576	; 0x100000
    b966:	bf06      	itte	eq
    b968:	f481 1180 	eoreq.w	r1, r1, #1048576	; 0x100000
    b96c:	3401      	addeq	r4, #1
    b96e:	3d01      	subne	r5, #1
    b970:	e74e      	b.n	b810 <__adddf3+0x8c>
    b972:	ea7f 5c64 	mvns.w	ip, r4, asr #21
    b976:	bf18      	it	ne
    b978:	ea7f 5c65 	mvnsne.w	ip, r5, asr #21
    b97c:	d029      	beq.n	b9d2 <__adddf3+0x24e>
    b97e:	ea94 0f05 	teq	r4, r5
    b982:	bf08      	it	eq
    b984:	ea90 0f02 	teqeq	r0, r2
    b988:	d005      	beq.n	b996 <__adddf3+0x212>
    b98a:	ea54 0c00 	orrs.w	ip, r4, r0
    b98e:	bf04      	itt	eq
    b990:	4619      	moveq	r1, r3
    b992:	4610      	moveq	r0, r2
    b994:	bd30      	pop	{r4, r5, pc}
    b996:	ea91 0f03 	teq	r1, r3
    b99a:	bf1e      	ittt	ne
    b99c:	2100      	movne	r1, #0
    b99e:	2000      	movne	r0, #0
    b9a0:	bd30      	popne	{r4, r5, pc}
    b9a2:	ea5f 5c54 	movs.w	ip, r4, lsr #21
    b9a6:	d105      	bne.n	b9b4 <__adddf3+0x230>
    b9a8:	0040      	lsls	r0, r0, #1
    b9aa:	4149      	adcs	r1, r1
    b9ac:	bf28      	it	cs
    b9ae:	f041 4100 	orrcs.w	r1, r1, #2147483648	; 0x80000000
    b9b2:	bd30      	pop	{r4, r5, pc}
    b9b4:	f514 0480 	adds.w	r4, r4, #4194304	; 0x400000
    b9b8:	bf3c      	itt	cc
    b9ba:	f501 1180 	addcc.w	r1, r1, #1048576	; 0x100000
    b9be:	bd30      	popcc	{r4, r5, pc}
    b9c0:	f001 4500 	and.w	r5, r1, #2147483648	; 0x80000000
    b9c4:	f045 41fe 	orr.w	r1, r5, #2130706432	; 0x7f000000
    b9c8:	f441 0170 	orr.w	r1, r1, #15728640	; 0xf00000
    b9cc:	f04f 0000 	mov.w	r0, #0
    b9d0:	bd30      	pop	{r4, r5, pc}
    b9d2:	ea7f 5c64 	mvns.w	ip, r4, asr #21
    b9d6:	bf1a      	itte	ne
    b9d8:	4619      	movne	r1, r3
    b9da:	4610      	movne	r0, r2
    b9dc:	ea7f 5c65 	mvnseq.w	ip, r5, asr #21
    b9e0:	bf1c      	itt	ne
    b9e2:	460b      	movne	r3, r1
    b9e4:	4602      	movne	r2, r0
    b9e6:	ea50 3401 	orrs.w	r4, r0, r1, lsl #12
    b9ea:	bf06      	itte	eq
    b9ec:	ea52 3503 	orrseq.w	r5, r2, r3, lsl #12
    b9f0:	ea91 0f03 	teqeq	r1, r3
    b9f4:	f441 2100 	orrne.w	r1, r1, #524288	; 0x80000
    b9f8:	bd30      	pop	{r4, r5, pc}
    b9fa:	bf00      	nop

0000b9fc <__aeabi_ui2d>:
    b9fc:	f090 0f00 	teq	r0, #0
    ba00:	bf04      	itt	eq
    ba02:	2100      	moveq	r1, #0
    ba04:	4770      	bxeq	lr
    ba06:	b530      	push	{r4, r5, lr}
    ba08:	f44f 6480 	mov.w	r4, #1024	; 0x400
    ba0c:	f104 0432 	add.w	r4, r4, #50	; 0x32
    ba10:	f04f 0500 	mov.w	r5, #0
    ba14:	f04f 0100 	mov.w	r1, #0
    ba18:	e750      	b.n	b8bc <__adddf3+0x138>
    ba1a:	bf00      	nop

0000ba1c <__aeabi_i2d>:
    ba1c:	f090 0f00 	teq	r0, #0
    ba20:	bf04      	itt	eq
    ba22:	2100      	moveq	r1, #0
    ba24:	4770      	bxeq	lr
    ba26:	b530      	push	{r4, r5, lr}
    ba28:	f44f 6480 	mov.w	r4, #1024	; 0x400
    ba2c:	f104 0432 	add.w	r4, r4, #50	; 0x32
    ba30:	f010 4500 	ands.w	r5, r0, #2147483648	; 0x80000000
    ba34:	bf48      	it	mi
    ba36:	4240      	negmi	r0, r0
    ba38:	f04f 0100 	mov.w	r1, #0
    ba3c:	e73e      	b.n	b8bc <__adddf3+0x138>
    ba3e:	bf00      	nop

0000ba40 <__aeabi_f2d>:
    ba40:	0042      	lsls	r2, r0, #1
    ba42:	ea4f 01e2 	mov.w	r1, r2, asr #3
    ba46:	ea4f 0131 	mov.w	r1, r1, rrx
    ba4a:	ea4f 7002 	mov.w	r0, r2, lsl #28
    ba4e:	bf1f      	itttt	ne
    ba50:	f012 437f 	andsne.w	r3, r2, #4278190080	; 0xff000000
    ba54:	f093 4f7f 	teqne	r3, #4278190080	; 0xff000000
    ba58:	f081 5160 	eorne.w	r1, r1, #939524096	; 0x38000000
    ba5c:	4770      	bxne	lr
    ba5e:	f032 427f 	bics.w	r2, r2, #4278190080	; 0xff000000
    ba62:	bf08      	it	eq
    ba64:	4770      	bxeq	lr
    ba66:	f093 4f7f 	teq	r3, #4278190080	; 0xff000000
    ba6a:	bf04      	itt	eq
    ba6c:	f441 2100 	orreq.w	r1, r1, #524288	; 0x80000
    ba70:	4770      	bxeq	lr
    ba72:	b530      	push	{r4, r5, lr}
    ba74:	f44f 7460 	mov.w	r4, #896	; 0x380
    ba78:	f001 4500 	and.w	r5, r1, #2147483648	; 0x80000000
    ba7c:	f021 4100 	bic.w	r1, r1, #2147483648	; 0x80000000
    ba80:	e71c      	b.n	b8bc <__adddf3+0x138>
    ba82:	bf00      	nop

0000ba84 <__aeabi_ul2d>:
    ba84:	ea50 0201 	orrs.w	r2, r0, r1
    ba88:	bf08      	it	eq
    ba8a:	4770      	bxeq	lr
    ba8c:	b530      	push	{r4, r5, lr}
    ba8e:	f04f 0500 	mov.w	r5, #0
    ba92:	e00a      	b.n	baaa <__aeabi_l2d+0x16>

0000ba94 <__aeabi_l2d>:
    ba94:	ea50 0201 	orrs.w	r2, r0, r1
    ba98:	bf08      	it	eq
    ba9a:	4770      	bxeq	lr
    ba9c:	b530      	push	{r4, r5, lr}
    ba9e:	f011 4500 	ands.w	r5, r1, #2147483648	; 0x80000000
    baa2:	d502      	bpl.n	baaa <__aeabi_l2d+0x16>
    baa4:	4240      	negs	r0, r0
    baa6:	eb61 0141 	sbc.w	r1, r1, r1, lsl #1
    baaa:	f44f 6480 	mov.w	r4, #1024	; 0x400
    baae:	f104 0432 	add.w	r4, r4, #50	; 0x32
    bab2:	ea5f 5c91 	movs.w	ip, r1, lsr #22
    bab6:	f43f aed8 	beq.w	b86a <__adddf3+0xe6>
    baba:	f04f 0203 	mov.w	r2, #3
    babe:	ea5f 0cdc 	movs.w	ip, ip, lsr #3
    bac2:	bf18      	it	ne
    bac4:	3203      	addne	r2, #3
    bac6:	ea5f 0cdc 	movs.w	ip, ip, lsr #3
    baca:	bf18      	it	ne
    bacc:	3203      	addne	r2, #3
    bace:	eb02 02dc 	add.w	r2, r2, ip, lsr #3
    bad2:	f1c2 0320 	rsb	r3, r2, #32
    bad6:	fa00 fc03 	lsl.w	ip, r0, r3
    bada:	fa20 f002 	lsr.w	r0, r0, r2
    bade:	fa01 fe03 	lsl.w	lr, r1, r3
    bae2:	ea40 000e 	orr.w	r0, r0, lr
    bae6:	fa21 f102 	lsr.w	r1, r1, r2
    baea:	4414      	add	r4, r2
    baec:	e6bd      	b.n	b86a <__adddf3+0xe6>
    baee:	bf00      	nop

0000baf0 <__aeabi_dmul>:
    baf0:	b570      	push	{r4, r5, r6, lr}
    baf2:	f04f 0cff 	mov.w	ip, #255	; 0xff
    baf6:	f44c 6ce0 	orr.w	ip, ip, #1792	; 0x700
    bafa:	ea1c 5411 	ands.w	r4, ip, r1, lsr #20
    bafe:	bf1d      	ittte	ne
    bb00:	ea1c 5513 	andsne.w	r5, ip, r3, lsr #20
    bb04:	ea94 0f0c 	teqne	r4, ip
    bb08:	ea95 0f0c 	teqne	r5, ip
    bb0c:	f000 f8de 	bleq	bccc <__aeabi_dmul+0x1dc>
    bb10:	442c      	add	r4, r5
    bb12:	ea81 0603 	eor.w	r6, r1, r3
    bb16:	ea21 514c 	bic.w	r1, r1, ip, lsl #21
    bb1a:	ea23 534c 	bic.w	r3, r3, ip, lsl #21
    bb1e:	ea50 3501 	orrs.w	r5, r0, r1, lsl #12
    bb22:	bf18      	it	ne
    bb24:	ea52 3503 	orrsne.w	r5, r2, r3, lsl #12
    bb28:	f441 1180 	orr.w	r1, r1, #1048576	; 0x100000
    bb2c:	f443 1380 	orr.w	r3, r3, #1048576	; 0x100000
    bb30:	d038      	beq.n	bba4 <__aeabi_dmul+0xb4>
    bb32:	fba0 ce02 	umull	ip, lr, r0, r2
    bb36:	f04f 0500 	mov.w	r5, #0
    bb3a:	fbe1 e502 	umlal	lr, r5, r1, r2
    bb3e:	f006 4200 	and.w	r2, r6, #2147483648	; 0x80000000
    bb42:	fbe0 e503 	umlal	lr, r5, r0, r3
    bb46:	f04f 0600 	mov.w	r6, #0
    bb4a:	fbe1 5603 	umlal	r5, r6, r1, r3
    bb4e:	f09c 0f00 	teq	ip, #0
    bb52:	bf18      	it	ne
    bb54:	f04e 0e01 	orrne.w	lr, lr, #1
    bb58:	f1a4 04ff 	sub.w	r4, r4, #255	; 0xff
    bb5c:	f5b6 7f00 	cmp.w	r6, #512	; 0x200
    bb60:	f564 7440 	sbc.w	r4, r4, #768	; 0x300
    bb64:	d204      	bcs.n	bb70 <__aeabi_dmul+0x80>
    bb66:	ea5f 0e4e 	movs.w	lr, lr, lsl #1
    bb6a:	416d      	adcs	r5, r5
    bb6c:	eb46 0606 	adc.w	r6, r6, r6
    bb70:	ea42 21c6 	orr.w	r1, r2, r6, lsl #11
    bb74:	ea41 5155 	orr.w	r1, r1, r5, lsr #21
    bb78:	ea4f 20c5 	mov.w	r0, r5, lsl #11
    bb7c:	ea40 505e 	orr.w	r0, r0, lr, lsr #21
    bb80:	ea4f 2ece 	mov.w	lr, lr, lsl #11
    bb84:	f1b4 0cfd 	subs.w	ip, r4, #253	; 0xfd
    bb88:	bf88      	it	hi
    bb8a:	f5bc 6fe0 	cmphi.w	ip, #1792	; 0x700
    bb8e:	d81e      	bhi.n	bbce <__aeabi_dmul+0xde>
    bb90:	f1be 4f00 	cmp.w	lr, #2147483648	; 0x80000000
    bb94:	bf08      	it	eq
    bb96:	ea5f 0e50 	movseq.w	lr, r0, lsr #1
    bb9a:	f150 0000 	adcs.w	r0, r0, #0
    bb9e:	eb41 5104 	adc.w	r1, r1, r4, lsl #20
    bba2:	bd70      	pop	{r4, r5, r6, pc}
    bba4:	f006 4600 	and.w	r6, r6, #2147483648	; 0x80000000
    bba8:	ea46 0101 	orr.w	r1, r6, r1
    bbac:	ea40 0002 	orr.w	r0, r0, r2
    bbb0:	ea81 0103 	eor.w	r1, r1, r3
    bbb4:	ebb4 045c 	subs.w	r4, r4, ip, lsr #1
    bbb8:	bfc2      	ittt	gt
    bbba:	ebd4 050c 	rsbsgt	r5, r4, ip
    bbbe:	ea41 5104 	orrgt.w	r1, r1, r4, lsl #20
    bbc2:	bd70      	popgt	{r4, r5, r6, pc}
    bbc4:	f441 1180 	orr.w	r1, r1, #1048576	; 0x100000
    bbc8:	f04f 0e00 	mov.w	lr, #0
    bbcc:	3c01      	subs	r4, #1
    bbce:	f300 80ab 	bgt.w	bd28 <__aeabi_dmul+0x238>
    bbd2:	f114 0f36 	cmn.w	r4, #54	; 0x36
    bbd6:	bfde      	ittt	le
    bbd8:	2000      	movle	r0, #0
    bbda:	f001 4100 	andle.w	r1, r1, #2147483648	; 0x80000000
    bbde:	bd70      	pople	{r4, r5, r6, pc}
    bbe0:	f1c4 0400 	rsb	r4, r4, #0
    bbe4:	3c20      	subs	r4, #32
    bbe6:	da35      	bge.n	bc54 <__aeabi_dmul+0x164>
    bbe8:	340c      	adds	r4, #12
    bbea:	dc1b      	bgt.n	bc24 <__aeabi_dmul+0x134>
    bbec:	f104 0414 	add.w	r4, r4, #20
    bbf0:	f1c4 0520 	rsb	r5, r4, #32
    bbf4:	fa00 f305 	lsl.w	r3, r0, r5
    bbf8:	fa20 f004 	lsr.w	r0, r0, r4
    bbfc:	fa01 f205 	lsl.w	r2, r1, r5
    bc00:	ea40 0002 	orr.w	r0, r0, r2
    bc04:	f001 4200 	and.w	r2, r1, #2147483648	; 0x80000000
    bc08:	f021 4100 	bic.w	r1, r1, #2147483648	; 0x80000000
    bc0c:	eb10 70d3 	adds.w	r0, r0, r3, lsr #31
    bc10:	fa21 f604 	lsr.w	r6, r1, r4
    bc14:	eb42 0106 	adc.w	r1, r2, r6
    bc18:	ea5e 0e43 	orrs.w	lr, lr, r3, lsl #1
    bc1c:	bf08      	it	eq
    bc1e:	ea20 70d3 	biceq.w	r0, r0, r3, lsr #31
    bc22:	bd70      	pop	{r4, r5, r6, pc}
    bc24:	f1c4 040c 	rsb	r4, r4, #12
    bc28:	f1c4 0520 	rsb	r5, r4, #32
    bc2c:	fa00 f304 	lsl.w	r3, r0, r4
    bc30:	fa20 f005 	lsr.w	r0, r0, r5
    bc34:	fa01 f204 	lsl.w	r2, r1, r4
    bc38:	ea40 0002 	orr.w	r0, r0, r2
    bc3c:	f001 4100 	and.w	r1, r1, #2147483648	; 0x80000000
    bc40:	eb10 70d3 	adds.w	r0, r0, r3, lsr #31
    bc44:	f141 0100 	adc.w	r1, r1, #0
    bc48:	ea5e 0e43 	orrs.w	lr, lr, r3, lsl #1
    bc4c:	bf08      	it	eq
    bc4e:	ea20 70d3 	biceq.w	r0, r0, r3, lsr #31
    bc52:	bd70      	pop	{r4, r5, r6, pc}
    bc54:	f1c4 0520 	rsb	r5, r4, #32
    bc58:	fa00 f205 	lsl.w	r2, r0, r5
    bc5c:	ea4e 0e02 	orr.w	lr, lr, r2
    bc60:	fa20 f304 	lsr.w	r3, r0, r4
    bc64:	fa01 f205 	lsl.w	r2, r1, r5
    bc68:	ea43 0302 	orr.w	r3, r3, r2
    bc6c:	fa21 f004 	lsr.w	r0, r1, r4
    bc70:	f001 4100 	and.w	r1, r1, #2147483648	; 0x80000000
    bc74:	fa21 f204 	lsr.w	r2, r1, r4
    bc78:	ea20 0002 	bic.w	r0, r0, r2
    bc7c:	eb00 70d3 	add.w	r0, r0, r3, lsr #31
    bc80:	ea5e 0e43 	orrs.w	lr, lr, r3, lsl #1
    bc84:	bf08      	it	eq
    bc86:	ea20 70d3 	biceq.w	r0, r0, r3, lsr #31
    bc8a:	bd70      	pop	{r4, r5, r6, pc}
    bc8c:	f094 0f00 	teq	r4, #0
    bc90:	d10f      	bne.n	bcb2 <__aeabi_dmul+0x1c2>
    bc92:	f001 4600 	and.w	r6, r1, #2147483648	; 0x80000000
    bc96:	0040      	lsls	r0, r0, #1
    bc98:	eb41 0101 	adc.w	r1, r1, r1
    bc9c:	f411 1f80 	tst.w	r1, #1048576	; 0x100000
    bca0:	bf08      	it	eq
    bca2:	3c01      	subeq	r4, #1
    bca4:	d0f7      	beq.n	bc96 <__aeabi_dmul+0x1a6>
    bca6:	ea41 0106 	orr.w	r1, r1, r6
    bcaa:	f095 0f00 	teq	r5, #0
    bcae:	bf18      	it	ne
    bcb0:	4770      	bxne	lr
    bcb2:	f003 4600 	and.w	r6, r3, #2147483648	; 0x80000000
    bcb6:	0052      	lsls	r2, r2, #1
    bcb8:	eb43 0303 	adc.w	r3, r3, r3
    bcbc:	f413 1f80 	tst.w	r3, #1048576	; 0x100000
    bcc0:	bf08      	it	eq
    bcc2:	3d01      	subeq	r5, #1
    bcc4:	d0f7      	beq.n	bcb6 <__aeabi_dmul+0x1c6>
    bcc6:	ea43 0306 	orr.w	r3, r3, r6
    bcca:	4770      	bx	lr
    bccc:	ea94 0f0c 	teq	r4, ip
    bcd0:	ea0c 5513 	and.w	r5, ip, r3, lsr #20
    bcd4:	bf18      	it	ne
    bcd6:	ea95 0f0c 	teqne	r5, ip
    bcda:	d00c      	beq.n	bcf6 <__aeabi_dmul+0x206>
    bcdc:	ea50 0641 	orrs.w	r6, r0, r1, lsl #1
    bce0:	bf18      	it	ne
    bce2:	ea52 0643 	orrsne.w	r6, r2, r3, lsl #1
    bce6:	d1d1      	bne.n	bc8c <__aeabi_dmul+0x19c>
    bce8:	ea81 0103 	eor.w	r1, r1, r3
    bcec:	f001 4100 	and.w	r1, r1, #2147483648	; 0x80000000
    bcf0:	f04f 0000 	mov.w	r0, #0
    bcf4:	bd70      	pop	{r4, r5, r6, pc}
    bcf6:	ea50 0641 	orrs.w	r6, r0, r1, lsl #1
    bcfa:	bf06      	itte	eq
    bcfc:	4610      	moveq	r0, r2
    bcfe:	4619      	moveq	r1, r3
    bd00:	ea52 0643 	orrsne.w	r6, r2, r3, lsl #1
    bd04:	d019      	beq.n	bd3a <__aeabi_dmul+0x24a>
    bd06:	ea94 0f0c 	teq	r4, ip
    bd0a:	d102      	bne.n	bd12 <__aeabi_dmul+0x222>
    bd0c:	ea50 3601 	orrs.w	r6, r0, r1, lsl #12
    bd10:	d113      	bne.n	bd3a <__aeabi_dmul+0x24a>
    bd12:	ea95 0f0c 	teq	r5, ip
    bd16:	d105      	bne.n	bd24 <__aeabi_dmul+0x234>
    bd18:	ea52 3603 	orrs.w	r6, r2, r3, lsl #12
    bd1c:	bf1c      	itt	ne
    bd1e:	4610      	movne	r0, r2
    bd20:	4619      	movne	r1, r3
    bd22:	d10a      	bne.n	bd3a <__aeabi_dmul+0x24a>
    bd24:	ea81 0103 	eor.w	r1, r1, r3
    bd28:	f001 4100 	and.w	r1, r1, #2147483648	; 0x80000000
    bd2c:	f041 41fe 	orr.w	r1, r1, #2130706432	; 0x7f000000
    bd30:	f441 0170 	orr.w	r1, r1, #15728640	; 0xf00000
    bd34:	f04f 0000 	mov.w	r0, #0
    bd38:	bd70      	pop	{r4, r5, r6, pc}
    bd3a:	f041 41fe 	orr.w	r1, r1, #2130706432	; 0x7f000000
    bd3e:	f441 0178 	orr.w	r1, r1, #16252928	; 0xf80000
    bd42:	bd70      	pop	{r4, r5, r6, pc}

0000bd44 <__aeabi_ddiv>:
    bd44:	b570      	push	{r4, r5, r6, lr}
    bd46:	f04f 0cff 	mov.w	ip, #255	; 0xff
    bd4a:	f44c 6ce0 	orr.w	ip, ip, #1792	; 0x700
    bd4e:	ea1c 5411 	ands.w	r4, ip, r1, lsr #20
    bd52:	bf1d      	ittte	ne
    bd54:	ea1c 5513 	andsne.w	r5, ip, r3, lsr #20
    bd58:	ea94 0f0c 	teqne	r4, ip
    bd5c:	ea95 0f0c 	teqne	r5, ip
    bd60:	f000 f8a7 	bleq	beb2 <__aeabi_ddiv+0x16e>
    bd64:	eba4 0405 	sub.w	r4, r4, r5
    bd68:	ea81 0e03 	eor.w	lr, r1, r3
    bd6c:	ea52 3503 	orrs.w	r5, r2, r3, lsl #12
    bd70:	ea4f 3101 	mov.w	r1, r1, lsl #12
    bd74:	f000 8088 	beq.w	be88 <__aeabi_ddiv+0x144>
    bd78:	ea4f 3303 	mov.w	r3, r3, lsl #12
    bd7c:	f04f 5580 	mov.w	r5, #268435456	; 0x10000000
    bd80:	ea45 1313 	orr.w	r3, r5, r3, lsr #4
    bd84:	ea43 6312 	orr.w	r3, r3, r2, lsr #24
    bd88:	ea4f 2202 	mov.w	r2, r2, lsl #8
    bd8c:	ea45 1511 	orr.w	r5, r5, r1, lsr #4
    bd90:	ea45 6510 	orr.w	r5, r5, r0, lsr #24
    bd94:	ea4f 2600 	mov.w	r6, r0, lsl #8
    bd98:	f00e 4100 	and.w	r1, lr, #2147483648	; 0x80000000
    bd9c:	429d      	cmp	r5, r3
    bd9e:	bf08      	it	eq
    bda0:	4296      	cmpeq	r6, r2
    bda2:	f144 04fd 	adc.w	r4, r4, #253	; 0xfd
    bda6:	f504 7440 	add.w	r4, r4, #768	; 0x300
    bdaa:	d202      	bcs.n	bdb2 <__aeabi_ddiv+0x6e>
    bdac:	085b      	lsrs	r3, r3, #1
    bdae:	ea4f 0232 	mov.w	r2, r2, rrx
    bdb2:	1ab6      	subs	r6, r6, r2
    bdb4:	eb65 0503 	sbc.w	r5, r5, r3
    bdb8:	085b      	lsrs	r3, r3, #1
    bdba:	ea4f 0232 	mov.w	r2, r2, rrx
    bdbe:	f44f 1080 	mov.w	r0, #1048576	; 0x100000
    bdc2:	f44f 2c00 	mov.w	ip, #524288	; 0x80000
    bdc6:	ebb6 0e02 	subs.w	lr, r6, r2
    bdca:	eb75 0e03 	sbcs.w	lr, r5, r3
    bdce:	bf22      	ittt	cs
    bdd0:	1ab6      	subcs	r6, r6, r2
    bdd2:	4675      	movcs	r5, lr
    bdd4:	ea40 000c 	orrcs.w	r0, r0, ip
    bdd8:	085b      	lsrs	r3, r3, #1
    bdda:	ea4f 0232 	mov.w	r2, r2, rrx
    bdde:	ebb6 0e02 	subs.w	lr, r6, r2
    bde2:	eb75 0e03 	sbcs.w	lr, r5, r3
    bde6:	bf22      	ittt	cs
    bde8:	1ab6      	subcs	r6, r6, r2
    bdea:	4675      	movcs	r5, lr
    bdec:	ea40 005c 	orrcs.w	r0, r0, ip, lsr #1
    bdf0:	085b      	lsrs	r3, r3, #1
    bdf2:	ea4f 0232 	mov.w	r2, r2, rrx
    bdf6:	ebb6 0e02 	subs.w	lr, r6, r2
    bdfa:	eb75 0e03 	sbcs.w	lr, r5, r3
    bdfe:	bf22      	ittt	cs
    be00:	1ab6      	subcs	r6, r6, r2
    be02:	4675      	movcs	r5, lr
    be04:	ea40 009c 	orrcs.w	r0, r0, ip, lsr #2
    be08:	085b      	lsrs	r3, r3, #1
    be0a:	ea4f 0232 	mov.w	r2, r2, rrx
    be0e:	ebb6 0e02 	subs.w	lr, r6, r2
    be12:	eb75 0e03 	sbcs.w	lr, r5, r3
    be16:	bf22      	ittt	cs
    be18:	1ab6      	subcs	r6, r6, r2
    be1a:	4675      	movcs	r5, lr
    be1c:	ea40 00dc 	orrcs.w	r0, r0, ip, lsr #3
    be20:	ea55 0e06 	orrs.w	lr, r5, r6
    be24:	d018      	beq.n	be58 <__aeabi_ddiv+0x114>
    be26:	ea4f 1505 	mov.w	r5, r5, lsl #4
    be2a:	ea45 7516 	orr.w	r5, r5, r6, lsr #28
    be2e:	ea4f 1606 	mov.w	r6, r6, lsl #4
    be32:	ea4f 03c3 	mov.w	r3, r3, lsl #3
    be36:	ea43 7352 	orr.w	r3, r3, r2, lsr #29
    be3a:	ea4f 02c2 	mov.w	r2, r2, lsl #3
    be3e:	ea5f 1c1c 	movs.w	ip, ip, lsr #4
    be42:	d1c0      	bne.n	bdc6 <__aeabi_ddiv+0x82>
    be44:	f411 1f80 	tst.w	r1, #1048576	; 0x100000
    be48:	d10b      	bne.n	be62 <__aeabi_ddiv+0x11e>
    be4a:	ea41 0100 	orr.w	r1, r1, r0
    be4e:	f04f 0000 	mov.w	r0, #0
    be52:	f04f 4c00 	mov.w	ip, #2147483648	; 0x80000000
    be56:	e7b6      	b.n	bdc6 <__aeabi_ddiv+0x82>
    be58:	f411 1f80 	tst.w	r1, #1048576	; 0x100000
    be5c:	bf04      	itt	eq
    be5e:	4301      	orreq	r1, r0
    be60:	2000      	moveq	r0, #0
    be62:	f1b4 0cfd 	subs.w	ip, r4, #253	; 0xfd
    be66:	bf88      	it	hi
    be68:	f5bc 6fe0 	cmphi.w	ip, #1792	; 0x700
    be6c:	f63f aeaf 	bhi.w	bbce <__aeabi_dmul+0xde>
    be70:	ebb5 0c03 	subs.w	ip, r5, r3
    be74:	bf04      	itt	eq
    be76:	ebb6 0c02 	subseq.w	ip, r6, r2
    be7a:	ea5f 0c50 	movseq.w	ip, r0, lsr #1
    be7e:	f150 0000 	adcs.w	r0, r0, #0
    be82:	eb41 5104 	adc.w	r1, r1, r4, lsl #20
    be86:	bd70      	pop	{r4, r5, r6, pc}
    be88:	f00e 4e00 	and.w	lr, lr, #2147483648	; 0x80000000
    be8c:	ea4e 3111 	orr.w	r1, lr, r1, lsr #12
    be90:	eb14 045c 	adds.w	r4, r4, ip, lsr #1
    be94:	bfc2      	ittt	gt
    be96:	ebd4 050c 	rsbsgt	r5, r4, ip
    be9a:	ea41 5104 	orrgt.w	r1, r1, r4, lsl #20
    be9e:	bd70      	popgt	{r4, r5, r6, pc}
    bea0:	f441 1180 	orr.w	r1, r1, #1048576	; 0x100000
    bea4:	f04f 0e00 	mov.w	lr, #0
    bea8:	3c01      	subs	r4, #1
    beaa:	e690      	b.n	bbce <__aeabi_dmul+0xde>
    beac:	ea45 0e06 	orr.w	lr, r5, r6
    beb0:	e68d      	b.n	bbce <__aeabi_dmul+0xde>
    beb2:	ea0c 5513 	and.w	r5, ip, r3, lsr #20
    beb6:	ea94 0f0c 	teq	r4, ip
    beba:	bf08      	it	eq
    bebc:	ea95 0f0c 	teqeq	r5, ip
    bec0:	f43f af3b 	beq.w	bd3a <__aeabi_dmul+0x24a>
    bec4:	ea94 0f0c 	teq	r4, ip
    bec8:	d10a      	bne.n	bee0 <__aeabi_ddiv+0x19c>
    beca:	ea50 3401 	orrs.w	r4, r0, r1, lsl #12
    bece:	f47f af34 	bne.w	bd3a <__aeabi_dmul+0x24a>
    bed2:	ea95 0f0c 	teq	r5, ip
    bed6:	f47f af25 	bne.w	bd24 <__aeabi_dmul+0x234>
    beda:	4610      	mov	r0, r2
    bedc:	4619      	mov	r1, r3
    bede:	e72c      	b.n	bd3a <__aeabi_dmul+0x24a>
    bee0:	ea95 0f0c 	teq	r5, ip
    bee4:	d106      	bne.n	bef4 <__aeabi_ddiv+0x1b0>
    bee6:	ea52 3503 	orrs.w	r5, r2, r3, lsl #12
    beea:	f43f aefd 	beq.w	bce8 <__aeabi_dmul+0x1f8>
    beee:	4610      	mov	r0, r2
    bef0:	4619      	mov	r1, r3
    bef2:	e722      	b.n	bd3a <__aeabi_dmul+0x24a>
    bef4:	ea50 0641 	orrs.w	r6, r0, r1, lsl #1
    bef8:	bf18      	it	ne
    befa:	ea52 0643 	orrsne.w	r6, r2, r3, lsl #1
    befe:	f47f aec5 	bne.w	bc8c <__aeabi_dmul+0x19c>
    bf02:	ea50 0441 	orrs.w	r4, r0, r1, lsl #1
    bf06:	f47f af0d 	bne.w	bd24 <__aeabi_dmul+0x234>
    bf0a:	ea52 0543 	orrs.w	r5, r2, r3, lsl #1
    bf0e:	f47f aeeb 	bne.w	bce8 <__aeabi_dmul+0x1f8>
    bf12:	e712      	b.n	bd3a <__aeabi_dmul+0x24a>

0000bf14 <__gedf2>:
    bf14:	f04f 3cff 	mov.w	ip, #4294967295	; 0xffffffff
    bf18:	e006      	b.n	bf28 <__cmpdf2+0x4>
    bf1a:	bf00      	nop

0000bf1c <__ledf2>:
    bf1c:	f04f 0c01 	mov.w	ip, #1
    bf20:	e002      	b.n	bf28 <__cmpdf2+0x4>
    bf22:	bf00      	nop

0000bf24 <__cmpdf2>:
    bf24:	f04f 0c01 	mov.w	ip, #1
    bf28:	f84d cd04 	str.w	ip, [sp, #-4]!
    bf2c:	ea4f 0c41 	mov.w	ip, r1, lsl #1
    bf30:	ea7f 5c6c 	mvns.w	ip, ip, asr #21
    bf34:	ea4f 0c43 	mov.w	ip, r3, lsl #1
    bf38:	bf18      	it	ne
    bf3a:	ea7f 5c6c 	mvnsne.w	ip, ip, asr #21
    bf3e:	d01b      	beq.n	bf78 <__cmpdf2+0x54>
    bf40:	b001      	add	sp, #4
    bf42:	ea50 0c41 	orrs.w	ip, r0, r1, lsl #1
    bf46:	bf0c      	ite	eq
    bf48:	ea52 0c43 	orrseq.w	ip, r2, r3, lsl #1
    bf4c:	ea91 0f03 	teqne	r1, r3
    bf50:	bf02      	ittt	eq
    bf52:	ea90 0f02 	teqeq	r0, r2
    bf56:	2000      	moveq	r0, #0
    bf58:	4770      	bxeq	lr
    bf5a:	f110 0f00 	cmn.w	r0, #0
    bf5e:	ea91 0f03 	teq	r1, r3
    bf62:	bf58      	it	pl
    bf64:	4299      	cmppl	r1, r3
    bf66:	bf08      	it	eq
    bf68:	4290      	cmpeq	r0, r2
    bf6a:	bf2c      	ite	cs
    bf6c:	17d8      	asrcs	r0, r3, #31
    bf6e:	ea6f 70e3 	mvncc.w	r0, r3, asr #31
    bf72:	f040 0001 	orr.w	r0, r0, #1
    bf76:	4770      	bx	lr
    bf78:	ea4f 0c41 	mov.w	ip, r1, lsl #1
    bf7c:	ea7f 5c6c 	mvns.w	ip, ip, asr #21
    bf80:	d102      	bne.n	bf88 <__cmpdf2+0x64>
    bf82:	ea50 3c01 	orrs.w	ip, r0, r1, lsl #12
    bf86:	d107      	bne.n	bf98 <__cmpdf2+0x74>
    bf88:	ea4f 0c43 	mov.w	ip, r3, lsl #1
    bf8c:	ea7f 5c6c 	mvns.w	ip, ip, asr #21
    bf90:	d1d6      	bne.n	bf40 <__cmpdf2+0x1c>
    bf92:	ea52 3c03 	orrs.w	ip, r2, r3, lsl #12
    bf96:	d0d3      	beq.n	bf40 <__cmpdf2+0x1c>
    bf98:	f85d 0b04 	ldr.w	r0, [sp], #4
    bf9c:	4770      	bx	lr
    bf9e:	bf00      	nop

0000bfa0 <__aeabi_cdrcmple>:
    bfa0:	4684      	mov	ip, r0
    bfa2:	4610      	mov	r0, r2
    bfa4:	4662      	mov	r2, ip
    bfa6:	468c      	mov	ip, r1
    bfa8:	4619      	mov	r1, r3
    bfaa:	4663      	mov	r3, ip
    bfac:	e000      	b.n	bfb0 <__aeabi_cdcmpeq>
    bfae:	bf00      	nop

0000bfb0 <__aeabi_cdcmpeq>:
    bfb0:	b501      	push	{r0, lr}
    bfb2:	f7ff ffb7 	bl	bf24 <__cmpdf2>
    bfb6:	2800      	cmp	r0, #0
    bfb8:	bf48      	it	mi
    bfba:	f110 0f00 	cmnmi.w	r0, #0
    bfbe:	bd01      	pop	{r0, pc}

0000bfc0 <__aeabi_dcmpeq>:
    bfc0:	f84d ed08 	str.w	lr, [sp, #-8]!
    bfc4:	f7ff fff4 	bl	bfb0 <__aeabi_cdcmpeq>
    bfc8:	bf0c      	ite	eq
    bfca:	2001      	moveq	r0, #1
    bfcc:	2000      	movne	r0, #0
    bfce:	f85d fb08 	ldr.w	pc, [sp], #8
    bfd2:	bf00      	nop

0000bfd4 <__aeabi_dcmplt>:
    bfd4:	f84d ed08 	str.w	lr, [sp, #-8]!
    bfd8:	f7ff ffea 	bl	bfb0 <__aeabi_cdcmpeq>
    bfdc:	bf34      	ite	cc
    bfde:	2001      	movcc	r0, #1
    bfe0:	2000      	movcs	r0, #0
    bfe2:	f85d fb08 	ldr.w	pc, [sp], #8
    bfe6:	bf00      	nop

0000bfe8 <__aeabi_dcmple>:
    bfe8:	f84d ed08 	str.w	lr, [sp, #-8]!
    bfec:	f7ff ffe0 	bl	bfb0 <__aeabi_cdcmpeq>
    bff0:	bf94      	ite	ls
    bff2:	2001      	movls	r0, #1
    bff4:	2000      	movhi	r0, #0
    bff6:	f85d fb08 	ldr.w	pc, [sp], #8
    bffa:	bf00      	nop

0000bffc <__aeabi_dcmpge>:
    bffc:	f84d ed08 	str.w	lr, [sp, #-8]!
    c000:	f7ff ffce 	bl	bfa0 <__aeabi_cdrcmple>
    c004:	bf94      	ite	ls
    c006:	2001      	movls	r0, #1
    c008:	2000      	movhi	r0, #0
    c00a:	f85d fb08 	ldr.w	pc, [sp], #8
    c00e:	bf00      	nop

0000c010 <__aeabi_dcmpgt>:
    c010:	f84d ed08 	str.w	lr, [sp, #-8]!
    c014:	f7ff ffc4 	bl	bfa0 <__aeabi_cdrcmple>
    c018:	bf34      	ite	cc
    c01a:	2001      	movcc	r0, #1
    c01c:	2000      	movcs	r0, #0
    c01e:	f85d fb08 	ldr.w	pc, [sp], #8
    c022:	bf00      	nop

0000c024 <__aeabi_dcmpun>:
    c024:	ea4f 0c41 	mov.w	ip, r1, lsl #1
    c028:	ea7f 5c6c 	mvns.w	ip, ip, asr #21
    c02c:	d102      	bne.n	c034 <__aeabi_dcmpun+0x10>
    c02e:	ea50 3c01 	orrs.w	ip, r0, r1, lsl #12
    c032:	d10a      	bne.n	c04a <__aeabi_dcmpun+0x26>
    c034:	ea4f 0c43 	mov.w	ip, r3, lsl #1
    c038:	ea7f 5c6c 	mvns.w	ip, ip, asr #21
    c03c:	d102      	bne.n	c044 <__aeabi_dcmpun+0x20>
    c03e:	ea52 3c03 	orrs.w	ip, r2, r3, lsl #12
    c042:	d102      	bne.n	c04a <__aeabi_dcmpun+0x26>
    c044:	f04f 0000 	mov.w	r0, #0
    c048:	4770      	bx	lr
    c04a:	f04f 0001 	mov.w	r0, #1
    c04e:	4770      	bx	lr

0000c050 <__aeabi_d2iz>:
    c050:	ea4f 0241 	mov.w	r2, r1, lsl #1
    c054:	f512 1200 	adds.w	r2, r2, #2097152	; 0x200000
    c058:	d215      	bcs.n	c086 <__aeabi_d2iz+0x36>
    c05a:	d511      	bpl.n	c080 <__aeabi_d2iz+0x30>
    c05c:	f46f 7378 	mvn.w	r3, #992	; 0x3e0
    c060:	ebb3 5262 	subs.w	r2, r3, r2, asr #21
    c064:	d912      	bls.n	c08c <__aeabi_d2iz+0x3c>
    c066:	ea4f 23c1 	mov.w	r3, r1, lsl #11
    c06a:	f043 4300 	orr.w	r3, r3, #2147483648	; 0x80000000
    c06e:	ea43 5350 	orr.w	r3, r3, r0, lsr #21
    c072:	f011 4f00 	tst.w	r1, #2147483648	; 0x80000000
    c076:	fa23 f002 	lsr.w	r0, r3, r2
    c07a:	bf18      	it	ne
    c07c:	4240      	negne	r0, r0
    c07e:	4770      	bx	lr
    c080:	f04f 0000 	mov.w	r0, #0
    c084:	4770      	bx	lr
    c086:	ea50 3001 	orrs.w	r0, r0, r1, lsl #12
    c08a:	d105      	bne.n	c098 <__aeabi_d2iz+0x48>
    c08c:	f011 4000 	ands.w	r0, r1, #2147483648	; 0x80000000
    c090:	bf08      	it	eq
    c092:	f06f 4000 	mvneq.w	r0, #2147483648	; 0x80000000
    c096:	4770      	bx	lr
    c098:	f04f 0000 	mov.w	r0, #0
    c09c:	4770      	bx	lr
    c09e:	bf00      	nop

0000c0a0 <__errno>:
    c0a0:	4b01      	ldr	r3, [pc, #4]	; (c0a8 <__errno+0x8>)
    c0a2:	6818      	ldr	r0, [r3, #0]
    c0a4:	4770      	bx	lr
    c0a6:	bf00      	nop
    c0a8:	0001d290 	.word	0x0001d290

0000c0ac <__libc_init_array>:
    c0ac:	b570      	push	{r4, r5, r6, lr}
    c0ae:	4e0d      	ldr	r6, [pc, #52]	; (c0e4 <__libc_init_array+0x38>)
    c0b0:	4d0d      	ldr	r5, [pc, #52]	; (c0e8 <__libc_init_array+0x3c>)
    c0b2:	1b76      	subs	r6, r6, r5
    c0b4:	10b6      	asrs	r6, r6, #2
    c0b6:	d006      	beq.n	c0c6 <__libc_init_array+0x1a>
    c0b8:	2400      	movs	r4, #0
    c0ba:	f855 3b04 	ldr.w	r3, [r5], #4
    c0be:	3401      	adds	r4, #1
    c0c0:	4798      	blx	r3
    c0c2:	42a6      	cmp	r6, r4
    c0c4:	d1f9      	bne.n	c0ba <__libc_init_array+0xe>
    c0c6:	4e09      	ldr	r6, [pc, #36]	; (c0ec <__libc_init_array+0x40>)
    c0c8:	4d09      	ldr	r5, [pc, #36]	; (c0f0 <__libc_init_array+0x44>)
    c0ca:	1b76      	subs	r6, r6, r5
    c0cc:	f7fb ff98 	bl	8000 <_init>
    c0d0:	10b6      	asrs	r6, r6, #2
    c0d2:	d006      	beq.n	c0e2 <__libc_init_array+0x36>
    c0d4:	2400      	movs	r4, #0
    c0d6:	f855 3b04 	ldr.w	r3, [r5], #4
    c0da:	3401      	adds	r4, #1
    c0dc:	4798      	blx	r3
    c0de:	42a6      	cmp	r6, r4
    c0e0:	d1f9      	bne.n	c0d6 <__libc_init_array+0x2a>
    c0e2:	bd70      	pop	{r4, r5, r6, pc}
    c0e4:	0001d284 	.word	0x0001d284
    c0e8:	0001d284 	.word	0x0001d284
    c0ec:	0001d28c 	.word	0x0001d28c
    c0f0:	0001d284 	.word	0x0001d284

0000c0f4 <memcmp>:
    c0f4:	2a03      	cmp	r2, #3
    c0f6:	b510      	push	{r4, lr}
    c0f8:	d917      	bls.n	c12a <memcmp+0x36>
    c0fa:	ea40 0c01 	orr.w	ip, r0, r1
    c0fe:	f01c 0f03 	tst.w	ip, #3
    c102:	4604      	mov	r4, r0
    c104:	460b      	mov	r3, r1
    c106:	d123      	bne.n	c150 <memcmp+0x5c>
    c108:	4619      	mov	r1, r3
    c10a:	4620      	mov	r0, r4
    c10c:	f8d1 e000 	ldr.w	lr, [r1]
    c110:	f8d0 c000 	ldr.w	ip, [r0]
    c114:	45f4      	cmp	ip, lr
    c116:	f104 0404 	add.w	r4, r4, #4
    c11a:	f103 0304 	add.w	r3, r3, #4
    c11e:	d117      	bne.n	c150 <memcmp+0x5c>
    c120:	3a04      	subs	r2, #4
    c122:	2a03      	cmp	r2, #3
    c124:	4620      	mov	r0, r4
    c126:	4619      	mov	r1, r3
    c128:	d8ee      	bhi.n	c108 <memcmp+0x14>
    c12a:	1e54      	subs	r4, r2, #1
    c12c:	b1a2      	cbz	r2, c158 <memcmp+0x64>
    c12e:	f100 3cff 	add.w	ip, r0, #4294967295	; 0xffffffff
    c132:	3901      	subs	r1, #1
    c134:	e001      	b.n	c13a <memcmp+0x46>
    c136:	18c3      	adds	r3, r0, r3
    c138:	d00c      	beq.n	c154 <memcmp+0x60>
    c13a:	f81c ef01 	ldrb.w	lr, [ip, #1]!
    c13e:	f811 2f01 	ldrb.w	r2, [r1, #1]!
    c142:	4596      	cmp	lr, r2
    c144:	eba4 030c 	sub.w	r3, r4, ip
    c148:	d0f5      	beq.n	c136 <memcmp+0x42>
    c14a:	ebae 0002 	sub.w	r0, lr, r2
    c14e:	bd10      	pop	{r4, pc}
    c150:	1e54      	subs	r4, r2, #1
    c152:	e7ec      	b.n	c12e <memcmp+0x3a>
    c154:	4618      	mov	r0, r3
    c156:	bd10      	pop	{r4, pc}
    c158:	4610      	mov	r0, r2
    c15a:	bd10      	pop	{r4, pc}

0000c15c <memcpy>:
    c15c:	4684      	mov	ip, r0
    c15e:	ea41 0300 	orr.w	r3, r1, r0
    c162:	f013 0303 	ands.w	r3, r3, #3
    c166:	d16d      	bne.n	c244 <memcpy+0xe8>
    c168:	3a40      	subs	r2, #64	; 0x40
    c16a:	d341      	bcc.n	c1f0 <memcpy+0x94>
    c16c:	f851 3b04 	ldr.w	r3, [r1], #4
    c170:	f840 3b04 	str.w	r3, [r0], #4
    c174:	f851 3b04 	ldr.w	r3, [r1], #4
    c178:	f840 3b04 	str.w	r3, [r0], #4
    c17c:	f851 3b04 	ldr.w	r3, [r1], #4
    c180:	f840 3b04 	str.w	r3, [r0], #4
    c184:	f851 3b04 	ldr.w	r3, [r1], #4
    c188:	f840 3b04 	str.w	r3, [r0], #4
    c18c:	f851 3b04 	ldr.w	r3, [r1], #4
    c190:	f840 3b04 	str.w	r3, [r0], #4
    c194:	f851 3b04 	ldr.w	r3, [r1], #4
    c198:	f840 3b04 	str.w	r3, [r0], #4
    c19c:	f851 3b04 	ldr.w	r3, [r1], #4
    c1a0:	f840 3b04 	str.w	r3, [r0], #4
    c1a4:	f851 3b04 	ldr.w	r3, [r1], #4
    c1a8:	f840 3b04 	str.w	r3, [r0], #4
    c1ac:	f851 3b04 	ldr.w	r3, [r1], #4
    c1b0:	f840 3b04 	str.w	r3, [r0], #4
    c1b4:	f851 3b04 	ldr.w	r3, [r1], #4
    c1b8:	f840 3b04 	str.w	r3, [r0], #4
    c1bc:	f851 3b04 	ldr.w	r3, [r1], #4
    c1c0:	f840 3b04 	str.w	r3, [r0], #4
    c1c4:	f851 3b04 	ldr.w	r3, [r1], #4
    c1c8:	f840 3b04 	str.w	r3, [r0], #4
    c1cc:	f851 3b04 	ldr.w	r3, [r1], #4
    c1d0:	f840 3b04 	str.w	r3, [r0], #4
    c1d4:	f851 3b04 	ldr.w	r3, [r1], #4
    c1d8:	f840 3b04 	str.w	r3, [r0], #4
    c1dc:	f851 3b04 	ldr.w	r3, [r1], #4
    c1e0:	f840 3b04 	str.w	r3, [r0], #4
    c1e4:	f851 3b04 	ldr.w	r3, [r1], #4
    c1e8:	f840 3b04 	str.w	r3, [r0], #4
    c1ec:	3a40      	subs	r2, #64	; 0x40
    c1ee:	d2bd      	bcs.n	c16c <memcpy+0x10>
    c1f0:	3230      	adds	r2, #48	; 0x30
    c1f2:	d311      	bcc.n	c218 <memcpy+0xbc>
    c1f4:	f851 3b04 	ldr.w	r3, [r1], #4
    c1f8:	f840 3b04 	str.w	r3, [r0], #4
    c1fc:	f851 3b04 	ldr.w	r3, [r1], #4
    c200:	f840 3b04 	str.w	r3, [r0], #4
    c204:	f851 3b04 	ldr.w	r3, [r1], #4
    c208:	f840 3b04 	str.w	r3, [r0], #4
    c20c:	f851 3b04 	ldr.w	r3, [r1], #4
    c210:	f840 3b04 	str.w	r3, [r0], #4
    c214:	3a10      	subs	r2, #16
    c216:	d2ed      	bcs.n	c1f4 <memcpy+0x98>
    c218:	320c      	adds	r2, #12
    c21a:	d305      	bcc.n	c228 <memcpy+0xcc>
    c21c:	f851 3b04 	ldr.w	r3, [r1], #4
    c220:	f840 3b04 	str.w	r3, [r0], #4
    c224:	3a04      	subs	r2, #4
    c226:	d2f9      	bcs.n	c21c <memcpy+0xc0>
    c228:	3204      	adds	r2, #4
    c22a:	d008      	beq.n	c23e <memcpy+0xe2>
    c22c:	07d2      	lsls	r2, r2, #31
    c22e:	bf1c      	itt	ne
    c230:	f811 3b01 	ldrbne.w	r3, [r1], #1
    c234:	f800 3b01 	strbne.w	r3, [r0], #1
    c238:	d301      	bcc.n	c23e <memcpy+0xe2>
    c23a:	880b      	ldrh	r3, [r1, #0]
    c23c:	8003      	strh	r3, [r0, #0]
    c23e:	4660      	mov	r0, ip
    c240:	4770      	bx	lr
    c242:	bf00      	nop
    c244:	2a08      	cmp	r2, #8
    c246:	d313      	bcc.n	c270 <memcpy+0x114>
    c248:	078b      	lsls	r3, r1, #30
    c24a:	d08d      	beq.n	c168 <memcpy+0xc>
    c24c:	f010 0303 	ands.w	r3, r0, #3
    c250:	d08a      	beq.n	c168 <memcpy+0xc>
    c252:	f1c3 0304 	rsb	r3, r3, #4
    c256:	1ad2      	subs	r2, r2, r3
    c258:	07db      	lsls	r3, r3, #31
    c25a:	bf1c      	itt	ne
    c25c:	f811 3b01 	ldrbne.w	r3, [r1], #1
    c260:	f800 3b01 	strbne.w	r3, [r0], #1
    c264:	d380      	bcc.n	c168 <memcpy+0xc>
    c266:	f831 3b02 	ldrh.w	r3, [r1], #2
    c26a:	f820 3b02 	strh.w	r3, [r0], #2
    c26e:	e77b      	b.n	c168 <memcpy+0xc>
    c270:	3a04      	subs	r2, #4
    c272:	d3d9      	bcc.n	c228 <memcpy+0xcc>
    c274:	3a01      	subs	r2, #1
    c276:	f811 3b01 	ldrb.w	r3, [r1], #1
    c27a:	f800 3b01 	strb.w	r3, [r0], #1
    c27e:	d2f9      	bcs.n	c274 <memcpy+0x118>
    c280:	780b      	ldrb	r3, [r1, #0]
    c282:	7003      	strb	r3, [r0, #0]
    c284:	784b      	ldrb	r3, [r1, #1]
    c286:	7043      	strb	r3, [r0, #1]
    c288:	788b      	ldrb	r3, [r1, #2]
    c28a:	7083      	strb	r3, [r0, #2]
    c28c:	4660      	mov	r0, ip
    c28e:	4770      	bx	lr

0000c290 <memmove>:
    c290:	4288      	cmp	r0, r1
    c292:	d90d      	bls.n	c2b0 <memmove+0x20>
    c294:	188b      	adds	r3, r1, r2
    c296:	4283      	cmp	r3, r0
    c298:	d90a      	bls.n	c2b0 <memmove+0x20>
    c29a:	eb00 0c02 	add.w	ip, r0, r2
    c29e:	b1ba      	cbz	r2, c2d0 <memmove+0x40>
    c2a0:	4662      	mov	r2, ip
    c2a2:	f813 cd01 	ldrb.w	ip, [r3, #-1]!
    c2a6:	f802 cd01 	strb.w	ip, [r2, #-1]!
    c2aa:	4299      	cmp	r1, r3
    c2ac:	d1f9      	bne.n	c2a2 <memmove+0x12>
    c2ae:	4770      	bx	lr
    c2b0:	2a0f      	cmp	r2, #15
    c2b2:	d80e      	bhi.n	c2d2 <memmove+0x42>
    c2b4:	4603      	mov	r3, r0
    c2b6:	f102 3cff 	add.w	ip, r2, #4294967295	; 0xffffffff
    c2ba:	b14a      	cbz	r2, c2d0 <memmove+0x40>
    c2bc:	f10c 0c01 	add.w	ip, ip, #1
    c2c0:	3b01      	subs	r3, #1
    c2c2:	448c      	add	ip, r1
    c2c4:	f811 2b01 	ldrb.w	r2, [r1], #1
    c2c8:	f803 2f01 	strb.w	r2, [r3, #1]!
    c2cc:	4561      	cmp	r1, ip
    c2ce:	d1f9      	bne.n	c2c4 <memmove+0x34>
    c2d0:	4770      	bx	lr
    c2d2:	ea40 0301 	orr.w	r3, r0, r1
    c2d6:	079b      	lsls	r3, r3, #30
    c2d8:	d150      	bne.n	c37c <memmove+0xec>
    c2da:	f1a2 0310 	sub.w	r3, r2, #16
    c2de:	b570      	push	{r4, r5, r6, lr}
    c2e0:	f101 0c20 	add.w	ip, r1, #32
    c2e4:	f023 050f 	bic.w	r5, r3, #15
    c2e8:	f101 0e10 	add.w	lr, r1, #16
    c2ec:	f100 0410 	add.w	r4, r0, #16
    c2f0:	44ac      	add	ip, r5
    c2f2:	091b      	lsrs	r3, r3, #4
    c2f4:	f85e 5c10 	ldr.w	r5, [lr, #-16]
    c2f8:	f844 5c10 	str.w	r5, [r4, #-16]
    c2fc:	f85e 5c0c 	ldr.w	r5, [lr, #-12]
    c300:	f844 5c0c 	str.w	r5, [r4, #-12]
    c304:	f85e 5c08 	ldr.w	r5, [lr, #-8]
    c308:	f844 5c08 	str.w	r5, [r4, #-8]
    c30c:	f85e 5c04 	ldr.w	r5, [lr, #-4]
    c310:	f844 5c04 	str.w	r5, [r4, #-4]
    c314:	f10e 0e10 	add.w	lr, lr, #16
    c318:	45e6      	cmp	lr, ip
    c31a:	f104 0410 	add.w	r4, r4, #16
    c31e:	d1e9      	bne.n	c2f4 <memmove+0x64>
    c320:	3301      	adds	r3, #1
    c322:	f012 0f0c 	tst.w	r2, #12
    c326:	eb01 1103 	add.w	r1, r1, r3, lsl #4
    c32a:	f002 040f 	and.w	r4, r2, #15
    c32e:	eb00 1303 	add.w	r3, r0, r3, lsl #4
    c332:	d027      	beq.n	c384 <memmove+0xf4>
    c334:	3c04      	subs	r4, #4
    c336:	f024 0603 	bic.w	r6, r4, #3
    c33a:	ea4f 0c94 	mov.w	ip, r4, lsr #2
    c33e:	441e      	add	r6, r3
    c340:	1f1c      	subs	r4, r3, #4
    c342:	468e      	mov	lr, r1
    c344:	f85e 5b04 	ldr.w	r5, [lr], #4
    c348:	f844 5f04 	str.w	r5, [r4, #4]!
    c34c:	42b4      	cmp	r4, r6
    c34e:	d1f9      	bne.n	c344 <memmove+0xb4>
    c350:	f10c 0401 	add.w	r4, ip, #1
    c354:	f002 0203 	and.w	r2, r2, #3
    c358:	eb03 0384 	add.w	r3, r3, r4, lsl #2
    c35c:	eb01 0184 	add.w	r1, r1, r4, lsl #2
    c360:	f102 3cff 	add.w	ip, r2, #4294967295	; 0xffffffff
    c364:	b14a      	cbz	r2, c37a <memmove+0xea>
    c366:	f10c 0c01 	add.w	ip, ip, #1
    c36a:	3b01      	subs	r3, #1
    c36c:	448c      	add	ip, r1
    c36e:	f811 2b01 	ldrb.w	r2, [r1], #1
    c372:	f803 2f01 	strb.w	r2, [r3, #1]!
    c376:	4561      	cmp	r1, ip
    c378:	d1f9      	bne.n	c36e <memmove+0xde>
    c37a:	bd70      	pop	{r4, r5, r6, pc}
    c37c:	f102 3cff 	add.w	ip, r2, #4294967295	; 0xffffffff
    c380:	4603      	mov	r3, r0
    c382:	e79b      	b.n	c2bc <memmove+0x2c>
    c384:	4622      	mov	r2, r4
    c386:	e7eb      	b.n	c360 <memmove+0xd0>

0000c388 <memset>:
    c388:	0783      	lsls	r3, r0, #30
    c38a:	b530      	push	{r4, r5, lr}
    c38c:	d048      	beq.n	c420 <memset+0x98>
    c38e:	1e54      	subs	r4, r2, #1
    c390:	2a00      	cmp	r2, #0
    c392:	d03f      	beq.n	c414 <memset+0x8c>
    c394:	b2ca      	uxtb	r2, r1
    c396:	4603      	mov	r3, r0
    c398:	e001      	b.n	c39e <memset+0x16>
    c39a:	3c01      	subs	r4, #1
    c39c:	d33a      	bcc.n	c414 <memset+0x8c>
    c39e:	f803 2b01 	strb.w	r2, [r3], #1
    c3a2:	079d      	lsls	r5, r3, #30
    c3a4:	d1f9      	bne.n	c39a <memset+0x12>
    c3a6:	2c03      	cmp	r4, #3
    c3a8:	d92d      	bls.n	c406 <memset+0x7e>
    c3aa:	b2cd      	uxtb	r5, r1
    c3ac:	ea45 2505 	orr.w	r5, r5, r5, lsl #8
    c3b0:	2c0f      	cmp	r4, #15
    c3b2:	ea45 4505 	orr.w	r5, r5, r5, lsl #16
    c3b6:	d936      	bls.n	c426 <memset+0x9e>
    c3b8:	f1a4 0210 	sub.w	r2, r4, #16
    c3bc:	f022 0c0f 	bic.w	ip, r2, #15
    c3c0:	f103 0e20 	add.w	lr, r3, #32
    c3c4:	44e6      	add	lr, ip
    c3c6:	ea4f 1c12 	mov.w	ip, r2, lsr #4
    c3ca:	f103 0210 	add.w	r2, r3, #16
    c3ce:	e942 5504 	strd	r5, r5, [r2, #-16]
    c3d2:	e942 5502 	strd	r5, r5, [r2, #-8]
    c3d6:	3210      	adds	r2, #16
    c3d8:	4572      	cmp	r2, lr
    c3da:	d1f8      	bne.n	c3ce <memset+0x46>
    c3dc:	f10c 0201 	add.w	r2, ip, #1
    c3e0:	f014 0f0c 	tst.w	r4, #12
    c3e4:	eb03 1202 	add.w	r2, r3, r2, lsl #4
    c3e8:	f004 0c0f 	and.w	ip, r4, #15
    c3ec:	d013      	beq.n	c416 <memset+0x8e>
    c3ee:	f1ac 0304 	sub.w	r3, ip, #4
    c3f2:	f023 0303 	bic.w	r3, r3, #3
    c3f6:	3304      	adds	r3, #4
    c3f8:	4413      	add	r3, r2
    c3fa:	f842 5b04 	str.w	r5, [r2], #4
    c3fe:	4293      	cmp	r3, r2
    c400:	d1fb      	bne.n	c3fa <memset+0x72>
    c402:	f00c 0403 	and.w	r4, ip, #3
    c406:	b12c      	cbz	r4, c414 <memset+0x8c>
    c408:	b2ca      	uxtb	r2, r1
    c40a:	441c      	add	r4, r3
    c40c:	f803 2b01 	strb.w	r2, [r3], #1
    c410:	429c      	cmp	r4, r3
    c412:	d1fb      	bne.n	c40c <memset+0x84>
    c414:	bd30      	pop	{r4, r5, pc}
    c416:	4664      	mov	r4, ip
    c418:	4613      	mov	r3, r2
    c41a:	2c00      	cmp	r4, #0
    c41c:	d1f4      	bne.n	c408 <memset+0x80>
    c41e:	e7f9      	b.n	c414 <memset+0x8c>
    c420:	4603      	mov	r3, r0
    c422:	4614      	mov	r4, r2
    c424:	e7bf      	b.n	c3a6 <memset+0x1e>
    c426:	461a      	mov	r2, r3
    c428:	46a4      	mov	ip, r4
    c42a:	e7e0      	b.n	c3ee <memset+0x66>

0000c42c <__call_exitprocs>:
    c42c:	e92d 4ff0 	stmdb	sp!, {r4, r5, r6, r7, r8, r9, sl, fp, lr}
    c430:	4b2d      	ldr	r3, [pc, #180]	; (c4e8 <__call_exitprocs+0xbc>)
    c432:	b083      	sub	sp, #12
    c434:	4683      	mov	fp, r0
    c436:	6818      	ldr	r0, [r3, #0]
    c438:	f8cd b004 	str.w	fp, [sp, #4]
    c43c:	460f      	mov	r7, r1
    c43e:	f000 f873 	bl	c528 <__retarget_lock_acquire_recursive>
    c442:	4b2a      	ldr	r3, [pc, #168]	; (c4ec <__call_exitprocs+0xc0>)
    c444:	f8d3 8000 	ldr.w	r8, [r3]
    c448:	f8d8 6148 	ldr.w	r6, [r8, #328]	; 0x148
    c44c:	b19e      	cbz	r6, c476 <__call_exitprocs+0x4a>
    c44e:	f04f 0901 	mov.w	r9, #1
    c452:	f04f 0a00 	mov.w	sl, #0
    c456:	6874      	ldr	r4, [r6, #4]
    c458:	1e65      	subs	r5, r4, #1
    c45a:	d40c      	bmi.n	c476 <__call_exitprocs+0x4a>
    c45c:	3401      	adds	r4, #1
    c45e:	eb06 0484 	add.w	r4, r6, r4, lsl #2
    c462:	b17f      	cbz	r7, c484 <__call_exitprocs+0x58>
    c464:	f8d4 3100 	ldr.w	r3, [r4, #256]	; 0x100
    c468:	42bb      	cmp	r3, r7
    c46a:	d00b      	beq.n	c484 <__call_exitprocs+0x58>
    c46c:	3d01      	subs	r5, #1
    c46e:	1c6b      	adds	r3, r5, #1
    c470:	f1a4 0404 	sub.w	r4, r4, #4
    c474:	d1f5      	bne.n	c462 <__call_exitprocs+0x36>
    c476:	4b1c      	ldr	r3, [pc, #112]	; (c4e8 <__call_exitprocs+0xbc>)
    c478:	6818      	ldr	r0, [r3, #0]
    c47a:	b003      	add	sp, #12
    c47c:	e8bd 4ff0 	ldmia.w	sp!, {r4, r5, r6, r7, r8, r9, sl, fp, lr}
    c480:	f000 b854 	b.w	c52c <__retarget_lock_release_recursive>
    c484:	6873      	ldr	r3, [r6, #4]
    c486:	6822      	ldr	r2, [r4, #0]
    c488:	3b01      	subs	r3, #1
    c48a:	42ab      	cmp	r3, r5
    c48c:	bf0c      	ite	eq
    c48e:	6075      	streq	r5, [r6, #4]
    c490:	f8c4 a000 	strne.w	sl, [r4]
    c494:	2a00      	cmp	r2, #0
    c496:	d0e9      	beq.n	c46c <__call_exitprocs+0x40>
    c498:	f8d6 0188 	ldr.w	r0, [r6, #392]	; 0x188
    c49c:	f8d6 b004 	ldr.w	fp, [r6, #4]
    c4a0:	fa09 f105 	lsl.w	r1, r9, r5
    c4a4:	4201      	tst	r1, r0
    c4a6:	d10b      	bne.n	c4c0 <__call_exitprocs+0x94>
    c4a8:	4790      	blx	r2
    c4aa:	6872      	ldr	r2, [r6, #4]
    c4ac:	455a      	cmp	r2, fp
    c4ae:	d112      	bne.n	c4d6 <__call_exitprocs+0xaa>
    c4b0:	f8d8 3148 	ldr.w	r3, [r8, #328]	; 0x148
    c4b4:	42b3      	cmp	r3, r6
    c4b6:	d0d9      	beq.n	c46c <__call_exitprocs+0x40>
    c4b8:	461e      	mov	r6, r3
    c4ba:	2e00      	cmp	r6, #0
    c4bc:	d1cb      	bne.n	c456 <__call_exitprocs+0x2a>
    c4be:	e7da      	b.n	c476 <__call_exitprocs+0x4a>
    c4c0:	f8d6 018c 	ldr.w	r0, [r6, #396]	; 0x18c
    c4c4:	4201      	tst	r1, r0
    c4c6:	d10b      	bne.n	c4e0 <__call_exitprocs+0xb4>
    c4c8:	f8d4 1080 	ldr.w	r1, [r4, #128]	; 0x80
    c4cc:	9801      	ldr	r0, [sp, #4]
    c4ce:	4790      	blx	r2
    c4d0:	6872      	ldr	r2, [r6, #4]
    c4d2:	455a      	cmp	r2, fp
    c4d4:	d0ec      	beq.n	c4b0 <__call_exitprocs+0x84>
    c4d6:	f8d8 6148 	ldr.w	r6, [r8, #328]	; 0x148
    c4da:	2e00      	cmp	r6, #0
    c4dc:	d1bb      	bne.n	c456 <__call_exitprocs+0x2a>
    c4de:	e7ca      	b.n	c476 <__call_exitprocs+0x4a>
    c4e0:	f8d4 0080 	ldr.w	r0, [r4, #128]	; 0x80
    c4e4:	4790      	blx	r2
    c4e6:	e7e0      	b.n	c4aa <__call_exitprocs+0x7e>
    c4e8:	0001d6c0 	.word	0x0001d6c0
    c4ec:	0000d274 	.word	0x0000d274

0000c4f0 <atexit>:
    c4f0:	2300      	movs	r3, #0
    c4f2:	4601      	mov	r1, r0
    c4f4:	461a      	mov	r2, r3
    c4f6:	4618      	mov	r0, r3
    c4f8:	f000 b81a 	b.w	c530 <__register_exitproc>

0000c4fc <__libc_fini_array>:
    c4fc:	b538      	push	{r3, r4, r5, lr}
    c4fe:	4b08      	ldr	r3, [pc, #32]	; (c520 <__libc_fini_array+0x24>)
    c500:	4d08      	ldr	r5, [pc, #32]	; (c524 <__libc_fini_array+0x28>)
    c502:	1b5b      	subs	r3, r3, r5
    c504:	109c      	asrs	r4, r3, #2
    c506:	d007      	beq.n	c518 <__libc_fini_array+0x1c>
    c508:	3b04      	subs	r3, #4
    c50a:	441d      	add	r5, r3
    c50c:	3c01      	subs	r4, #1
    c50e:	f855 3904 	ldr.w	r3, [r5], #-4
    c512:	4798      	blx	r3
    c514:	2c00      	cmp	r4, #0
    c516:	d1f9      	bne.n	c50c <__libc_fini_array+0x10>
    c518:	e8bd 4038 	ldmia.w	sp!, {r3, r4, r5, lr}
    c51c:	f000 b850 	b.w	c5c0 <_fini>
    c520:	0001d290 	.word	0x0001d290
    c524:	0001d28c 	.word	0x0001d28c

0000c528 <__retarget_lock_acquire_recursive>:
    c528:	4770      	bx	lr
    c52a:	bf00      	nop

0000c52c <__retarget_lock_release_recursive>:
    c52c:	4770      	bx	lr
    c52e:	bf00      	nop

0000c530 <__register_exitproc>:
    c530:	e92d 47f0 	stmdb	sp!, {r4, r5, r6, r7, r8, r9, sl, lr}
    c534:	f8df a07c 	ldr.w	sl, [pc, #124]	; c5b4 <__register_exitproc+0x84>
    c538:	4606      	mov	r6, r0
    c53a:	f8da 0000 	ldr.w	r0, [sl]
    c53e:	4698      	mov	r8, r3
    c540:	460f      	mov	r7, r1
    c542:	4691      	mov	r9, r2
    c544:	f7ff fff0 	bl	c528 <__retarget_lock_acquire_recursive>
    c548:	4b1b      	ldr	r3, [pc, #108]	; (c5b8 <__register_exitproc+0x88>)
    c54a:	681b      	ldr	r3, [r3, #0]
    c54c:	f8d3 4148 	ldr.w	r4, [r3, #328]	; 0x148
    c550:	b324      	cbz	r4, c59c <__register_exitproc+0x6c>
    c552:	6865      	ldr	r5, [r4, #4]
    c554:	2d1f      	cmp	r5, #31
    c556:	dc26      	bgt.n	c5a6 <__register_exitproc+0x76>
    c558:	b95e      	cbnz	r6, c572 <__register_exitproc+0x42>
    c55a:	1c6b      	adds	r3, r5, #1
    c55c:	3502      	adds	r5, #2
    c55e:	f8da 0000 	ldr.w	r0, [sl]
    c562:	6063      	str	r3, [r4, #4]
    c564:	f844 7025 	str.w	r7, [r4, r5, lsl #2]
    c568:	f7ff ffe0 	bl	c52c <__retarget_lock_release_recursive>
    c56c:	2000      	movs	r0, #0
    c56e:	e8bd 87f0 	ldmia.w	sp!, {r4, r5, r6, r7, r8, r9, sl, pc}
    c572:	eb04 0185 	add.w	r1, r4, r5, lsl #2
    c576:	2301      	movs	r3, #1
    c578:	f8c1 9088 	str.w	r9, [r1, #136]	; 0x88
    c57c:	f8d4 2188 	ldr.w	r2, [r4, #392]	; 0x188
    c580:	40ab      	lsls	r3, r5
    c582:	431a      	orrs	r2, r3
    c584:	2e02      	cmp	r6, #2
    c586:	f8c4 2188 	str.w	r2, [r4, #392]	; 0x188
    c58a:	f8c1 8108 	str.w	r8, [r1, #264]	; 0x108
    c58e:	d1e4      	bne.n	c55a <__register_exitproc+0x2a>
    c590:	f8d4 218c 	ldr.w	r2, [r4, #396]	; 0x18c
    c594:	4313      	orrs	r3, r2
    c596:	f8c4 318c 	str.w	r3, [r4, #396]	; 0x18c
    c59a:	e7de      	b.n	c55a <__register_exitproc+0x2a>
    c59c:	f503 74a6 	add.w	r4, r3, #332	; 0x14c
    c5a0:	f8c3 4148 	str.w	r4, [r3, #328]	; 0x148
    c5a4:	e7d5      	b.n	c552 <__register_exitproc+0x22>
    c5a6:	f8da 0000 	ldr.w	r0, [sl]
    c5aa:	f7ff ffbf 	bl	c52c <__retarget_lock_release_recursive>
    c5ae:	f04f 30ff 	mov.w	r0, #4294967295	; 0xffffffff
    c5b2:	e7dc      	b.n	c56e <__register_exitproc+0x3e>
    c5b4:	0001d6c0 	.word	0x0001d6c0
    c5b8:	0000d274 	.word	0x0000d274

0000c5bc <_exit>:
    c5bc:	e7fe      	b.n	c5bc <_exit>
    c5be:	bf00      	nop

Disassembly of section .fini:

0000c5c0 <_fini>:
    c5c0:	b5f8      	push	{r3, r4, r5, r6, r7, lr}
    c5c2:	bf00      	nop
    c5c4:	bcf8      	pop	{r3, r4, r5, r6, r7}
    c5c6:	bc08      	pop	{r3}
    c5c8:	469e      	mov	lr, r3
    c5ca:	4770      	bx	lr
