
./riscv32-benchmarks-customtoolchain/src/nbody/nbody:     file format elf32-littleriscv


Disassembly of section .text:

00010094 <exit>:
   10094:	ff010113          	addi	sp,sp,-16
   10098:	00000593          	li	a1,0
   1009c:	00812423          	sw	s0,8(sp)
   100a0:	00112623          	sw	ra,12(sp)
   100a4:	00050413          	mv	s0,a0
   100a8:	68d020ef          	jal	ra,12f34 <__call_exitprocs>
   100ac:	ea81a503          	lw	a0,-344(gp) # 149a8 <_global_impure_ptr>
   100b0:	03c52783          	lw	a5,60(a0)
   100b4:	00078463          	beqz	a5,100bc <exit+0x28>
   100b8:	000780e7          	jalr	a5
   100bc:	00040513          	mv	a0,s0
   100c0:	09c030ef          	jal	ra,1315c <_exit>

000100c4 <register_fini>:
   100c4:	00000793          	li	a5,0
   100c8:	00078863          	beqz	a5,100d8 <register_fini+0x14>
   100cc:	00013537          	lui	a0,0x13
   100d0:	05450513          	addi	a0,a0,84 # 13054 <__libc_fini_array>
   100d4:	7dd0206f          	j	130b0 <atexit>
   100d8:	00008067          	ret

000100dc <_start>:
   100dc:	00005197          	auipc	gp,0x5
   100e0:	a2418193          	addi	gp,gp,-1500 # 14b00 <__global_pointer$>
   100e4:	eb018513          	addi	a0,gp,-336 # 149b0 <completed.1>
   100e8:	ecc18613          	addi	a2,gp,-308 # 149cc <__BSS_END__>
   100ec:	40a60633          	sub	a2,a2,a0
   100f0:	00000593          	li	a1,0
   100f4:	565020ef          	jal	ra,12e58 <memset>
   100f8:	00003517          	auipc	a0,0x3
   100fc:	fb850513          	addi	a0,a0,-72 # 130b0 <atexit>
   10100:	00050863          	beqz	a0,10110 <_start+0x34>
   10104:	00003517          	auipc	a0,0x3
   10108:	f5050513          	addi	a0,a0,-176 # 13054 <__libc_fini_array>
   1010c:	7a5020ef          	jal	ra,130b0 <atexit>
   10110:	4ad020ef          	jal	ra,12dbc <__libc_init_array>
   10114:	00012503          	lw	a0,0(sp)
   10118:	00410593          	addi	a1,sp,4
   1011c:	00000613          	li	a2,0
   10120:	2b5000ef          	jal	ra,10bd4 <main>
   10124:	f71ff06f          	j	10094 <exit>

00010128 <__do_global_dtors_aux>:
   10128:	ff010113          	addi	sp,sp,-16
   1012c:	00812423          	sw	s0,8(sp)
   10130:	eb01c783          	lbu	a5,-336(gp) # 149b0 <completed.1>
   10134:	00112623          	sw	ra,12(sp)
   10138:	02079263          	bnez	a5,1015c <__do_global_dtors_aux+0x34>
   1013c:	00000793          	li	a5,0
   10140:	00078a63          	beqz	a5,10154 <__do_global_dtors_aux+0x2c>
   10144:	00014537          	lui	a0,0x14
   10148:	2ec50513          	addi	a0,a0,748 # 142ec <__FRAME_END__>
   1014c:	00000097          	auipc	ra,0x0
   10150:	000000e7          	jalr	zero # 0 <exit-0x10094>
   10154:	00100793          	li	a5,1
   10158:	eaf18823          	sb	a5,-336(gp) # 149b0 <completed.1>
   1015c:	00c12083          	lw	ra,12(sp)
   10160:	00812403          	lw	s0,8(sp)
   10164:	01010113          	addi	sp,sp,16
   10168:	00008067          	ret

0001016c <frame_dummy>:
   1016c:	00000793          	li	a5,0
   10170:	00078c63          	beqz	a5,10188 <frame_dummy+0x1c>
   10174:	00014537          	lui	a0,0x14
   10178:	eb418593          	addi	a1,gp,-332 # 149b4 <object.0>
   1017c:	2ec50513          	addi	a0,a0,748 # 142ec <__FRAME_END__>
   10180:	00000317          	auipc	t1,0x0
   10184:	00000067          	jr	zero # 0 <exit-0x10094>
   10188:	00008067          	ret

0001018c <offset_momentum>:
   1018c:	fd010113          	addi	sp,sp,-48
   10190:	02112623          	sw	ra,44(sp)
   10194:	02812423          	sw	s0,40(sp)
   10198:	03212223          	sw	s2,36(sp)
   1019c:	03312023          	sw	s3,32(sp)
   101a0:	03010413          	addi	s0,sp,48
   101a4:	fca42e23          	sw	a0,-36(s0)
   101a8:	fcb42c23          	sw	a1,-40(s0)
   101ac:	fe042623          	sw	zero,-20(s0)
   101b0:	0f80006f          	j	102a8 <offset_momentum+0x11c>
   101b4:	fe042423          	sw	zero,-24(s0)
   101b8:	0d80006f          	j	10290 <offset_momentum+0x104>
   101bc:	fdc42703          	lw	a4,-36(s0)
   101c0:	fe842783          	lw	a5,-24(s0)
   101c4:	00478793          	addi	a5,a5,4
   101c8:	00379793          	slli	a5,a5,0x3
   101cc:	00f707b3          	add	a5,a4,a5
   101d0:	0007a903          	lw	s2,0(a5)
   101d4:	0047a983          	lw	s3,4(a5)
   101d8:	fec42783          	lw	a5,-20(s0)
   101dc:	00679793          	slli	a5,a5,0x6
   101e0:	fdc42703          	lw	a4,-36(s0)
   101e4:	00f70733          	add	a4,a4,a5
   101e8:	fe842783          	lw	a5,-24(s0)
   101ec:	00478793          	addi	a5,a5,4
   101f0:	00379793          	slli	a5,a5,0x3
   101f4:	00f707b3          	add	a5,a4,a5
   101f8:	0007a703          	lw	a4,0(a5)
   101fc:	0047a783          	lw	a5,4(a5)
   10200:	fec42683          	lw	a3,-20(s0)
   10204:	00669693          	slli	a3,a3,0x6
   10208:	fdc42603          	lw	a2,-36(s0)
   1020c:	00d606b3          	add	a3,a2,a3
   10210:	0386a603          	lw	a2,56(a3)
   10214:	03c6a683          	lw	a3,60(a3)
   10218:	00070513          	mv	a0,a4
   1021c:	00078593          	mv	a1,a5
   10220:	501010ef          	jal	ra,11f20 <__muldf3>
   10224:	00050713          	mv	a4,a0
   10228:	00058793          	mv	a5,a1
   1022c:	00070513          	mv	a0,a4
   10230:	00078593          	mv	a1,a5
   10234:	000137b7          	lui	a5,0x13
   10238:	1907a603          	lw	a2,400(a5) # 13190 <_exit+0x34>
   1023c:	1947a683          	lw	a3,404(a5)
   10240:	520010ef          	jal	ra,11760 <__divdf3>
   10244:	00050713          	mv	a4,a0
   10248:	00058793          	mv	a5,a1
   1024c:	00070613          	mv	a2,a4
   10250:	00078693          	mv	a3,a5
   10254:	00090513          	mv	a0,s2
   10258:	00098593          	mv	a1,s3
   1025c:	2d0020ef          	jal	ra,1252c <__subdf3>
   10260:	00050713          	mv	a4,a0
   10264:	00058793          	mv	a5,a1
   10268:	fdc42603          	lw	a2,-36(s0)
   1026c:	fe842683          	lw	a3,-24(s0)
   10270:	00468693          	addi	a3,a3,4
   10274:	00369693          	slli	a3,a3,0x3
   10278:	00d606b3          	add	a3,a2,a3
   1027c:	00e6a023          	sw	a4,0(a3)
   10280:	00f6a223          	sw	a5,4(a3)
   10284:	fe842783          	lw	a5,-24(s0)
   10288:	00178793          	addi	a5,a5,1
   1028c:	fef42423          	sw	a5,-24(s0)
   10290:	fe842703          	lw	a4,-24(s0)
   10294:	00200793          	li	a5,2
   10298:	f2e7f2e3          	bgeu	a5,a4,101bc <offset_momentum+0x30>
   1029c:	fec42783          	lw	a5,-20(s0)
   102a0:	00178793          	addi	a5,a5,1
   102a4:	fef42623          	sw	a5,-20(s0)
   102a8:	fec42703          	lw	a4,-20(s0)
   102ac:	fd842783          	lw	a5,-40(s0)
   102b0:	f0f762e3          	bltu	a4,a5,101b4 <offset_momentum+0x28>
   102b4:	00000013          	nop
   102b8:	00000013          	nop
   102bc:	02c12083          	lw	ra,44(sp)
   102c0:	02812403          	lw	s0,40(sp)
   102c4:	02412903          	lw	s2,36(sp)
   102c8:	02012983          	lw	s3,32(sp)
   102cc:	03010113          	addi	sp,sp,48
   102d0:	00008067          	ret

000102d4 <bodies_energy>:
   102d4:	f9010113          	addi	sp,sp,-112
   102d8:	06112623          	sw	ra,108(sp)
   102dc:	06812423          	sw	s0,104(sp)
   102e0:	07212223          	sw	s2,100(sp)
   102e4:	07312023          	sw	s3,96(sp)
   102e8:	05412e23          	sw	s4,92(sp)
   102ec:	05512c23          	sw	s5,88(sp)
   102f0:	07010413          	addi	s0,sp,112
   102f4:	f8a42e23          	sw	a0,-100(s0)
   102f8:	f8b42c23          	sw	a1,-104(s0)
   102fc:	fc042c23          	sw	zero,-40(s0)
   10300:	fc042e23          	sw	zero,-36(s0)
   10304:	fc042a23          	sw	zero,-44(s0)
   10308:	3ac0006f          	j	106b4 <bodies_energy+0x3e0>
   1030c:	fd442783          	lw	a5,-44(s0)
   10310:	00679793          	slli	a5,a5,0x6
   10314:	f9c42703          	lw	a4,-100(s0)
   10318:	00f707b3          	add	a5,a4,a5
   1031c:	0387a903          	lw	s2,56(a5)
   10320:	03c7a983          	lw	s3,60(a5)
   10324:	fd442783          	lw	a5,-44(s0)
   10328:	00679793          	slli	a5,a5,0x6
   1032c:	f9c42703          	lw	a4,-100(s0)
   10330:	00f707b3          	add	a5,a4,a5
   10334:	0207a703          	lw	a4,32(a5)
   10338:	0247a783          	lw	a5,36(a5)
   1033c:	fd442683          	lw	a3,-44(s0)
   10340:	00669693          	slli	a3,a3,0x6
   10344:	f9c42603          	lw	a2,-100(s0)
   10348:	00d606b3          	add	a3,a2,a3
   1034c:	0206a603          	lw	a2,32(a3)
   10350:	0246a683          	lw	a3,36(a3)
   10354:	00070513          	mv	a0,a4
   10358:	00078593          	mv	a1,a5
   1035c:	3c5010ef          	jal	ra,11f20 <__muldf3>
   10360:	00050713          	mv	a4,a0
   10364:	00058793          	mv	a5,a1
   10368:	00070a13          	mv	s4,a4
   1036c:	00078a93          	mv	s5,a5
   10370:	fd442783          	lw	a5,-44(s0)
   10374:	00679793          	slli	a5,a5,0x6
   10378:	f9c42703          	lw	a4,-100(s0)
   1037c:	00f707b3          	add	a5,a4,a5
   10380:	0287a703          	lw	a4,40(a5)
   10384:	02c7a783          	lw	a5,44(a5)
   10388:	fd442683          	lw	a3,-44(s0)
   1038c:	00669693          	slli	a3,a3,0x6
   10390:	f9c42603          	lw	a2,-100(s0)
   10394:	00d606b3          	add	a3,a2,a3
   10398:	0286a603          	lw	a2,40(a3)
   1039c:	02c6a683          	lw	a3,44(a3)
   103a0:	00070513          	mv	a0,a4
   103a4:	00078593          	mv	a1,a5
   103a8:	379010ef          	jal	ra,11f20 <__muldf3>
   103ac:	00050713          	mv	a4,a0
   103b0:	00058793          	mv	a5,a1
   103b4:	00070613          	mv	a2,a4
   103b8:	00078693          	mv	a3,a5
   103bc:	000a0513          	mv	a0,s4
   103c0:	000a8593          	mv	a1,s5
   103c4:	3c1000ef          	jal	ra,10f84 <__adddf3>
   103c8:	00050713          	mv	a4,a0
   103cc:	00058793          	mv	a5,a1
   103d0:	00070a13          	mv	s4,a4
   103d4:	00078a93          	mv	s5,a5
   103d8:	fd442783          	lw	a5,-44(s0)
   103dc:	00679793          	slli	a5,a5,0x6
   103e0:	f9c42703          	lw	a4,-100(s0)
   103e4:	00f707b3          	add	a5,a4,a5
   103e8:	0307a703          	lw	a4,48(a5)
   103ec:	0347a783          	lw	a5,52(a5)
   103f0:	fd442683          	lw	a3,-44(s0)
   103f4:	00669693          	slli	a3,a3,0x6
   103f8:	f9c42603          	lw	a2,-100(s0)
   103fc:	00d606b3          	add	a3,a2,a3
   10400:	0306a603          	lw	a2,48(a3)
   10404:	0346a683          	lw	a3,52(a3)
   10408:	00070513          	mv	a0,a4
   1040c:	00078593          	mv	a1,a5
   10410:	311010ef          	jal	ra,11f20 <__muldf3>
   10414:	00050713          	mv	a4,a0
   10418:	00058793          	mv	a5,a1
   1041c:	00070613          	mv	a2,a4
   10420:	00078693          	mv	a3,a5
   10424:	000a0513          	mv	a0,s4
   10428:	000a8593          	mv	a1,s5
   1042c:	359000ef          	jal	ra,10f84 <__adddf3>
   10430:	00050713          	mv	a4,a0
   10434:	00058793          	mv	a5,a1
   10438:	00070613          	mv	a2,a4
   1043c:	00078693          	mv	a3,a5
   10440:	00090513          	mv	a0,s2
   10444:	00098593          	mv	a1,s3
   10448:	2d9010ef          	jal	ra,11f20 <__muldf3>
   1044c:	00050713          	mv	a4,a0
   10450:	00058793          	mv	a5,a1
   10454:	00070513          	mv	a0,a4
   10458:	00078593          	mv	a1,a5
   1045c:	000137b7          	lui	a5,0x13
   10460:	1987a603          	lw	a2,408(a5) # 13198 <_exit+0x3c>
   10464:	19c7a683          	lw	a3,412(a5)
   10468:	2f8010ef          	jal	ra,11760 <__divdf3>
   1046c:	00050713          	mv	a4,a0
   10470:	00058793          	mv	a5,a1
   10474:	00070613          	mv	a2,a4
   10478:	00078693          	mv	a3,a5
   1047c:	fd842503          	lw	a0,-40(s0)
   10480:	fdc42583          	lw	a1,-36(s0)
   10484:	301000ef          	jal	ra,10f84 <__adddf3>
   10488:	00050713          	mv	a4,a0
   1048c:	00058793          	mv	a5,a1
   10490:	fce42c23          	sw	a4,-40(s0)
   10494:	fcf42e23          	sw	a5,-36(s0)
   10498:	fd442783          	lw	a5,-44(s0)
   1049c:	00178793          	addi	a5,a5,1
   104a0:	fcf42823          	sw	a5,-48(s0)
   104a4:	1f80006f          	j	1069c <bodies_energy+0x3c8>
   104a8:	fc042623          	sw	zero,-52(s0)
   104ac:	08c0006f          	j	10538 <bodies_energy+0x264>
   104b0:	fd442783          	lw	a5,-44(s0)
   104b4:	00679793          	slli	a5,a5,0x6
   104b8:	f9c42703          	lw	a4,-100(s0)
   104bc:	00f70733          	add	a4,a4,a5
   104c0:	fcc42783          	lw	a5,-52(s0)
   104c4:	00379793          	slli	a5,a5,0x3
   104c8:	00f707b3          	add	a5,a4,a5
   104cc:	0007a703          	lw	a4,0(a5)
   104d0:	0047a783          	lw	a5,4(a5)
   104d4:	fd042683          	lw	a3,-48(s0)
   104d8:	00669693          	slli	a3,a3,0x6
   104dc:	f9c42603          	lw	a2,-100(s0)
   104e0:	00d60633          	add	a2,a2,a3
   104e4:	fcc42683          	lw	a3,-52(s0)
   104e8:	00369693          	slli	a3,a3,0x3
   104ec:	00d606b3          	add	a3,a2,a3
   104f0:	0006a603          	lw	a2,0(a3)
   104f4:	0046a683          	lw	a3,4(a3)
   104f8:	00070513          	mv	a0,a4
   104fc:	00078593          	mv	a1,a5
   10500:	02c020ef          	jal	ra,1252c <__subdf3>
   10504:	00050713          	mv	a4,a0
   10508:	00058793          	mv	a5,a1
   1050c:	00070613          	mv	a2,a4
   10510:	00078693          	mv	a3,a5
   10514:	fcc42783          	lw	a5,-52(s0)
   10518:	00379793          	slli	a5,a5,0x3
   1051c:	fe078793          	addi	a5,a5,-32
   10520:	008787b3          	add	a5,a5,s0
   10524:	fcc7a423          	sw	a2,-56(a5)
   10528:	fcd7a623          	sw	a3,-52(a5)
   1052c:	fcc42783          	lw	a5,-52(s0)
   10530:	00178793          	addi	a5,a5,1
   10534:	fcf42623          	sw	a5,-52(s0)
   10538:	fcc42703          	lw	a4,-52(s0)
   1053c:	00200793          	li	a5,2
   10540:	f6e7f8e3          	bgeu	a5,a4,104b0 <bodies_energy+0x1dc>
   10544:	fa842703          	lw	a4,-88(s0)
   10548:	fac42783          	lw	a5,-84(s0)
   1054c:	fa842603          	lw	a2,-88(s0)
   10550:	fac42683          	lw	a3,-84(s0)
   10554:	00070513          	mv	a0,a4
   10558:	00078593          	mv	a1,a5
   1055c:	1c5010ef          	jal	ra,11f20 <__muldf3>
   10560:	00050713          	mv	a4,a0
   10564:	00058793          	mv	a5,a1
   10568:	00070913          	mv	s2,a4
   1056c:	00078993          	mv	s3,a5
   10570:	fb042703          	lw	a4,-80(s0)
   10574:	fb442783          	lw	a5,-76(s0)
   10578:	fb042603          	lw	a2,-80(s0)
   1057c:	fb442683          	lw	a3,-76(s0)
   10580:	00070513          	mv	a0,a4
   10584:	00078593          	mv	a1,a5
   10588:	199010ef          	jal	ra,11f20 <__muldf3>
   1058c:	00050713          	mv	a4,a0
   10590:	00058793          	mv	a5,a1
   10594:	00070613          	mv	a2,a4
   10598:	00078693          	mv	a3,a5
   1059c:	00090513          	mv	a0,s2
   105a0:	00098593          	mv	a1,s3
   105a4:	1e1000ef          	jal	ra,10f84 <__adddf3>
   105a8:	00050713          	mv	a4,a0
   105ac:	00058793          	mv	a5,a1
   105b0:	00070913          	mv	s2,a4
   105b4:	00078993          	mv	s3,a5
   105b8:	fb842703          	lw	a4,-72(s0)
   105bc:	fbc42783          	lw	a5,-68(s0)
   105c0:	fb842603          	lw	a2,-72(s0)
   105c4:	fbc42683          	lw	a3,-68(s0)
   105c8:	00070513          	mv	a0,a4
   105cc:	00078593          	mv	a1,a5
   105d0:	151010ef          	jal	ra,11f20 <__muldf3>
   105d4:	00050713          	mv	a4,a0
   105d8:	00058793          	mv	a5,a1
   105dc:	00070613          	mv	a2,a4
   105e0:	00078693          	mv	a3,a5
   105e4:	00090513          	mv	a0,s2
   105e8:	00098593          	mv	a1,s3
   105ec:	199000ef          	jal	ra,10f84 <__adddf3>
   105f0:	00050713          	mv	a4,a0
   105f4:	00058793          	mv	a5,a1
   105f8:	00070513          	mv	a0,a4
   105fc:	00078593          	mv	a1,a5
   10600:	640000ef          	jal	ra,10c40 <sqrt>
   10604:	fca42023          	sw	a0,-64(s0)
   10608:	fcb42223          	sw	a1,-60(s0)
   1060c:	fd442783          	lw	a5,-44(s0)
   10610:	00679793          	slli	a5,a5,0x6
   10614:	f9c42703          	lw	a4,-100(s0)
   10618:	00f707b3          	add	a5,a4,a5
   1061c:	0387a703          	lw	a4,56(a5)
   10620:	03c7a783          	lw	a5,60(a5)
   10624:	fd042683          	lw	a3,-48(s0)
   10628:	00669693          	slli	a3,a3,0x6
   1062c:	f9c42603          	lw	a2,-100(s0)
   10630:	00d606b3          	add	a3,a2,a3
   10634:	0386a603          	lw	a2,56(a3)
   10638:	03c6a683          	lw	a3,60(a3)
   1063c:	00070513          	mv	a0,a4
   10640:	00078593          	mv	a1,a5
   10644:	0dd010ef          	jal	ra,11f20 <__muldf3>
   10648:	00050713          	mv	a4,a0
   1064c:	00058793          	mv	a5,a1
   10650:	fc042603          	lw	a2,-64(s0)
   10654:	fc442683          	lw	a3,-60(s0)
   10658:	00070513          	mv	a0,a4
   1065c:	00078593          	mv	a1,a5
   10660:	100010ef          	jal	ra,11760 <__divdf3>
   10664:	00050713          	mv	a4,a0
   10668:	00058793          	mv	a5,a1
   1066c:	00070613          	mv	a2,a4
   10670:	00078693          	mv	a3,a5
   10674:	fd842503          	lw	a0,-40(s0)
   10678:	fdc42583          	lw	a1,-36(s0)
   1067c:	6b1010ef          	jal	ra,1252c <__subdf3>
   10680:	00050713          	mv	a4,a0
   10684:	00058793          	mv	a5,a1
   10688:	fce42c23          	sw	a4,-40(s0)
   1068c:	fcf42e23          	sw	a5,-36(s0)
   10690:	fd042783          	lw	a5,-48(s0)
   10694:	00178793          	addi	a5,a5,1
   10698:	fcf42823          	sw	a5,-48(s0)
   1069c:	fd042703          	lw	a4,-48(s0)
   106a0:	f9842783          	lw	a5,-104(s0)
   106a4:	e0f762e3          	bltu	a4,a5,104a8 <bodies_energy+0x1d4>
   106a8:	fd442783          	lw	a5,-44(s0)
   106ac:	00178793          	addi	a5,a5,1
   106b0:	fcf42a23          	sw	a5,-44(s0)
   106b4:	fd442703          	lw	a4,-44(s0)
   106b8:	f9842783          	lw	a5,-104(s0)
   106bc:	c4f768e3          	bltu	a4,a5,1030c <bodies_energy+0x38>
   106c0:	fd842703          	lw	a4,-40(s0)
   106c4:	fdc42783          	lw	a5,-36(s0)
   106c8:	00070513          	mv	a0,a4
   106cc:	00078593          	mv	a1,a5
   106d0:	06c12083          	lw	ra,108(sp)
   106d4:	06812403          	lw	s0,104(sp)
   106d8:	06412903          	lw	s2,100(sp)
   106dc:	06012983          	lw	s3,96(sp)
   106e0:	05c12a03          	lw	s4,92(sp)
   106e4:	05812a83          	lw	s5,88(sp)
   106e8:	07010113          	addi	sp,sp,112
   106ec:	00008067          	ret

000106f0 <initialise_benchmark>:
   106f0:	ff010113          	addi	sp,sp,-16
   106f4:	00812623          	sw	s0,12(sp)
   106f8:	01010413          	addi	s0,sp,16
   106fc:	00000013          	nop
   10700:	00c12403          	lw	s0,12(sp)
   10704:	01010113          	addi	sp,sp,16
   10708:	00008067          	ret

0001070c <warm_caches>:
   1070c:	fd010113          	addi	sp,sp,-48
   10710:	02112623          	sw	ra,44(sp)
   10714:	02812423          	sw	s0,40(sp)
   10718:	03010413          	addi	s0,sp,48
   1071c:	fca42e23          	sw	a0,-36(s0)
   10720:	fdc42503          	lw	a0,-36(s0)
   10724:	04c000ef          	jal	ra,10770 <benchmark_body>
   10728:	fea42623          	sw	a0,-20(s0)
   1072c:	00000013          	nop
   10730:	02c12083          	lw	ra,44(sp)
   10734:	02812403          	lw	s0,40(sp)
   10738:	03010113          	addi	sp,sp,48
   1073c:	00008067          	ret

00010740 <benchmark>:
   10740:	ff010113          	addi	sp,sp,-16
   10744:	00112623          	sw	ra,12(sp)
   10748:	00812423          	sw	s0,8(sp)
   1074c:	01010413          	addi	s0,sp,16
   10750:	00100513          	li	a0,1
   10754:	01c000ef          	jal	ra,10770 <benchmark_body>
   10758:	00050793          	mv	a5,a0
   1075c:	00078513          	mv	a0,a5
   10760:	00c12083          	lw	ra,12(sp)
   10764:	00812403          	lw	s0,8(sp)
   10768:	01010113          	addi	sp,sp,16
   1076c:	00008067          	ret

00010770 <benchmark_body>:
   10770:	fb010113          	addi	sp,sp,-80
   10774:	04112623          	sw	ra,76(sp)
   10778:	04812423          	sw	s0,72(sp)
   1077c:	04912223          	sw	s1,68(sp)
   10780:	05212023          	sw	s2,64(sp)
   10784:	03312e23          	sw	s3,60(sp)
   10788:	05010413          	addi	s0,sp,80
   1078c:	faa42e23          	sw	a0,-68(s0)
   10790:	fc042823          	sw	zero,-48(s0)
   10794:	fc042a23          	sw	zero,-44(s0)
   10798:	fc042e23          	sw	zero,-36(s0)
   1079c:	08c0006f          	j	10828 <benchmark_body+0xb8>
   107a0:	00500793          	li	a5,5
   107a4:	00078593          	mv	a1,a5
   107a8:	000147b7          	lui	a5,0x14
   107ac:	30078513          	addi	a0,a5,768 # 14300 <solar_bodies>
   107b0:	9ddff0ef          	jal	ra,1018c <offset_momentum>
   107b4:	fc042823          	sw	zero,-48(s0)
   107b8:	fc042a23          	sw	zero,-44(s0)
   107bc:	fc042623          	sw	zero,-52(s0)
   107c0:	0500006f          	j	10810 <benchmark_body+0xa0>
   107c4:	00500793          	li	a5,5
   107c8:	00078593          	mv	a1,a5
   107cc:	000147b7          	lui	a5,0x14
   107d0:	30078513          	addi	a0,a5,768 # 14300 <solar_bodies>
   107d4:	b01ff0ef          	jal	ra,102d4 <bodies_energy>
   107d8:	00050713          	mv	a4,a0
   107dc:	00058793          	mv	a5,a1
   107e0:	00070613          	mv	a2,a4
   107e4:	00078693          	mv	a3,a5
   107e8:	fd042503          	lw	a0,-48(s0)
   107ec:	fd442583          	lw	a1,-44(s0)
   107f0:	794000ef          	jal	ra,10f84 <__adddf3>
   107f4:	00050713          	mv	a4,a0
   107f8:	00058793          	mv	a5,a1
   107fc:	fce42823          	sw	a4,-48(s0)
   10800:	fcf42a23          	sw	a5,-44(s0)
   10804:	fcc42783          	lw	a5,-52(s0)
   10808:	00178793          	addi	a5,a5,1
   1080c:	fcf42623          	sw	a5,-52(s0)
   10810:	fcc42703          	lw	a4,-52(s0)
   10814:	06300793          	li	a5,99
   10818:	fae7d6e3          	bge	a5,a4,107c4 <benchmark_body+0x54>
   1081c:	fdc42783          	lw	a5,-36(s0)
   10820:	00178793          	addi	a5,a5,1
   10824:	fcf42e23          	sw	a5,-36(s0)
   10828:	fdc42703          	lw	a4,-36(s0)
   1082c:	fbc42783          	lw	a5,-68(s0)
   10830:	f6f748e3          	blt	a4,a5,107a0 <benchmark_body+0x30>
   10834:	000137b7          	lui	a5,0x13
   10838:	1a07a603          	lw	a2,416(a5) # 131a0 <_exit+0x44>
   1083c:	1a47a683          	lw	a3,420(a5)
   10840:	fd042503          	lw	a0,-48(s0)
   10844:	fd442583          	lw	a1,-44(s0)
   10848:	73c000ef          	jal	ra,10f84 <__adddf3>
   1084c:	00050713          	mv	a4,a0
   10850:	00058793          	mv	a5,a1
   10854:	00070913          	mv	s2,a4
   10858:	800006b7          	lui	a3,0x80000
   1085c:	fff6c693          	not	a3,a3
   10860:	00d7f9b3          	and	s3,a5,a3
   10864:	00100493          	li	s1,1
   10868:	000137b7          	lui	a5,0x13
   1086c:	1a87a603          	lw	a2,424(a5) # 131a8 <_exit+0x4c>
   10870:	1ac7a683          	lw	a3,428(a5)
   10874:	00090513          	mv	a0,s2
   10878:	00098593          	mv	a1,s3
   1087c:	5c0010ef          	jal	ra,11e3c <__ledf2>
   10880:	00050793          	mv	a5,a0
   10884:	0007c463          	bltz	a5,1088c <benchmark_body+0x11c>
   10888:	00000493          	li	s1,0
   1088c:	0ff4f793          	zext.b	a5,s1
   10890:	00078513          	mv	a0,a5
   10894:	04c12083          	lw	ra,76(sp)
   10898:	04812403          	lw	s0,72(sp)
   1089c:	04412483          	lw	s1,68(sp)
   108a0:	04012903          	lw	s2,64(sp)
   108a4:	03c12983          	lw	s3,60(sp)
   108a8:	05010113          	addi	sp,sp,80
   108ac:	00008067          	ret

000108b0 <verify_benchmark>:
   108b0:	fb010113          	addi	sp,sp,-80
   108b4:	04112623          	sw	ra,76(sp)
   108b8:	04812423          	sw	s0,72(sp)
   108bc:	04912223          	sw	s1,68(sp)
   108c0:	05212023          	sw	s2,64(sp)
   108c4:	03312e23          	sw	s3,60(sp)
   108c8:	03412c23          	sw	s4,56(sp)
   108cc:	03512a23          	sw	s5,52(sp)
   108d0:	03612823          	sw	s6,48(sp)
   108d4:	03712623          	sw	s7,44(sp)
   108d8:	05010413          	addi	s0,sp,80
   108dc:	faa42e23          	sw	a0,-68(s0)
   108e0:	fbc42783          	lw	a5,-68(s0)
   108e4:	24078a63          	beqz	a5,10b38 <verify_benchmark+0x288>
   108e8:	fc042623          	sw	zero,-52(s0)
   108ec:	23c0006f          	j	10b28 <verify_benchmark+0x278>
   108f0:	fc042423          	sw	zero,-56(s0)
   108f4:	1800006f          	j	10a74 <verify_benchmark+0x1c4>
   108f8:	000147b7          	lui	a5,0x14
   108fc:	30078713          	addi	a4,a5,768 # 14300 <solar_bodies>
   10900:	fcc42783          	lw	a5,-52(s0)
   10904:	00379693          	slli	a3,a5,0x3
   10908:	fc842783          	lw	a5,-56(s0)
   1090c:	00f687b3          	add	a5,a3,a5
   10910:	00379793          	slli	a5,a5,0x3
   10914:	00f707b3          	add	a5,a4,a5
   10918:	0007a703          	lw	a4,0(a5)
   1091c:	0047a783          	lw	a5,4(a5)
   10920:	000146b7          	lui	a3,0x14
   10924:	44068613          	addi	a2,a3,1088 # 14440 <expected.0>
   10928:	fcc42683          	lw	a3,-52(s0)
   1092c:	00369593          	slli	a1,a3,0x3
   10930:	fc842683          	lw	a3,-56(s0)
   10934:	00d586b3          	add	a3,a1,a3
   10938:	00369693          	slli	a3,a3,0x3
   1093c:	00d606b3          	add	a3,a2,a3
   10940:	0006a603          	lw	a2,0(a3)
   10944:	0046a683          	lw	a3,4(a3)
   10948:	00070513          	mv	a0,a4
   1094c:	00078593          	mv	a1,a5
   10950:	3dd010ef          	jal	ra,1252c <__subdf3>
   10954:	00050713          	mv	a4,a0
   10958:	00058793          	mv	a5,a1
   1095c:	00070913          	mv	s2,a4
   10960:	800006b7          	lui	a3,0x80000
   10964:	fff6c693          	not	a3,a3
   10968:	00d7f9b3          	and	s3,a5,a3
   1096c:	00100493          	li	s1,1
   10970:	000137b7          	lui	a5,0x13
   10974:	1a87a603          	lw	a2,424(a5) # 131a8 <_exit+0x4c>
   10978:	1ac7a683          	lw	a3,428(a5)
   1097c:	00090513          	mv	a0,s2
   10980:	00098593          	mv	a1,s3
   10984:	4b8010ef          	jal	ra,11e3c <__ledf2>
   10988:	00050793          	mv	a5,a0
   1098c:	0007c463          	bltz	a5,10994 <verify_benchmark+0xe4>
   10990:	00000493          	li	s1,0
   10994:	0ff4f793          	zext.b	a5,s1
   10998:	0017c793          	xori	a5,a5,1
   1099c:	0ff7f793          	zext.b	a5,a5
   109a0:	00078663          	beqz	a5,109ac <verify_benchmark+0xfc>
   109a4:	00000793          	li	a5,0
   109a8:	19c0006f          	j	10b44 <verify_benchmark+0x294>
   109ac:	000147b7          	lui	a5,0x14
   109b0:	30078713          	addi	a4,a5,768 # 14300 <solar_bodies>
   109b4:	fcc42783          	lw	a5,-52(s0)
   109b8:	00379693          	slli	a3,a5,0x3
   109bc:	fc842783          	lw	a5,-56(s0)
   109c0:	00f687b3          	add	a5,a3,a5
   109c4:	00478793          	addi	a5,a5,4
   109c8:	00379793          	slli	a5,a5,0x3
   109cc:	00f707b3          	add	a5,a4,a5
   109d0:	0007a703          	lw	a4,0(a5)
   109d4:	0047a783          	lw	a5,4(a5)
   109d8:	000146b7          	lui	a3,0x14
   109dc:	44068613          	addi	a2,a3,1088 # 14440 <expected.0>
   109e0:	fcc42683          	lw	a3,-52(s0)
   109e4:	00369593          	slli	a1,a3,0x3
   109e8:	fc842683          	lw	a3,-56(s0)
   109ec:	00d586b3          	add	a3,a1,a3
   109f0:	00468693          	addi	a3,a3,4
   109f4:	00369693          	slli	a3,a3,0x3
   109f8:	00d606b3          	add	a3,a2,a3
   109fc:	0006a603          	lw	a2,0(a3)
   10a00:	0046a683          	lw	a3,4(a3)
   10a04:	00070513          	mv	a0,a4
   10a08:	00078593          	mv	a1,a5
   10a0c:	321010ef          	jal	ra,1252c <__subdf3>
   10a10:	00050713          	mv	a4,a0
   10a14:	00058793          	mv	a5,a1
   10a18:	00070a13          	mv	s4,a4
   10a1c:	800006b7          	lui	a3,0x80000
   10a20:	fff6c693          	not	a3,a3
   10a24:	00d7fab3          	and	s5,a5,a3
   10a28:	00100493          	li	s1,1
   10a2c:	000137b7          	lui	a5,0x13
   10a30:	1a87a603          	lw	a2,424(a5) # 131a8 <_exit+0x4c>
   10a34:	1ac7a683          	lw	a3,428(a5)
   10a38:	000a0513          	mv	a0,s4
   10a3c:	000a8593          	mv	a1,s5
   10a40:	3fc010ef          	jal	ra,11e3c <__ledf2>
   10a44:	00050793          	mv	a5,a0
   10a48:	0007c463          	bltz	a5,10a50 <verify_benchmark+0x1a0>
   10a4c:	00000493          	li	s1,0
   10a50:	0ff4f793          	zext.b	a5,s1
   10a54:	0017c793          	xori	a5,a5,1
   10a58:	0ff7f793          	zext.b	a5,a5
   10a5c:	00078663          	beqz	a5,10a68 <verify_benchmark+0x1b8>
   10a60:	00000793          	li	a5,0
   10a64:	0e00006f          	j	10b44 <verify_benchmark+0x294>
   10a68:	fc842783          	lw	a5,-56(s0)
   10a6c:	00178793          	addi	a5,a5,1
   10a70:	fcf42423          	sw	a5,-56(s0)
   10a74:	fc842703          	lw	a4,-56(s0)
   10a78:	00200793          	li	a5,2
   10a7c:	e6e7dee3          	bge	a5,a4,108f8 <verify_benchmark+0x48>
   10a80:	000147b7          	lui	a5,0x14
   10a84:	30078713          	addi	a4,a5,768 # 14300 <solar_bodies>
   10a88:	fcc42783          	lw	a5,-52(s0)
   10a8c:	00679793          	slli	a5,a5,0x6
   10a90:	00f707b3          	add	a5,a4,a5
   10a94:	0387a503          	lw	a0,56(a5)
   10a98:	03c7a583          	lw	a1,60(a5)
   10a9c:	000147b7          	lui	a5,0x14
   10aa0:	44078713          	addi	a4,a5,1088 # 14440 <expected.0>
   10aa4:	fcc42783          	lw	a5,-52(s0)
   10aa8:	00679793          	slli	a5,a5,0x6
   10aac:	00f707b3          	add	a5,a4,a5
   10ab0:	0387a703          	lw	a4,56(a5)
   10ab4:	03c7a783          	lw	a5,60(a5)
   10ab8:	00070613          	mv	a2,a4
   10abc:	00078693          	mv	a3,a5
   10ac0:	26d010ef          	jal	ra,1252c <__subdf3>
   10ac4:	00050713          	mv	a4,a0
   10ac8:	00058793          	mv	a5,a1
   10acc:	00070b13          	mv	s6,a4
   10ad0:	800006b7          	lui	a3,0x80000
   10ad4:	fff6c693          	not	a3,a3
   10ad8:	00d7fbb3          	and	s7,a5,a3
   10adc:	00100493          	li	s1,1
   10ae0:	000137b7          	lui	a5,0x13
   10ae4:	1a87a603          	lw	a2,424(a5) # 131a8 <_exit+0x4c>
   10ae8:	1ac7a683          	lw	a3,428(a5)
   10aec:	000b0513          	mv	a0,s6
   10af0:	000b8593          	mv	a1,s7
   10af4:	348010ef          	jal	ra,11e3c <__ledf2>
   10af8:	00050793          	mv	a5,a0
   10afc:	0007c463          	bltz	a5,10b04 <verify_benchmark+0x254>
   10b00:	00000493          	li	s1,0
   10b04:	0ff4f793          	zext.b	a5,s1
   10b08:	0017c793          	xori	a5,a5,1
   10b0c:	0ff7f793          	zext.b	a5,a5
   10b10:	00078663          	beqz	a5,10b1c <verify_benchmark+0x26c>
   10b14:	00000793          	li	a5,0
   10b18:	02c0006f          	j	10b44 <verify_benchmark+0x294>
   10b1c:	fcc42783          	lw	a5,-52(s0)
   10b20:	00178793          	addi	a5,a5,1
   10b24:	fcf42623          	sw	a5,-52(s0)
   10b28:	00500793          	li	a5,5
   10b2c:	fcc42703          	lw	a4,-52(s0)
   10b30:	dcf740e3          	blt	a4,a5,108f0 <verify_benchmark+0x40>
   10b34:	00c0006f          	j	10b40 <verify_benchmark+0x290>
   10b38:	00000793          	li	a5,0
   10b3c:	0080006f          	j	10b44 <verify_benchmark+0x294>
   10b40:	00100793          	li	a5,1
   10b44:	00078513          	mv	a0,a5
   10b48:	04c12083          	lw	ra,76(sp)
   10b4c:	04812403          	lw	s0,72(sp)
   10b50:	04412483          	lw	s1,68(sp)
   10b54:	04012903          	lw	s2,64(sp)
   10b58:	03c12983          	lw	s3,60(sp)
   10b5c:	03812a03          	lw	s4,56(sp)
   10b60:	03412a83          	lw	s5,52(sp)
   10b64:	03012b03          	lw	s6,48(sp)
   10b68:	02c12b83          	lw	s7,44(sp)
   10b6c:	05010113          	addi	sp,sp,80
   10b70:	00008067          	ret

00010b74 <initialise_board>:
   10b74:	ff010113          	addi	sp,sp,-16
   10b78:	00812623          	sw	s0,12(sp)
   10b7c:	01010413          	addi	s0,sp,16
   10b80:	00000513          	li	a0,0
   10b84:	00000013          	nop
   10b88:	00c12403          	lw	s0,12(sp)
   10b8c:	01010113          	addi	sp,sp,16
   10b90:	00008067          	ret

00010b94 <start_trigger>:
   10b94:	ff010113          	addi	sp,sp,-16
   10b98:	00812623          	sw	s0,12(sp)
   10b9c:	01010413          	addi	s0,sp,16
   10ba0:	00000513          	li	a0,0
   10ba4:	00000013          	nop
   10ba8:	00c12403          	lw	s0,12(sp)
   10bac:	01010113          	addi	sp,sp,16
   10bb0:	00008067          	ret

00010bb4 <stop_trigger>:
   10bb4:	ff010113          	addi	sp,sp,-16
   10bb8:	00812623          	sw	s0,12(sp)
   10bbc:	01010413          	addi	s0,sp,16
   10bc0:	00000513          	li	a0,0
   10bc4:	00000013          	nop
   10bc8:	00c12403          	lw	s0,12(sp)
   10bcc:	01010113          	addi	sp,sp,16
   10bd0:	00008067          	ret

00010bd4 <main>:
   10bd4:	fd010113          	addi	sp,sp,-48
   10bd8:	02112623          	sw	ra,44(sp)
   10bdc:	02812423          	sw	s0,40(sp)
   10be0:	03010413          	addi	s0,sp,48
   10be4:	fca42e23          	sw	a0,-36(s0)
   10be8:	fcb42c23          	sw	a1,-40(s0)
   10bec:	f89ff0ef          	jal	ra,10b74 <initialise_board>
   10bf0:	b01ff0ef          	jal	ra,106f0 <initialise_benchmark>
   10bf4:	00100513          	li	a0,1
   10bf8:	b15ff0ef          	jal	ra,1070c <warm_caches>
   10bfc:	f99ff0ef          	jal	ra,10b94 <start_trigger>
   10c00:	b41ff0ef          	jal	ra,10740 <benchmark>
   10c04:	00050793          	mv	a5,a0
   10c08:	fef42423          	sw	a5,-24(s0)
   10c0c:	fa9ff0ef          	jal	ra,10bb4 <stop_trigger>
   10c10:	fe842783          	lw	a5,-24(s0)
   10c14:	00078513          	mv	a0,a5
   10c18:	c99ff0ef          	jal	ra,108b0 <verify_benchmark>
   10c1c:	fea42623          	sw	a0,-20(s0)
   10c20:	fec42783          	lw	a5,-20(s0)
   10c24:	0017b793          	seqz	a5,a5
   10c28:	0ff7f793          	zext.b	a5,a5
   10c2c:	00078513          	mv	a0,a5
   10c30:	02c12083          	lw	ra,44(sp)
   10c34:	02812403          	lw	s0,40(sp)
   10c38:	03010113          	addi	sp,sp,48
   10c3c:	00008067          	ret

00010c40 <sqrt>:
   10c40:	fe010113          	addi	sp,sp,-32
   10c44:	00812c23          	sw	s0,24(sp)
   10c48:	00912a23          	sw	s1,20(sp)
   10c4c:	01212823          	sw	s2,16(sp)
   10c50:	01312623          	sw	s3,12(sp)
   10c54:	00050493          	mv	s1,a0
   10c58:	00058413          	mv	s0,a1
   10c5c:	00112e23          	sw	ra,28(sp)
   10c60:	08c000ef          	jal	ra,10cec <__ieee754_sqrt>
   10c64:	00050993          	mv	s3,a0
   10c68:	00058913          	mv	s2,a1
   10c6c:	00048613          	mv	a2,s1
   10c70:	00048513          	mv	a0,s1
   10c74:	00040693          	mv	a3,s0
   10c78:	00040593          	mv	a1,s0
   10c7c:	0a0020ef          	jal	ra,12d1c <__unorddf2>
   10c80:	00051e63          	bnez	a0,10c9c <sqrt+0x5c>
   10c84:	00048513          	mv	a0,s1
   10c88:	00040593          	mv	a1,s0
   10c8c:	00000613          	li	a2,0
   10c90:	00000693          	li	a3,0
   10c94:	1a8010ef          	jal	ra,11e3c <__ledf2>
   10c98:	02054463          	bltz	a0,10cc0 <sqrt+0x80>
   10c9c:	01c12083          	lw	ra,28(sp)
   10ca0:	01812403          	lw	s0,24(sp)
   10ca4:	01412483          	lw	s1,20(sp)
   10ca8:	00098513          	mv	a0,s3
   10cac:	00090593          	mv	a1,s2
   10cb0:	00c12983          	lw	s3,12(sp)
   10cb4:	01012903          	lw	s2,16(sp)
   10cb8:	02010113          	addi	sp,sp,32
   10cbc:	00008067          	ret
   10cc0:	0f4020ef          	jal	ra,12db4 <__errno>
   10cc4:	02100793          	li	a5,33
   10cc8:	00000613          	li	a2,0
   10ccc:	00000693          	li	a3,0
   10cd0:	00f52023          	sw	a5,0(a0)
   10cd4:	00068593          	mv	a1,a3
   10cd8:	00060513          	mv	a0,a2
   10cdc:	285000ef          	jal	ra,11760 <__divdf3>
   10ce0:	00050993          	mv	s3,a0
   10ce4:	00058913          	mv	s2,a1
   10ce8:	fb5ff06f          	j	10c9c <sqrt+0x5c>

00010cec <__ieee754_sqrt>:
   10cec:	ff010113          	addi	sp,sp,-16
   10cf0:	7ff006b7          	lui	a3,0x7ff00
   10cf4:	00812423          	sw	s0,8(sp)
   10cf8:	00912223          	sw	s1,4(sp)
   10cfc:	00112623          	sw	ra,12(sp)
   10d00:	00b6f833          	and	a6,a3,a1
   10d04:	00058493          	mv	s1,a1
   10d08:	00050413          	mv	s0,a0
   10d0c:	20d80063          	beq	a6,a3,10f0c <__ieee754_sqrt+0x220>
   10d10:	00050713          	mv	a4,a0
   10d14:	16b05263          	blez	a1,10e78 <__ieee754_sqrt+0x18c>
   10d18:	4145d693          	srai	a3,a1,0x14
   10d1c:	00058793          	mv	a5,a1
   10d20:	18068463          	beqz	a3,10ea8 <__ieee754_sqrt+0x1bc>
   10d24:	00100637          	lui	a2,0x100
   10d28:	fff60593          	addi	a1,a2,-1 # fffff <__global_pointer$+0xeb4ff>
   10d2c:	c0168693          	addi	a3,a3,-1023 # 7feffc01 <__global_pointer$+0x7feeb101>
   10d30:	00b7f7b3          	and	a5,a5,a1
   10d34:	0016f593          	andi	a1,a3,1
   10d38:	00c7e7b3          	or	a5,a5,a2
   10d3c:	00058a63          	beqz	a1,10d50 <__ieee754_sqrt+0x64>
   10d40:	01f75613          	srli	a2,a4,0x1f
   10d44:	00179793          	slli	a5,a5,0x1
   10d48:	00c787b3          	add	a5,a5,a2
   10d4c:	00171713          	slli	a4,a4,0x1
   10d50:	01f75613          	srli	a2,a4,0x1f
   10d54:	00179793          	slli	a5,a5,0x1
   10d58:	4016d493          	srai	s1,a3,0x1
   10d5c:	00c787b3          	add	a5,a5,a2
   10d60:	00171713          	slli	a4,a4,0x1
   10d64:	01600593          	li	a1,22
   10d68:	00000e13          	li	t3,0
   10d6c:	00000693          	li	a3,0
   10d70:	00200637          	lui	a2,0x200
   10d74:	00c68533          	add	a0,a3,a2
   10d78:	01f75813          	srli	a6,a4,0x1f
   10d7c:	fff58593          	addi	a1,a1,-1
   10d80:	00a7c863          	blt	a5,a0,10d90 <__ieee754_sqrt+0xa4>
   10d84:	40a787b3          	sub	a5,a5,a0
   10d88:	00c506b3          	add	a3,a0,a2
   10d8c:	00ce0e33          	add	t3,t3,a2
   10d90:	00179793          	slli	a5,a5,0x1
   10d94:	010787b3          	add	a5,a5,a6
   10d98:	00171713          	slli	a4,a4,0x1
   10d9c:	00165613          	srli	a2,a2,0x1
   10da0:	fc059ae3          	bnez	a1,10d74 <__ieee754_sqrt+0x88>
   10da4:	00000313          	li	t1,0
   10da8:	02000513          	li	a0,32
   10dac:	80000637          	lui	a2,0x80000
   10db0:	0240006f          	j	10dd4 <__ieee754_sqrt+0xe8>
   10db4:	14d78063          	beq	a5,a3,10ef4 <__ieee754_sqrt+0x208>
   10db8:	01f75813          	srli	a6,a4,0x1f
   10dbc:	00179793          	slli	a5,a5,0x1
   10dc0:	fff50513          	addi	a0,a0,-1
   10dc4:	00f807b3          	add	a5,a6,a5
   10dc8:	00171713          	slli	a4,a4,0x1
   10dcc:	00165613          	srli	a2,a2,0x1
   10dd0:	04050663          	beqz	a0,10e1c <__ieee754_sqrt+0x130>
   10dd4:	00b60833          	add	a6,a2,a1
   10dd8:	fcf6dee3          	bge	a3,a5,10db4 <__ieee754_sqrt+0xc8>
   10ddc:	00c805b3          	add	a1,a6,a2
   10de0:	00068893          	mv	a7,a3
   10de4:	10084063          	bltz	a6,10ee4 <__ieee754_sqrt+0x1f8>
   10de8:	40d787b3          	sub	a5,a5,a3
   10dec:	010736b3          	sltu	a3,a4,a6
   10df0:	40d787b3          	sub	a5,a5,a3
   10df4:	41070733          	sub	a4,a4,a6
   10df8:	01f75813          	srli	a6,a4,0x1f
   10dfc:	00179793          	slli	a5,a5,0x1
   10e00:	fff50513          	addi	a0,a0,-1
   10e04:	00c30333          	add	t1,t1,a2
   10e08:	00088693          	mv	a3,a7
   10e0c:	00f807b3          	add	a5,a6,a5
   10e10:	00171713          	slli	a4,a4,0x1
   10e14:	00165613          	srli	a2,a2,0x1
   10e18:	fa051ee3          	bnez	a0,10dd4 <__ieee754_sqrt+0xe8>
   10e1c:	00e7e7b3          	or	a5,a5,a4
   10e20:	00078863          	beqz	a5,10e30 <__ieee754_sqrt+0x144>
   10e24:	fff00793          	li	a5,-1
   10e28:	14f30263          	beq	t1,a5,10f6c <__ieee754_sqrt+0x280>
   10e2c:	00130313          	addi	t1,t1,1 # 10181 <frame_dummy+0x15>
   10e30:	00135513          	srli	a0,t1,0x1
   10e34:	401e5793          	srai	a5,t3,0x1
   10e38:	3fe00737          	lui	a4,0x3fe00
   10e3c:	001e7e13          	andi	t3,t3,1
   10e40:	00e787b3          	add	a5,a5,a4
   10e44:	000e0663          	beqz	t3,10e50 <__ieee754_sqrt+0x164>
   10e48:	80000737          	lui	a4,0x80000
   10e4c:	00e56533          	or	a0,a0,a4
   10e50:	01449493          	slli	s1,s1,0x14
   10e54:	00050413          	mv	s0,a0
   10e58:	00f484b3          	add	s1,s1,a5
   10e5c:	00c12083          	lw	ra,12(sp)
   10e60:	00040513          	mv	a0,s0
   10e64:	00812403          	lw	s0,8(sp)
   10e68:	00048593          	mv	a1,s1
   10e6c:	00412483          	lw	s1,4(sp)
   10e70:	01010113          	addi	sp,sp,16
   10e74:	00008067          	ret
   10e78:	00159793          	slli	a5,a1,0x1
   10e7c:	0017d793          	srli	a5,a5,0x1
   10e80:	00a7e7b3          	or	a5,a5,a0
   10e84:	fc078ce3          	beqz	a5,10e5c <__ieee754_sqrt+0x170>
   10e88:	00000693          	li	a3,0
   10e8c:	0a059e63          	bnez	a1,10f48 <__ieee754_sqrt+0x25c>
   10e90:	00b75793          	srli	a5,a4,0xb
   10e94:	feb68693          	addi	a3,a3,-21
   10e98:	01571713          	slli	a4,a4,0x15
   10e9c:	fe078ae3          	beqz	a5,10e90 <__ieee754_sqrt+0x1a4>
   10ea0:	0147d613          	srli	a2,a5,0x14
   10ea4:	0c061863          	bnez	a2,10f74 <__ieee754_sqrt+0x288>
   10ea8:	00000613          	li	a2,0
   10eac:	00100837          	lui	a6,0x100
   10eb0:	00179793          	slli	a5,a5,0x1
   10eb4:	0107f533          	and	a0,a5,a6
   10eb8:	00060593          	mv	a1,a2
   10ebc:	00160613          	addi	a2,a2,1 # 80000001 <__global_pointer$+0x7ffeb501>
   10ec0:	fe0508e3          	beqz	a0,10eb0 <__ieee754_sqrt+0x1c4>
   10ec4:	02000813          	li	a6,32
   10ec8:	00070513          	mv	a0,a4
   10ecc:	40c80833          	sub	a6,a6,a2
   10ed0:	00c71733          	sll	a4,a4,a2
   10ed4:	01055633          	srl	a2,a0,a6
   10ed8:	40b686b3          	sub	a3,a3,a1
   10edc:	00c7e7b3          	or	a5,a5,a2
   10ee0:	e45ff06f          	j	10d24 <__ieee754_sqrt+0x38>
   10ee4:	fff5c893          	not	a7,a1
   10ee8:	01f8d893          	srli	a7,a7,0x1f
   10eec:	011688b3          	add	a7,a3,a7
   10ef0:	ef9ff06f          	j	10de8 <__ieee754_sqrt+0xfc>
   10ef4:	ed0762e3          	bltu	a4,a6,10db8 <__ieee754_sqrt+0xcc>
   10ef8:	00c805b3          	add	a1,a6,a2
   10efc:	fe0844e3          	bltz	a6,10ee4 <__ieee754_sqrt+0x1f8>
   10f00:	00078893          	mv	a7,a5
   10f04:	00000793          	li	a5,0
   10f08:	eedff06f          	j	10df4 <__ieee754_sqrt+0x108>
   10f0c:	00050613          	mv	a2,a0
   10f10:	00058693          	mv	a3,a1
   10f14:	00c010ef          	jal	ra,11f20 <__muldf3>
   10f18:	00040613          	mv	a2,s0
   10f1c:	00048693          	mv	a3,s1
   10f20:	064000ef          	jal	ra,10f84 <__adddf3>
   10f24:	00050413          	mv	s0,a0
   10f28:	00c12083          	lw	ra,12(sp)
   10f2c:	00040513          	mv	a0,s0
   10f30:	00812403          	lw	s0,8(sp)
   10f34:	00058493          	mv	s1,a1
   10f38:	00048593          	mv	a1,s1
   10f3c:	00412483          	lw	s1,4(sp)
   10f40:	01010113          	addi	sp,sp,16
   10f44:	00008067          	ret
   10f48:	00050613          	mv	a2,a0
   10f4c:	00058693          	mv	a3,a1
   10f50:	5dc010ef          	jal	ra,1252c <__subdf3>
   10f54:	00050613          	mv	a2,a0
   10f58:	00058693          	mv	a3,a1
   10f5c:	005000ef          	jal	ra,11760 <__divdf3>
   10f60:	00050413          	mv	s0,a0
   10f64:	00058493          	mv	s1,a1
   10f68:	ef5ff06f          	j	10e5c <__ieee754_sqrt+0x170>
   10f6c:	001e0e13          	addi	t3,t3,1
   10f70:	ec5ff06f          	j	10e34 <__ieee754_sqrt+0x148>
   10f74:	00070513          	mv	a0,a4
   10f78:	02000813          	li	a6,32
   10f7c:	fff00593          	li	a1,-1
   10f80:	f55ff06f          	j	10ed4 <__ieee754_sqrt+0x1e8>

00010f84 <__adddf3>:
   10f84:	00100837          	lui	a6,0x100
   10f88:	fff80813          	addi	a6,a6,-1 # fffff <__global_pointer$+0xeb4ff>
   10f8c:	fe010113          	addi	sp,sp,-32
   10f90:	00b878b3          	and	a7,a6,a1
   10f94:	0145d713          	srli	a4,a1,0x14
   10f98:	01d55793          	srli	a5,a0,0x1d
   10f9c:	00d87833          	and	a6,a6,a3
   10fa0:	00812c23          	sw	s0,24(sp)
   10fa4:	7ff77413          	andi	s0,a4,2047
   10fa8:	00389713          	slli	a4,a7,0x3
   10fac:	0146d893          	srli	a7,a3,0x14
   10fb0:	00381813          	slli	a6,a6,0x3
   10fb4:	00912a23          	sw	s1,20(sp)
   10fb8:	00e7e7b3          	or	a5,a5,a4
   10fbc:	7ff8f893          	andi	a7,a7,2047
   10fc0:	01d65713          	srli	a4,a2,0x1d
   10fc4:	00112e23          	sw	ra,28(sp)
   10fc8:	01212823          	sw	s2,16(sp)
   10fcc:	01312623          	sw	s3,12(sp)
   10fd0:	01f5d493          	srli	s1,a1,0x1f
   10fd4:	01f6d693          	srli	a3,a3,0x1f
   10fd8:	01076733          	or	a4,a4,a6
   10fdc:	00351513          	slli	a0,a0,0x3
   10fe0:	00361613          	slli	a2,a2,0x3
   10fe4:	41140833          	sub	a6,s0,a7
   10fe8:	2cd49863          	bne	s1,a3,112b8 <__adddf3+0x334>
   10fec:	13005063          	blez	a6,1110c <__adddf3+0x188>
   10ff0:	04089063          	bnez	a7,11030 <__adddf3+0xac>
   10ff4:	00c766b3          	or	a3,a4,a2
   10ff8:	70068e63          	beqz	a3,11714 <__adddf3+0x790>
   10ffc:	fff80593          	addi	a1,a6,-1
   11000:	02059063          	bnez	a1,11020 <__adddf3+0x9c>
   11004:	00c50633          	add	a2,a0,a2
   11008:	00e78733          	add	a4,a5,a4
   1100c:	00a637b3          	sltu	a5,a2,a0
   11010:	00f707b3          	add	a5,a4,a5
   11014:	00060513          	mv	a0,a2
   11018:	00100413          	li	s0,1
   1101c:	0700006f          	j	1108c <__adddf3+0x108>
   11020:	7ff00693          	li	a3,2047
   11024:	02d81063          	bne	a6,a3,11044 <__adddf3+0xc0>
   11028:	7ff00413          	li	s0,2047
   1102c:	2140006f          	j	11240 <__adddf3+0x2bc>
   11030:	7ff00693          	li	a3,2047
   11034:	20d40663          	beq	s0,a3,11240 <__adddf3+0x2bc>
   11038:	008006b7          	lui	a3,0x800
   1103c:	00d76733          	or	a4,a4,a3
   11040:	00080593          	mv	a1,a6
   11044:	03800693          	li	a3,56
   11048:	0ab6cc63          	blt	a3,a1,11100 <__adddf3+0x17c>
   1104c:	01f00693          	li	a3,31
   11050:	06b6ce63          	blt	a3,a1,110cc <__adddf3+0x148>
   11054:	02000813          	li	a6,32
   11058:	40b80833          	sub	a6,a6,a1
   1105c:	010716b3          	sll	a3,a4,a6
   11060:	00b658b3          	srl	a7,a2,a1
   11064:	01061833          	sll	a6,a2,a6
   11068:	0116e6b3          	or	a3,a3,a7
   1106c:	01003833          	snez	a6,a6
   11070:	0106e6b3          	or	a3,a3,a6
   11074:	00b755b3          	srl	a1,a4,a1
   11078:	00a686b3          	add	a3,a3,a0
   1107c:	00f585b3          	add	a1,a1,a5
   11080:	00a6b7b3          	sltu	a5,a3,a0
   11084:	00f587b3          	add	a5,a1,a5
   11088:	00068513          	mv	a0,a3
   1108c:	00800737          	lui	a4,0x800
   11090:	00e7f733          	and	a4,a5,a4
   11094:	1a070663          	beqz	a4,11240 <__adddf3+0x2bc>
   11098:	00140413          	addi	s0,s0,1
   1109c:	7ff00713          	li	a4,2047
   110a0:	5ce40a63          	beq	s0,a4,11674 <__adddf3+0x6f0>
   110a4:	ff800737          	lui	a4,0xff800
   110a8:	fff70713          	addi	a4,a4,-1 # ff7fffff <__global_pointer$+0xff7eb4ff>
   110ac:	00e7f7b3          	and	a5,a5,a4
   110b0:	00155713          	srli	a4,a0,0x1
   110b4:	00157513          	andi	a0,a0,1
   110b8:	00a76733          	or	a4,a4,a0
   110bc:	01f79513          	slli	a0,a5,0x1f
   110c0:	00e56533          	or	a0,a0,a4
   110c4:	0017d793          	srli	a5,a5,0x1
   110c8:	1780006f          	j	11240 <__adddf3+0x2bc>
   110cc:	fe058693          	addi	a3,a1,-32
   110d0:	02000893          	li	a7,32
   110d4:	00d756b3          	srl	a3,a4,a3
   110d8:	00000813          	li	a6,0
   110dc:	01158863          	beq	a1,a7,110ec <__adddf3+0x168>
   110e0:	04000813          	li	a6,64
   110e4:	40b80833          	sub	a6,a6,a1
   110e8:	01071833          	sll	a6,a4,a6
   110ec:	00c86833          	or	a6,a6,a2
   110f0:	01003833          	snez	a6,a6
   110f4:	0106e6b3          	or	a3,a3,a6
   110f8:	00000593          	li	a1,0
   110fc:	f7dff06f          	j	11078 <__adddf3+0xf4>
   11100:	00c766b3          	or	a3,a4,a2
   11104:	00d036b3          	snez	a3,a3
   11108:	ff1ff06f          	j	110f8 <__adddf3+0x174>
   1110c:	0e080263          	beqz	a6,111f0 <__adddf3+0x26c>
   11110:	408885b3          	sub	a1,a7,s0
   11114:	02041e63          	bnez	s0,11150 <__adddf3+0x1cc>
   11118:	00a7e6b3          	or	a3,a5,a0
   1111c:	52068c63          	beqz	a3,11654 <__adddf3+0x6d0>
   11120:	fff58693          	addi	a3,a1,-1
   11124:	00069c63          	bnez	a3,1113c <__adddf3+0x1b8>
   11128:	00c50533          	add	a0,a0,a2
   1112c:	00e78733          	add	a4,a5,a4
   11130:	00c53633          	sltu	a2,a0,a2
   11134:	00c707b3          	add	a5,a4,a2
   11138:	ee1ff06f          	j	11018 <__adddf3+0x94>
   1113c:	7ff00813          	li	a6,2047
   11140:	03059263          	bne	a1,a6,11164 <__adddf3+0x1e0>
   11144:	00070793          	mv	a5,a4
   11148:	00060513          	mv	a0,a2
   1114c:	eddff06f          	j	11028 <__adddf3+0xa4>
   11150:	7ff00693          	li	a3,2047
   11154:	fed888e3          	beq	a7,a3,11144 <__adddf3+0x1c0>
   11158:	008006b7          	lui	a3,0x800
   1115c:	00d7e7b3          	or	a5,a5,a3
   11160:	00058693          	mv	a3,a1
   11164:	03800593          	li	a1,56
   11168:	06d5ce63          	blt	a1,a3,111e4 <__adddf3+0x260>
   1116c:	01f00593          	li	a1,31
   11170:	04d5c063          	blt	a1,a3,111b0 <__adddf3+0x22c>
   11174:	02000813          	li	a6,32
   11178:	40d80833          	sub	a6,a6,a3
   1117c:	010795b3          	sll	a1,a5,a6
   11180:	00d55333          	srl	t1,a0,a3
   11184:	01051833          	sll	a6,a0,a6
   11188:	0065e5b3          	or	a1,a1,t1
   1118c:	01003833          	snez	a6,a6
   11190:	0105e5b3          	or	a1,a1,a6
   11194:	00d7d6b3          	srl	a3,a5,a3
   11198:	00c58533          	add	a0,a1,a2
   1119c:	00e686b3          	add	a3,a3,a4
   111a0:	00c53633          	sltu	a2,a0,a2
   111a4:	00c687b3          	add	a5,a3,a2
   111a8:	00088413          	mv	s0,a7
   111ac:	ee1ff06f          	j	1108c <__adddf3+0x108>
   111b0:	fe068593          	addi	a1,a3,-32 # 7fffe0 <__global_pointer$+0x7eb4e0>
   111b4:	02000313          	li	t1,32
   111b8:	00b7d5b3          	srl	a1,a5,a1
   111bc:	00000813          	li	a6,0
   111c0:	00668863          	beq	a3,t1,111d0 <__adddf3+0x24c>
   111c4:	04000813          	li	a6,64
   111c8:	40d80833          	sub	a6,a6,a3
   111cc:	01079833          	sll	a6,a5,a6
   111d0:	00a86833          	or	a6,a6,a0
   111d4:	01003833          	snez	a6,a6
   111d8:	0105e5b3          	or	a1,a1,a6
   111dc:	00000693          	li	a3,0
   111e0:	fb9ff06f          	j	11198 <__adddf3+0x214>
   111e4:	00a7e5b3          	or	a1,a5,a0
   111e8:	00b035b3          	snez	a1,a1
   111ec:	ff1ff06f          	j	111dc <__adddf3+0x258>
   111f0:	00140693          	addi	a3,s0,1
   111f4:	7fe6f593          	andi	a1,a3,2046
   111f8:	08059863          	bnez	a1,11288 <__adddf3+0x304>
   111fc:	00a7e6b3          	or	a3,a5,a0
   11200:	06041463          	bnez	s0,11268 <__adddf3+0x2e4>
   11204:	46068063          	beqz	a3,11664 <__adddf3+0x6e0>
   11208:	00c766b3          	or	a3,a4,a2
   1120c:	02068a63          	beqz	a3,11240 <__adddf3+0x2bc>
   11210:	00c50633          	add	a2,a0,a2
   11214:	00e78733          	add	a4,a5,a4
   11218:	00a637b3          	sltu	a5,a2,a0
   1121c:	00f707b3          	add	a5,a4,a5
   11220:	00800737          	lui	a4,0x800
   11224:	00e7f733          	and	a4,a5,a4
   11228:	00060513          	mv	a0,a2
   1122c:	00070a63          	beqz	a4,11240 <__adddf3+0x2bc>
   11230:	ff800737          	lui	a4,0xff800
   11234:	fff70713          	addi	a4,a4,-1 # ff7fffff <__global_pointer$+0xff7eb4ff>
   11238:	00e7f7b3          	and	a5,a5,a4
   1123c:	00100413          	li	s0,1
   11240:	00757713          	andi	a4,a0,7
   11244:	42070c63          	beqz	a4,1167c <__adddf3+0x6f8>
   11248:	00f57713          	andi	a4,a0,15
   1124c:	00400693          	li	a3,4
   11250:	42d70663          	beq	a4,a3,1167c <__adddf3+0x6f8>
   11254:	00450713          	addi	a4,a0,4
   11258:	00a73533          	sltu	a0,a4,a0
   1125c:	00a787b3          	add	a5,a5,a0
   11260:	00070513          	mv	a0,a4
   11264:	4180006f          	j	1167c <__adddf3+0x6f8>
   11268:	ec068ee3          	beqz	a3,11144 <__adddf3+0x1c0>
   1126c:	00c76733          	or	a4,a4,a2
   11270:	da070ce3          	beqz	a4,11028 <__adddf3+0xa4>
   11274:	00000493          	li	s1,0
   11278:	004007b7          	lui	a5,0x400
   1127c:	00000513          	li	a0,0
   11280:	7ff00413          	li	s0,2047
   11284:	3f80006f          	j	1167c <__adddf3+0x6f8>
   11288:	7ff00593          	li	a1,2047
   1128c:	3eb68263          	beq	a3,a1,11670 <__adddf3+0x6ec>
   11290:	00c50633          	add	a2,a0,a2
   11294:	00a63533          	sltu	a0,a2,a0
   11298:	00e78733          	add	a4,a5,a4
   1129c:	00a70733          	add	a4,a4,a0
   112a0:	01f71513          	slli	a0,a4,0x1f
   112a4:	00165613          	srli	a2,a2,0x1
   112a8:	00c56533          	or	a0,a0,a2
   112ac:	00175793          	srli	a5,a4,0x1
   112b0:	00068413          	mv	s0,a3
   112b4:	f8dff06f          	j	11240 <__adddf3+0x2bc>
   112b8:	0f005c63          	blez	a6,113b0 <__adddf3+0x42c>
   112bc:	08089e63          	bnez	a7,11358 <__adddf3+0x3d4>
   112c0:	00c766b3          	or	a3,a4,a2
   112c4:	44068863          	beqz	a3,11714 <__adddf3+0x790>
   112c8:	fff80593          	addi	a1,a6,-1
   112cc:	02059063          	bnez	a1,112ec <__adddf3+0x368>
   112d0:	40c50633          	sub	a2,a0,a2
   112d4:	40e78733          	sub	a4,a5,a4
   112d8:	00c537b3          	sltu	a5,a0,a2
   112dc:	40f707b3          	sub	a5,a4,a5
   112e0:	00060513          	mv	a0,a2
   112e4:	00100413          	li	s0,1
   112e8:	0540006f          	j	1133c <__adddf3+0x3b8>
   112ec:	7ff00693          	li	a3,2047
   112f0:	d2d80ce3          	beq	a6,a3,11028 <__adddf3+0xa4>
   112f4:	03800693          	li	a3,56
   112f8:	0ab6c663          	blt	a3,a1,113a4 <__adddf3+0x420>
   112fc:	01f00693          	li	a3,31
   11300:	06b6c863          	blt	a3,a1,11370 <__adddf3+0x3ec>
   11304:	02000813          	li	a6,32
   11308:	40b80833          	sub	a6,a6,a1
   1130c:	010716b3          	sll	a3,a4,a6
   11310:	00b658b3          	srl	a7,a2,a1
   11314:	01061833          	sll	a6,a2,a6
   11318:	0116e6b3          	or	a3,a3,a7
   1131c:	01003833          	snez	a6,a6
   11320:	0106e6b3          	or	a3,a3,a6
   11324:	00b755b3          	srl	a1,a4,a1
   11328:	40d506b3          	sub	a3,a0,a3
   1132c:	40b785b3          	sub	a1,a5,a1
   11330:	00d537b3          	sltu	a5,a0,a3
   11334:	40f587b3          	sub	a5,a1,a5
   11338:	00068513          	mv	a0,a3
   1133c:	00800937          	lui	s2,0x800
   11340:	0127f733          	and	a4,a5,s2
   11344:	ee070ee3          	beqz	a4,11240 <__adddf3+0x2bc>
   11348:	fff90913          	addi	s2,s2,-1 # 7fffff <__global_pointer$+0x7eb4ff>
   1134c:	0127f933          	and	s2,a5,s2
   11350:	00050993          	mv	s3,a0
   11354:	2140006f          	j	11568 <__adddf3+0x5e4>
   11358:	7ff00693          	li	a3,2047
   1135c:	eed402e3          	beq	s0,a3,11240 <__adddf3+0x2bc>
   11360:	008006b7          	lui	a3,0x800
   11364:	00d76733          	or	a4,a4,a3
   11368:	00080593          	mv	a1,a6
   1136c:	f89ff06f          	j	112f4 <__adddf3+0x370>
   11370:	fe058693          	addi	a3,a1,-32
   11374:	02000893          	li	a7,32
   11378:	00d756b3          	srl	a3,a4,a3
   1137c:	00000813          	li	a6,0
   11380:	01158863          	beq	a1,a7,11390 <__adddf3+0x40c>
   11384:	04000813          	li	a6,64
   11388:	40b80833          	sub	a6,a6,a1
   1138c:	01071833          	sll	a6,a4,a6
   11390:	00c86833          	or	a6,a6,a2
   11394:	01003833          	snez	a6,a6
   11398:	0106e6b3          	or	a3,a3,a6
   1139c:	00000593          	li	a1,0
   113a0:	f89ff06f          	j	11328 <__adddf3+0x3a4>
   113a4:	00c766b3          	or	a3,a4,a2
   113a8:	00d036b3          	snez	a3,a3
   113ac:	ff1ff06f          	j	1139c <__adddf3+0x418>
   113b0:	0e080863          	beqz	a6,114a0 <__adddf3+0x51c>
   113b4:	40888833          	sub	a6,a7,s0
   113b8:	04041263          	bnez	s0,113fc <__adddf3+0x478>
   113bc:	00a7e5b3          	or	a1,a5,a0
   113c0:	34058e63          	beqz	a1,1171c <__adddf3+0x798>
   113c4:	fff80593          	addi	a1,a6,-1
   113c8:	00059e63          	bnez	a1,113e4 <__adddf3+0x460>
   113cc:	40a60533          	sub	a0,a2,a0
   113d0:	40f70733          	sub	a4,a4,a5
   113d4:	00a63633          	sltu	a2,a2,a0
   113d8:	40c707b3          	sub	a5,a4,a2
   113dc:	00068493          	mv	s1,a3
   113e0:	f05ff06f          	j	112e4 <__adddf3+0x360>
   113e4:	7ff00313          	li	t1,2047
   113e8:	02681463          	bne	a6,t1,11410 <__adddf3+0x48c>
   113ec:	00070793          	mv	a5,a4
   113f0:	00060513          	mv	a0,a2
   113f4:	7ff00413          	li	s0,2047
   113f8:	0d00006f          	j	114c8 <__adddf3+0x544>
   113fc:	7ff00593          	li	a1,2047
   11400:	feb886e3          	beq	a7,a1,113ec <__adddf3+0x468>
   11404:	008005b7          	lui	a1,0x800
   11408:	00b7e7b3          	or	a5,a5,a1
   1140c:	00080593          	mv	a1,a6
   11410:	03800813          	li	a6,56
   11414:	08b84063          	blt	a6,a1,11494 <__adddf3+0x510>
   11418:	01f00813          	li	a6,31
   1141c:	04b84263          	blt	a6,a1,11460 <__adddf3+0x4dc>
   11420:	02000313          	li	t1,32
   11424:	40b30333          	sub	t1,t1,a1
   11428:	00b55e33          	srl	t3,a0,a1
   1142c:	00679833          	sll	a6,a5,t1
   11430:	00651333          	sll	t1,a0,t1
   11434:	01c86833          	or	a6,a6,t3
   11438:	00603333          	snez	t1,t1
   1143c:	00686533          	or	a0,a6,t1
   11440:	00b7d5b3          	srl	a1,a5,a1
   11444:	40a60533          	sub	a0,a2,a0
   11448:	40b705b3          	sub	a1,a4,a1
   1144c:	00a63633          	sltu	a2,a2,a0
   11450:	40c587b3          	sub	a5,a1,a2
   11454:	00088413          	mv	s0,a7
   11458:	00068493          	mv	s1,a3
   1145c:	ee1ff06f          	j	1133c <__adddf3+0x3b8>
   11460:	fe058813          	addi	a6,a1,-32 # 7fffe0 <__global_pointer$+0x7eb4e0>
   11464:	02000e13          	li	t3,32
   11468:	0107d833          	srl	a6,a5,a6
   1146c:	00000313          	li	t1,0
   11470:	01c58863          	beq	a1,t3,11480 <__adddf3+0x4fc>
   11474:	04000313          	li	t1,64
   11478:	40b30333          	sub	t1,t1,a1
   1147c:	00679333          	sll	t1,a5,t1
   11480:	00a36333          	or	t1,t1,a0
   11484:	00603333          	snez	t1,t1
   11488:	00686533          	or	a0,a6,t1
   1148c:	00000593          	li	a1,0
   11490:	fb5ff06f          	j	11444 <__adddf3+0x4c0>
   11494:	00a7e533          	or	a0,a5,a0
   11498:	00a03533          	snez	a0,a0
   1149c:	ff1ff06f          	j	1148c <__adddf3+0x508>
   114a0:	00140593          	addi	a1,s0,1
   114a4:	7fe5f593          	andi	a1,a1,2046
   114a8:	08059863          	bnez	a1,11538 <__adddf3+0x5b4>
   114ac:	00a7e833          	or	a6,a5,a0
   114b0:	00c765b3          	or	a1,a4,a2
   114b4:	06041263          	bnez	s0,11518 <__adddf3+0x594>
   114b8:	00081c63          	bnez	a6,114d0 <__adddf3+0x54c>
   114bc:	26058863          	beqz	a1,1172c <__adddf3+0x7a8>
   114c0:	00070793          	mv	a5,a4
   114c4:	00060513          	mv	a0,a2
   114c8:	00068493          	mv	s1,a3
   114cc:	d75ff06f          	j	11240 <__adddf3+0x2bc>
   114d0:	d60588e3          	beqz	a1,11240 <__adddf3+0x2bc>
   114d4:	40c50833          	sub	a6,a0,a2
   114d8:	010538b3          	sltu	a7,a0,a6
   114dc:	40e785b3          	sub	a1,a5,a4
   114e0:	411585b3          	sub	a1,a1,a7
   114e4:	008008b7          	lui	a7,0x800
   114e8:	0115f8b3          	and	a7,a1,a7
   114ec:	00088c63          	beqz	a7,11504 <__adddf3+0x580>
   114f0:	40a60533          	sub	a0,a2,a0
   114f4:	40f70733          	sub	a4,a4,a5
   114f8:	00a63633          	sltu	a2,a2,a0
   114fc:	40c707b3          	sub	a5,a4,a2
   11500:	fc9ff06f          	j	114c8 <__adddf3+0x544>
   11504:	00b86533          	or	a0,a6,a1
   11508:	22050a63          	beqz	a0,1173c <__adddf3+0x7b8>
   1150c:	00058793          	mv	a5,a1
   11510:	00080513          	mv	a0,a6
   11514:	d2dff06f          	j	11240 <__adddf3+0x2bc>
   11518:	00081c63          	bnez	a6,11530 <__adddf3+0x5ac>
   1151c:	22058463          	beqz	a1,11744 <__adddf3+0x7c0>
   11520:	00070793          	mv	a5,a4
   11524:	00060513          	mv	a0,a2
   11528:	00068493          	mv	s1,a3
   1152c:	afdff06f          	j	11028 <__adddf3+0xa4>
   11530:	ae058ce3          	beqz	a1,11028 <__adddf3+0xa4>
   11534:	d41ff06f          	j	11274 <__adddf3+0x2f0>
   11538:	40c509b3          	sub	s3,a0,a2
   1153c:	013535b3          	sltu	a1,a0,s3
   11540:	40e78933          	sub	s2,a5,a4
   11544:	40b90933          	sub	s2,s2,a1
   11548:	008005b7          	lui	a1,0x800
   1154c:	00b975b3          	and	a1,s2,a1
   11550:	08058463          	beqz	a1,115d8 <__adddf3+0x654>
   11554:	40a609b3          	sub	s3,a2,a0
   11558:	40f70933          	sub	s2,a4,a5
   1155c:	01363633          	sltu	a2,a2,s3
   11560:	40c90933          	sub	s2,s2,a2
   11564:	00068493          	mv	s1,a3
   11568:	08090263          	beqz	s2,115ec <__adddf3+0x668>
   1156c:	00090513          	mv	a0,s2
   11570:	7f8010ef          	jal	ra,12d68 <__clzsi2>
   11574:	ff850713          	addi	a4,a0,-8
   11578:	01f00793          	li	a5,31
   1157c:	08e7c063          	blt	a5,a4,115fc <__adddf3+0x678>
   11580:	02000793          	li	a5,32
   11584:	40e787b3          	sub	a5,a5,a4
   11588:	00e91933          	sll	s2,s2,a4
   1158c:	00f9d7b3          	srl	a5,s3,a5
   11590:	0127e7b3          	or	a5,a5,s2
   11594:	00e99533          	sll	a0,s3,a4
   11598:	0a874463          	blt	a4,s0,11640 <__adddf3+0x6bc>
   1159c:	40870733          	sub	a4,a4,s0
   115a0:	00170613          	addi	a2,a4,1
   115a4:	01f00693          	li	a3,31
   115a8:	06c6c263          	blt	a3,a2,1160c <__adddf3+0x688>
   115ac:	02000713          	li	a4,32
   115b0:	40c70733          	sub	a4,a4,a2
   115b4:	00e796b3          	sll	a3,a5,a4
   115b8:	00c555b3          	srl	a1,a0,a2
   115bc:	00e51733          	sll	a4,a0,a4
   115c0:	00b6e6b3          	or	a3,a3,a1
   115c4:	00e03733          	snez	a4,a4
   115c8:	00e6e533          	or	a0,a3,a4
   115cc:	00c7d7b3          	srl	a5,a5,a2
   115d0:	00000413          	li	s0,0
   115d4:	c6dff06f          	j	11240 <__adddf3+0x2bc>
   115d8:	0129e533          	or	a0,s3,s2
   115dc:	f80516e3          	bnez	a0,11568 <__adddf3+0x5e4>
   115e0:	00000793          	li	a5,0
   115e4:	00000413          	li	s0,0
   115e8:	14c0006f          	j	11734 <__adddf3+0x7b0>
   115ec:	00098513          	mv	a0,s3
   115f0:	778010ef          	jal	ra,12d68 <__clzsi2>
   115f4:	02050513          	addi	a0,a0,32
   115f8:	f7dff06f          	j	11574 <__adddf3+0x5f0>
   115fc:	fd850793          	addi	a5,a0,-40
   11600:	00f997b3          	sll	a5,s3,a5
   11604:	00000513          	li	a0,0
   11608:	f91ff06f          	j	11598 <__adddf3+0x614>
   1160c:	fe170713          	addi	a4,a4,-31
   11610:	02000593          	li	a1,32
   11614:	00e7d733          	srl	a4,a5,a4
   11618:	00000693          	li	a3,0
   1161c:	00b60863          	beq	a2,a1,1162c <__adddf3+0x6a8>
   11620:	04000693          	li	a3,64
   11624:	40c686b3          	sub	a3,a3,a2
   11628:	00d796b3          	sll	a3,a5,a3
   1162c:	00d566b3          	or	a3,a0,a3
   11630:	00d036b3          	snez	a3,a3
   11634:	00d76533          	or	a0,a4,a3
   11638:	00000793          	li	a5,0
   1163c:	f95ff06f          	j	115d0 <__adddf3+0x64c>
   11640:	40e40433          	sub	s0,s0,a4
   11644:	ff800737          	lui	a4,0xff800
   11648:	fff70713          	addi	a4,a4,-1 # ff7fffff <__global_pointer$+0xff7eb4ff>
   1164c:	00e7f7b3          	and	a5,a5,a4
   11650:	bf1ff06f          	j	11240 <__adddf3+0x2bc>
   11654:	00070793          	mv	a5,a4
   11658:	00060513          	mv	a0,a2
   1165c:	00058413          	mv	s0,a1
   11660:	be1ff06f          	j	11240 <__adddf3+0x2bc>
   11664:	00070793          	mv	a5,a4
   11668:	00060513          	mv	a0,a2
   1166c:	bd5ff06f          	j	11240 <__adddf3+0x2bc>
   11670:	7ff00413          	li	s0,2047
   11674:	00000793          	li	a5,0
   11678:	00000513          	li	a0,0
   1167c:	00800737          	lui	a4,0x800
   11680:	00e7f733          	and	a4,a5,a4
   11684:	00070e63          	beqz	a4,116a0 <__adddf3+0x71c>
   11688:	00140413          	addi	s0,s0,1
   1168c:	7ff00713          	li	a4,2047
   11690:	0ce40263          	beq	s0,a4,11754 <__adddf3+0x7d0>
   11694:	ff800737          	lui	a4,0xff800
   11698:	fff70713          	addi	a4,a4,-1 # ff7fffff <__global_pointer$+0xff7eb4ff>
   1169c:	00e7f7b3          	and	a5,a5,a4
   116a0:	01d79693          	slli	a3,a5,0x1d
   116a4:	00355513          	srli	a0,a0,0x3
   116a8:	7ff00713          	li	a4,2047
   116ac:	00a6e6b3          	or	a3,a3,a0
   116b0:	0037d793          	srli	a5,a5,0x3
   116b4:	00e41e63          	bne	s0,a4,116d0 <__adddf3+0x74c>
   116b8:	00f6e6b3          	or	a3,a3,a5
   116bc:	00000793          	li	a5,0
   116c0:	00068863          	beqz	a3,116d0 <__adddf3+0x74c>
   116c4:	000807b7          	lui	a5,0x80
   116c8:	00000693          	li	a3,0
   116cc:	00000493          	li	s1,0
   116d0:	01441713          	slli	a4,s0,0x14
   116d4:	7ff00637          	lui	a2,0x7ff00
   116d8:	00c79793          	slli	a5,a5,0xc
   116dc:	01c12083          	lw	ra,28(sp)
   116e0:	01812403          	lw	s0,24(sp)
   116e4:	00c77733          	and	a4,a4,a2
   116e8:	00c7d793          	srli	a5,a5,0xc
   116ec:	01f49493          	slli	s1,s1,0x1f
   116f0:	00f767b3          	or	a5,a4,a5
   116f4:	0097e733          	or	a4,a5,s1
   116f8:	01012903          	lw	s2,16(sp)
   116fc:	01412483          	lw	s1,20(sp)
   11700:	00c12983          	lw	s3,12(sp)
   11704:	00068513          	mv	a0,a3
   11708:	00070593          	mv	a1,a4
   1170c:	02010113          	addi	sp,sp,32
   11710:	00008067          	ret
   11714:	00080413          	mv	s0,a6
   11718:	b29ff06f          	j	11240 <__adddf3+0x2bc>
   1171c:	00070793          	mv	a5,a4
   11720:	00060513          	mv	a0,a2
   11724:	00080413          	mv	s0,a6
   11728:	da1ff06f          	j	114c8 <__adddf3+0x544>
   1172c:	00000793          	li	a5,0
   11730:	00000513          	li	a0,0
   11734:	00000493          	li	s1,0
   11738:	f45ff06f          	j	1167c <__adddf3+0x6f8>
   1173c:	00000793          	li	a5,0
   11740:	ff5ff06f          	j	11734 <__adddf3+0x7b0>
   11744:	00000513          	li	a0,0
   11748:	00000493          	li	s1,0
   1174c:	004007b7          	lui	a5,0x400
   11750:	b31ff06f          	j	11280 <__adddf3+0x2fc>
   11754:	00000793          	li	a5,0
   11758:	00000513          	li	a0,0
   1175c:	f45ff06f          	j	116a0 <__adddf3+0x71c>

00011760 <__divdf3>:
   11760:	fd010113          	addi	sp,sp,-48
   11764:	0145d813          	srli	a6,a1,0x14
   11768:	02912223          	sw	s1,36(sp)
   1176c:	01312e23          	sw	s3,28(sp)
   11770:	01412c23          	sw	s4,24(sp)
   11774:	01612823          	sw	s6,16(sp)
   11778:	01812423          	sw	s8,8(sp)
   1177c:	00c59493          	slli	s1,a1,0xc
   11780:	02112623          	sw	ra,44(sp)
   11784:	02812423          	sw	s0,40(sp)
   11788:	03212023          	sw	s2,32(sp)
   1178c:	01512a23          	sw	s5,20(sp)
   11790:	01712623          	sw	s7,12(sp)
   11794:	7ff87813          	andi	a6,a6,2047
   11798:	00050a13          	mv	s4,a0
   1179c:	00060b13          	mv	s6,a2
   117a0:	00068c13          	mv	s8,a3
   117a4:	00c4d493          	srli	s1,s1,0xc
   117a8:	01f5d993          	srli	s3,a1,0x1f
   117ac:	0a080063          	beqz	a6,1184c <__divdf3+0xec>
   117b0:	7ff00793          	li	a5,2047
   117b4:	0ef80e63          	beq	a6,a5,118b0 <__divdf3+0x150>
   117b8:	01d55a93          	srli	s5,a0,0x1d
   117bc:	00349493          	slli	s1,s1,0x3
   117c0:	009aeab3          	or	s5,s5,s1
   117c4:	008007b7          	lui	a5,0x800
   117c8:	00faeab3          	or	s5,s5,a5
   117cc:	00351413          	slli	s0,a0,0x3
   117d0:	c0180913          	addi	s2,a6,-1023
   117d4:	00000b93          	li	s7,0
   117d8:	014c5793          	srli	a5,s8,0x14
   117dc:	00cc1493          	slli	s1,s8,0xc
   117e0:	7ff7f793          	andi	a5,a5,2047
   117e4:	00c4d493          	srli	s1,s1,0xc
   117e8:	01fc5c13          	srli	s8,s8,0x1f
   117ec:	10078063          	beqz	a5,118ec <__divdf3+0x18c>
   117f0:	7ff00713          	li	a4,2047
   117f4:	16e78063          	beq	a5,a4,11954 <__divdf3+0x1f4>
   117f8:	00349493          	slli	s1,s1,0x3
   117fc:	01db5713          	srli	a4,s6,0x1d
   11800:	00976733          	or	a4,a4,s1
   11804:	008004b7          	lui	s1,0x800
   11808:	009764b3          	or	s1,a4,s1
   1180c:	003b1e93          	slli	t4,s6,0x3
   11810:	c0178793          	addi	a5,a5,-1023 # 7ffc01 <__global_pointer$+0x7eb101>
   11814:	00000713          	li	a4,0
   11818:	40f90833          	sub	a6,s2,a5
   1181c:	002b9793          	slli	a5,s7,0x2
   11820:	00e7e7b3          	or	a5,a5,a4
   11824:	fff78793          	addi	a5,a5,-1
   11828:	00e00693          	li	a3,14
   1182c:	0189c633          	xor	a2,s3,s8
   11830:	14f6ee63          	bltu	a3,a5,1198c <__divdf3+0x22c>
   11834:	000136b7          	lui	a3,0x13
   11838:	00279793          	slli	a5,a5,0x2
   1183c:	1b068693          	addi	a3,a3,432 # 131b0 <_exit+0x54>
   11840:	00d787b3          	add	a5,a5,a3
   11844:	0007a783          	lw	a5,0(a5)
   11848:	00078067          	jr	a5
   1184c:	00a4eab3          	or	s5,s1,a0
   11850:	060a8e63          	beqz	s5,118cc <__divdf3+0x16c>
   11854:	04048063          	beqz	s1,11894 <__divdf3+0x134>
   11858:	00048513          	mv	a0,s1
   1185c:	50c010ef          	jal	ra,12d68 <__clzsi2>
   11860:	ff550793          	addi	a5,a0,-11
   11864:	01c00713          	li	a4,28
   11868:	02f74c63          	blt	a4,a5,118a0 <__divdf3+0x140>
   1186c:	01d00a93          	li	s5,29
   11870:	ff850413          	addi	s0,a0,-8
   11874:	40fa8ab3          	sub	s5,s5,a5
   11878:	008494b3          	sll	s1,s1,s0
   1187c:	015a5ab3          	srl	s5,s4,s5
   11880:	009aeab3          	or	s5,s5,s1
   11884:	008a1433          	sll	s0,s4,s0
   11888:	c0d00813          	li	a6,-1011
   1188c:	40a80933          	sub	s2,a6,a0
   11890:	f45ff06f          	j	117d4 <__divdf3+0x74>
   11894:	4d4010ef          	jal	ra,12d68 <__clzsi2>
   11898:	02050513          	addi	a0,a0,32
   1189c:	fc5ff06f          	j	11860 <__divdf3+0x100>
   118a0:	fd850a93          	addi	s5,a0,-40
   118a4:	015a1ab3          	sll	s5,s4,s5
   118a8:	00000413          	li	s0,0
   118ac:	fddff06f          	j	11888 <__divdf3+0x128>
   118b0:	00a4eab3          	or	s5,s1,a0
   118b4:	020a8463          	beqz	s5,118dc <__divdf3+0x17c>
   118b8:	00050413          	mv	s0,a0
   118bc:	00048a93          	mv	s5,s1
   118c0:	7ff00913          	li	s2,2047
   118c4:	00300b93          	li	s7,3
   118c8:	f11ff06f          	j	117d8 <__divdf3+0x78>
   118cc:	00000413          	li	s0,0
   118d0:	00000913          	li	s2,0
   118d4:	00100b93          	li	s7,1
   118d8:	f01ff06f          	j	117d8 <__divdf3+0x78>
   118dc:	00000413          	li	s0,0
   118e0:	7ff00913          	li	s2,2047
   118e4:	00200b93          	li	s7,2
   118e8:	ef1ff06f          	j	117d8 <__divdf3+0x78>
   118ec:	0164eeb3          	or	t4,s1,s6
   118f0:	060e8e63          	beqz	t4,1196c <__divdf3+0x20c>
   118f4:	04048063          	beqz	s1,11934 <__divdf3+0x1d4>
   118f8:	00048513          	mv	a0,s1
   118fc:	46c010ef          	jal	ra,12d68 <__clzsi2>
   11900:	ff550713          	addi	a4,a0,-11
   11904:	01c00793          	li	a5,28
   11908:	02e7ce63          	blt	a5,a4,11944 <__divdf3+0x1e4>
   1190c:	01d00793          	li	a5,29
   11910:	ff850e93          	addi	t4,a0,-8
   11914:	40e787b3          	sub	a5,a5,a4
   11918:	01d494b3          	sll	s1,s1,t4
   1191c:	00fb57b3          	srl	a5,s6,a5
   11920:	0097e4b3          	or	s1,a5,s1
   11924:	01db1eb3          	sll	t4,s6,t4
   11928:	c0d00793          	li	a5,-1011
   1192c:	40a787b3          	sub	a5,a5,a0
   11930:	ee5ff06f          	j	11814 <__divdf3+0xb4>
   11934:	000b0513          	mv	a0,s6
   11938:	430010ef          	jal	ra,12d68 <__clzsi2>
   1193c:	02050513          	addi	a0,a0,32
   11940:	fc1ff06f          	j	11900 <__divdf3+0x1a0>
   11944:	fd850493          	addi	s1,a0,-40
   11948:	009b14b3          	sll	s1,s6,s1
   1194c:	00000e93          	li	t4,0
   11950:	fd9ff06f          	j	11928 <__divdf3+0x1c8>
   11954:	0164eeb3          	or	t4,s1,s6
   11958:	020e8263          	beqz	t4,1197c <__divdf3+0x21c>
   1195c:	000b0e93          	mv	t4,s6
   11960:	7ff00793          	li	a5,2047
   11964:	00300713          	li	a4,3
   11968:	eb1ff06f          	j	11818 <__divdf3+0xb8>
   1196c:	00000493          	li	s1,0
   11970:	00000793          	li	a5,0
   11974:	00100713          	li	a4,1
   11978:	ea1ff06f          	j	11818 <__divdf3+0xb8>
   1197c:	00000493          	li	s1,0
   11980:	7ff00793          	li	a5,2047
   11984:	00200713          	li	a4,2
   11988:	e91ff06f          	j	11818 <__divdf3+0xb8>
   1198c:	0154e663          	bltu	s1,s5,11998 <__divdf3+0x238>
   11990:	349a9e63          	bne	s5,s1,11cec <__divdf3+0x58c>
   11994:	35d46c63          	bltu	s0,t4,11cec <__divdf3+0x58c>
   11998:	01fa9713          	slli	a4,s5,0x1f
   1199c:	00145793          	srli	a5,s0,0x1
   119a0:	01f41f13          	slli	t5,s0,0x1f
   119a4:	001ada93          	srli	s5,s5,0x1
   119a8:	00f76433          	or	s0,a4,a5
   119ac:	00849513          	slli	a0,s1,0x8
   119b0:	018ed693          	srli	a3,t4,0x18
   119b4:	00a6e6b3          	or	a3,a3,a0
   119b8:	01055513          	srli	a0,a0,0x10
   119bc:	02aade33          	divu	t3,s5,a0
   119c0:	01069313          	slli	t1,a3,0x10
   119c4:	01035313          	srli	t1,t1,0x10
   119c8:	01045793          	srli	a5,s0,0x10
   119cc:	008e9593          	slli	a1,t4,0x8
   119d0:	02aafab3          	remu	s5,s5,a0
   119d4:	000e0713          	mv	a4,t3
   119d8:	03c308b3          	mul	a7,t1,t3
   119dc:	010a9a93          	slli	s5,s5,0x10
   119e0:	0157e7b3          	or	a5,a5,s5
   119e4:	0117fe63          	bgeu	a5,a7,11a00 <__divdf3+0x2a0>
   119e8:	00d787b3          	add	a5,a5,a3
   119ec:	fffe0713          	addi	a4,t3,-1
   119f0:	00d7e863          	bltu	a5,a3,11a00 <__divdf3+0x2a0>
   119f4:	0117f663          	bgeu	a5,a7,11a00 <__divdf3+0x2a0>
   119f8:	ffee0713          	addi	a4,t3,-2
   119fc:	00d787b3          	add	a5,a5,a3
   11a00:	411787b3          	sub	a5,a5,a7
   11a04:	02a7de33          	divu	t3,a5,a0
   11a08:	01041413          	slli	s0,s0,0x10
   11a0c:	01045413          	srli	s0,s0,0x10
   11a10:	02a7f7b3          	remu	a5,a5,a0
   11a14:	03c308b3          	mul	a7,t1,t3
   11a18:	01079793          	slli	a5,a5,0x10
   11a1c:	00f46433          	or	s0,s0,a5
   11a20:	000e0793          	mv	a5,t3
   11a24:	01147e63          	bgeu	s0,a7,11a40 <__divdf3+0x2e0>
   11a28:	00d40433          	add	s0,s0,a3
   11a2c:	fffe0793          	addi	a5,t3,-1
   11a30:	00d46863          	bltu	s0,a3,11a40 <__divdf3+0x2e0>
   11a34:	01147663          	bgeu	s0,a7,11a40 <__divdf3+0x2e0>
   11a38:	ffee0793          	addi	a5,t3,-2
   11a3c:	00d40433          	add	s0,s0,a3
   11a40:	01071713          	slli	a4,a4,0x10
   11a44:	000103b7          	lui	t2,0x10
   11a48:	00f76fb3          	or	t6,a4,a5
   11a4c:	41140433          	sub	s0,s0,a7
   11a50:	fff38893          	addi	a7,t2,-1 # ffff <exit-0x95>
   11a54:	011ff7b3          	and	a5,t6,a7
   11a58:	010fde93          	srli	t4,t6,0x10
   11a5c:	0105de13          	srli	t3,a1,0x10
   11a60:	0115f8b3          	and	a7,a1,a7
   11a64:	02f882b3          	mul	t0,a7,a5
   11a68:	031e84b3          	mul	s1,t4,a7
   11a6c:	0102d713          	srli	a4,t0,0x10
   11a70:	02fe07b3          	mul	a5,t3,a5
   11a74:	009787b3          	add	a5,a5,s1
   11a78:	00f70733          	add	a4,a4,a5
   11a7c:	03ce8eb3          	mul	t4,t4,t3
   11a80:	00977463          	bgeu	a4,s1,11a88 <__divdf3+0x328>
   11a84:	007e8eb3          	add	t4,t4,t2
   11a88:	01075793          	srli	a5,a4,0x10
   11a8c:	01d787b3          	add	a5,a5,t4
   11a90:	00010eb7          	lui	t4,0x10
   11a94:	fffe8e93          	addi	t4,t4,-1 # ffff <exit-0x95>
   11a98:	01d77733          	and	a4,a4,t4
   11a9c:	01071713          	slli	a4,a4,0x10
   11aa0:	01d2f2b3          	and	t0,t0,t4
   11aa4:	00570733          	add	a4,a4,t0
   11aa8:	00f46863          	bltu	s0,a5,11ab8 <__divdf3+0x358>
   11aac:	000f8493          	mv	s1,t6
   11ab0:	04f41463          	bne	s0,a5,11af8 <__divdf3+0x398>
   11ab4:	04ef7263          	bgeu	t5,a4,11af8 <__divdf3+0x398>
   11ab8:	00bf0f33          	add	t5,t5,a1
   11abc:	00bf3eb3          	sltu	t4,t5,a1
   11ac0:	00de8eb3          	add	t4,t4,a3
   11ac4:	01d40433          	add	s0,s0,t4
   11ac8:	ffff8493          	addi	s1,t6,-1
   11acc:	0086e663          	bltu	a3,s0,11ad8 <__divdf3+0x378>
   11ad0:	02869463          	bne	a3,s0,11af8 <__divdf3+0x398>
   11ad4:	02bf6263          	bltu	t5,a1,11af8 <__divdf3+0x398>
   11ad8:	00f46663          	bltu	s0,a5,11ae4 <__divdf3+0x384>
   11adc:	00879e63          	bne	a5,s0,11af8 <__divdf3+0x398>
   11ae0:	00ef7c63          	bgeu	t5,a4,11af8 <__divdf3+0x398>
   11ae4:	00bf0f33          	add	t5,t5,a1
   11ae8:	00bf3eb3          	sltu	t4,t5,a1
   11aec:	00de8eb3          	add	t4,t4,a3
   11af0:	ffef8493          	addi	s1,t6,-2
   11af4:	01d40433          	add	s0,s0,t4
   11af8:	40ef0733          	sub	a4,t5,a4
   11afc:	40f40433          	sub	s0,s0,a5
   11b00:	00ef37b3          	sltu	a5,t5,a4
   11b04:	40f40433          	sub	s0,s0,a5
   11b08:	fff00e93          	li	t4,-1
   11b0c:	12868463          	beq	a3,s0,11c34 <__divdf3+0x4d4>
   11b10:	02a45fb3          	divu	t6,s0,a0
   11b14:	01075793          	srli	a5,a4,0x10
   11b18:	02a47433          	remu	s0,s0,a0
   11b1c:	000f8e93          	mv	t4,t6
   11b20:	03f30f33          	mul	t5,t1,t6
   11b24:	01041413          	slli	s0,s0,0x10
   11b28:	0087e7b3          	or	a5,a5,s0
   11b2c:	01e7fe63          	bgeu	a5,t5,11b48 <__divdf3+0x3e8>
   11b30:	00d787b3          	add	a5,a5,a3
   11b34:	ffff8e93          	addi	t4,t6,-1
   11b38:	00d7e863          	bltu	a5,a3,11b48 <__divdf3+0x3e8>
   11b3c:	01e7f663          	bgeu	a5,t5,11b48 <__divdf3+0x3e8>
   11b40:	ffef8e93          	addi	t4,t6,-2
   11b44:	00d787b3          	add	a5,a5,a3
   11b48:	41e787b3          	sub	a5,a5,t5
   11b4c:	02a7df33          	divu	t5,a5,a0
   11b50:	01071713          	slli	a4,a4,0x10
   11b54:	01075713          	srli	a4,a4,0x10
   11b58:	02a7f7b3          	remu	a5,a5,a0
   11b5c:	000f0513          	mv	a0,t5
   11b60:	03e30333          	mul	t1,t1,t5
   11b64:	01079793          	slli	a5,a5,0x10
   11b68:	00f76733          	or	a4,a4,a5
   11b6c:	00677e63          	bgeu	a4,t1,11b88 <__divdf3+0x428>
   11b70:	00d70733          	add	a4,a4,a3
   11b74:	ffff0513          	addi	a0,t5,-1
   11b78:	00d76863          	bltu	a4,a3,11b88 <__divdf3+0x428>
   11b7c:	00677663          	bgeu	a4,t1,11b88 <__divdf3+0x428>
   11b80:	ffef0513          	addi	a0,t5,-2
   11b84:	00d70733          	add	a4,a4,a3
   11b88:	010e9793          	slli	a5,t4,0x10
   11b8c:	00a7e7b3          	or	a5,a5,a0
   11b90:	01079513          	slli	a0,a5,0x10
   11b94:	01055513          	srli	a0,a0,0x10
   11b98:	40670733          	sub	a4,a4,t1
   11b9c:	0107d313          	srli	t1,a5,0x10
   11ba0:	03150eb3          	mul	t4,a0,a7
   11ba4:	031308b3          	mul	a7,t1,a7
   11ba8:	026e0333          	mul	t1,t3,t1
   11bac:	02ae0e33          	mul	t3,t3,a0
   11bb0:	010ed513          	srli	a0,t4,0x10
   11bb4:	011e0e33          	add	t3,t3,a7
   11bb8:	01c50533          	add	a0,a0,t3
   11bbc:	01157663          	bgeu	a0,a7,11bc8 <__divdf3+0x468>
   11bc0:	000108b7          	lui	a7,0x10
   11bc4:	01130333          	add	t1,t1,a7
   11bc8:	01055893          	srli	a7,a0,0x10
   11bcc:	006888b3          	add	a7,a7,t1
   11bd0:	00010337          	lui	t1,0x10
   11bd4:	fff30313          	addi	t1,t1,-1 # ffff <exit-0x95>
   11bd8:	00657533          	and	a0,a0,t1
   11bdc:	01051513          	slli	a0,a0,0x10
   11be0:	006efeb3          	and	t4,t4,t1
   11be4:	01d50533          	add	a0,a0,t4
   11be8:	01176863          	bltu	a4,a7,11bf8 <__divdf3+0x498>
   11bec:	25171463          	bne	a4,a7,11e34 <__divdf3+0x6d4>
   11bf0:	00078e93          	mv	t4,a5
   11bf4:	04050063          	beqz	a0,11c34 <__divdf3+0x4d4>
   11bf8:	00e68733          	add	a4,a3,a4
   11bfc:	fff78e93          	addi	t4,a5,-1
   11c00:	02d76463          	bltu	a4,a3,11c28 <__divdf3+0x4c8>
   11c04:	01176663          	bltu	a4,a7,11c10 <__divdf3+0x4b0>
   11c08:	23171463          	bne	a4,a7,11e30 <__divdf3+0x6d0>
   11c0c:	02a5f063          	bgeu	a1,a0,11c2c <__divdf3+0x4cc>
   11c10:	ffe78e93          	addi	t4,a5,-2
   11c14:	00159793          	slli	a5,a1,0x1
   11c18:	00b7b5b3          	sltu	a1,a5,a1
   11c1c:	00d585b3          	add	a1,a1,a3
   11c20:	00b70733          	add	a4,a4,a1
   11c24:	00078593          	mv	a1,a5
   11c28:	01171463          	bne	a4,a7,11c30 <__divdf3+0x4d0>
   11c2c:	00b50463          	beq	a0,a1,11c34 <__divdf3+0x4d4>
   11c30:	001eee93          	ori	t4,t4,1
   11c34:	3ff80793          	addi	a5,a6,1023
   11c38:	10f05a63          	blez	a5,11d4c <__divdf3+0x5ec>
   11c3c:	007ef713          	andi	a4,t4,7
   11c40:	02070063          	beqz	a4,11c60 <__divdf3+0x500>
   11c44:	00fef713          	andi	a4,t4,15
   11c48:	00400693          	li	a3,4
   11c4c:	00d70a63          	beq	a4,a3,11c60 <__divdf3+0x500>
   11c50:	004e8713          	addi	a4,t4,4
   11c54:	01d73eb3          	sltu	t4,a4,t4
   11c58:	01d484b3          	add	s1,s1,t4
   11c5c:	00070e93          	mv	t4,a4
   11c60:	01000737          	lui	a4,0x1000
   11c64:	00e4f733          	and	a4,s1,a4
   11c68:	00070a63          	beqz	a4,11c7c <__divdf3+0x51c>
   11c6c:	ff0007b7          	lui	a5,0xff000
   11c70:	fff78793          	addi	a5,a5,-1 # feffffff <__global_pointer$+0xfefeb4ff>
   11c74:	00f4f4b3          	and	s1,s1,a5
   11c78:	40080793          	addi	a5,a6,1024
   11c7c:	7fe00713          	li	a4,2046
   11c80:	0af74063          	blt	a4,a5,11d20 <__divdf3+0x5c0>
   11c84:	003ede93          	srli	t4,t4,0x3
   11c88:	01d49713          	slli	a4,s1,0x1d
   11c8c:	01d76733          	or	a4,a4,t4
   11c90:	0034d513          	srli	a0,s1,0x3
   11c94:	7ff006b7          	lui	a3,0x7ff00
   11c98:	01479793          	slli	a5,a5,0x14
   11c9c:	00c51513          	slli	a0,a0,0xc
   11ca0:	02c12083          	lw	ra,44(sp)
   11ca4:	02812403          	lw	s0,40(sp)
   11ca8:	00d7f7b3          	and	a5,a5,a3
   11cac:	00c55513          	srli	a0,a0,0xc
   11cb0:	00a7e7b3          	or	a5,a5,a0
   11cb4:	01f61613          	slli	a2,a2,0x1f
   11cb8:	00c7e6b3          	or	a3,a5,a2
   11cbc:	02412483          	lw	s1,36(sp)
   11cc0:	02012903          	lw	s2,32(sp)
   11cc4:	01c12983          	lw	s3,28(sp)
   11cc8:	01812a03          	lw	s4,24(sp)
   11ccc:	01412a83          	lw	s5,20(sp)
   11cd0:	01012b03          	lw	s6,16(sp)
   11cd4:	00c12b83          	lw	s7,12(sp)
   11cd8:	00812c03          	lw	s8,8(sp)
   11cdc:	00070513          	mv	a0,a4
   11ce0:	00068593          	mv	a1,a3
   11ce4:	03010113          	addi	sp,sp,48
   11ce8:	00008067          	ret
   11cec:	fff80813          	addi	a6,a6,-1
   11cf0:	00000f13          	li	t5,0
   11cf4:	cb9ff06f          	j	119ac <__divdf3+0x24c>
   11cf8:	00098613          	mv	a2,s3
   11cfc:	000a8493          	mv	s1,s5
   11d00:	00040e93          	mv	t4,s0
   11d04:	000b8713          	mv	a4,s7
   11d08:	00300793          	li	a5,3
   11d0c:	10f70063          	beq	a4,a5,11e0c <__divdf3+0x6ac>
   11d10:	00100793          	li	a5,1
   11d14:	0ef70663          	beq	a4,a5,11e00 <__divdf3+0x6a0>
   11d18:	00200793          	li	a5,2
   11d1c:	f0f71ce3          	bne	a4,a5,11c34 <__divdf3+0x4d4>
   11d20:	00000513          	li	a0,0
   11d24:	00000713          	li	a4,0
   11d28:	7ff00793          	li	a5,2047
   11d2c:	f69ff06f          	j	11c94 <__divdf3+0x534>
   11d30:	000c0613          	mv	a2,s8
   11d34:	fd5ff06f          	j	11d08 <__divdf3+0x5a8>
   11d38:	000804b7          	lui	s1,0x80
   11d3c:	00000e93          	li	t4,0
   11d40:	00000613          	li	a2,0
   11d44:	00300713          	li	a4,3
   11d48:	fc1ff06f          	j	11d08 <__divdf3+0x5a8>
   11d4c:	00100513          	li	a0,1
   11d50:	40f50533          	sub	a0,a0,a5
   11d54:	03800713          	li	a4,56
   11d58:	0aa74463          	blt	a4,a0,11e00 <__divdf3+0x6a0>
   11d5c:	01f00713          	li	a4,31
   11d60:	06a74663          	blt	a4,a0,11dcc <__divdf3+0x66c>
   11d64:	41e80813          	addi	a6,a6,1054
   11d68:	010497b3          	sll	a5,s1,a6
   11d6c:	00aed733          	srl	a4,t4,a0
   11d70:	010e9833          	sll	a6,t4,a6
   11d74:	00e7e7b3          	or	a5,a5,a4
   11d78:	01003833          	snez	a6,a6
   11d7c:	0107e7b3          	or	a5,a5,a6
   11d80:	00a4d533          	srl	a0,s1,a0
   11d84:	0077f713          	andi	a4,a5,7
   11d88:	02070063          	beqz	a4,11da8 <__divdf3+0x648>
   11d8c:	00f7f713          	andi	a4,a5,15
   11d90:	00400693          	li	a3,4
   11d94:	00d70a63          	beq	a4,a3,11da8 <__divdf3+0x648>
   11d98:	00478713          	addi	a4,a5,4
   11d9c:	00f737b3          	sltu	a5,a4,a5
   11da0:	00f50533          	add	a0,a0,a5
   11da4:	00070793          	mv	a5,a4
   11da8:	00800737          	lui	a4,0x800
   11dac:	00e57733          	and	a4,a0,a4
   11db0:	06071863          	bnez	a4,11e20 <__divdf3+0x6c0>
   11db4:	01d51713          	slli	a4,a0,0x1d
   11db8:	0037d793          	srli	a5,a5,0x3
   11dbc:	00f76733          	or	a4,a4,a5
   11dc0:	00355513          	srli	a0,a0,0x3
   11dc4:	00000793          	li	a5,0
   11dc8:	ecdff06f          	j	11c94 <__divdf3+0x534>
   11dcc:	fe100713          	li	a4,-31
   11dd0:	40f707b3          	sub	a5,a4,a5
   11dd4:	02000693          	li	a3,32
   11dd8:	00f4d7b3          	srl	a5,s1,a5
   11ddc:	00000713          	li	a4,0
   11de0:	00d50663          	beq	a0,a3,11dec <__divdf3+0x68c>
   11de4:	43e80713          	addi	a4,a6,1086
   11de8:	00e49733          	sll	a4,s1,a4
   11dec:	01d76733          	or	a4,a4,t4
   11df0:	00e03733          	snez	a4,a4
   11df4:	00e7e7b3          	or	a5,a5,a4
   11df8:	00000513          	li	a0,0
   11dfc:	f89ff06f          	j	11d84 <__divdf3+0x624>
   11e00:	00000513          	li	a0,0
   11e04:	00000713          	li	a4,0
   11e08:	fbdff06f          	j	11dc4 <__divdf3+0x664>
   11e0c:	00080537          	lui	a0,0x80
   11e10:	00000713          	li	a4,0
   11e14:	7ff00793          	li	a5,2047
   11e18:	00000613          	li	a2,0
   11e1c:	e79ff06f          	j	11c94 <__divdf3+0x534>
   11e20:	00000513          	li	a0,0
   11e24:	00000713          	li	a4,0
   11e28:	00100793          	li	a5,1
   11e2c:	e69ff06f          	j	11c94 <__divdf3+0x534>
   11e30:	000e8793          	mv	a5,t4
   11e34:	00078e93          	mv	t4,a5
   11e38:	df9ff06f          	j	11c30 <__divdf3+0x4d0>

00011e3c <__ledf2>:
   11e3c:	00100737          	lui	a4,0x100
   11e40:	fff70713          	addi	a4,a4,-1 # fffff <__global_pointer$+0xeb4ff>
   11e44:	0145d813          	srli	a6,a1,0x14
   11e48:	00b778b3          	and	a7,a4,a1
   11e4c:	00050793          	mv	a5,a0
   11e50:	00050313          	mv	t1,a0
   11e54:	7ff87813          	andi	a6,a6,2047
   11e58:	01f5d513          	srli	a0,a1,0x1f
   11e5c:	7ff00e93          	li	t4,2047
   11e60:	0146d593          	srli	a1,a3,0x14
   11e64:	00d77733          	and	a4,a4,a3
   11e68:	00060e13          	mv	t3,a2
   11e6c:	7ff5f593          	andi	a1,a1,2047
   11e70:	01f6d693          	srli	a3,a3,0x1f
   11e74:	01d81a63          	bne	a6,t4,11e88 <__ledf2+0x4c>
   11e78:	00f8eeb3          	or	t4,a7,a5
   11e7c:	080e8a63          	beqz	t4,11f10 <__ledf2+0xd4>
   11e80:	00200513          	li	a0,2
   11e84:	00008067          	ret
   11e88:	01d59663          	bne	a1,t4,11e94 <__ledf2+0x58>
   11e8c:	00c76eb3          	or	t4,a4,a2
   11e90:	fe0e98e3          	bnez	t4,11e80 <__ledf2+0x44>
   11e94:	08081063          	bnez	a6,11f14 <__ledf2+0xd8>
   11e98:	00f8e7b3          	or	a5,a7,a5
   11e9c:	0017b793          	seqz	a5,a5
   11ea0:	00059663          	bnez	a1,11eac <__ledf2+0x70>
   11ea4:	00c76633          	or	a2,a4,a2
   11ea8:	04060c63          	beqz	a2,11f00 <__ledf2+0xc4>
   11eac:	00079c63          	bnez	a5,11ec4 <__ledf2+0x88>
   11eb0:	00d51463          	bne	a0,a3,11eb8 <__ledf2+0x7c>
   11eb4:	0305d063          	bge	a1,a6,11ed4 <__ledf2+0x98>
   11eb8:	04050063          	beqz	a0,11ef8 <__ledf2+0xbc>
   11ebc:	fff00513          	li	a0,-1
   11ec0:	00008067          	ret
   11ec4:	fff00513          	li	a0,-1
   11ec8:	00068a63          	beqz	a3,11edc <__ledf2+0xa0>
   11ecc:	00068513          	mv	a0,a3
   11ed0:	00008067          	ret
   11ed4:	00b85663          	bge	a6,a1,11ee0 <__ledf2+0xa4>
   11ed8:	fe0502e3          	beqz	a0,11ebc <__ledf2+0x80>
   11edc:	00008067          	ret
   11ee0:	fd176ce3          	bltu	a4,a7,11eb8 <__ledf2+0x7c>
   11ee4:	02e89263          	bne	a7,a4,11f08 <__ledf2+0xcc>
   11ee8:	fc6e68e3          	bltu	t3,t1,11eb8 <__ledf2+0x7c>
   11eec:	ffc366e3          	bltu	t1,t3,11ed8 <__ledf2+0x9c>
   11ef0:	00000513          	li	a0,0
   11ef4:	00008067          	ret
   11ef8:	00100513          	li	a0,1
   11efc:	00008067          	ret
   11f00:	fe0798e3          	bnez	a5,11ef0 <__ledf2+0xb4>
   11f04:	fb5ff06f          	j	11eb8 <__ledf2+0x7c>
   11f08:	fce8e8e3          	bltu	a7,a4,11ed8 <__ledf2+0x9c>
   11f0c:	fe5ff06f          	j	11ef0 <__ledf2+0xb4>
   11f10:	f7058ee3          	beq	a1,a6,11e8c <__ledf2+0x50>
   11f14:	f8059ee3          	bnez	a1,11eb0 <__ledf2+0x74>
   11f18:	00000793          	li	a5,0
   11f1c:	f89ff06f          	j	11ea4 <__ledf2+0x68>

00011f20 <__muldf3>:
   11f20:	fd010113          	addi	sp,sp,-48
   11f24:	01312e23          	sw	s3,28(sp)
   11f28:	0145d993          	srli	s3,a1,0x14
   11f2c:	02812423          	sw	s0,40(sp)
   11f30:	02912223          	sw	s1,36(sp)
   11f34:	01412c23          	sw	s4,24(sp)
   11f38:	01512a23          	sw	s5,20(sp)
   11f3c:	01712623          	sw	s7,12(sp)
   11f40:	00c59493          	slli	s1,a1,0xc
   11f44:	02112623          	sw	ra,44(sp)
   11f48:	03212023          	sw	s2,32(sp)
   11f4c:	01612823          	sw	s6,16(sp)
   11f50:	7ff9f993          	andi	s3,s3,2047
   11f54:	00050413          	mv	s0,a0
   11f58:	00060b93          	mv	s7,a2
   11f5c:	00068a93          	mv	s5,a3
   11f60:	00c4d493          	srli	s1,s1,0xc
   11f64:	01f5da13          	srli	s4,a1,0x1f
   11f68:	30098863          	beqz	s3,12278 <__muldf3+0x358>
   11f6c:	7ff00793          	li	a5,2047
   11f70:	36f98663          	beq	s3,a5,122dc <__muldf3+0x3bc>
   11f74:	00349493          	slli	s1,s1,0x3
   11f78:	01d55793          	srli	a5,a0,0x1d
   11f7c:	0097e7b3          	or	a5,a5,s1
   11f80:	008004b7          	lui	s1,0x800
   11f84:	0097e4b3          	or	s1,a5,s1
   11f88:	00351913          	slli	s2,a0,0x3
   11f8c:	c0198993          	addi	s3,s3,-1023
   11f90:	00000b13          	li	s6,0
   11f94:	014ad713          	srli	a4,s5,0x14
   11f98:	00ca9413          	slli	s0,s5,0xc
   11f9c:	7ff77713          	andi	a4,a4,2047
   11fa0:	00c45413          	srli	s0,s0,0xc
   11fa4:	01fada93          	srli	s5,s5,0x1f
   11fa8:	36070663          	beqz	a4,12314 <__muldf3+0x3f4>
   11fac:	7ff00793          	li	a5,2047
   11fb0:	3cf70663          	beq	a4,a5,1237c <__muldf3+0x45c>
   11fb4:	00341413          	slli	s0,s0,0x3
   11fb8:	01dbd793          	srli	a5,s7,0x1d
   11fbc:	0087e7b3          	or	a5,a5,s0
   11fc0:	00800437          	lui	s0,0x800
   11fc4:	0087e433          	or	s0,a5,s0
   11fc8:	c0170713          	addi	a4,a4,-1023
   11fcc:	003b9793          	slli	a5,s7,0x3
   11fd0:	00000513          	li	a0,0
   11fd4:	00e989b3          	add	s3,s3,a4
   11fd8:	002b1713          	slli	a4,s6,0x2
   11fdc:	00a76733          	or	a4,a4,a0
   11fe0:	00a00693          	li	a3,10
   11fe4:	015a4633          	xor	a2,s4,s5
   11fe8:	00198593          	addi	a1,s3,1
   11fec:	40e6c863          	blt	a3,a4,123fc <__muldf3+0x4dc>
   11ff0:	00200693          	li	a3,2
   11ff4:	3ce6c063          	blt	a3,a4,123b4 <__muldf3+0x494>
   11ff8:	fff70713          	addi	a4,a4,-1
   11ffc:	00100693          	li	a3,1
   12000:	3ce6fc63          	bgeu	a3,a4,123d8 <__muldf3+0x4b8>
   12004:	00010e37          	lui	t3,0x10
   12008:	fffe0313          	addi	t1,t3,-1 # ffff <exit-0x95>
   1200c:	01095813          	srli	a6,s2,0x10
   12010:	0107d513          	srli	a0,a5,0x10
   12014:	00697933          	and	s2,s2,t1
   12018:	0067feb3          	and	t4,a5,t1
   1201c:	03d907b3          	mul	a5,s2,t4
   12020:	03d80f33          	mul	t5,a6,t4
   12024:	0107d713          	srli	a4,a5,0x10
   12028:	032506b3          	mul	a3,a0,s2
   1202c:	01e686b3          	add	a3,a3,t5
   12030:	00d70733          	add	a4,a4,a3
   12034:	02a808b3          	mul	a7,a6,a0
   12038:	01e77463          	bgeu	a4,t5,12040 <__muldf3+0x120>
   1203c:	01c888b3          	add	a7,a7,t3
   12040:	006776b3          	and	a3,a4,t1
   12044:	0067f7b3          	and	a5,a5,t1
   12048:	01069693          	slli	a3,a3,0x10
   1204c:	00647e33          	and	t3,s0,t1
   12050:	00f686b3          	add	a3,a3,a5
   12054:	01045793          	srli	a5,s0,0x10
   12058:	01075293          	srli	t0,a4,0x10
   1205c:	03c90f33          	mul	t5,s2,t3
   12060:	03c80333          	mul	t1,a6,t3
   12064:	010f5713          	srli	a4,t5,0x10
   12068:	03278933          	mul	s2,a5,s2
   1206c:	00690933          	add	s2,s2,t1
   12070:	01270733          	add	a4,a4,s2
   12074:	02f80833          	mul	a6,a6,a5
   12078:	00677663          	bgeu	a4,t1,12084 <__muldf3+0x164>
   1207c:	00010337          	lui	t1,0x10
   12080:	00680833          	add	a6,a6,t1
   12084:	00010937          	lui	s2,0x10
   12088:	fff90f93          	addi	t6,s2,-1 # ffff <exit-0x95>
   1208c:	01075313          	srli	t1,a4,0x10
   12090:	01ff7f33          	and	t5,t5,t6
   12094:	01f77733          	and	a4,a4,t6
   12098:	0104d413          	srli	s0,s1,0x10
   1209c:	01f4ffb3          	and	t6,s1,t6
   120a0:	03fe83b3          	mul	t2,t4,t6
   120a4:	01030333          	add	t1,t1,a6
   120a8:	01071713          	slli	a4,a4,0x10
   120ac:	01e70f33          	add	t5,a4,t5
   120b0:	01e282b3          	add	t0,t0,t5
   120b4:	03d40833          	mul	a6,s0,t4
   120b8:	0103d713          	srli	a4,t2,0x10
   120bc:	028504b3          	mul	s1,a0,s0
   120c0:	03f50533          	mul	a0,a0,t6
   120c4:	01050533          	add	a0,a0,a6
   120c8:	00a70733          	add	a4,a4,a0
   120cc:	01077463          	bgeu	a4,a6,120d4 <__muldf3+0x1b4>
   120d0:	012484b3          	add	s1,s1,s2
   120d4:	01075e93          	srli	t4,a4,0x10
   120d8:	009e8eb3          	add	t4,t4,s1
   120dc:	000104b7          	lui	s1,0x10
   120e0:	fff48513          	addi	a0,s1,-1 # ffff <exit-0x95>
   120e4:	00a77733          	and	a4,a4,a0
   120e8:	00a3f3b3          	and	t2,t2,a0
   120ec:	01071713          	slli	a4,a4,0x10
   120f0:	03c40533          	mul	a0,s0,t3
   120f4:	00770733          	add	a4,a4,t2
   120f8:	02878833          	mul	a6,a5,s0
   120fc:	03fe03b3          	mul	t2,t3,t6
   12100:	03f787b3          	mul	a5,a5,t6
   12104:	0103df93          	srli	t6,t2,0x10
   12108:	00a787b3          	add	a5,a5,a0
   1210c:	00ff8fb3          	add	t6,t6,a5
   12110:	00aff463          	bgeu	t6,a0,12118 <__muldf3+0x1f8>
   12114:	00980833          	add	a6,a6,s1
   12118:	00010537          	lui	a0,0x10
   1211c:	fff50513          	addi	a0,a0,-1 # ffff <exit-0x95>
   12120:	00aff7b3          	and	a5,t6,a0
   12124:	00a3f3b3          	and	t2,t2,a0
   12128:	01079793          	slli	a5,a5,0x10
   1212c:	005888b3          	add	a7,a7,t0
   12130:	007787b3          	add	a5,a5,t2
   12134:	01e8bf33          	sltu	t5,a7,t5
   12138:	006787b3          	add	a5,a5,t1
   1213c:	01e782b3          	add	t0,a5,t5
   12140:	00e888b3          	add	a7,a7,a4
   12144:	00e8b733          	sltu	a4,a7,a4
   12148:	01d28533          	add	a0,t0,t4
   1214c:	00e50e33          	add	t3,a0,a4
   12150:	0067b433          	sltu	s0,a5,t1
   12154:	01e2b2b3          	sltu	t0,t0,t5
   12158:	010fd793          	srli	a5,t6,0x10
   1215c:	00ee3733          	sltu	a4,t3,a4
   12160:	00546433          	or	s0,s0,t0
   12164:	01d53533          	sltu	a0,a0,t4
   12168:	00f40433          	add	s0,s0,a5
   1216c:	00e56533          	or	a0,a0,a4
   12170:	00a40433          	add	s0,s0,a0
   12174:	01040433          	add	s0,s0,a6
   12178:	017e5793          	srli	a5,t3,0x17
   1217c:	00941413          	slli	s0,s0,0x9
   12180:	00f46433          	or	s0,s0,a5
   12184:	00989793          	slli	a5,a7,0x9
   12188:	00d7e7b3          	or	a5,a5,a3
   1218c:	00f037b3          	snez	a5,a5
   12190:	0178d893          	srli	a7,a7,0x17
   12194:	009e1713          	slli	a4,t3,0x9
   12198:	0117e7b3          	or	a5,a5,a7
   1219c:	00e7e7b3          	or	a5,a5,a4
   121a0:	01000737          	lui	a4,0x1000
   121a4:	00e47733          	and	a4,s0,a4
   121a8:	28070663          	beqz	a4,12434 <__muldf3+0x514>
   121ac:	0017d713          	srli	a4,a5,0x1
   121b0:	0017f793          	andi	a5,a5,1
   121b4:	00f76733          	or	a4,a4,a5
   121b8:	01f41793          	slli	a5,s0,0x1f
   121bc:	00f767b3          	or	a5,a4,a5
   121c0:	00145413          	srli	s0,s0,0x1
   121c4:	3ff58693          	addi	a3,a1,1023 # 8003ff <__global_pointer$+0x7eb8ff>
   121c8:	26d05a63          	blez	a3,1243c <__muldf3+0x51c>
   121cc:	0077f713          	andi	a4,a5,7
   121d0:	02070063          	beqz	a4,121f0 <__muldf3+0x2d0>
   121d4:	00f7f713          	andi	a4,a5,15
   121d8:	00400513          	li	a0,4
   121dc:	00a70a63          	beq	a4,a0,121f0 <__muldf3+0x2d0>
   121e0:	00478713          	addi	a4,a5,4
   121e4:	00f737b3          	sltu	a5,a4,a5
   121e8:	00f40433          	add	s0,s0,a5
   121ec:	00070793          	mv	a5,a4
   121f0:	01000737          	lui	a4,0x1000
   121f4:	00e47733          	and	a4,s0,a4
   121f8:	00070a63          	beqz	a4,1220c <__muldf3+0x2ec>
   121fc:	ff000737          	lui	a4,0xff000
   12200:	fff70713          	addi	a4,a4,-1 # feffffff <__global_pointer$+0xfefeb4ff>
   12204:	00e47433          	and	s0,s0,a4
   12208:	40058693          	addi	a3,a1,1024
   1220c:	7fe00713          	li	a4,2046
   12210:	2ed74e63          	blt	a4,a3,1250c <__muldf3+0x5ec>
   12214:	01d41713          	slli	a4,s0,0x1d
   12218:	0037d793          	srli	a5,a5,0x3
   1221c:	00f76733          	or	a4,a4,a5
   12220:	00345413          	srli	s0,s0,0x3
   12224:	7ff007b7          	lui	a5,0x7ff00
   12228:	01469693          	slli	a3,a3,0x14
   1222c:	00c41413          	slli	s0,s0,0xc
   12230:	00f6f6b3          	and	a3,a3,a5
   12234:	00c45413          	srli	s0,s0,0xc
   12238:	02c12083          	lw	ra,44(sp)
   1223c:	0086e6b3          	or	a3,a3,s0
   12240:	02812403          	lw	s0,40(sp)
   12244:	01f61613          	slli	a2,a2,0x1f
   12248:	00c6e7b3          	or	a5,a3,a2
   1224c:	02412483          	lw	s1,36(sp)
   12250:	02012903          	lw	s2,32(sp)
   12254:	01c12983          	lw	s3,28(sp)
   12258:	01812a03          	lw	s4,24(sp)
   1225c:	01412a83          	lw	s5,20(sp)
   12260:	01012b03          	lw	s6,16(sp)
   12264:	00c12b83          	lw	s7,12(sp)
   12268:	00070513          	mv	a0,a4
   1226c:	00078593          	mv	a1,a5
   12270:	03010113          	addi	sp,sp,48
   12274:	00008067          	ret
   12278:	00a4e933          	or	s2,s1,a0
   1227c:	06090c63          	beqz	s2,122f4 <__muldf3+0x3d4>
   12280:	04048063          	beqz	s1,122c0 <__muldf3+0x3a0>
   12284:	00048513          	mv	a0,s1
   12288:	2e1000ef          	jal	ra,12d68 <__clzsi2>
   1228c:	ff550713          	addi	a4,a0,-11
   12290:	01c00793          	li	a5,28
   12294:	02e7cc63          	blt	a5,a4,122cc <__muldf3+0x3ac>
   12298:	01d00793          	li	a5,29
   1229c:	ff850913          	addi	s2,a0,-8
   122a0:	40e787b3          	sub	a5,a5,a4
   122a4:	012494b3          	sll	s1,s1,s2
   122a8:	00f457b3          	srl	a5,s0,a5
   122ac:	0097e4b3          	or	s1,a5,s1
   122b0:	01241933          	sll	s2,s0,s2
   122b4:	c0d00993          	li	s3,-1011
   122b8:	40a989b3          	sub	s3,s3,a0
   122bc:	cd5ff06f          	j	11f90 <__muldf3+0x70>
   122c0:	2a9000ef          	jal	ra,12d68 <__clzsi2>
   122c4:	02050513          	addi	a0,a0,32
   122c8:	fc5ff06f          	j	1228c <__muldf3+0x36c>
   122cc:	fd850493          	addi	s1,a0,-40
   122d0:	009414b3          	sll	s1,s0,s1
   122d4:	00000913          	li	s2,0
   122d8:	fddff06f          	j	122b4 <__muldf3+0x394>
   122dc:	00a4e933          	or	s2,s1,a0
   122e0:	02090263          	beqz	s2,12304 <__muldf3+0x3e4>
   122e4:	00050913          	mv	s2,a0
   122e8:	7ff00993          	li	s3,2047
   122ec:	00300b13          	li	s6,3
   122f0:	ca5ff06f          	j	11f94 <__muldf3+0x74>
   122f4:	00000493          	li	s1,0
   122f8:	00000993          	li	s3,0
   122fc:	00100b13          	li	s6,1
   12300:	c95ff06f          	j	11f94 <__muldf3+0x74>
   12304:	00000493          	li	s1,0
   12308:	7ff00993          	li	s3,2047
   1230c:	00200b13          	li	s6,2
   12310:	c85ff06f          	j	11f94 <__muldf3+0x74>
   12314:	017467b3          	or	a5,s0,s7
   12318:	06078e63          	beqz	a5,12394 <__muldf3+0x474>
   1231c:	04040063          	beqz	s0,1235c <__muldf3+0x43c>
   12320:	00040513          	mv	a0,s0
   12324:	245000ef          	jal	ra,12d68 <__clzsi2>
   12328:	ff550693          	addi	a3,a0,-11
   1232c:	01c00793          	li	a5,28
   12330:	02d7ce63          	blt	a5,a3,1236c <__muldf3+0x44c>
   12334:	01d00713          	li	a4,29
   12338:	ff850793          	addi	a5,a0,-8
   1233c:	40d70733          	sub	a4,a4,a3
   12340:	00f41433          	sll	s0,s0,a5
   12344:	00ebd733          	srl	a4,s7,a4
   12348:	00876433          	or	s0,a4,s0
   1234c:	00fb97b3          	sll	a5,s7,a5
   12350:	c0d00713          	li	a4,-1011
   12354:	40a70733          	sub	a4,a4,a0
   12358:	c79ff06f          	j	11fd0 <__muldf3+0xb0>
   1235c:	000b8513          	mv	a0,s7
   12360:	209000ef          	jal	ra,12d68 <__clzsi2>
   12364:	02050513          	addi	a0,a0,32
   12368:	fc1ff06f          	j	12328 <__muldf3+0x408>
   1236c:	fd850413          	addi	s0,a0,-40
   12370:	008b9433          	sll	s0,s7,s0
   12374:	00000793          	li	a5,0
   12378:	fd9ff06f          	j	12350 <__muldf3+0x430>
   1237c:	017467b3          	or	a5,s0,s7
   12380:	02078263          	beqz	a5,123a4 <__muldf3+0x484>
   12384:	000b8793          	mv	a5,s7
   12388:	7ff00713          	li	a4,2047
   1238c:	00300513          	li	a0,3
   12390:	c45ff06f          	j	11fd4 <__muldf3+0xb4>
   12394:	00000413          	li	s0,0
   12398:	00000713          	li	a4,0
   1239c:	00100513          	li	a0,1
   123a0:	c35ff06f          	j	11fd4 <__muldf3+0xb4>
   123a4:	00000413          	li	s0,0
   123a8:	7ff00713          	li	a4,2047
   123ac:	00200513          	li	a0,2
   123b0:	c25ff06f          	j	11fd4 <__muldf3+0xb4>
   123b4:	00100693          	li	a3,1
   123b8:	00e696b3          	sll	a3,a3,a4
   123bc:	5306f713          	andi	a4,a3,1328
   123c0:	04071863          	bnez	a4,12410 <__muldf3+0x4f0>
   123c4:	2406f813          	andi	a6,a3,576
   123c8:	12081463          	bnez	a6,124f0 <__muldf3+0x5d0>
   123cc:	0886f693          	andi	a3,a3,136
   123d0:	c2068ae3          	beqz	a3,12004 <__muldf3+0xe4>
   123d4:	000a8613          	mv	a2,s5
   123d8:	00200713          	li	a4,2
   123dc:	12e50863          	beq	a0,a4,1250c <__muldf3+0x5ec>
   123e0:	00300713          	li	a4,3
   123e4:	10e50e63          	beq	a0,a4,12500 <__muldf3+0x5e0>
   123e8:	00100713          	li	a4,1
   123ec:	dce51ce3          	bne	a0,a4,121c4 <__muldf3+0x2a4>
   123f0:	00000413          	li	s0,0
   123f4:	00000713          	li	a4,0
   123f8:	0bc0006f          	j	124b4 <__muldf3+0x594>
   123fc:	00f00693          	li	a3,15
   12400:	02d70063          	beq	a4,a3,12420 <__muldf3+0x500>
   12404:	00b00693          	li	a3,11
   12408:	fcd706e3          	beq	a4,a3,123d4 <__muldf3+0x4b4>
   1240c:	000a0613          	mv	a2,s4
   12410:	00048413          	mv	s0,s1
   12414:	00090793          	mv	a5,s2
   12418:	000b0513          	mv	a0,s6
   1241c:	fbdff06f          	j	123d8 <__muldf3+0x4b8>
   12420:	00080437          	lui	s0,0x80
   12424:	00000793          	li	a5,0
   12428:	00000613          	li	a2,0
   1242c:	00300513          	li	a0,3
   12430:	fb1ff06f          	j	123e0 <__muldf3+0x4c0>
   12434:	00098593          	mv	a1,s3
   12438:	d8dff06f          	j	121c4 <__muldf3+0x2a4>
   1243c:	00100513          	li	a0,1
   12440:	40d50533          	sub	a0,a0,a3
   12444:	03800713          	li	a4,56
   12448:	faa744e3          	blt	a4,a0,123f0 <__muldf3+0x4d0>
   1244c:	01f00713          	li	a4,31
   12450:	06a74663          	blt	a4,a0,124bc <__muldf3+0x59c>
   12454:	41e58593          	addi	a1,a1,1054
   12458:	00b41733          	sll	a4,s0,a1
   1245c:	00a7d6b3          	srl	a3,a5,a0
   12460:	00b795b3          	sll	a1,a5,a1
   12464:	00d76733          	or	a4,a4,a3
   12468:	00b035b3          	snez	a1,a1
   1246c:	00b767b3          	or	a5,a4,a1
   12470:	00a45433          	srl	s0,s0,a0
   12474:	0077f713          	andi	a4,a5,7
   12478:	02070063          	beqz	a4,12498 <__muldf3+0x578>
   1247c:	00f7f713          	andi	a4,a5,15
   12480:	00400693          	li	a3,4
   12484:	00d70a63          	beq	a4,a3,12498 <__muldf3+0x578>
   12488:	00478713          	addi	a4,a5,4 # 7ff00004 <__global_pointer$+0x7feeb504>
   1248c:	00f737b3          	sltu	a5,a4,a5
   12490:	00f40433          	add	s0,s0,a5
   12494:	00070793          	mv	a5,a4
   12498:	00800737          	lui	a4,0x800
   1249c:	00e47733          	and	a4,s0,a4
   124a0:	06071e63          	bnez	a4,1251c <__muldf3+0x5fc>
   124a4:	01d41713          	slli	a4,s0,0x1d
   124a8:	0037d793          	srli	a5,a5,0x3
   124ac:	00f76733          	or	a4,a4,a5
   124b0:	00345413          	srli	s0,s0,0x3
   124b4:	00000693          	li	a3,0
   124b8:	d6dff06f          	j	12224 <__muldf3+0x304>
   124bc:	fe100713          	li	a4,-31
   124c0:	40d70733          	sub	a4,a4,a3
   124c4:	02000813          	li	a6,32
   124c8:	00e45733          	srl	a4,s0,a4
   124cc:	00000693          	li	a3,0
   124d0:	01050663          	beq	a0,a6,124dc <__muldf3+0x5bc>
   124d4:	43e58593          	addi	a1,a1,1086
   124d8:	00b416b3          	sll	a3,s0,a1
   124dc:	00f6e6b3          	or	a3,a3,a5
   124e0:	00d036b3          	snez	a3,a3
   124e4:	00d767b3          	or	a5,a4,a3
   124e8:	00000413          	li	s0,0
   124ec:	f89ff06f          	j	12474 <__muldf3+0x554>
   124f0:	00080437          	lui	s0,0x80
   124f4:	7ff00693          	li	a3,2047
   124f8:	00000613          	li	a2,0
   124fc:	d29ff06f          	j	12224 <__muldf3+0x304>
   12500:	00080437          	lui	s0,0x80
   12504:	00000713          	li	a4,0
   12508:	fedff06f          	j	124f4 <__muldf3+0x5d4>
   1250c:	00000413          	li	s0,0
   12510:	00000713          	li	a4,0
   12514:	7ff00693          	li	a3,2047
   12518:	d0dff06f          	j	12224 <__muldf3+0x304>
   1251c:	00000413          	li	s0,0
   12520:	00000713          	li	a4,0
   12524:	00100693          	li	a3,1
   12528:	cfdff06f          	j	12224 <__muldf3+0x304>

0001252c <__subdf3>:
   1252c:	00100837          	lui	a6,0x100
   12530:	fff80813          	addi	a6,a6,-1 # fffff <__global_pointer$+0xeb4ff>
   12534:	fe010113          	addi	sp,sp,-32
   12538:	00b878b3          	and	a7,a6,a1
   1253c:	0145d713          	srli	a4,a1,0x14
   12540:	01d55793          	srli	a5,a0,0x1d
   12544:	00d87833          	and	a6,a6,a3
   12548:	00812c23          	sw	s0,24(sp)
   1254c:	7ff77413          	andi	s0,a4,2047
   12550:	00389713          	slli	a4,a7,0x3
   12554:	0146d893          	srli	a7,a3,0x14
   12558:	00912a23          	sw	s1,20(sp)
   1255c:	00e7e7b3          	or	a5,a5,a4
   12560:	01f5d493          	srli	s1,a1,0x1f
   12564:	01d65713          	srli	a4,a2,0x1d
   12568:	00381813          	slli	a6,a6,0x3
   1256c:	00112e23          	sw	ra,28(sp)
   12570:	01212823          	sw	s2,16(sp)
   12574:	01312623          	sw	s3,12(sp)
   12578:	7ff8f893          	andi	a7,a7,2047
   1257c:	7ff00593          	li	a1,2047
   12580:	00351513          	slli	a0,a0,0x3
   12584:	01f6d693          	srli	a3,a3,0x1f
   12588:	01076733          	or	a4,a4,a6
   1258c:	00361613          	slli	a2,a2,0x3
   12590:	00b89663          	bne	a7,a1,1259c <__subdf3+0x70>
   12594:	00c765b3          	or	a1,a4,a2
   12598:	00059463          	bnez	a1,125a0 <__subdf3+0x74>
   1259c:	0016c693          	xori	a3,a3,1
   125a0:	41140833          	sub	a6,s0,a7
   125a4:	2c969863          	bne	a3,s1,12874 <__subdf3+0x348>
   125a8:	13005063          	blez	a6,126c8 <__subdf3+0x19c>
   125ac:	04089063          	bnez	a7,125ec <__subdf3+0xc0>
   125b0:	00c766b3          	or	a3,a4,a2
   125b4:	70068e63          	beqz	a3,12cd0 <__subdf3+0x7a4>
   125b8:	fff80593          	addi	a1,a6,-1
   125bc:	02059063          	bnez	a1,125dc <__subdf3+0xb0>
   125c0:	00c50633          	add	a2,a0,a2
   125c4:	00e78733          	add	a4,a5,a4
   125c8:	00a637b3          	sltu	a5,a2,a0
   125cc:	00f707b3          	add	a5,a4,a5
   125d0:	00060513          	mv	a0,a2
   125d4:	00100413          	li	s0,1
   125d8:	0700006f          	j	12648 <__subdf3+0x11c>
   125dc:	7ff00693          	li	a3,2047
   125e0:	02d81063          	bne	a6,a3,12600 <__subdf3+0xd4>
   125e4:	7ff00413          	li	s0,2047
   125e8:	2140006f          	j	127fc <__subdf3+0x2d0>
   125ec:	7ff00693          	li	a3,2047
   125f0:	20d40663          	beq	s0,a3,127fc <__subdf3+0x2d0>
   125f4:	008006b7          	lui	a3,0x800
   125f8:	00d76733          	or	a4,a4,a3
   125fc:	00080593          	mv	a1,a6
   12600:	03800693          	li	a3,56
   12604:	0ab6cc63          	blt	a3,a1,126bc <__subdf3+0x190>
   12608:	01f00693          	li	a3,31
   1260c:	06b6ce63          	blt	a3,a1,12688 <__subdf3+0x15c>
   12610:	02000813          	li	a6,32
   12614:	40b80833          	sub	a6,a6,a1
   12618:	010716b3          	sll	a3,a4,a6
   1261c:	00b658b3          	srl	a7,a2,a1
   12620:	01061833          	sll	a6,a2,a6
   12624:	0116e6b3          	or	a3,a3,a7
   12628:	01003833          	snez	a6,a6
   1262c:	0106e6b3          	or	a3,a3,a6
   12630:	00b755b3          	srl	a1,a4,a1
   12634:	00a686b3          	add	a3,a3,a0
   12638:	00f585b3          	add	a1,a1,a5
   1263c:	00a6b7b3          	sltu	a5,a3,a0
   12640:	00f587b3          	add	a5,a1,a5
   12644:	00068513          	mv	a0,a3
   12648:	00800737          	lui	a4,0x800
   1264c:	00e7f733          	and	a4,a5,a4
   12650:	1a070663          	beqz	a4,127fc <__subdf3+0x2d0>
   12654:	00140413          	addi	s0,s0,1 # 80001 <__global_pointer$+0x6b501>
   12658:	7ff00713          	li	a4,2047
   1265c:	5ce40a63          	beq	s0,a4,12c30 <__subdf3+0x704>
   12660:	ff800737          	lui	a4,0xff800
   12664:	fff70713          	addi	a4,a4,-1 # ff7fffff <__global_pointer$+0xff7eb4ff>
   12668:	00e7f7b3          	and	a5,a5,a4
   1266c:	00155713          	srli	a4,a0,0x1
   12670:	00157513          	andi	a0,a0,1
   12674:	00a76733          	or	a4,a4,a0
   12678:	01f79513          	slli	a0,a5,0x1f
   1267c:	00e56533          	or	a0,a0,a4
   12680:	0017d793          	srli	a5,a5,0x1
   12684:	1780006f          	j	127fc <__subdf3+0x2d0>
   12688:	fe058693          	addi	a3,a1,-32
   1268c:	02000893          	li	a7,32
   12690:	00d756b3          	srl	a3,a4,a3
   12694:	00000813          	li	a6,0
   12698:	01158863          	beq	a1,a7,126a8 <__subdf3+0x17c>
   1269c:	04000813          	li	a6,64
   126a0:	40b80833          	sub	a6,a6,a1
   126a4:	01071833          	sll	a6,a4,a6
   126a8:	00c86833          	or	a6,a6,a2
   126ac:	01003833          	snez	a6,a6
   126b0:	0106e6b3          	or	a3,a3,a6
   126b4:	00000593          	li	a1,0
   126b8:	f7dff06f          	j	12634 <__subdf3+0x108>
   126bc:	00c766b3          	or	a3,a4,a2
   126c0:	00d036b3          	snez	a3,a3
   126c4:	ff1ff06f          	j	126b4 <__subdf3+0x188>
   126c8:	0e080263          	beqz	a6,127ac <__subdf3+0x280>
   126cc:	408885b3          	sub	a1,a7,s0
   126d0:	02041e63          	bnez	s0,1270c <__subdf3+0x1e0>
   126d4:	00a7e6b3          	or	a3,a5,a0
   126d8:	52068c63          	beqz	a3,12c10 <__subdf3+0x6e4>
   126dc:	fff58693          	addi	a3,a1,-1
   126e0:	00069c63          	bnez	a3,126f8 <__subdf3+0x1cc>
   126e4:	00c50533          	add	a0,a0,a2
   126e8:	00e78733          	add	a4,a5,a4
   126ec:	00c53633          	sltu	a2,a0,a2
   126f0:	00c707b3          	add	a5,a4,a2
   126f4:	ee1ff06f          	j	125d4 <__subdf3+0xa8>
   126f8:	7ff00813          	li	a6,2047
   126fc:	03059263          	bne	a1,a6,12720 <__subdf3+0x1f4>
   12700:	00070793          	mv	a5,a4
   12704:	00060513          	mv	a0,a2
   12708:	eddff06f          	j	125e4 <__subdf3+0xb8>
   1270c:	7ff00693          	li	a3,2047
   12710:	fed888e3          	beq	a7,a3,12700 <__subdf3+0x1d4>
   12714:	008006b7          	lui	a3,0x800
   12718:	00d7e7b3          	or	a5,a5,a3
   1271c:	00058693          	mv	a3,a1
   12720:	03800593          	li	a1,56
   12724:	06d5ce63          	blt	a1,a3,127a0 <__subdf3+0x274>
   12728:	01f00593          	li	a1,31
   1272c:	04d5c063          	blt	a1,a3,1276c <__subdf3+0x240>
   12730:	02000813          	li	a6,32
   12734:	40d80833          	sub	a6,a6,a3
   12738:	010795b3          	sll	a1,a5,a6
   1273c:	00d55333          	srl	t1,a0,a3
   12740:	01051833          	sll	a6,a0,a6
   12744:	0065e5b3          	or	a1,a1,t1
   12748:	01003833          	snez	a6,a6
   1274c:	0105e5b3          	or	a1,a1,a6
   12750:	00d7d6b3          	srl	a3,a5,a3
   12754:	00c58533          	add	a0,a1,a2
   12758:	00e686b3          	add	a3,a3,a4
   1275c:	00c53633          	sltu	a2,a0,a2
   12760:	00c687b3          	add	a5,a3,a2
   12764:	00088413          	mv	s0,a7
   12768:	ee1ff06f          	j	12648 <__subdf3+0x11c>
   1276c:	fe068593          	addi	a1,a3,-32 # 7fffe0 <__global_pointer$+0x7eb4e0>
   12770:	02000313          	li	t1,32
   12774:	00b7d5b3          	srl	a1,a5,a1
   12778:	00000813          	li	a6,0
   1277c:	00668863          	beq	a3,t1,1278c <__subdf3+0x260>
   12780:	04000813          	li	a6,64
   12784:	40d80833          	sub	a6,a6,a3
   12788:	01079833          	sll	a6,a5,a6
   1278c:	00a86833          	or	a6,a6,a0
   12790:	01003833          	snez	a6,a6
   12794:	0105e5b3          	or	a1,a1,a6
   12798:	00000693          	li	a3,0
   1279c:	fb9ff06f          	j	12754 <__subdf3+0x228>
   127a0:	00a7e5b3          	or	a1,a5,a0
   127a4:	00b035b3          	snez	a1,a1
   127a8:	ff1ff06f          	j	12798 <__subdf3+0x26c>
   127ac:	00140693          	addi	a3,s0,1
   127b0:	7fe6f593          	andi	a1,a3,2046
   127b4:	08059863          	bnez	a1,12844 <__subdf3+0x318>
   127b8:	00a7e6b3          	or	a3,a5,a0
   127bc:	06041463          	bnez	s0,12824 <__subdf3+0x2f8>
   127c0:	46068063          	beqz	a3,12c20 <__subdf3+0x6f4>
   127c4:	00c766b3          	or	a3,a4,a2
   127c8:	02068a63          	beqz	a3,127fc <__subdf3+0x2d0>
   127cc:	00c50633          	add	a2,a0,a2
   127d0:	00e78733          	add	a4,a5,a4
   127d4:	00a637b3          	sltu	a5,a2,a0
   127d8:	00f707b3          	add	a5,a4,a5
   127dc:	00800737          	lui	a4,0x800
   127e0:	00e7f733          	and	a4,a5,a4
   127e4:	00060513          	mv	a0,a2
   127e8:	00070a63          	beqz	a4,127fc <__subdf3+0x2d0>
   127ec:	ff800737          	lui	a4,0xff800
   127f0:	fff70713          	addi	a4,a4,-1 # ff7fffff <__global_pointer$+0xff7eb4ff>
   127f4:	00e7f7b3          	and	a5,a5,a4
   127f8:	00100413          	li	s0,1
   127fc:	00757713          	andi	a4,a0,7
   12800:	42070c63          	beqz	a4,12c38 <__subdf3+0x70c>
   12804:	00f57713          	andi	a4,a0,15
   12808:	00400693          	li	a3,4
   1280c:	42d70663          	beq	a4,a3,12c38 <__subdf3+0x70c>
   12810:	00450713          	addi	a4,a0,4
   12814:	00a73533          	sltu	a0,a4,a0
   12818:	00a787b3          	add	a5,a5,a0
   1281c:	00070513          	mv	a0,a4
   12820:	4180006f          	j	12c38 <__subdf3+0x70c>
   12824:	ec068ee3          	beqz	a3,12700 <__subdf3+0x1d4>
   12828:	00c76733          	or	a4,a4,a2
   1282c:	da070ce3          	beqz	a4,125e4 <__subdf3+0xb8>
   12830:	00000493          	li	s1,0
   12834:	004007b7          	lui	a5,0x400
   12838:	00000513          	li	a0,0
   1283c:	7ff00413          	li	s0,2047
   12840:	3f80006f          	j	12c38 <__subdf3+0x70c>
   12844:	7ff00593          	li	a1,2047
   12848:	3eb68263          	beq	a3,a1,12c2c <__subdf3+0x700>
   1284c:	00c50633          	add	a2,a0,a2
   12850:	00a63533          	sltu	a0,a2,a0
   12854:	00e78733          	add	a4,a5,a4
   12858:	00a70733          	add	a4,a4,a0
   1285c:	01f71513          	slli	a0,a4,0x1f
   12860:	00165613          	srli	a2,a2,0x1
   12864:	00c56533          	or	a0,a0,a2
   12868:	00175793          	srli	a5,a4,0x1
   1286c:	00068413          	mv	s0,a3
   12870:	f8dff06f          	j	127fc <__subdf3+0x2d0>
   12874:	0f005c63          	blez	a6,1296c <__subdf3+0x440>
   12878:	08089e63          	bnez	a7,12914 <__subdf3+0x3e8>
   1287c:	00c766b3          	or	a3,a4,a2
   12880:	44068863          	beqz	a3,12cd0 <__subdf3+0x7a4>
   12884:	fff80593          	addi	a1,a6,-1
   12888:	02059063          	bnez	a1,128a8 <__subdf3+0x37c>
   1288c:	40c50633          	sub	a2,a0,a2
   12890:	40e78733          	sub	a4,a5,a4
   12894:	00c537b3          	sltu	a5,a0,a2
   12898:	40f707b3          	sub	a5,a4,a5
   1289c:	00060513          	mv	a0,a2
   128a0:	00100413          	li	s0,1
   128a4:	0540006f          	j	128f8 <__subdf3+0x3cc>
   128a8:	7ff00693          	li	a3,2047
   128ac:	d2d80ce3          	beq	a6,a3,125e4 <__subdf3+0xb8>
   128b0:	03800693          	li	a3,56
   128b4:	0ab6c663          	blt	a3,a1,12960 <__subdf3+0x434>
   128b8:	01f00693          	li	a3,31
   128bc:	06b6c863          	blt	a3,a1,1292c <__subdf3+0x400>
   128c0:	02000813          	li	a6,32
   128c4:	40b80833          	sub	a6,a6,a1
   128c8:	010716b3          	sll	a3,a4,a6
   128cc:	00b658b3          	srl	a7,a2,a1
   128d0:	01061833          	sll	a6,a2,a6
   128d4:	0116e6b3          	or	a3,a3,a7
   128d8:	01003833          	snez	a6,a6
   128dc:	0106e6b3          	or	a3,a3,a6
   128e0:	00b755b3          	srl	a1,a4,a1
   128e4:	40d506b3          	sub	a3,a0,a3
   128e8:	40b785b3          	sub	a1,a5,a1
   128ec:	00d537b3          	sltu	a5,a0,a3
   128f0:	40f587b3          	sub	a5,a1,a5
   128f4:	00068513          	mv	a0,a3
   128f8:	00800937          	lui	s2,0x800
   128fc:	0127f733          	and	a4,a5,s2
   12900:	ee070ee3          	beqz	a4,127fc <__subdf3+0x2d0>
   12904:	fff90913          	addi	s2,s2,-1 # 7fffff <__global_pointer$+0x7eb4ff>
   12908:	0127f933          	and	s2,a5,s2
   1290c:	00050993          	mv	s3,a0
   12910:	2140006f          	j	12b24 <__subdf3+0x5f8>
   12914:	7ff00693          	li	a3,2047
   12918:	eed402e3          	beq	s0,a3,127fc <__subdf3+0x2d0>
   1291c:	008006b7          	lui	a3,0x800
   12920:	00d76733          	or	a4,a4,a3
   12924:	00080593          	mv	a1,a6
   12928:	f89ff06f          	j	128b0 <__subdf3+0x384>
   1292c:	fe058693          	addi	a3,a1,-32
   12930:	02000893          	li	a7,32
   12934:	00d756b3          	srl	a3,a4,a3
   12938:	00000813          	li	a6,0
   1293c:	01158863          	beq	a1,a7,1294c <__subdf3+0x420>
   12940:	04000813          	li	a6,64
   12944:	40b80833          	sub	a6,a6,a1
   12948:	01071833          	sll	a6,a4,a6
   1294c:	00c86833          	or	a6,a6,a2
   12950:	01003833          	snez	a6,a6
   12954:	0106e6b3          	or	a3,a3,a6
   12958:	00000593          	li	a1,0
   1295c:	f89ff06f          	j	128e4 <__subdf3+0x3b8>
   12960:	00c766b3          	or	a3,a4,a2
   12964:	00d036b3          	snez	a3,a3
   12968:	ff1ff06f          	j	12958 <__subdf3+0x42c>
   1296c:	0e080863          	beqz	a6,12a5c <__subdf3+0x530>
   12970:	40888833          	sub	a6,a7,s0
   12974:	04041263          	bnez	s0,129b8 <__subdf3+0x48c>
   12978:	00a7e5b3          	or	a1,a5,a0
   1297c:	34058e63          	beqz	a1,12cd8 <__subdf3+0x7ac>
   12980:	fff80593          	addi	a1,a6,-1
   12984:	00059e63          	bnez	a1,129a0 <__subdf3+0x474>
   12988:	40a60533          	sub	a0,a2,a0
   1298c:	40f70733          	sub	a4,a4,a5
   12990:	00a63633          	sltu	a2,a2,a0
   12994:	40c707b3          	sub	a5,a4,a2
   12998:	00068493          	mv	s1,a3
   1299c:	f05ff06f          	j	128a0 <__subdf3+0x374>
   129a0:	7ff00313          	li	t1,2047
   129a4:	02681463          	bne	a6,t1,129cc <__subdf3+0x4a0>
   129a8:	00070793          	mv	a5,a4
   129ac:	00060513          	mv	a0,a2
   129b0:	7ff00413          	li	s0,2047
   129b4:	0d00006f          	j	12a84 <__subdf3+0x558>
   129b8:	7ff00593          	li	a1,2047
   129bc:	feb886e3          	beq	a7,a1,129a8 <__subdf3+0x47c>
   129c0:	008005b7          	lui	a1,0x800
   129c4:	00b7e7b3          	or	a5,a5,a1
   129c8:	00080593          	mv	a1,a6
   129cc:	03800813          	li	a6,56
   129d0:	08b84063          	blt	a6,a1,12a50 <__subdf3+0x524>
   129d4:	01f00813          	li	a6,31
   129d8:	04b84263          	blt	a6,a1,12a1c <__subdf3+0x4f0>
   129dc:	02000313          	li	t1,32
   129e0:	40b30333          	sub	t1,t1,a1
   129e4:	00b55e33          	srl	t3,a0,a1
   129e8:	00679833          	sll	a6,a5,t1
   129ec:	00651333          	sll	t1,a0,t1
   129f0:	01c86833          	or	a6,a6,t3
   129f4:	00603333          	snez	t1,t1
   129f8:	00686533          	or	a0,a6,t1
   129fc:	00b7d5b3          	srl	a1,a5,a1
   12a00:	40a60533          	sub	a0,a2,a0
   12a04:	40b705b3          	sub	a1,a4,a1
   12a08:	00a63633          	sltu	a2,a2,a0
   12a0c:	40c587b3          	sub	a5,a1,a2
   12a10:	00088413          	mv	s0,a7
   12a14:	00068493          	mv	s1,a3
   12a18:	ee1ff06f          	j	128f8 <__subdf3+0x3cc>
   12a1c:	fe058813          	addi	a6,a1,-32 # 7fffe0 <__global_pointer$+0x7eb4e0>
   12a20:	02000e13          	li	t3,32
   12a24:	0107d833          	srl	a6,a5,a6
   12a28:	00000313          	li	t1,0
   12a2c:	01c58863          	beq	a1,t3,12a3c <__subdf3+0x510>
   12a30:	04000313          	li	t1,64
   12a34:	40b30333          	sub	t1,t1,a1
   12a38:	00679333          	sll	t1,a5,t1
   12a3c:	00a36333          	or	t1,t1,a0
   12a40:	00603333          	snez	t1,t1
   12a44:	00686533          	or	a0,a6,t1
   12a48:	00000593          	li	a1,0
   12a4c:	fb5ff06f          	j	12a00 <__subdf3+0x4d4>
   12a50:	00a7e533          	or	a0,a5,a0
   12a54:	00a03533          	snez	a0,a0
   12a58:	ff1ff06f          	j	12a48 <__subdf3+0x51c>
   12a5c:	00140593          	addi	a1,s0,1
   12a60:	7fe5f593          	andi	a1,a1,2046
   12a64:	08059863          	bnez	a1,12af4 <__subdf3+0x5c8>
   12a68:	00c765b3          	or	a1,a4,a2
   12a6c:	00a7e833          	or	a6,a5,a0
   12a70:	06041263          	bnez	s0,12ad4 <__subdf3+0x5a8>
   12a74:	00081c63          	bnez	a6,12a8c <__subdf3+0x560>
   12a78:	26058863          	beqz	a1,12ce8 <__subdf3+0x7bc>
   12a7c:	00070793          	mv	a5,a4
   12a80:	00060513          	mv	a0,a2
   12a84:	00068493          	mv	s1,a3
   12a88:	d75ff06f          	j	127fc <__subdf3+0x2d0>
   12a8c:	d60588e3          	beqz	a1,127fc <__subdf3+0x2d0>
   12a90:	40c50833          	sub	a6,a0,a2
   12a94:	010538b3          	sltu	a7,a0,a6
   12a98:	40e785b3          	sub	a1,a5,a4
   12a9c:	411585b3          	sub	a1,a1,a7
   12aa0:	008008b7          	lui	a7,0x800
   12aa4:	0115f8b3          	and	a7,a1,a7
   12aa8:	00088c63          	beqz	a7,12ac0 <__subdf3+0x594>
   12aac:	40a60533          	sub	a0,a2,a0
   12ab0:	40f70733          	sub	a4,a4,a5
   12ab4:	00a63633          	sltu	a2,a2,a0
   12ab8:	40c707b3          	sub	a5,a4,a2
   12abc:	fc9ff06f          	j	12a84 <__subdf3+0x558>
   12ac0:	00b86533          	or	a0,a6,a1
   12ac4:	22050a63          	beqz	a0,12cf8 <__subdf3+0x7cc>
   12ac8:	00058793          	mv	a5,a1
   12acc:	00080513          	mv	a0,a6
   12ad0:	d2dff06f          	j	127fc <__subdf3+0x2d0>
   12ad4:	00081c63          	bnez	a6,12aec <__subdf3+0x5c0>
   12ad8:	22058463          	beqz	a1,12d00 <__subdf3+0x7d4>
   12adc:	00070793          	mv	a5,a4
   12ae0:	00060513          	mv	a0,a2
   12ae4:	00068493          	mv	s1,a3
   12ae8:	afdff06f          	j	125e4 <__subdf3+0xb8>
   12aec:	ae058ce3          	beqz	a1,125e4 <__subdf3+0xb8>
   12af0:	d41ff06f          	j	12830 <__subdf3+0x304>
   12af4:	40c509b3          	sub	s3,a0,a2
   12af8:	013535b3          	sltu	a1,a0,s3
   12afc:	40e78933          	sub	s2,a5,a4
   12b00:	40b90933          	sub	s2,s2,a1
   12b04:	008005b7          	lui	a1,0x800
   12b08:	00b975b3          	and	a1,s2,a1
   12b0c:	08058463          	beqz	a1,12b94 <__subdf3+0x668>
   12b10:	40a609b3          	sub	s3,a2,a0
   12b14:	40f70933          	sub	s2,a4,a5
   12b18:	01363633          	sltu	a2,a2,s3
   12b1c:	40c90933          	sub	s2,s2,a2
   12b20:	00068493          	mv	s1,a3
   12b24:	08090263          	beqz	s2,12ba8 <__subdf3+0x67c>
   12b28:	00090513          	mv	a0,s2
   12b2c:	23c000ef          	jal	ra,12d68 <__clzsi2>
   12b30:	ff850713          	addi	a4,a0,-8
   12b34:	01f00793          	li	a5,31
   12b38:	08e7c063          	blt	a5,a4,12bb8 <__subdf3+0x68c>
   12b3c:	02000793          	li	a5,32
   12b40:	40e787b3          	sub	a5,a5,a4
   12b44:	00e91933          	sll	s2,s2,a4
   12b48:	00f9d7b3          	srl	a5,s3,a5
   12b4c:	0127e7b3          	or	a5,a5,s2
   12b50:	00e99533          	sll	a0,s3,a4
   12b54:	0a874463          	blt	a4,s0,12bfc <__subdf3+0x6d0>
   12b58:	40870733          	sub	a4,a4,s0
   12b5c:	00170613          	addi	a2,a4,1
   12b60:	01f00693          	li	a3,31
   12b64:	06c6c263          	blt	a3,a2,12bc8 <__subdf3+0x69c>
   12b68:	02000713          	li	a4,32
   12b6c:	40c70733          	sub	a4,a4,a2
   12b70:	00e796b3          	sll	a3,a5,a4
   12b74:	00c555b3          	srl	a1,a0,a2
   12b78:	00e51733          	sll	a4,a0,a4
   12b7c:	00b6e6b3          	or	a3,a3,a1
   12b80:	00e03733          	snez	a4,a4
   12b84:	00e6e533          	or	a0,a3,a4
   12b88:	00c7d7b3          	srl	a5,a5,a2
   12b8c:	00000413          	li	s0,0
   12b90:	c6dff06f          	j	127fc <__subdf3+0x2d0>
   12b94:	0129e533          	or	a0,s3,s2
   12b98:	f80516e3          	bnez	a0,12b24 <__subdf3+0x5f8>
   12b9c:	00000793          	li	a5,0
   12ba0:	00000413          	li	s0,0
   12ba4:	14c0006f          	j	12cf0 <__subdf3+0x7c4>
   12ba8:	00098513          	mv	a0,s3
   12bac:	1bc000ef          	jal	ra,12d68 <__clzsi2>
   12bb0:	02050513          	addi	a0,a0,32
   12bb4:	f7dff06f          	j	12b30 <__subdf3+0x604>
   12bb8:	fd850793          	addi	a5,a0,-40
   12bbc:	00f997b3          	sll	a5,s3,a5
   12bc0:	00000513          	li	a0,0
   12bc4:	f91ff06f          	j	12b54 <__subdf3+0x628>
   12bc8:	fe170713          	addi	a4,a4,-31
   12bcc:	02000593          	li	a1,32
   12bd0:	00e7d733          	srl	a4,a5,a4
   12bd4:	00000693          	li	a3,0
   12bd8:	00b60863          	beq	a2,a1,12be8 <__subdf3+0x6bc>
   12bdc:	04000693          	li	a3,64
   12be0:	40c686b3          	sub	a3,a3,a2
   12be4:	00d796b3          	sll	a3,a5,a3
   12be8:	00d566b3          	or	a3,a0,a3
   12bec:	00d036b3          	snez	a3,a3
   12bf0:	00d76533          	or	a0,a4,a3
   12bf4:	00000793          	li	a5,0
   12bf8:	f95ff06f          	j	12b8c <__subdf3+0x660>
   12bfc:	40e40433          	sub	s0,s0,a4
   12c00:	ff800737          	lui	a4,0xff800
   12c04:	fff70713          	addi	a4,a4,-1 # ff7fffff <__global_pointer$+0xff7eb4ff>
   12c08:	00e7f7b3          	and	a5,a5,a4
   12c0c:	bf1ff06f          	j	127fc <__subdf3+0x2d0>
   12c10:	00070793          	mv	a5,a4
   12c14:	00060513          	mv	a0,a2
   12c18:	00058413          	mv	s0,a1
   12c1c:	be1ff06f          	j	127fc <__subdf3+0x2d0>
   12c20:	00070793          	mv	a5,a4
   12c24:	00060513          	mv	a0,a2
   12c28:	bd5ff06f          	j	127fc <__subdf3+0x2d0>
   12c2c:	7ff00413          	li	s0,2047
   12c30:	00000793          	li	a5,0
   12c34:	00000513          	li	a0,0
   12c38:	00800737          	lui	a4,0x800
   12c3c:	00e7f733          	and	a4,a5,a4
   12c40:	00070e63          	beqz	a4,12c5c <__subdf3+0x730>
   12c44:	00140413          	addi	s0,s0,1
   12c48:	7ff00713          	li	a4,2047
   12c4c:	0ce40263          	beq	s0,a4,12d10 <__subdf3+0x7e4>
   12c50:	ff800737          	lui	a4,0xff800
   12c54:	fff70713          	addi	a4,a4,-1 # ff7fffff <__global_pointer$+0xff7eb4ff>
   12c58:	00e7f7b3          	and	a5,a5,a4
   12c5c:	01d79693          	slli	a3,a5,0x1d
   12c60:	00355513          	srli	a0,a0,0x3
   12c64:	7ff00713          	li	a4,2047
   12c68:	00a6e6b3          	or	a3,a3,a0
   12c6c:	0037d793          	srli	a5,a5,0x3
   12c70:	00e41e63          	bne	s0,a4,12c8c <__subdf3+0x760>
   12c74:	00f6e6b3          	or	a3,a3,a5
   12c78:	00000793          	li	a5,0
   12c7c:	00068863          	beqz	a3,12c8c <__subdf3+0x760>
   12c80:	000807b7          	lui	a5,0x80
   12c84:	00000693          	li	a3,0
   12c88:	00000493          	li	s1,0
   12c8c:	01441713          	slli	a4,s0,0x14
   12c90:	7ff00637          	lui	a2,0x7ff00
   12c94:	00c79793          	slli	a5,a5,0xc
   12c98:	01c12083          	lw	ra,28(sp)
   12c9c:	01812403          	lw	s0,24(sp)
   12ca0:	00c77733          	and	a4,a4,a2
   12ca4:	00c7d793          	srli	a5,a5,0xc
   12ca8:	01f49493          	slli	s1,s1,0x1f
   12cac:	00f767b3          	or	a5,a4,a5
   12cb0:	0097e733          	or	a4,a5,s1
   12cb4:	01012903          	lw	s2,16(sp)
   12cb8:	01412483          	lw	s1,20(sp)
   12cbc:	00c12983          	lw	s3,12(sp)
   12cc0:	00068513          	mv	a0,a3
   12cc4:	00070593          	mv	a1,a4
   12cc8:	02010113          	addi	sp,sp,32
   12ccc:	00008067          	ret
   12cd0:	00080413          	mv	s0,a6
   12cd4:	b29ff06f          	j	127fc <__subdf3+0x2d0>
   12cd8:	00070793          	mv	a5,a4
   12cdc:	00060513          	mv	a0,a2
   12ce0:	00080413          	mv	s0,a6
   12ce4:	da1ff06f          	j	12a84 <__subdf3+0x558>
   12ce8:	00000793          	li	a5,0
   12cec:	00000513          	li	a0,0
   12cf0:	00000493          	li	s1,0
   12cf4:	f45ff06f          	j	12c38 <__subdf3+0x70c>
   12cf8:	00000793          	li	a5,0
   12cfc:	ff5ff06f          	j	12cf0 <__subdf3+0x7c4>
   12d00:	00000513          	li	a0,0
   12d04:	00000493          	li	s1,0
   12d08:	004007b7          	lui	a5,0x400
   12d0c:	b31ff06f          	j	1283c <__subdf3+0x310>
   12d10:	00000793          	li	a5,0
   12d14:	00000513          	li	a0,0
   12d18:	f45ff06f          	j	12c5c <__subdf3+0x730>

00012d1c <__unorddf2>:
   12d1c:	001007b7          	lui	a5,0x100
   12d20:	fff78793          	addi	a5,a5,-1 # fffff <__global_pointer$+0xeb4ff>
   12d24:	00b7f733          	and	a4,a5,a1
   12d28:	0145d593          	srli	a1,a1,0x14
   12d2c:	00d7f7b3          	and	a5,a5,a3
   12d30:	7ff5f593          	andi	a1,a1,2047
   12d34:	0146d693          	srli	a3,a3,0x14
   12d38:	7ff00813          	li	a6,2047
   12d3c:	7ff6f693          	andi	a3,a3,2047
   12d40:	01059863          	bne	a1,a6,12d50 <__unorddf2+0x34>
   12d44:	00a76733          	or	a4,a4,a0
   12d48:	00100513          	li	a0,1
   12d4c:	00071c63          	bnez	a4,12d64 <__unorddf2+0x48>
   12d50:	7ff00713          	li	a4,2047
   12d54:	00000513          	li	a0,0
   12d58:	00e69663          	bne	a3,a4,12d64 <__unorddf2+0x48>
   12d5c:	00c7e7b3          	or	a5,a5,a2
   12d60:	00f03533          	snez	a0,a5
   12d64:	00008067          	ret

00012d68 <__clzsi2>:
   12d68:	000107b7          	lui	a5,0x10
   12d6c:	02f57a63          	bgeu	a0,a5,12da0 <__clzsi2+0x38>
   12d70:	10053793          	sltiu	a5,a0,256
   12d74:	0017c793          	xori	a5,a5,1
   12d78:	00379793          	slli	a5,a5,0x3
   12d7c:	00013737          	lui	a4,0x13
   12d80:	02000693          	li	a3,32
   12d84:	40f686b3          	sub	a3,a3,a5
   12d88:	00f55533          	srl	a0,a0,a5
   12d8c:	1ec70793          	addi	a5,a4,492 # 131ec <__clz_tab>
   12d90:	00a787b3          	add	a5,a5,a0
   12d94:	0007c503          	lbu	a0,0(a5) # 10000 <exit-0x94>
   12d98:	40a68533          	sub	a0,a3,a0
   12d9c:	00008067          	ret
   12da0:	01000737          	lui	a4,0x1000
   12da4:	01000793          	li	a5,16
   12da8:	fce56ae3          	bltu	a0,a4,12d7c <__clzsi2+0x14>
   12dac:	01800793          	li	a5,24
   12db0:	fcdff06f          	j	12d7c <__clzsi2+0x14>

00012db4 <__errno>:
   12db4:	eac1a503          	lw	a0,-340(gp) # 149ac <_impure_ptr>
   12db8:	00008067          	ret

00012dbc <__libc_init_array>:
   12dbc:	ff010113          	addi	sp,sp,-16
   12dc0:	00812423          	sw	s0,8(sp)
   12dc4:	01212023          	sw	s2,0(sp)
   12dc8:	00014437          	lui	s0,0x14
   12dcc:	00014937          	lui	s2,0x14
   12dd0:	2f040793          	addi	a5,s0,752 # 142f0 <__init_array_start>
   12dd4:	2f090913          	addi	s2,s2,752 # 142f0 <__init_array_start>
   12dd8:	40f90933          	sub	s2,s2,a5
   12ddc:	00112623          	sw	ra,12(sp)
   12de0:	00912223          	sw	s1,4(sp)
   12de4:	40295913          	srai	s2,s2,0x2
   12de8:	02090063          	beqz	s2,12e08 <__libc_init_array+0x4c>
   12dec:	2f040413          	addi	s0,s0,752
   12df0:	00000493          	li	s1,0
   12df4:	00042783          	lw	a5,0(s0)
   12df8:	00148493          	addi	s1,s1,1
   12dfc:	00440413          	addi	s0,s0,4
   12e00:	000780e7          	jalr	a5
   12e04:	fe9918e3          	bne	s2,s1,12df4 <__libc_init_array+0x38>
   12e08:	00014437          	lui	s0,0x14
   12e0c:	00014937          	lui	s2,0x14
   12e10:	2f040793          	addi	a5,s0,752 # 142f0 <__init_array_start>
   12e14:	2f890913          	addi	s2,s2,760 # 142f8 <__do_global_dtors_aux_fini_array_entry>
   12e18:	40f90933          	sub	s2,s2,a5
   12e1c:	40295913          	srai	s2,s2,0x2
   12e20:	02090063          	beqz	s2,12e40 <__libc_init_array+0x84>
   12e24:	2f040413          	addi	s0,s0,752
   12e28:	00000493          	li	s1,0
   12e2c:	00042783          	lw	a5,0(s0)
   12e30:	00148493          	addi	s1,s1,1
   12e34:	00440413          	addi	s0,s0,4
   12e38:	000780e7          	jalr	a5
   12e3c:	fe9918e3          	bne	s2,s1,12e2c <__libc_init_array+0x70>
   12e40:	00c12083          	lw	ra,12(sp)
   12e44:	00812403          	lw	s0,8(sp)
   12e48:	00412483          	lw	s1,4(sp)
   12e4c:	00012903          	lw	s2,0(sp)
   12e50:	01010113          	addi	sp,sp,16
   12e54:	00008067          	ret

00012e58 <memset>:
   12e58:	00f00313          	li	t1,15
   12e5c:	00050713          	mv	a4,a0
   12e60:	02c37e63          	bgeu	t1,a2,12e9c <memset+0x44>
   12e64:	00f77793          	andi	a5,a4,15
   12e68:	0a079063          	bnez	a5,12f08 <memset+0xb0>
   12e6c:	08059263          	bnez	a1,12ef0 <memset+0x98>
   12e70:	ff067693          	andi	a3,a2,-16
   12e74:	00f67613          	andi	a2,a2,15
   12e78:	00e686b3          	add	a3,a3,a4
   12e7c:	00b72023          	sw	a1,0(a4) # 1000000 <__global_pointer$+0xfeb500>
   12e80:	00b72223          	sw	a1,4(a4)
   12e84:	00b72423          	sw	a1,8(a4)
   12e88:	00b72623          	sw	a1,12(a4)
   12e8c:	01070713          	addi	a4,a4,16
   12e90:	fed766e3          	bltu	a4,a3,12e7c <memset+0x24>
   12e94:	00061463          	bnez	a2,12e9c <memset+0x44>
   12e98:	00008067          	ret
   12e9c:	40c306b3          	sub	a3,t1,a2
   12ea0:	00269693          	slli	a3,a3,0x2
   12ea4:	00000297          	auipc	t0,0x0
   12ea8:	005686b3          	add	a3,a3,t0
   12eac:	00c68067          	jr	12(a3) # 80000c <__global_pointer$+0x7eb50c>
   12eb0:	00b70723          	sb	a1,14(a4)
   12eb4:	00b706a3          	sb	a1,13(a4)
   12eb8:	00b70623          	sb	a1,12(a4)
   12ebc:	00b705a3          	sb	a1,11(a4)
   12ec0:	00b70523          	sb	a1,10(a4)
   12ec4:	00b704a3          	sb	a1,9(a4)
   12ec8:	00b70423          	sb	a1,8(a4)
   12ecc:	00b703a3          	sb	a1,7(a4)
   12ed0:	00b70323          	sb	a1,6(a4)
   12ed4:	00b702a3          	sb	a1,5(a4)
   12ed8:	00b70223          	sb	a1,4(a4)
   12edc:	00b701a3          	sb	a1,3(a4)
   12ee0:	00b70123          	sb	a1,2(a4)
   12ee4:	00b700a3          	sb	a1,1(a4)
   12ee8:	00b70023          	sb	a1,0(a4)
   12eec:	00008067          	ret
   12ef0:	0ff5f593          	zext.b	a1,a1
   12ef4:	00859693          	slli	a3,a1,0x8
   12ef8:	00d5e5b3          	or	a1,a1,a3
   12efc:	01059693          	slli	a3,a1,0x10
   12f00:	00d5e5b3          	or	a1,a1,a3
   12f04:	f6dff06f          	j	12e70 <memset+0x18>
   12f08:	00279693          	slli	a3,a5,0x2
   12f0c:	00000297          	auipc	t0,0x0
   12f10:	005686b3          	add	a3,a3,t0
   12f14:	00008293          	mv	t0,ra
   12f18:	fa0680e7          	jalr	-96(a3)
   12f1c:	00028093          	mv	ra,t0
   12f20:	ff078793          	addi	a5,a5,-16
   12f24:	40f70733          	sub	a4,a4,a5
   12f28:	00f60633          	add	a2,a2,a5
   12f2c:	f6c378e3          	bgeu	t1,a2,12e9c <memset+0x44>
   12f30:	f3dff06f          	j	12e6c <memset+0x14>

00012f34 <__call_exitprocs>:
   12f34:	fd010113          	addi	sp,sp,-48
   12f38:	01412c23          	sw	s4,24(sp)
   12f3c:	ea81aa03          	lw	s4,-344(gp) # 149a8 <_global_impure_ptr>
   12f40:	03212023          	sw	s2,32(sp)
   12f44:	02112623          	sw	ra,44(sp)
   12f48:	148a2903          	lw	s2,328(s4)
   12f4c:	02812423          	sw	s0,40(sp)
   12f50:	02912223          	sw	s1,36(sp)
   12f54:	01312e23          	sw	s3,28(sp)
   12f58:	01512a23          	sw	s5,20(sp)
   12f5c:	01612823          	sw	s6,16(sp)
   12f60:	01712623          	sw	s7,12(sp)
   12f64:	01812423          	sw	s8,8(sp)
   12f68:	04090063          	beqz	s2,12fa8 <__call_exitprocs+0x74>
   12f6c:	00050b13          	mv	s6,a0
   12f70:	00058b93          	mv	s7,a1
   12f74:	00100a93          	li	s5,1
   12f78:	fff00993          	li	s3,-1
   12f7c:	00492483          	lw	s1,4(s2)
   12f80:	fff48413          	addi	s0,s1,-1
   12f84:	02044263          	bltz	s0,12fa8 <__call_exitprocs+0x74>
   12f88:	00249493          	slli	s1,s1,0x2
   12f8c:	009904b3          	add	s1,s2,s1
   12f90:	040b8463          	beqz	s7,12fd8 <__call_exitprocs+0xa4>
   12f94:	1044a783          	lw	a5,260(s1)
   12f98:	05778063          	beq	a5,s7,12fd8 <__call_exitprocs+0xa4>
   12f9c:	fff40413          	addi	s0,s0,-1
   12fa0:	ffc48493          	addi	s1,s1,-4
   12fa4:	ff3416e3          	bne	s0,s3,12f90 <__call_exitprocs+0x5c>
   12fa8:	02c12083          	lw	ra,44(sp)
   12fac:	02812403          	lw	s0,40(sp)
   12fb0:	02412483          	lw	s1,36(sp)
   12fb4:	02012903          	lw	s2,32(sp)
   12fb8:	01c12983          	lw	s3,28(sp)
   12fbc:	01812a03          	lw	s4,24(sp)
   12fc0:	01412a83          	lw	s5,20(sp)
   12fc4:	01012b03          	lw	s6,16(sp)
   12fc8:	00c12b83          	lw	s7,12(sp)
   12fcc:	00812c03          	lw	s8,8(sp)
   12fd0:	03010113          	addi	sp,sp,48
   12fd4:	00008067          	ret
   12fd8:	00492783          	lw	a5,4(s2)
   12fdc:	0044a683          	lw	a3,4(s1)
   12fe0:	fff78793          	addi	a5,a5,-1
   12fe4:	04878e63          	beq	a5,s0,13040 <__call_exitprocs+0x10c>
   12fe8:	0004a223          	sw	zero,4(s1)
   12fec:	fa0688e3          	beqz	a3,12f9c <__call_exitprocs+0x68>
   12ff0:	18892783          	lw	a5,392(s2)
   12ff4:	008a9733          	sll	a4,s5,s0
   12ff8:	00492c03          	lw	s8,4(s2)
   12ffc:	00f777b3          	and	a5,a4,a5
   13000:	02079263          	bnez	a5,13024 <__call_exitprocs+0xf0>
   13004:	000680e7          	jalr	a3
   13008:	00492703          	lw	a4,4(s2)
   1300c:	148a2783          	lw	a5,328(s4)
   13010:	01871463          	bne	a4,s8,13018 <__call_exitprocs+0xe4>
   13014:	f92784e3          	beq	a5,s2,12f9c <__call_exitprocs+0x68>
   13018:	f80788e3          	beqz	a5,12fa8 <__call_exitprocs+0x74>
   1301c:	00078913          	mv	s2,a5
   13020:	f5dff06f          	j	12f7c <__call_exitprocs+0x48>
   13024:	18c92783          	lw	a5,396(s2)
   13028:	0844a583          	lw	a1,132(s1)
   1302c:	00f77733          	and	a4,a4,a5
   13030:	00071c63          	bnez	a4,13048 <__call_exitprocs+0x114>
   13034:	000b0513          	mv	a0,s6
   13038:	000680e7          	jalr	a3
   1303c:	fcdff06f          	j	13008 <__call_exitprocs+0xd4>
   13040:	00892223          	sw	s0,4(s2)
   13044:	fa9ff06f          	j	12fec <__call_exitprocs+0xb8>
   13048:	00058513          	mv	a0,a1
   1304c:	000680e7          	jalr	a3
   13050:	fb9ff06f          	j	13008 <__call_exitprocs+0xd4>

00013054 <__libc_fini_array>:
   13054:	ff010113          	addi	sp,sp,-16
   13058:	00812423          	sw	s0,8(sp)
   1305c:	000147b7          	lui	a5,0x14
   13060:	00014437          	lui	s0,0x14
   13064:	2f878793          	addi	a5,a5,760 # 142f8 <__do_global_dtors_aux_fini_array_entry>
   13068:	2fc40413          	addi	s0,s0,764 # 142fc <__fini_array_end>
   1306c:	40f40433          	sub	s0,s0,a5
   13070:	00912223          	sw	s1,4(sp)
   13074:	00112623          	sw	ra,12(sp)
   13078:	40245493          	srai	s1,s0,0x2
   1307c:	02048063          	beqz	s1,1309c <__libc_fini_array+0x48>
   13080:	ffc40413          	addi	s0,s0,-4
   13084:	00f40433          	add	s0,s0,a5
   13088:	00042783          	lw	a5,0(s0)
   1308c:	fff48493          	addi	s1,s1,-1
   13090:	ffc40413          	addi	s0,s0,-4
   13094:	000780e7          	jalr	a5
   13098:	fe0498e3          	bnez	s1,13088 <__libc_fini_array+0x34>
   1309c:	00c12083          	lw	ra,12(sp)
   130a0:	00812403          	lw	s0,8(sp)
   130a4:	00412483          	lw	s1,4(sp)
   130a8:	01010113          	addi	sp,sp,16
   130ac:	00008067          	ret

000130b0 <atexit>:
   130b0:	00050593          	mv	a1,a0
   130b4:	00000693          	li	a3,0
   130b8:	00000613          	li	a2,0
   130bc:	00000513          	li	a0,0
   130c0:	0040006f          	j	130c4 <__register_exitproc>

000130c4 <__register_exitproc>:
   130c4:	ea81a703          	lw	a4,-344(gp) # 149a8 <_global_impure_ptr>
   130c8:	14872783          	lw	a5,328(a4)
   130cc:	04078c63          	beqz	a5,13124 <__register_exitproc+0x60>
   130d0:	0047a703          	lw	a4,4(a5)
   130d4:	01f00813          	li	a6,31
   130d8:	06e84e63          	blt	a6,a4,13154 <__register_exitproc+0x90>
   130dc:	00271813          	slli	a6,a4,0x2
   130e0:	02050663          	beqz	a0,1310c <__register_exitproc+0x48>
   130e4:	01078333          	add	t1,a5,a6
   130e8:	08c32423          	sw	a2,136(t1) # 10088 <exit-0xc>
   130ec:	1887a883          	lw	a7,392(a5)
   130f0:	00100613          	li	a2,1
   130f4:	00e61633          	sll	a2,a2,a4
   130f8:	00c8e8b3          	or	a7,a7,a2
   130fc:	1917a423          	sw	a7,392(a5)
   13100:	10d32423          	sw	a3,264(t1)
   13104:	00200693          	li	a3,2
   13108:	02d50463          	beq	a0,a3,13130 <__register_exitproc+0x6c>
   1310c:	00170713          	addi	a4,a4,1
   13110:	00e7a223          	sw	a4,4(a5)
   13114:	010787b3          	add	a5,a5,a6
   13118:	00b7a423          	sw	a1,8(a5)
   1311c:	00000513          	li	a0,0
   13120:	00008067          	ret
   13124:	14c70793          	addi	a5,a4,332
   13128:	14f72423          	sw	a5,328(a4)
   1312c:	fa5ff06f          	j	130d0 <__register_exitproc+0xc>
   13130:	18c7a683          	lw	a3,396(a5)
   13134:	00170713          	addi	a4,a4,1
   13138:	00e7a223          	sw	a4,4(a5)
   1313c:	00c6e6b3          	or	a3,a3,a2
   13140:	18d7a623          	sw	a3,396(a5)
   13144:	010787b3          	add	a5,a5,a6
   13148:	00b7a423          	sw	a1,8(a5)
   1314c:	00000513          	li	a0,0
   13150:	00008067          	ret
   13154:	fff00513          	li	a0,-1
   13158:	00008067          	ret

0001315c <_exit>:
   1315c:	05d00893          	li	a7,93
   13160:	00000073          	ecall
   13164:	00054463          	bltz	a0,1316c <_exit+0x10>
   13168:	0000006f          	j	13168 <_exit+0xc>
   1316c:	ff010113          	addi	sp,sp,-16
   13170:	00812423          	sw	s0,8(sp)
   13174:	00050413          	mv	s0,a0
   13178:	00112623          	sw	ra,12(sp)
   1317c:	40800433          	neg	s0,s0
   13180:	c35ff0ef          	jal	ra,12db4 <__errno>
   13184:	00852023          	sw	s0,0(a0)
   13188:	0000006f          	j	13188 <_exit+0x2c>
