
./riscv32-benchmarks-customtoolchain/src/huffbench/huffbench:     file format elf32-littleriscv


Disassembly of section .text:

00010094 <exit>:
   10094:	ff010113          	addi	sp,sp,-16
   10098:	00000593          	li	a1,0
   1009c:	00812423          	sw	s0,8(sp)
   100a0:	00112623          	sw	ra,12(sp)
   100a4:	00050413          	mv	s0,a0
   100a8:	3d9020ef          	jal	ra,12c80 <__call_exitprocs>
   100ac:	000187b7          	lui	a5,0x18
   100b0:	b447a503          	lw	a0,-1212(a5) # 17b44 <_global_impure_ptr>
   100b4:	03c52783          	lw	a5,60(a0)
   100b8:	00078463          	beqz	a5,100c0 <exit+0x2c>
   100bc:	000780e7          	jalr	a5
   100c0:	00040513          	mv	a0,s0
   100c4:	081050ef          	jal	ra,15944 <_exit>

000100c8 <register_fini>:
   100c8:	00000793          	li	a5,0
   100cc:	00078863          	beqz	a5,100dc <register_fini+0x14>
   100d0:	00013537          	lui	a0,0x13
   100d4:	21050513          	addi	a0,a0,528 # 13210 <__libc_fini_array>
   100d8:	47c0506f          	j	15554 <atexit>
   100dc:	00008067          	ret

000100e0 <_start>:
   100e0:	00008197          	auipc	gp,0x8
   100e4:	26418193          	addi	gp,gp,612 # 18344 <__global_pointer$>
   100e8:	81018513          	addi	a0,gp,-2032 # 17b54 <__malloc_max_sbrked_mem>
   100ec:	0000a617          	auipc	a2,0xa
   100f0:	cd060613          	addi	a2,a2,-816 # 19dbc <__BSS_END__>
   100f4:	40a60633          	sub	a2,a2,a0
   100f8:	00000593          	li	a1,0
   100fc:	4bc010ef          	jal	ra,115b8 <memset>
   10100:	00005517          	auipc	a0,0x5
   10104:	45450513          	addi	a0,a0,1108 # 15554 <atexit>
   10108:	00050863          	beqz	a0,10118 <_start+0x38>
   1010c:	00003517          	auipc	a0,0x3
   10110:	10450513          	addi	a0,a0,260 # 13210 <__libc_fini_array>
   10114:	440050ef          	jal	ra,15554 <atexit>
   10118:	264010ef          	jal	ra,1137c <__libc_init_array>
   1011c:	00012503          	lw	a0,0(sp)
   10120:	00410593          	addi	a1,sp,4
   10124:	00000613          	li	a2,0
   10128:	7b5000ef          	jal	ra,110dc <main>
   1012c:	f69ff06f          	j	10094 <exit>

00010130 <__do_global_dtors_aux>:
   10130:	ff010113          	addi	sp,sp,-16
   10134:	00812423          	sw	s0,8(sp)
   10138:	82c1c783          	lbu	a5,-2004(gp) # 17b70 <completed.1>
   1013c:	00112623          	sw	ra,12(sp)
   10140:	02079263          	bnez	a5,10164 <__do_global_dtors_aux+0x34>
   10144:	00000793          	li	a5,0
   10148:	00078a63          	beqz	a5,1015c <__do_global_dtors_aux+0x2c>
   1014c:	00017537          	lui	a0,0x17
   10150:	19450513          	addi	a0,a0,404 # 17194 <__FRAME_END__>
   10154:	00000097          	auipc	ra,0x0
   10158:	000000e7          	jalr	zero # 0 <exit-0x10094>
   1015c:	00100793          	li	a5,1
   10160:	82f18623          	sb	a5,-2004(gp) # 17b70 <completed.1>
   10164:	00c12083          	lw	ra,12(sp)
   10168:	00812403          	lw	s0,8(sp)
   1016c:	01010113          	addi	sp,sp,16
   10170:	00008067          	ret

00010174 <frame_dummy>:
   10174:	00000793          	li	a5,0
   10178:	00078c63          	beqz	a5,10190 <frame_dummy+0x1c>
   1017c:	00017537          	lui	a0,0x17
   10180:	83018593          	addi	a1,gp,-2000 # 17b74 <object.0>
   10184:	19450513          	addi	a0,a0,404 # 17194 <__FRAME_END__>
   10188:	00000317          	auipc	t1,0x0
   1018c:	00000067          	jr	zero # 0 <exit-0x10094>
   10190:	00008067          	ret

00010194 <heap_adjust>:
   10194:	fd010113          	addi	sp,sp,-48
   10198:	02812623          	sw	s0,44(sp)
   1019c:	03010413          	addi	s0,sp,48
   101a0:	fca42e23          	sw	a0,-36(s0)
   101a4:	fcb42c23          	sw	a1,-40(s0)
   101a8:	fcc42a23          	sw	a2,-44(s0)
   101ac:	fcd42823          	sw	a3,-48(s0)
   101b0:	fd842783          	lw	a5,-40(s0)
   101b4:	ffc78793          	addi	a5,a5,-4
   101b8:	fcf42c23          	sw	a5,-40(s0)
   101bc:	fd042783          	lw	a5,-48(s0)
   101c0:	00279793          	slli	a5,a5,0x2
   101c4:	fd842703          	lw	a4,-40(s0)
   101c8:	00f707b3          	add	a5,a4,a5
   101cc:	0007a783          	lw	a5,0(a5)
   101d0:	fef42423          	sw	a5,-24(s0)
   101d4:	0e40006f          	j	102b8 <heap_adjust+0x124>
   101d8:	fd042783          	lw	a5,-48(s0)
   101dc:	00179793          	slli	a5,a5,0x1
   101e0:	fef42623          	sw	a5,-20(s0)
   101e4:	fec42703          	lw	a4,-20(s0)
   101e8:	fd442783          	lw	a5,-44(s0)
   101ec:	06f75063          	bge	a4,a5,1024c <heap_adjust+0xb8>
   101f0:	fec42783          	lw	a5,-20(s0)
   101f4:	00279793          	slli	a5,a5,0x2
   101f8:	fd842703          	lw	a4,-40(s0)
   101fc:	00f707b3          	add	a5,a4,a5
   10200:	0007a783          	lw	a5,0(a5)
   10204:	00279793          	slli	a5,a5,0x2
   10208:	fdc42703          	lw	a4,-36(s0)
   1020c:	00f707b3          	add	a5,a4,a5
   10210:	0007a703          	lw	a4,0(a5)
   10214:	fec42783          	lw	a5,-20(s0)
   10218:	00178793          	addi	a5,a5,1
   1021c:	00279793          	slli	a5,a5,0x2
   10220:	fd842683          	lw	a3,-40(s0)
   10224:	00f687b3          	add	a5,a3,a5
   10228:	0007a783          	lw	a5,0(a5)
   1022c:	00279793          	slli	a5,a5,0x2
   10230:	fdc42683          	lw	a3,-36(s0)
   10234:	00f687b3          	add	a5,a3,a5
   10238:	0007a783          	lw	a5,0(a5)
   1023c:	00e7f863          	bgeu	a5,a4,1024c <heap_adjust+0xb8>
   10240:	fec42783          	lw	a5,-20(s0)
   10244:	00178793          	addi	a5,a5,1
   10248:	fef42623          	sw	a5,-20(s0)
   1024c:	fe842783          	lw	a5,-24(s0)
   10250:	00279793          	slli	a5,a5,0x2
   10254:	fdc42703          	lw	a4,-36(s0)
   10258:	00f707b3          	add	a5,a4,a5
   1025c:	0007a703          	lw	a4,0(a5)
   10260:	fec42783          	lw	a5,-20(s0)
   10264:	00279793          	slli	a5,a5,0x2
   10268:	fd842683          	lw	a3,-40(s0)
   1026c:	00f687b3          	add	a5,a3,a5
   10270:	0007a783          	lw	a5,0(a5)
   10274:	00279793          	slli	a5,a5,0x2
   10278:	fdc42683          	lw	a3,-36(s0)
   1027c:	00f687b3          	add	a5,a3,a5
   10280:	0007a783          	lw	a5,0(a5)
   10284:	04f76a63          	bltu	a4,a5,102d8 <heap_adjust+0x144>
   10288:	fec42783          	lw	a5,-20(s0)
   1028c:	00279793          	slli	a5,a5,0x2
   10290:	fd842703          	lw	a4,-40(s0)
   10294:	00f70733          	add	a4,a4,a5
   10298:	fd042783          	lw	a5,-48(s0)
   1029c:	00279793          	slli	a5,a5,0x2
   102a0:	fd842683          	lw	a3,-40(s0)
   102a4:	00f687b3          	add	a5,a3,a5
   102a8:	00072703          	lw	a4,0(a4)
   102ac:	00e7a023          	sw	a4,0(a5)
   102b0:	fec42783          	lw	a5,-20(s0)
   102b4:	fcf42823          	sw	a5,-48(s0)
   102b8:	fd442783          	lw	a5,-44(s0)
   102bc:	01f7d713          	srli	a4,a5,0x1f
   102c0:	00f707b3          	add	a5,a4,a5
   102c4:	4017d793          	srai	a5,a5,0x1
   102c8:	00078713          	mv	a4,a5
   102cc:	fd042783          	lw	a5,-48(s0)
   102d0:	f0f754e3          	bge	a4,a5,101d8 <heap_adjust+0x44>
   102d4:	0080006f          	j	102dc <heap_adjust+0x148>
   102d8:	00000013          	nop
   102dc:	fd042783          	lw	a5,-48(s0)
   102e0:	00279793          	slli	a5,a5,0x2
   102e4:	fd842703          	lw	a4,-40(s0)
   102e8:	00f707b3          	add	a5,a4,a5
   102ec:	fe842703          	lw	a4,-24(s0)
   102f0:	00e7a023          	sw	a4,0(a5)
   102f4:	00000013          	nop
   102f8:	02c12403          	lw	s0,44(sp)
   102fc:	03010113          	addi	sp,sp,48
   10300:	00008067          	ret

00010304 <compdecomp>:
   10304:	81010113          	addi	sp,sp,-2032
   10308:	7e112623          	sw	ra,2028(sp)
   1030c:	7e812423          	sw	s0,2024(sp)
   10310:	7f010413          	addi	s0,sp,2032
   10314:	fffff2b7          	lui	t0,0xfffff
   10318:	98028293          	addi	t0,t0,-1664 # ffffe980 <__BSS_END__+0xfffe4bc4>
   1031c:	00510133          	add	sp,sp,t0
   10320:	ffffe7b7          	lui	a5,0xffffe
   10324:	ff078793          	addi	a5,a5,-16 # ffffdff0 <__BSS_END__+0xfffe4234>
   10328:	008787b3          	add	a5,a5,s0
   1032c:	1aa7a623          	sw	a0,428(a5)
   10330:	ffffe7b7          	lui	a5,0xffffe
   10334:	ff078793          	addi	a5,a5,-16 # ffffdff0 <__BSS_END__+0xfffe4234>
   10338:	008787b3          	add	a5,a5,s0
   1033c:	1ab7a423          	sw	a1,424(a5)
   10340:	ffffe7b7          	lui	a5,0xffffe
   10344:	ff078793          	addi	a5,a5,-16 # ffffdff0 <__BSS_END__+0xfffe4234>
   10348:	008787b3          	add	a5,a5,s0
   1034c:	1ac7a783          	lw	a5,428(a5)
   10350:	fcf42a23          	sw	a5,-44(s0)
   10354:	ffffe7b7          	lui	a5,0xffffe
   10358:	ff078793          	addi	a5,a5,-16 # ffffdff0 <__BSS_END__+0xfffe4234>
   1035c:	008787b3          	add	a5,a5,s0
   10360:	1a87a783          	lw	a5,424(a5)
   10364:	00178793          	addi	a5,a5,1
   10368:	00078513          	mv	a0,a5
   1036c:	661000ef          	jal	ra,111cc <malloc_beebs>
   10370:	faa42623          	sw	a0,-84(s0)
   10374:	ffffe7b7          	lui	a5,0xffffe
   10378:	ff078793          	addi	a5,a5,-16 # ffffdff0 <__BSS_END__+0xfffe4234>
   1037c:	008787b3          	add	a5,a5,s0
   10380:	1a87a783          	lw	a5,424(a5)
   10384:	00178793          	addi	a5,a5,1
   10388:	00078613          	mv	a2,a5
   1038c:	00000593          	li	a1,0
   10390:	fac42503          	lw	a0,-84(s0)
   10394:	224010ef          	jal	ra,115b8 <memset>
   10398:	fffff7b7          	lui	a5,0xfffff
   1039c:	7b078793          	addi	a5,a5,1968 # fffff7b0 <__BSS_END__+0xfffe59f4>
   103a0:	ff078793          	addi	a5,a5,-16
   103a4:	00878733          	add	a4,a5,s0
   103a8:	000017b7          	lui	a5,0x1
   103ac:	80078613          	addi	a2,a5,-2048 # 800 <exit-0xf894>
   103b0:	00000593          	li	a1,0
   103b4:	00070513          	mv	a0,a4
   103b8:	200010ef          	jal	ra,115b8 <memset>
   103bc:	fffff7b7          	lui	a5,0xfffff
   103c0:	3b078793          	addi	a5,a5,944 # fffff3b0 <__BSS_END__+0xfffe55f4>
   103c4:	ff078793          	addi	a5,a5,-16
   103c8:	008787b3          	add	a5,a5,s0
   103cc:	40000613          	li	a2,1024
   103d0:	00000593          	li	a1,0
   103d4:	00078513          	mv	a0,a5
   103d8:	1e0010ef          	jal	ra,115b8 <memset>
   103dc:	fffff7b7          	lui	a5,0xfffff
   103e0:	bb078793          	addi	a5,a5,-1104 # ffffebb0 <__BSS_END__+0xfffe4df4>
   103e4:	ff078793          	addi	a5,a5,-16
   103e8:	00878733          	add	a4,a5,s0
   103ec:	000017b7          	lui	a5,0x1
   103f0:	80078613          	addi	a2,a5,-2048 # 800 <exit-0xf894>
   103f4:	00000593          	li	a1,0
   103f8:	00070513          	mv	a0,a4
   103fc:	1bc010ef          	jal	ra,115b8 <memset>
   10400:	ffffe7b7          	lui	a5,0xffffe
   10404:	7b078793          	addi	a5,a5,1968 # ffffe7b0 <__BSS_END__+0xfffe49f4>
   10408:	ff078793          	addi	a5,a5,-16
   1040c:	008787b3          	add	a5,a5,s0
   10410:	40000613          	li	a2,1024
   10414:	00000593          	li	a1,0
   10418:	00078513          	mv	a0,a5
   1041c:	19c010ef          	jal	ra,115b8 <memset>
   10420:	ffffe7b7          	lui	a5,0xffffe
   10424:	6b078793          	addi	a5,a5,1712 # ffffe6b0 <__BSS_END__+0xfffe48f4>
   10428:	ff078793          	addi	a5,a5,-16
   1042c:	008787b3          	add	a5,a5,s0
   10430:	10000613          	li	a2,256
   10434:	00000593          	li	a1,0
   10438:	00078513          	mv	a0,a5
   1043c:	17c010ef          	jal	ra,115b8 <memset>
   10440:	fe042623          	sw	zero,-20(s0)
   10444:	05c0006f          	j	104a0 <compdecomp+0x19c>
   10448:	fd442783          	lw	a5,-44(s0)
   1044c:	0007c783          	lbu	a5,0(a5)
   10450:	00078713          	mv	a4,a5
   10454:	fffff7b7          	lui	a5,0xfffff
   10458:	ff078793          	addi	a5,a5,-16 # ffffeff0 <__BSS_END__+0xfffe5234>
   1045c:	008786b3          	add	a3,a5,s0
   10460:	00271793          	slli	a5,a4,0x2
   10464:	00f687b3          	add	a5,a3,a5
   10468:	7b07a783          	lw	a5,1968(a5)
   1046c:	00178693          	addi	a3,a5,1
   10470:	fffff7b7          	lui	a5,0xfffff
   10474:	ff078793          	addi	a5,a5,-16 # ffffeff0 <__BSS_END__+0xfffe5234>
   10478:	00878633          	add	a2,a5,s0
   1047c:	00271793          	slli	a5,a4,0x2
   10480:	00f607b3          	add	a5,a2,a5
   10484:	7ad7a823          	sw	a3,1968(a5)
   10488:	fd442783          	lw	a5,-44(s0)
   1048c:	00178793          	addi	a5,a5,1
   10490:	fcf42a23          	sw	a5,-44(s0)
   10494:	fec42783          	lw	a5,-20(s0)
   10498:	00178793          	addi	a5,a5,1
   1049c:	fef42623          	sw	a5,-20(s0)
   104a0:	ffffe7b7          	lui	a5,0xffffe
   104a4:	ff078793          	addi	a5,a5,-16 # ffffdff0 <__BSS_END__+0xfffe4234>
   104a8:	008787b3          	add	a5,a5,s0
   104ac:	fec42703          	lw	a4,-20(s0)
   104b0:	1a87a783          	lw	a5,424(a5)
   104b4:	f8f76ae3          	bltu	a4,a5,10448 <compdecomp+0x144>
   104b8:	fe042223          	sw	zero,-28(s0)
   104bc:	fe042623          	sw	zero,-20(s0)
   104c0:	05c0006f          	j	1051c <compdecomp+0x218>
   104c4:	fffff7b7          	lui	a5,0xfffff
   104c8:	ff078793          	addi	a5,a5,-16 # ffffeff0 <__BSS_END__+0xfffe5234>
   104cc:	00878733          	add	a4,a5,s0
   104d0:	fec42783          	lw	a5,-20(s0)
   104d4:	00279793          	slli	a5,a5,0x2
   104d8:	00f707b3          	add	a5,a4,a5
   104dc:	7b07a783          	lw	a5,1968(a5)
   104e0:	02078863          	beqz	a5,10510 <compdecomp+0x20c>
   104e4:	fffff7b7          	lui	a5,0xfffff
   104e8:	ff078793          	addi	a5,a5,-16 # ffffeff0 <__BSS_END__+0xfffe5234>
   104ec:	00878733          	add	a4,a5,s0
   104f0:	fe442783          	lw	a5,-28(s0)
   104f4:	00279793          	slli	a5,a5,0x2
   104f8:	00f707b3          	add	a5,a4,a5
   104fc:	fec42703          	lw	a4,-20(s0)
   10500:	3ae7a823          	sw	a4,944(a5)
   10504:	fe442783          	lw	a5,-28(s0)
   10508:	00178793          	addi	a5,a5,1
   1050c:	fef42223          	sw	a5,-28(s0)
   10510:	fec42783          	lw	a5,-20(s0)
   10514:	00178793          	addi	a5,a5,1
   10518:	fef42623          	sw	a5,-20(s0)
   1051c:	fec42703          	lw	a4,-20(s0)
   10520:	0ff00793          	li	a5,255
   10524:	fae7f0e3          	bgeu	a5,a4,104c4 <compdecomp+0x1c0>
   10528:	fe442783          	lw	a5,-28(s0)
   1052c:	fef42623          	sw	a5,-20(s0)
   10530:	0440006f          	j	10574 <compdecomp+0x270>
   10534:	fe442603          	lw	a2,-28(s0)
   10538:	fec42683          	lw	a3,-20(s0)
   1053c:	fffff7b7          	lui	a5,0xfffff
   10540:	3b078793          	addi	a5,a5,944 # fffff3b0 <__BSS_END__+0xfffe55f4>
   10544:	ff078793          	addi	a5,a5,-16
   10548:	00878733          	add	a4,a5,s0
   1054c:	fffff7b7          	lui	a5,0xfffff
   10550:	7b078793          	addi	a5,a5,1968 # fffff7b0 <__BSS_END__+0xfffe59f4>
   10554:	ff078793          	addi	a5,a5,-16
   10558:	008787b3          	add	a5,a5,s0
   1055c:	00070593          	mv	a1,a4
   10560:	00078513          	mv	a0,a5
   10564:	c31ff0ef          	jal	ra,10194 <heap_adjust>
   10568:	fec42783          	lw	a5,-20(s0)
   1056c:	fff78793          	addi	a5,a5,-1
   10570:	fef42623          	sw	a5,-20(s0)
   10574:	fec42783          	lw	a5,-20(s0)
   10578:	fa079ee3          	bnez	a5,10534 <compdecomp+0x230>
   1057c:	1980006f          	j	10714 <compdecomp+0x410>
   10580:	fe442783          	lw	a5,-28(s0)
   10584:	fff78793          	addi	a5,a5,-1
   10588:	fef42223          	sw	a5,-28(s0)
   1058c:	fffff7b7          	lui	a5,0xfffff
   10590:	ff078793          	addi	a5,a5,-16 # ffffeff0 <__BSS_END__+0xfffe5234>
   10594:	008787b3          	add	a5,a5,s0
   10598:	3b07a783          	lw	a5,944(a5)
   1059c:	faf42023          	sw	a5,-96(s0)
   105a0:	fffff7b7          	lui	a5,0xfffff
   105a4:	ff078793          	addi	a5,a5,-16 # ffffeff0 <__BSS_END__+0xfffe5234>
   105a8:	00878733          	add	a4,a5,s0
   105ac:	fe442783          	lw	a5,-28(s0)
   105b0:	00279793          	slli	a5,a5,0x2
   105b4:	00f707b3          	add	a5,a4,a5
   105b8:	3b07a703          	lw	a4,944(a5)
   105bc:	fffff7b7          	lui	a5,0xfffff
   105c0:	ff078793          	addi	a5,a5,-16 # ffffeff0 <__BSS_END__+0xfffe5234>
   105c4:	008787b3          	add	a5,a5,s0
   105c8:	3ae7a823          	sw	a4,944(a5)
   105cc:	fe442603          	lw	a2,-28(s0)
   105d0:	fffff7b7          	lui	a5,0xfffff
   105d4:	3b078793          	addi	a5,a5,944 # fffff3b0 <__BSS_END__+0xfffe55f4>
   105d8:	ff078793          	addi	a5,a5,-16
   105dc:	00878733          	add	a4,a5,s0
   105e0:	fffff7b7          	lui	a5,0xfffff
   105e4:	7b078793          	addi	a5,a5,1968 # fffff7b0 <__BSS_END__+0xfffe59f4>
   105e8:	ff078793          	addi	a5,a5,-16
   105ec:	008787b3          	add	a5,a5,s0
   105f0:	00100693          	li	a3,1
   105f4:	00070593          	mv	a1,a4
   105f8:	00078513          	mv	a0,a5
   105fc:	b99ff0ef          	jal	ra,10194 <heap_adjust>
   10600:	fffff7b7          	lui	a5,0xfffff
   10604:	ff078793          	addi	a5,a5,-16 # ffffeff0 <__BSS_END__+0xfffe5234>
   10608:	008787b3          	add	a5,a5,s0
   1060c:	3b07a783          	lw	a5,944(a5)
   10610:	fffff737          	lui	a4,0xfffff
   10614:	ff070713          	addi	a4,a4,-16 # ffffeff0 <__BSS_END__+0xfffe5234>
   10618:	00870733          	add	a4,a4,s0
   1061c:	00279793          	slli	a5,a5,0x2
   10620:	00f707b3          	add	a5,a4,a5
   10624:	7b07a683          	lw	a3,1968(a5)
   10628:	fffff7b7          	lui	a5,0xfffff
   1062c:	ff078793          	addi	a5,a5,-16 # ffffeff0 <__BSS_END__+0xfffe5234>
   10630:	00878733          	add	a4,a5,s0
   10634:	fa042783          	lw	a5,-96(s0)
   10638:	00279793          	slli	a5,a5,0x2
   1063c:	00f707b3          	add	a5,a4,a5
   10640:	7b07a703          	lw	a4,1968(a5)
   10644:	fe442783          	lw	a5,-28(s0)
   10648:	10078793          	addi	a5,a5,256
   1064c:	00e68733          	add	a4,a3,a4
   10650:	fffff6b7          	lui	a3,0xfffff
   10654:	ff068693          	addi	a3,a3,-16 # ffffeff0 <__BSS_END__+0xfffe5234>
   10658:	008686b3          	add	a3,a3,s0
   1065c:	00279793          	slli	a5,a5,0x2
   10660:	00f687b3          	add	a5,a3,a5
   10664:	7ae7a823          	sw	a4,1968(a5)
   10668:	fe442783          	lw	a5,-28(s0)
   1066c:	10078793          	addi	a5,a5,256
   10670:	00078693          	mv	a3,a5
   10674:	fffff7b7          	lui	a5,0xfffff
   10678:	ff078793          	addi	a5,a5,-16 # ffffeff0 <__BSS_END__+0xfffe5234>
   1067c:	00878733          	add	a4,a5,s0
   10680:	fa042783          	lw	a5,-96(s0)
   10684:	00279793          	slli	a5,a5,0x2
   10688:	00f707b3          	add	a5,a4,a5
   1068c:	bad7a823          	sw	a3,-1104(a5)
   10690:	f0000713          	li	a4,-256
   10694:	fe442783          	lw	a5,-28(s0)
   10698:	40f70733          	sub	a4,a4,a5
   1069c:	fffff7b7          	lui	a5,0xfffff
   106a0:	ff078793          	addi	a5,a5,-16 # ffffeff0 <__BSS_END__+0xfffe5234>
   106a4:	008787b3          	add	a5,a5,s0
   106a8:	3b07a783          	lw	a5,944(a5)
   106ac:	00070693          	mv	a3,a4
   106b0:	fffff737          	lui	a4,0xfffff
   106b4:	ff070713          	addi	a4,a4,-16 # ffffeff0 <__BSS_END__+0xfffe5234>
   106b8:	00870733          	add	a4,a4,s0
   106bc:	00279793          	slli	a5,a5,0x2
   106c0:	00f707b3          	add	a5,a4,a5
   106c4:	bad7a823          	sw	a3,-1104(a5)
   106c8:	fe442783          	lw	a5,-28(s0)
   106cc:	10078713          	addi	a4,a5,256
   106d0:	fffff7b7          	lui	a5,0xfffff
   106d4:	ff078793          	addi	a5,a5,-16 # ffffeff0 <__BSS_END__+0xfffe5234>
   106d8:	008787b3          	add	a5,a5,s0
   106dc:	3ae7a823          	sw	a4,944(a5)
   106e0:	fe442603          	lw	a2,-28(s0)
   106e4:	fffff7b7          	lui	a5,0xfffff
   106e8:	3b078793          	addi	a5,a5,944 # fffff3b0 <__BSS_END__+0xfffe55f4>
   106ec:	ff078793          	addi	a5,a5,-16
   106f0:	00878733          	add	a4,a5,s0
   106f4:	fffff7b7          	lui	a5,0xfffff
   106f8:	7b078793          	addi	a5,a5,1968 # fffff7b0 <__BSS_END__+0xfffe59f4>
   106fc:	ff078793          	addi	a5,a5,-16
   10700:	008787b3          	add	a5,a5,s0
   10704:	00100693          	li	a3,1
   10708:	00070593          	mv	a1,a4
   1070c:	00078513          	mv	a0,a5
   10710:	a85ff0ef          	jal	ra,10194 <heap_adjust>
   10714:	fe442703          	lw	a4,-28(s0)
   10718:	00100793          	li	a5,1
   1071c:	e6e7e2e3          	bltu	a5,a4,10580 <compdecomp+0x27c>
   10720:	fe442783          	lw	a5,-28(s0)
   10724:	10078793          	addi	a5,a5,256
   10728:	fffff737          	lui	a4,0xfffff
   1072c:	ff070713          	addi	a4,a4,-16 # ffffeff0 <__BSS_END__+0xfffe5234>
   10730:	00870733          	add	a4,a4,s0
   10734:	00279793          	slli	a5,a5,0x2
   10738:	00f707b3          	add	a5,a4,a5
   1073c:	ba07a823          	sw	zero,-1104(a5)
   10740:	fc042423          	sw	zero,-56(s0)
   10744:	fc042223          	sw	zero,-60(s0)
   10748:	fc042823          	sw	zero,-48(s0)
   1074c:	1680006f          	j	108b4 <compdecomp+0x5b0>
   10750:	fffff7b7          	lui	a5,0xfffff
   10754:	ff078793          	addi	a5,a5,-16 # ffffeff0 <__BSS_END__+0xfffe5234>
   10758:	00878733          	add	a4,a5,s0
   1075c:	fd042783          	lw	a5,-48(s0)
   10760:	00279793          	slli	a5,a5,0x2
   10764:	00f707b3          	add	a5,a4,a5
   10768:	7b07a783          	lw	a5,1968(a5)
   1076c:	02079e63          	bnez	a5,107a8 <compdecomp+0x4a4>
   10770:	ffffe7b7          	lui	a5,0xffffe
   10774:	ff078793          	addi	a5,a5,-16 # ffffdff0 <__BSS_END__+0xfffe4234>
   10778:	00878733          	add	a4,a5,s0
   1077c:	fd042783          	lw	a5,-48(s0)
   10780:	00279793          	slli	a5,a5,0x2
   10784:	00f707b3          	add	a5,a4,a5
   10788:	7a07a823          	sw	zero,1968(a5)
   1078c:	ffffe7b7          	lui	a5,0xffffe
   10790:	ff078793          	addi	a5,a5,-16 # ffffdff0 <__BSS_END__+0xfffe4234>
   10794:	00878733          	add	a4,a5,s0
   10798:	fd042783          	lw	a5,-48(s0)
   1079c:	00f707b3          	add	a5,a4,a5
   107a0:	6a078823          	sb	zero,1712(a5)
   107a4:	1040006f          	j	108a8 <compdecomp+0x5a4>
   107a8:	fe042623          	sw	zero,-20(s0)
   107ac:	00100793          	li	a5,1
   107b0:	fef42423          	sw	a5,-24(s0)
   107b4:	fc042623          	sw	zero,-52(s0)
   107b8:	fffff7b7          	lui	a5,0xfffff
   107bc:	ff078793          	addi	a5,a5,-16 # ffffeff0 <__BSS_END__+0xfffe5234>
   107c0:	00878733          	add	a4,a5,s0
   107c4:	fd042783          	lw	a5,-48(s0)
   107c8:	00279793          	slli	a5,a5,0x2
   107cc:	00f707b3          	add	a5,a4,a5
   107d0:	bb07a783          	lw	a5,-1104(a5)
   107d4:	fcf42023          	sw	a5,-64(s0)
   107d8:	0600006f          	j	10838 <compdecomp+0x534>
   107dc:	fc042783          	lw	a5,-64(s0)
   107e0:	0207d063          	bgez	a5,10800 <compdecomp+0x4fc>
   107e4:	fcc42703          	lw	a4,-52(s0)
   107e8:	fe842783          	lw	a5,-24(s0)
   107ec:	00f707b3          	add	a5,a4,a5
   107f0:	fcf42623          	sw	a5,-52(s0)
   107f4:	fc042783          	lw	a5,-64(s0)
   107f8:	40f007b3          	neg	a5,a5
   107fc:	fcf42023          	sw	a5,-64(s0)
   10800:	fffff7b7          	lui	a5,0xfffff
   10804:	ff078793          	addi	a5,a5,-16 # ffffeff0 <__BSS_END__+0xfffe5234>
   10808:	00878733          	add	a4,a5,s0
   1080c:	fc042783          	lw	a5,-64(s0)
   10810:	00279793          	slli	a5,a5,0x2
   10814:	00f707b3          	add	a5,a4,a5
   10818:	bb07a783          	lw	a5,-1104(a5)
   1081c:	fcf42023          	sw	a5,-64(s0)
   10820:	fe842783          	lw	a5,-24(s0)
   10824:	00179793          	slli	a5,a5,0x1
   10828:	fef42423          	sw	a5,-24(s0)
   1082c:	fec42783          	lw	a5,-20(s0)
   10830:	00178793          	addi	a5,a5,1
   10834:	fef42623          	sw	a5,-20(s0)
   10838:	fc042783          	lw	a5,-64(s0)
   1083c:	fa0790e3          	bnez	a5,107dc <compdecomp+0x4d8>
   10840:	ffffe7b7          	lui	a5,0xffffe
   10844:	ff078793          	addi	a5,a5,-16 # ffffdff0 <__BSS_END__+0xfffe4234>
   10848:	00878733          	add	a4,a5,s0
   1084c:	fd042783          	lw	a5,-48(s0)
   10850:	00279793          	slli	a5,a5,0x2
   10854:	00f707b3          	add	a5,a4,a5
   10858:	fcc42703          	lw	a4,-52(s0)
   1085c:	7ae7a823          	sw	a4,1968(a5)
   10860:	fec42783          	lw	a5,-20(s0)
   10864:	0ff7f713          	zext.b	a4,a5
   10868:	ffffe7b7          	lui	a5,0xffffe
   1086c:	ff078793          	addi	a5,a5,-16 # ffffdff0 <__BSS_END__+0xfffe4234>
   10870:	008786b3          	add	a3,a5,s0
   10874:	fd042783          	lw	a5,-48(s0)
   10878:	00f687b3          	add	a5,a3,a5
   1087c:	6ae78823          	sb	a4,1712(a5)
   10880:	fcc42703          	lw	a4,-52(s0)
   10884:	fc842783          	lw	a5,-56(s0)
   10888:	00e7f663          	bgeu	a5,a4,10894 <compdecomp+0x590>
   1088c:	fcc42783          	lw	a5,-52(s0)
   10890:	fcf42423          	sw	a5,-56(s0)
   10894:	fec42703          	lw	a4,-20(s0)
   10898:	fc442783          	lw	a5,-60(s0)
   1089c:	00e7f663          	bgeu	a5,a4,108a8 <compdecomp+0x5a4>
   108a0:	fec42783          	lw	a5,-20(s0)
   108a4:	fcf42223          	sw	a5,-60(s0)
   108a8:	fd042783          	lw	a5,-48(s0)
   108ac:	00178793          	addi	a5,a5,1
   108b0:	fcf42823          	sw	a5,-48(s0)
   108b4:	fd042703          	lw	a4,-48(s0)
   108b8:	0ff00793          	li	a5,255
   108bc:	e8e7fae3          	bgeu	a5,a4,10750 <compdecomp+0x44c>
   108c0:	fc442703          	lw	a4,-60(s0)
   108c4:	02000793          	li	a5,32
   108c8:	62e7e263          	bltu	a5,a4,10eec <compdecomp+0xbe8>
   108cc:	fa042e23          	sw	zero,-68(s0)
   108d0:	fa040da3          	sb	zero,-69(s0)
   108d4:	fff00793          	li	a5,-1
   108d8:	faf42a23          	sw	a5,-76(s0)
   108dc:	ffffe7b7          	lui	a5,0xffffe
   108e0:	ff078793          	addi	a5,a5,-16 # ffffdff0 <__BSS_END__+0xfffe4234>
   108e4:	008787b3          	add	a5,a5,s0
   108e8:	1ac7a783          	lw	a5,428(a5)
   108ec:	fcf42a23          	sw	a5,-44(s0)
   108f0:	fc842783          	lw	a5,-56(s0)
   108f4:	60078063          	beqz	a5,10ef4 <compdecomp+0xbf0>
   108f8:	fe042423          	sw	zero,-24(s0)
   108fc:	13c0006f          	j	10a38 <compdecomp+0x734>
   10900:	fd442783          	lw	a5,-44(s0)
   10904:	0007c783          	lbu	a5,0(a5)
   10908:	00078713          	mv	a4,a5
   1090c:	ffffe7b7          	lui	a5,0xffffe
   10910:	ff078793          	addi	a5,a5,-16 # ffffdff0 <__BSS_END__+0xfffe4234>
   10914:	008787b3          	add	a5,a5,s0
   10918:	00e787b3          	add	a5,a5,a4
   1091c:	6b07c783          	lbu	a5,1712(a5)
   10920:	fff78793          	addi	a5,a5,-1
   10924:	00100713          	li	a4,1
   10928:	00f717b3          	sll	a5,a4,a5
   1092c:	fef42023          	sw	a5,-32(s0)
   10930:	fe042623          	sw	zero,-20(s0)
   10934:	0c00006f          	j	109f4 <compdecomp+0x6f0>
   10938:	fb442703          	lw	a4,-76(s0)
   1093c:	00700793          	li	a5,7
   10940:	04f71463          	bne	a4,a5,10988 <compdecomp+0x684>
   10944:	fac42703          	lw	a4,-84(s0)
   10948:	fbc42783          	lw	a5,-68(s0)
   1094c:	00f707b3          	add	a5,a4,a5
   10950:	fbb44703          	lbu	a4,-69(s0)
   10954:	00e78023          	sb	a4,0(a5)
   10958:	fbc42783          	lw	a5,-68(s0)
   1095c:	00178793          	addi	a5,a5,1
   10960:	faf42e23          	sw	a5,-68(s0)
   10964:	ffffe7b7          	lui	a5,0xffffe
   10968:	ff078793          	addi	a5,a5,-16 # ffffdff0 <__BSS_END__+0xfffe4234>
   1096c:	008787b3          	add	a5,a5,s0
   10970:	fbc42703          	lw	a4,-68(s0)
   10974:	1a87a783          	lw	a5,424(a5)
   10978:	58f70263          	beq	a4,a5,10efc <compdecomp+0xbf8>
   1097c:	fa042a23          	sw	zero,-76(s0)
   10980:	fa040da3          	sb	zero,-69(s0)
   10984:	01c0006f          	j	109a0 <compdecomp+0x69c>
   10988:	fb442783          	lw	a5,-76(s0)
   1098c:	00178793          	addi	a5,a5,1
   10990:	faf42a23          	sw	a5,-76(s0)
   10994:	fbb44783          	lbu	a5,-69(s0)
   10998:	00179793          	slli	a5,a5,0x1
   1099c:	faf40da3          	sb	a5,-69(s0)
   109a0:	fd442783          	lw	a5,-44(s0)
   109a4:	0007c783          	lbu	a5,0(a5)
   109a8:	00078693          	mv	a3,a5
   109ac:	ffffe7b7          	lui	a5,0xffffe
   109b0:	ff078793          	addi	a5,a5,-16 # ffffdff0 <__BSS_END__+0xfffe4234>
   109b4:	00878733          	add	a4,a5,s0
   109b8:	00269793          	slli	a5,a3,0x2
   109bc:	00f707b3          	add	a5,a4,a5
   109c0:	7b07a703          	lw	a4,1968(a5)
   109c4:	fe042783          	lw	a5,-32(s0)
   109c8:	00f777b3          	and	a5,a4,a5
   109cc:	00078863          	beqz	a5,109dc <compdecomp+0x6d8>
   109d0:	fbb44783          	lbu	a5,-69(s0)
   109d4:	0017e793          	ori	a5,a5,1
   109d8:	faf40da3          	sb	a5,-69(s0)
   109dc:	fe042783          	lw	a5,-32(s0)
   109e0:	0017d793          	srli	a5,a5,0x1
   109e4:	fef42023          	sw	a5,-32(s0)
   109e8:	fec42783          	lw	a5,-20(s0)
   109ec:	00178793          	addi	a5,a5,1
   109f0:	fef42623          	sw	a5,-20(s0)
   109f4:	fd442783          	lw	a5,-44(s0)
   109f8:	0007c783          	lbu	a5,0(a5)
   109fc:	00078713          	mv	a4,a5
   10a00:	ffffe7b7          	lui	a5,0xffffe
   10a04:	ff078793          	addi	a5,a5,-16 # ffffdff0 <__BSS_END__+0xfffe4234>
   10a08:	008787b3          	add	a5,a5,s0
   10a0c:	00e787b3          	add	a5,a5,a4
   10a10:	6b07c783          	lbu	a5,1712(a5)
   10a14:	00078713          	mv	a4,a5
   10a18:	fec42783          	lw	a5,-20(s0)
   10a1c:	f0e7eee3          	bltu	a5,a4,10938 <compdecomp+0x634>
   10a20:	fd442783          	lw	a5,-44(s0)
   10a24:	00178793          	addi	a5,a5,1
   10a28:	fcf42a23          	sw	a5,-44(s0)
   10a2c:	fe842783          	lw	a5,-24(s0)
   10a30:	00178793          	addi	a5,a5,1
   10a34:	fef42423          	sw	a5,-24(s0)
   10a38:	ffffe7b7          	lui	a5,0xffffe
   10a3c:	ff078793          	addi	a5,a5,-16 # ffffdff0 <__BSS_END__+0xfffe4234>
   10a40:	008787b3          	add	a5,a5,s0
   10a44:	fe842703          	lw	a4,-24(s0)
   10a48:	1a87a783          	lw	a5,424(a5)
   10a4c:	eaf76ae3          	bltu	a4,a5,10900 <compdecomp+0x5fc>
   10a50:	fbb44703          	lbu	a4,-69(s0)
   10a54:	00700693          	li	a3,7
   10a58:	fb442783          	lw	a5,-76(s0)
   10a5c:	40f687b3          	sub	a5,a3,a5
   10a60:	00f717b3          	sll	a5,a4,a5
   10a64:	faf40da3          	sb	a5,-69(s0)
   10a68:	fac42703          	lw	a4,-84(s0)
   10a6c:	fbc42783          	lw	a5,-68(s0)
   10a70:	00f707b3          	add	a5,a4,a5
   10a74:	fbb44703          	lbu	a4,-69(s0)
   10a78:	00e78023          	sb	a4,0(a5)
   10a7c:	fbc42783          	lw	a5,-68(s0)
   10a80:	00178793          	addi	a5,a5,1
   10a84:	faf42e23          	sw	a5,-68(s0)
   10a88:	ffffe7b7          	lui	a5,0xffffe
   10a8c:	2b078793          	addi	a5,a5,688 # ffffe2b0 <__BSS_END__+0xfffe44f4>
   10a90:	ff078793          	addi	a5,a5,-16
   10a94:	008787b3          	add	a5,a5,s0
   10a98:	40000613          	li	a2,1024
   10a9c:	00000593          	li	a1,0
   10aa0:	00078513          	mv	a0,a5
   10aa4:	315000ef          	jal	ra,115b8 <memset>
   10aa8:	ffffe7b7          	lui	a5,0xffffe
   10aac:	1b078793          	addi	a5,a5,432 # ffffe1b0 <__BSS_END__+0xfffe43f4>
   10ab0:	ff078793          	addi	a5,a5,-16
   10ab4:	008787b3          	add	a5,a5,s0
   10ab8:	faf42823          	sw	a5,-80(s0)
   10abc:	fe042423          	sw	zero,-24(s0)
   10ac0:	13c0006f          	j	10bfc <compdecomp+0x8f8>
   10ac4:	fe842783          	lw	a5,-24(s0)
   10ac8:	0ff7f713          	zext.b	a4,a5
   10acc:	fb042783          	lw	a5,-80(s0)
   10ad0:	00e78023          	sb	a4,0(a5)
   10ad4:	fb042783          	lw	a5,-80(s0)
   10ad8:	00178793          	addi	a5,a5,1
   10adc:	faf42823          	sw	a5,-80(s0)
   10ae0:	ffffe7b7          	lui	a5,0xffffe
   10ae4:	ff078793          	addi	a5,a5,-16 # ffffdff0 <__BSS_END__+0xfffe4234>
   10ae8:	00878733          	add	a4,a5,s0
   10aec:	fe842783          	lw	a5,-24(s0)
   10af0:	00279793          	slli	a5,a5,0x2
   10af4:	00f707b3          	add	a5,a4,a5
   10af8:	7b07a783          	lw	a5,1968(a5)
   10afc:	ffffe737          	lui	a4,0xffffe
   10b00:	ff070713          	addi	a4,a4,-16 # ffffdff0 <__BSS_END__+0xfffe4234>
   10b04:	008706b3          	add	a3,a4,s0
   10b08:	fe842703          	lw	a4,-24(s0)
   10b0c:	00e68733          	add	a4,a3,a4
   10b10:	6b074703          	lbu	a4,1712(a4)
   10b14:	00e7e7b3          	or	a5,a5,a4
   10b18:	0c078c63          	beqz	a5,10bf0 <compdecomp+0x8ec>
   10b1c:	fc042e23          	sw	zero,-36(s0)
   10b20:	ffffe7b7          	lui	a5,0xffffe
   10b24:	ff078793          	addi	a5,a5,-16 # ffffdff0 <__BSS_END__+0xfffe4234>
   10b28:	00878733          	add	a4,a5,s0
   10b2c:	fe842783          	lw	a5,-24(s0)
   10b30:	00f707b3          	add	a5,a4,a5
   10b34:	6b07c783          	lbu	a5,1712(a5)
   10b38:	fff78793          	addi	a5,a5,-1
   10b3c:	00100713          	li	a4,1
   10b40:	00f717b3          	sll	a5,a4,a5
   10b44:	fef42023          	sw	a5,-32(s0)
   10b48:	fe042623          	sw	zero,-20(s0)
   10b4c:	0600006f          	j	10bac <compdecomp+0x8a8>
   10b50:	fdc42783          	lw	a5,-36(s0)
   10b54:	00179793          	slli	a5,a5,0x1
   10b58:	00178793          	addi	a5,a5,1
   10b5c:	fcf42e23          	sw	a5,-36(s0)
   10b60:	ffffe7b7          	lui	a5,0xffffe
   10b64:	ff078793          	addi	a5,a5,-16 # ffffdff0 <__BSS_END__+0xfffe4234>
   10b68:	00878733          	add	a4,a5,s0
   10b6c:	fe842783          	lw	a5,-24(s0)
   10b70:	00279793          	slli	a5,a5,0x2
   10b74:	00f707b3          	add	a5,a4,a5
   10b78:	7b07a703          	lw	a4,1968(a5)
   10b7c:	fe042783          	lw	a5,-32(s0)
   10b80:	00f777b3          	and	a5,a4,a5
   10b84:	00078863          	beqz	a5,10b94 <compdecomp+0x890>
   10b88:	fdc42783          	lw	a5,-36(s0)
   10b8c:	00178793          	addi	a5,a5,1
   10b90:	fcf42e23          	sw	a5,-36(s0)
   10b94:	fe042783          	lw	a5,-32(s0)
   10b98:	0017d793          	srli	a5,a5,0x1
   10b9c:	fef42023          	sw	a5,-32(s0)
   10ba0:	fec42783          	lw	a5,-20(s0)
   10ba4:	00178793          	addi	a5,a5,1
   10ba8:	fef42623          	sw	a5,-20(s0)
   10bac:	ffffe7b7          	lui	a5,0xffffe
   10bb0:	ff078793          	addi	a5,a5,-16 # ffffdff0 <__BSS_END__+0xfffe4234>
   10bb4:	00878733          	add	a4,a5,s0
   10bb8:	fe842783          	lw	a5,-24(s0)
   10bbc:	00f707b3          	add	a5,a4,a5
   10bc0:	6b07c783          	lbu	a5,1712(a5)
   10bc4:	00078713          	mv	a4,a5
   10bc8:	fec42783          	lw	a5,-20(s0)
   10bcc:	f8e7e2e3          	bltu	a5,a4,10b50 <compdecomp+0x84c>
   10bd0:	ffffe7b7          	lui	a5,0xffffe
   10bd4:	ff078793          	addi	a5,a5,-16 # ffffdff0 <__BSS_END__+0xfffe4234>
   10bd8:	00878733          	add	a4,a5,s0
   10bdc:	fe842783          	lw	a5,-24(s0)
   10be0:	00279793          	slli	a5,a5,0x2
   10be4:	00f707b3          	add	a5,a4,a5
   10be8:	fdc42703          	lw	a4,-36(s0)
   10bec:	2ae7a823          	sw	a4,688(a5)
   10bf0:	fe842783          	lw	a5,-24(s0)
   10bf4:	00178793          	addi	a5,a5,1
   10bf8:	fef42423          	sw	a5,-24(s0)
   10bfc:	fe842703          	lw	a4,-24(s0)
   10c00:	0ff00793          	li	a5,255
   10c04:	ece7f0e3          	bgeu	a5,a4,10ac4 <compdecomp+0x7c0>
   10c08:	00100793          	li	a5,1
   10c0c:	fef42623          	sw	a5,-20(s0)
   10c10:	1400006f          	j	10d50 <compdecomp+0xa4c>
   10c14:	ffffe7b7          	lui	a5,0xffffe
   10c18:	ff078793          	addi	a5,a5,-16 # ffffdff0 <__BSS_END__+0xfffe4234>
   10c1c:	00878733          	add	a4,a5,s0
   10c20:	fec42783          	lw	a5,-20(s0)
   10c24:	00279793          	slli	a5,a5,0x2
   10c28:	00f707b3          	add	a5,a4,a5
   10c2c:	2b07a783          	lw	a5,688(a5)
   10c30:	faf42423          	sw	a5,-88(s0)
   10c34:	ffffe7b7          	lui	a5,0xffffe
   10c38:	ff078793          	addi	a5,a5,-16 # ffffdff0 <__BSS_END__+0xfffe4234>
   10c3c:	00878733          	add	a4,a5,s0
   10c40:	fec42783          	lw	a5,-20(s0)
   10c44:	00f707b3          	add	a5,a4,a5
   10c48:	1b07c783          	lbu	a5,432(a5)
   10c4c:	faf403a3          	sb	a5,-89(s0)
   10c50:	fec42783          	lw	a5,-20(s0)
   10c54:	fef42423          	sw	a5,-24(s0)
   10c58:	0800006f          	j	10cd8 <compdecomp+0x9d4>
   10c5c:	fe842783          	lw	a5,-24(s0)
   10c60:	fff78793          	addi	a5,a5,-1
   10c64:	ffffe737          	lui	a4,0xffffe
   10c68:	ff070713          	addi	a4,a4,-16 # ffffdff0 <__BSS_END__+0xfffe4234>
   10c6c:	00870733          	add	a4,a4,s0
   10c70:	00279793          	slli	a5,a5,0x2
   10c74:	00f707b3          	add	a5,a4,a5
   10c78:	2b07a703          	lw	a4,688(a5)
   10c7c:	ffffe7b7          	lui	a5,0xffffe
   10c80:	ff078793          	addi	a5,a5,-16 # ffffdff0 <__BSS_END__+0xfffe4234>
   10c84:	008786b3          	add	a3,a5,s0
   10c88:	fe842783          	lw	a5,-24(s0)
   10c8c:	00279793          	slli	a5,a5,0x2
   10c90:	00f687b3          	add	a5,a3,a5
   10c94:	2ae7a823          	sw	a4,688(a5)
   10c98:	fe842783          	lw	a5,-24(s0)
   10c9c:	fff78793          	addi	a5,a5,-1
   10ca0:	ffffe737          	lui	a4,0xffffe
   10ca4:	ff070713          	addi	a4,a4,-16 # ffffdff0 <__BSS_END__+0xfffe4234>
   10ca8:	00870733          	add	a4,a4,s0
   10cac:	00f707b3          	add	a5,a4,a5
   10cb0:	1b07c703          	lbu	a4,432(a5)
   10cb4:	ffffe7b7          	lui	a5,0xffffe
   10cb8:	ff078793          	addi	a5,a5,-16 # ffffdff0 <__BSS_END__+0xfffe4234>
   10cbc:	008786b3          	add	a3,a5,s0
   10cc0:	fe842783          	lw	a5,-24(s0)
   10cc4:	00f687b3          	add	a5,a3,a5
   10cc8:	1ae78823          	sb	a4,432(a5)
   10ccc:	fe842783          	lw	a5,-24(s0)
   10cd0:	fff78793          	addi	a5,a5,-1
   10cd4:	fef42423          	sw	a5,-24(s0)
   10cd8:	fe842783          	lw	a5,-24(s0)
   10cdc:	02078663          	beqz	a5,10d08 <compdecomp+0xa04>
   10ce0:	fe842783          	lw	a5,-24(s0)
   10ce4:	fff78793          	addi	a5,a5,-1
   10ce8:	ffffe737          	lui	a4,0xffffe
   10cec:	ff070713          	addi	a4,a4,-16 # ffffdff0 <__BSS_END__+0xfffe4234>
   10cf0:	00870733          	add	a4,a4,s0
   10cf4:	00279793          	slli	a5,a5,0x2
   10cf8:	00f707b3          	add	a5,a4,a5
   10cfc:	2b07a783          	lw	a5,688(a5)
   10d00:	fa842703          	lw	a4,-88(s0)
   10d04:	f4f76ce3          	bltu	a4,a5,10c5c <compdecomp+0x958>
   10d08:	ffffe7b7          	lui	a5,0xffffe
   10d0c:	ff078793          	addi	a5,a5,-16 # ffffdff0 <__BSS_END__+0xfffe4234>
   10d10:	00878733          	add	a4,a5,s0
   10d14:	fe842783          	lw	a5,-24(s0)
   10d18:	00279793          	slli	a5,a5,0x2
   10d1c:	00f707b3          	add	a5,a4,a5
   10d20:	fa842703          	lw	a4,-88(s0)
   10d24:	2ae7a823          	sw	a4,688(a5)
   10d28:	ffffe7b7          	lui	a5,0xffffe
   10d2c:	ff078793          	addi	a5,a5,-16 # ffffdff0 <__BSS_END__+0xfffe4234>
   10d30:	00878733          	add	a4,a5,s0
   10d34:	fe842783          	lw	a5,-24(s0)
   10d38:	00f707b3          	add	a5,a4,a5
   10d3c:	fa744703          	lbu	a4,-89(s0)
   10d40:	1ae78823          	sb	a4,432(a5)
   10d44:	fec42783          	lw	a5,-20(s0)
   10d48:	00178793          	addi	a5,a5,1
   10d4c:	fef42623          	sw	a5,-20(s0)
   10d50:	fec42703          	lw	a4,-20(s0)
   10d54:	0ff00793          	li	a5,255
   10d58:	eae7fee3          	bgeu	a5,a4,10c14 <compdecomp+0x910>
   10d5c:	fe042423          	sw	zero,-24(s0)
   10d60:	0100006f          	j	10d70 <compdecomp+0xa6c>
   10d64:	fe842783          	lw	a5,-24(s0)
   10d68:	00178793          	addi	a5,a5,1
   10d6c:	fef42423          	sw	a5,-24(s0)
   10d70:	ffffe7b7          	lui	a5,0xffffe
   10d74:	ff078793          	addi	a5,a5,-16 # ffffdff0 <__BSS_END__+0xfffe4234>
   10d78:	00878733          	add	a4,a5,s0
   10d7c:	fe842783          	lw	a5,-24(s0)
   10d80:	00279793          	slli	a5,a5,0x2
   10d84:	00f707b3          	add	a5,a4,a5
   10d88:	2b07a783          	lw	a5,688(a5)
   10d8c:	fc078ce3          	beqz	a5,10d64 <compdecomp+0xa60>
   10d90:	fc042e23          	sw	zero,-36(s0)
   10d94:	fe842783          	lw	a5,-24(s0)
   10d98:	fef42623          	sw	a5,-20(s0)
   10d9c:	08000793          	li	a5,128
   10da0:	fef42023          	sw	a5,-32(s0)
   10da4:	fe042223          	sw	zero,-28(s0)
   10da8:	fac42783          	lw	a5,-84(s0)
   10dac:	fcf42c23          	sw	a5,-40(s0)
   10db0:	ffffe7b7          	lui	a5,0xffffe
   10db4:	ff078793          	addi	a5,a5,-16 # ffffdff0 <__BSS_END__+0xfffe4234>
   10db8:	008787b3          	add	a5,a5,s0
   10dbc:	1ac7a783          	lw	a5,428(a5)
   10dc0:	fcf42a23          	sw	a5,-44(s0)
   10dc4:	1040006f          	j	10ec8 <compdecomp+0xbc4>
   10dc8:	fdc42783          	lw	a5,-36(s0)
   10dcc:	00179793          	slli	a5,a5,0x1
   10dd0:	00178793          	addi	a5,a5,1
   10dd4:	fcf42e23          	sw	a5,-36(s0)
   10dd8:	fd842783          	lw	a5,-40(s0)
   10ddc:	0007c783          	lbu	a5,0(a5)
   10de0:	00078713          	mv	a4,a5
   10de4:	fe042783          	lw	a5,-32(s0)
   10de8:	00f777b3          	and	a5,a4,a5
   10dec:	02078063          	beqz	a5,10e0c <compdecomp+0xb08>
   10df0:	fdc42783          	lw	a5,-36(s0)
   10df4:	00178793          	addi	a5,a5,1
   10df8:	fcf42e23          	sw	a5,-36(s0)
   10dfc:	0100006f          	j	10e0c <compdecomp+0xb08>
   10e00:	fec42783          	lw	a5,-20(s0)
   10e04:	00178793          	addi	a5,a5,1
   10e08:	fef42623          	sw	a5,-20(s0)
   10e0c:	ffffe7b7          	lui	a5,0xffffe
   10e10:	ff078793          	addi	a5,a5,-16 # ffffdff0 <__BSS_END__+0xfffe4234>
   10e14:	00878733          	add	a4,a5,s0
   10e18:	fec42783          	lw	a5,-20(s0)
   10e1c:	00279793          	slli	a5,a5,0x2
   10e20:	00f707b3          	add	a5,a4,a5
   10e24:	2b07a783          	lw	a5,688(a5)
   10e28:	fdc42703          	lw	a4,-36(s0)
   10e2c:	fce7eae3          	bltu	a5,a4,10e00 <compdecomp+0xafc>
   10e30:	ffffe7b7          	lui	a5,0xffffe
   10e34:	ff078793          	addi	a5,a5,-16 # ffffdff0 <__BSS_END__+0xfffe4234>
   10e38:	00878733          	add	a4,a5,s0
   10e3c:	fec42783          	lw	a5,-20(s0)
   10e40:	00279793          	slli	a5,a5,0x2
   10e44:	00f707b3          	add	a5,a4,a5
   10e48:	2b07a783          	lw	a5,688(a5)
   10e4c:	fdc42703          	lw	a4,-36(s0)
   10e50:	04f71463          	bne	a4,a5,10e98 <compdecomp+0xb94>
   10e54:	ffffe7b7          	lui	a5,0xffffe
   10e58:	ff078793          	addi	a5,a5,-16 # ffffdff0 <__BSS_END__+0xfffe4234>
   10e5c:	00878733          	add	a4,a5,s0
   10e60:	fec42783          	lw	a5,-20(s0)
   10e64:	00f707b3          	add	a5,a4,a5
   10e68:	1b07c703          	lbu	a4,432(a5)
   10e6c:	fd442783          	lw	a5,-44(s0)
   10e70:	00e78023          	sb	a4,0(a5)
   10e74:	fd442783          	lw	a5,-44(s0)
   10e78:	00178793          	addi	a5,a5,1
   10e7c:	fcf42a23          	sw	a5,-44(s0)
   10e80:	fe442783          	lw	a5,-28(s0)
   10e84:	00178793          	addi	a5,a5,1
   10e88:	fef42223          	sw	a5,-28(s0)
   10e8c:	fc042e23          	sw	zero,-36(s0)
   10e90:	fe842783          	lw	a5,-24(s0)
   10e94:	fef42623          	sw	a5,-20(s0)
   10e98:	fe042703          	lw	a4,-32(s0)
   10e9c:	00100793          	li	a5,1
   10ea0:	00e7fa63          	bgeu	a5,a4,10eb4 <compdecomp+0xbb0>
   10ea4:	fe042783          	lw	a5,-32(s0)
   10ea8:	0017d793          	srli	a5,a5,0x1
   10eac:	fef42023          	sw	a5,-32(s0)
   10eb0:	0180006f          	j	10ec8 <compdecomp+0xbc4>
   10eb4:	08000793          	li	a5,128
   10eb8:	fef42023          	sw	a5,-32(s0)
   10ebc:	fd842783          	lw	a5,-40(s0)
   10ec0:	00178793          	addi	a5,a5,1
   10ec4:	fcf42c23          	sw	a5,-40(s0)
   10ec8:	ffffe7b7          	lui	a5,0xffffe
   10ecc:	ff078793          	addi	a5,a5,-16 # ffffdff0 <__BSS_END__+0xfffe4234>
   10ed0:	008787b3          	add	a5,a5,s0
   10ed4:	fe442703          	lw	a4,-28(s0)
   10ed8:	1a87a783          	lw	a5,424(a5)
   10edc:	eef766e3          	bltu	a4,a5,10dc8 <compdecomp+0xac4>
   10ee0:	fac42503          	lw	a0,-84(s0)
   10ee4:	3d0000ef          	jal	ra,112b4 <free_beebs>
   10ee8:	0180006f          	j	10f00 <compdecomp+0xbfc>
   10eec:	00000013          	nop
   10ef0:	0100006f          	j	10f00 <compdecomp+0xbfc>
   10ef4:	00000013          	nop
   10ef8:	0080006f          	j	10f00 <compdecomp+0xbfc>
   10efc:	00000013          	nop
   10f00:	000012b7          	lui	t0,0x1
   10f04:	68028293          	addi	t0,t0,1664 # 1680 <exit-0xea14>
   10f08:	00510133          	add	sp,sp,t0
   10f0c:	7ec12083          	lw	ra,2028(sp)
   10f10:	7e812403          	lw	s0,2024(sp)
   10f14:	7f010113          	addi	sp,sp,2032
   10f18:	00008067          	ret

00010f1c <verify_benchmark>:
   10f1c:	fe010113          	addi	sp,sp,-32
   10f20:	00112e23          	sw	ra,28(sp)
   10f24:	00812c23          	sw	s0,24(sp)
   10f28:	02010413          	addi	s0,sp,32
   10f2c:	fea42623          	sw	a0,-20(s0)
   10f30:	1f400613          	li	a2,500
   10f34:	000167b7          	lui	a5,0x16
   10f38:	c3878593          	addi	a1,a5,-968 # 15c38 <orig_data>
   10f3c:	0001a7b7          	lui	a5,0x1a
   10f40:	b9078513          	addi	a0,a5,-1136 # 19b90 <test_data>
   10f44:	4d4000ef          	jal	ra,11418 <memcmp>
   10f48:	00050793          	mv	a5,a0
   10f4c:	0017b793          	seqz	a5,a5
   10f50:	0ff7f793          	zext.b	a5,a5
   10f54:	00078513          	mv	a0,a5
   10f58:	01c12083          	lw	ra,28(sp)
   10f5c:	01812403          	lw	s0,24(sp)
   10f60:	02010113          	addi	sp,sp,32
   10f64:	00008067          	ret

00010f68 <initialise_benchmark>:
   10f68:	ff010113          	addi	sp,sp,-16
   10f6c:	00812623          	sw	s0,12(sp)
   10f70:	01010413          	addi	s0,sp,16
   10f74:	00000013          	nop
   10f78:	00c12403          	lw	s0,12(sp)
   10f7c:	01010113          	addi	sp,sp,16
   10f80:	00008067          	ret

00010f84 <warm_caches>:
   10f84:	fd010113          	addi	sp,sp,-48
   10f88:	02112623          	sw	ra,44(sp)
   10f8c:	02812423          	sw	s0,40(sp)
   10f90:	03010413          	addi	s0,sp,48
   10f94:	fca42e23          	sw	a0,-36(s0)
   10f98:	fdc42503          	lw	a0,-36(s0)
   10f9c:	04c000ef          	jal	ra,10fe8 <benchmark_body>
   10fa0:	fea42623          	sw	a0,-20(s0)
   10fa4:	00000013          	nop
   10fa8:	02c12083          	lw	ra,44(sp)
   10fac:	02812403          	lw	s0,40(sp)
   10fb0:	03010113          	addi	sp,sp,48
   10fb4:	00008067          	ret

00010fb8 <benchmark>:
   10fb8:	ff010113          	addi	sp,sp,-16
   10fbc:	00112623          	sw	ra,12(sp)
   10fc0:	00812423          	sw	s0,8(sp)
   10fc4:	01010413          	addi	s0,sp,16
   10fc8:	00b00513          	li	a0,11
   10fcc:	01c000ef          	jal	ra,10fe8 <benchmark_body>
   10fd0:	00050793          	mv	a5,a0
   10fd4:	00078513          	mv	a0,a5
   10fd8:	00c12083          	lw	ra,12(sp)
   10fdc:	00812403          	lw	s0,8(sp)
   10fe0:	01010113          	addi	sp,sp,16
   10fe4:	00008067          	ret

00010fe8 <benchmark_body>:
   10fe8:	fd010113          	addi	sp,sp,-48
   10fec:	02112623          	sw	ra,44(sp)
   10ff0:	02812423          	sw	s0,40(sp)
   10ff4:	03010413          	addi	s0,sp,48
   10ff8:	fca42e23          	sw	a0,-36(s0)
   10ffc:	fe042623          	sw	zero,-20(s0)
   11000:	0580006f          	j	11058 <benchmark_body+0x70>
   11004:	000025b7          	lui	a1,0x2
   11008:	000187b7          	lui	a5,0x18
   1100c:	b9078513          	addi	a0,a5,-1136 # 17b90 <heap>
   11010:	138000ef          	jal	ra,11148 <init_heap_beebs>
   11014:	0001a7b7          	lui	a5,0x1a
   11018:	b9078713          	addi	a4,a5,-1136 # 19b90 <test_data>
   1101c:	000167b7          	lui	a5,0x16
   11020:	c3878793          	addi	a5,a5,-968 # 15c38 <orig_data>
   11024:	00078693          	mv	a3,a5
   11028:	1f400793          	li	a5,500
   1102c:	00078613          	mv	a2,a5
   11030:	00068593          	mv	a1,a3
   11034:	00070513          	mv	a0,a4
   11038:	458000ef          	jal	ra,11490 <memcpy>
   1103c:	1f400593          	li	a1,500
   11040:	0001a7b7          	lui	a5,0x1a
   11044:	b9078513          	addi	a0,a5,-1136 # 19b90 <test_data>
   11048:	abcff0ef          	jal	ra,10304 <compdecomp>
   1104c:	fec42783          	lw	a5,-20(s0)
   11050:	00178793          	addi	a5,a5,1
   11054:	fef42623          	sw	a5,-20(s0)
   11058:	fec42703          	lw	a4,-20(s0)
   1105c:	fdc42783          	lw	a5,-36(s0)
   11060:	faf742e3          	blt	a4,a5,11004 <benchmark_body+0x1c>
   11064:	00000793          	li	a5,0
   11068:	00078513          	mv	a0,a5
   1106c:	02c12083          	lw	ra,44(sp)
   11070:	02812403          	lw	s0,40(sp)
   11074:	03010113          	addi	sp,sp,48
   11078:	00008067          	ret

0001107c <initialise_board>:
   1107c:	ff010113          	addi	sp,sp,-16
   11080:	00812623          	sw	s0,12(sp)
   11084:	01010413          	addi	s0,sp,16
   11088:	00000513          	li	a0,0
   1108c:	00000013          	nop
   11090:	00c12403          	lw	s0,12(sp)
   11094:	01010113          	addi	sp,sp,16
   11098:	00008067          	ret

0001109c <start_trigger>:
   1109c:	ff010113          	addi	sp,sp,-16
   110a0:	00812623          	sw	s0,12(sp)
   110a4:	01010413          	addi	s0,sp,16
   110a8:	00000513          	li	a0,0
   110ac:	00000013          	nop
   110b0:	00c12403          	lw	s0,12(sp)
   110b4:	01010113          	addi	sp,sp,16
   110b8:	00008067          	ret

000110bc <stop_trigger>:
   110bc:	ff010113          	addi	sp,sp,-16
   110c0:	00812623          	sw	s0,12(sp)
   110c4:	01010413          	addi	s0,sp,16
   110c8:	00000513          	li	a0,0
   110cc:	00000013          	nop
   110d0:	00c12403          	lw	s0,12(sp)
   110d4:	01010113          	addi	sp,sp,16
   110d8:	00008067          	ret

000110dc <main>:
   110dc:	fd010113          	addi	sp,sp,-48
   110e0:	02112623          	sw	ra,44(sp)
   110e4:	02812423          	sw	s0,40(sp)
   110e8:	03010413          	addi	s0,sp,48
   110ec:	fca42e23          	sw	a0,-36(s0)
   110f0:	fcb42c23          	sw	a1,-40(s0)
   110f4:	f89ff0ef          	jal	ra,1107c <initialise_board>
   110f8:	e71ff0ef          	jal	ra,10f68 <initialise_benchmark>
   110fc:	00100513          	li	a0,1
   11100:	e85ff0ef          	jal	ra,10f84 <warm_caches>
   11104:	f99ff0ef          	jal	ra,1109c <start_trigger>
   11108:	eb1ff0ef          	jal	ra,10fb8 <benchmark>
   1110c:	00050793          	mv	a5,a0
   11110:	fef42423          	sw	a5,-24(s0)
   11114:	fa9ff0ef          	jal	ra,110bc <stop_trigger>
   11118:	fe842783          	lw	a5,-24(s0)
   1111c:	00078513          	mv	a0,a5
   11120:	dfdff0ef          	jal	ra,10f1c <verify_benchmark>
   11124:	fea42623          	sw	a0,-20(s0)
   11128:	fec42783          	lw	a5,-20(s0)
   1112c:	0017b793          	seqz	a5,a5
   11130:	0ff7f793          	zext.b	a5,a5
   11134:	00078513          	mv	a0,a5
   11138:	02c12083          	lw	ra,44(sp)
   1113c:	02812403          	lw	s0,40(sp)
   11140:	03010113          	addi	sp,sp,48
   11144:	00008067          	ret

00011148 <init_heap_beebs>:
   11148:	fe010113          	addi	sp,sp,-32
   1114c:	00112e23          	sw	ra,28(sp)
   11150:	00812c23          	sw	s0,24(sp)
   11154:	02010413          	addi	s0,sp,32
   11158:	fea42623          	sw	a0,-20(s0)
   1115c:	feb42423          	sw	a1,-24(s0)
   11160:	fe842783          	lw	a5,-24(s0)
   11164:	0037f793          	andi	a5,a5,3
   11168:	02078263          	beqz	a5,1118c <init_heap_beebs+0x44>
   1116c:	000167b7          	lui	a5,0x16
   11170:	e2c78693          	addi	a3,a5,-468 # 15e2c <orig_data+0x1f4>
   11174:	000167b7          	lui	a5,0x16
   11178:	e7478613          	addi	a2,a5,-396 # 15e74 <__func__.0>
   1117c:	04100593          	li	a1,65
   11180:	000167b7          	lui	a5,0x16
   11184:	e4c78513          	addi	a0,a5,-436 # 15e4c <orig_data+0x214>
   11188:	14c000ef          	jal	ra,112d4 <__assert_func>
   1118c:	0001a7b7          	lui	a5,0x1a
   11190:	fec42703          	lw	a4,-20(s0)
   11194:	d8e7a423          	sw	a4,-632(a5) # 19d88 <heap_ptr>
   11198:	0001a7b7          	lui	a5,0x1a
   1119c:	d887a703          	lw	a4,-632(a5) # 19d88 <heap_ptr>
   111a0:	fe842783          	lw	a5,-24(s0)
   111a4:	00f70733          	add	a4,a4,a5
   111a8:	0001a7b7          	lui	a5,0x1a
   111ac:	d8e7a623          	sw	a4,-628(a5) # 19d8c <heap_end>
   111b0:	0001a7b7          	lui	a5,0x1a
   111b4:	d807a823          	sw	zero,-624(a5) # 19d90 <heap_requested>
   111b8:	00000013          	nop
   111bc:	01c12083          	lw	ra,28(sp)
   111c0:	01812403          	lw	s0,24(sp)
   111c4:	02010113          	addi	sp,sp,32
   111c8:	00008067          	ret

000111cc <malloc_beebs>:
   111cc:	fd010113          	addi	sp,sp,-48
   111d0:	02812623          	sw	s0,44(sp)
   111d4:	03010413          	addi	s0,sp,48
   111d8:	fca42e23          	sw	a0,-36(s0)
   111dc:	fdc42783          	lw	a5,-36(s0)
   111e0:	00079663          	bnez	a5,111ec <malloc_beebs+0x20>
   111e4:	00000793          	li	a5,0
   111e8:	0bc0006f          	j	112a4 <malloc_beebs+0xd8>
   111ec:	0001a7b7          	lui	a5,0x1a
   111f0:	d887a703          	lw	a4,-632(a5) # 19d88 <heap_ptr>
   111f4:	fdc42783          	lw	a5,-36(s0)
   111f8:	00f707b3          	add	a5,a4,a5
   111fc:	fef42623          	sw	a5,-20(s0)
   11200:	0001a7b7          	lui	a5,0x1a
   11204:	d907a703          	lw	a4,-624(a5) # 19d90 <heap_requested>
   11208:	fdc42783          	lw	a5,-36(s0)
   1120c:	00f70733          	add	a4,a4,a5
   11210:	0001a7b7          	lui	a5,0x1a
   11214:	d8e7a823          	sw	a4,-624(a5) # 19d90 <heap_requested>
   11218:	00400793          	li	a5,4
   1121c:	fef42423          	sw	a5,-24(s0)
   11220:	fec42703          	lw	a4,-20(s0)
   11224:	fe842783          	lw	a5,-24(s0)
   11228:	02f777b3          	remu	a5,a4,a5
   1122c:	04078263          	beqz	a5,11270 <malloc_beebs+0xa4>
   11230:	fec42703          	lw	a4,-20(s0)
   11234:	fe842783          	lw	a5,-24(s0)
   11238:	02f777b3          	remu	a5,a4,a5
   1123c:	fe842703          	lw	a4,-24(s0)
   11240:	40f707b3          	sub	a5,a4,a5
   11244:	fef42223          	sw	a5,-28(s0)
   11248:	fec42703          	lw	a4,-20(s0)
   1124c:	fe442783          	lw	a5,-28(s0)
   11250:	00f707b3          	add	a5,a4,a5
   11254:	fef42623          	sw	a5,-20(s0)
   11258:	0001a7b7          	lui	a5,0x1a
   1125c:	d907a703          	lw	a4,-624(a5) # 19d90 <heap_requested>
   11260:	fe442783          	lw	a5,-28(s0)
   11264:	00f70733          	add	a4,a4,a5
   11268:	0001a7b7          	lui	a5,0x1a
   1126c:	d8e7a823          	sw	a4,-624(a5) # 19d90 <heap_requested>
   11270:	0001a7b7          	lui	a5,0x1a
   11274:	d8c7a783          	lw	a5,-628(a5) # 19d8c <heap_end>
   11278:	fec42703          	lw	a4,-20(s0)
   1127c:	00e7f663          	bgeu	a5,a4,11288 <malloc_beebs+0xbc>
   11280:	00000793          	li	a5,0
   11284:	0200006f          	j	112a4 <malloc_beebs+0xd8>
   11288:	0001a7b7          	lui	a5,0x1a
   1128c:	d887a783          	lw	a5,-632(a5) # 19d88 <heap_ptr>
   11290:	fef42023          	sw	a5,-32(s0)
   11294:	0001a7b7          	lui	a5,0x1a
   11298:	fec42703          	lw	a4,-20(s0)
   1129c:	d8e7a423          	sw	a4,-632(a5) # 19d88 <heap_ptr>
   112a0:	fe042783          	lw	a5,-32(s0)
   112a4:	00078513          	mv	a0,a5
   112a8:	02c12403          	lw	s0,44(sp)
   112ac:	03010113          	addi	sp,sp,48
   112b0:	00008067          	ret

000112b4 <free_beebs>:
   112b4:	fe010113          	addi	sp,sp,-32
   112b8:	00812e23          	sw	s0,28(sp)
   112bc:	02010413          	addi	s0,sp,32
   112c0:	fea42623          	sw	a0,-20(s0)
   112c4:	00000013          	nop
   112c8:	01c12403          	lw	s0,28(sp)
   112cc:	02010113          	addi	sp,sp,32
   112d0:	00008067          	ret

000112d4 <__assert_func>:
   112d4:	000187b7          	lui	a5,0x18
   112d8:	b487a703          	lw	a4,-1208(a5) # 17b48 <_impure_ptr>
   112dc:	ff010113          	addi	sp,sp,-16
   112e0:	00068793          	mv	a5,a3
   112e4:	00060813          	mv	a6,a2
   112e8:	00112623          	sw	ra,12(sp)
   112ec:	00c72883          	lw	a7,12(a4)
   112f0:	00050693          	mv	a3,a0
   112f4:	00058713          	mv	a4,a1
   112f8:	00078613          	mv	a2,a5
   112fc:	02080063          	beqz	a6,1131c <__assert_func+0x48>
   11300:	000167b7          	lui	a5,0x16
   11304:	e8478793          	addi	a5,a5,-380 # 15e84 <__func__.0+0x10>
   11308:	000165b7          	lui	a1,0x16
   1130c:	e9458593          	addi	a1,a1,-364 # 15e94 <__func__.0+0x20>
   11310:	00088513          	mv	a0,a7
   11314:	018000ef          	jal	ra,1132c <fiprintf>
   11318:	151010ef          	jal	ra,12c68 <abort>
   1131c:	00016837          	lui	a6,0x16
   11320:	e9080793          	addi	a5,a6,-368 # 15e90 <__func__.0+0x1c>
   11324:	e9080813          	addi	a6,a6,-368
   11328:	fe1ff06f          	j	11308 <__assert_func+0x34>

0001132c <fiprintf>:
   1132c:	00050e13          	mv	t3,a0
   11330:	00018537          	lui	a0,0x18
   11334:	fc010113          	addi	sp,sp,-64
   11338:	b4852503          	lw	a0,-1208(a0) # 17b48 <_impure_ptr>
   1133c:	02810313          	addi	t1,sp,40
   11340:	02c12423          	sw	a2,40(sp)
   11344:	02d12623          	sw	a3,44(sp)
   11348:	00058613          	mv	a2,a1
   1134c:	00030693          	mv	a3,t1
   11350:	000e0593          	mv	a1,t3
   11354:	00112e23          	sw	ra,28(sp)
   11358:	02e12823          	sw	a4,48(sp)
   1135c:	02f12a23          	sw	a5,52(sp)
   11360:	03012c23          	sw	a6,56(sp)
   11364:	03112e23          	sw	a7,60(sp)
   11368:	00612623          	sw	t1,12(sp)
   1136c:	41c000ef          	jal	ra,11788 <_vfiprintf_r>
   11370:	01c12083          	lw	ra,28(sp)
   11374:	04010113          	addi	sp,sp,64
   11378:	00008067          	ret

0001137c <__libc_init_array>:
   1137c:	ff010113          	addi	sp,sp,-16
   11380:	00812423          	sw	s0,8(sp)
   11384:	01212023          	sw	s2,0(sp)
   11388:	00017437          	lui	s0,0x17
   1138c:	00017937          	lui	s2,0x17
   11390:	19840793          	addi	a5,s0,408 # 17198 <__init_array_start>
   11394:	19890913          	addi	s2,s2,408 # 17198 <__init_array_start>
   11398:	40f90933          	sub	s2,s2,a5
   1139c:	00112623          	sw	ra,12(sp)
   113a0:	00912223          	sw	s1,4(sp)
   113a4:	40295913          	srai	s2,s2,0x2
   113a8:	02090063          	beqz	s2,113c8 <__libc_init_array+0x4c>
   113ac:	19840413          	addi	s0,s0,408
   113b0:	00000493          	li	s1,0
   113b4:	00042783          	lw	a5,0(s0)
   113b8:	00148493          	addi	s1,s1,1
   113bc:	00440413          	addi	s0,s0,4
   113c0:	000780e7          	jalr	a5
   113c4:	fe9918e3          	bne	s2,s1,113b4 <__libc_init_array+0x38>
   113c8:	00017437          	lui	s0,0x17
   113cc:	00017937          	lui	s2,0x17
   113d0:	19840793          	addi	a5,s0,408 # 17198 <__init_array_start>
   113d4:	1a090913          	addi	s2,s2,416 # 171a0 <__do_global_dtors_aux_fini_array_entry>
   113d8:	40f90933          	sub	s2,s2,a5
   113dc:	40295913          	srai	s2,s2,0x2
   113e0:	02090063          	beqz	s2,11400 <__libc_init_array+0x84>
   113e4:	19840413          	addi	s0,s0,408
   113e8:	00000493          	li	s1,0
   113ec:	00042783          	lw	a5,0(s0)
   113f0:	00148493          	addi	s1,s1,1
   113f4:	00440413          	addi	s0,s0,4
   113f8:	000780e7          	jalr	a5
   113fc:	fe9918e3          	bne	s2,s1,113ec <__libc_init_array+0x70>
   11400:	00c12083          	lw	ra,12(sp)
   11404:	00812403          	lw	s0,8(sp)
   11408:	00412483          	lw	s1,4(sp)
   1140c:	00012903          	lw	s2,0(sp)
   11410:	01010113          	addi	sp,sp,16
   11414:	00008067          	ret

00011418 <memcmp>:
   11418:	00300793          	li	a5,3
   1141c:	02c7f863          	bgeu	a5,a2,1144c <memcmp+0x34>
   11420:	00b567b3          	or	a5,a0,a1
   11424:	0037f793          	andi	a5,a5,3
   11428:	00300693          	li	a3,3
   1142c:	04079e63          	bnez	a5,11488 <memcmp+0x70>
   11430:	00052703          	lw	a4,0(a0)
   11434:	0005a783          	lw	a5,0(a1)
   11438:	04f71863          	bne	a4,a5,11488 <memcmp+0x70>
   1143c:	ffc60613          	addi	a2,a2,-4
   11440:	00450513          	addi	a0,a0,4
   11444:	00458593          	addi	a1,a1,4
   11448:	fec6e4e3          	bltu	a3,a2,11430 <memcmp+0x18>
   1144c:	fff60693          	addi	a3,a2,-1
   11450:	02060863          	beqz	a2,11480 <memcmp+0x68>
   11454:	00168693          	addi	a3,a3,1
   11458:	00d506b3          	add	a3,a0,a3
   1145c:	0080006f          	j	11464 <memcmp+0x4c>
   11460:	02d50063          	beq	a0,a3,11480 <memcmp+0x68>
   11464:	00054783          	lbu	a5,0(a0)
   11468:	0005c703          	lbu	a4,0(a1)
   1146c:	00150513          	addi	a0,a0,1
   11470:	00158593          	addi	a1,a1,1
   11474:	fee786e3          	beq	a5,a4,11460 <memcmp+0x48>
   11478:	40e78533          	sub	a0,a5,a4
   1147c:	00008067          	ret
   11480:	00000513          	li	a0,0
   11484:	00008067          	ret
   11488:	fff60693          	addi	a3,a2,-1
   1148c:	fc9ff06f          	j	11454 <memcmp+0x3c>

00011490 <memcpy>:
   11490:	00b547b3          	xor	a5,a0,a1
   11494:	0037f793          	andi	a5,a5,3
   11498:	00c508b3          	add	a7,a0,a2
   1149c:	06079663          	bnez	a5,11508 <memcpy+0x78>
   114a0:	00300793          	li	a5,3
   114a4:	06c7f263          	bgeu	a5,a2,11508 <memcpy+0x78>
   114a8:	00357793          	andi	a5,a0,3
   114ac:	00050713          	mv	a4,a0
   114b0:	0c079a63          	bnez	a5,11584 <memcpy+0xf4>
   114b4:	ffc8f613          	andi	a2,a7,-4
   114b8:	40e606b3          	sub	a3,a2,a4
   114bc:	02000793          	li	a5,32
   114c0:	02000293          	li	t0,32
   114c4:	06d7c263          	blt	a5,a3,11528 <memcpy+0x98>
   114c8:	00058693          	mv	a3,a1
   114cc:	00070793          	mv	a5,a4
   114d0:	02c77863          	bgeu	a4,a2,11500 <memcpy+0x70>
   114d4:	0006a803          	lw	a6,0(a3)
   114d8:	00478793          	addi	a5,a5,4
   114dc:	00468693          	addi	a3,a3,4
   114e0:	ff07ae23          	sw	a6,-4(a5)
   114e4:	fec7e8e3          	bltu	a5,a2,114d4 <memcpy+0x44>
   114e8:	fff60793          	addi	a5,a2,-1
   114ec:	40e787b3          	sub	a5,a5,a4
   114f0:	ffc7f793          	andi	a5,a5,-4
   114f4:	00478793          	addi	a5,a5,4
   114f8:	00f70733          	add	a4,a4,a5
   114fc:	00f585b3          	add	a1,a1,a5
   11500:	01176863          	bltu	a4,a7,11510 <memcpy+0x80>
   11504:	00008067          	ret
   11508:	00050713          	mv	a4,a0
   1150c:	ff157ce3          	bgeu	a0,a7,11504 <memcpy+0x74>
   11510:	0005c783          	lbu	a5,0(a1)
   11514:	00170713          	addi	a4,a4,1
   11518:	00158593          	addi	a1,a1,1
   1151c:	fef70fa3          	sb	a5,-1(a4)
   11520:	ff1768e3          	bltu	a4,a7,11510 <memcpy+0x80>
   11524:	00008067          	ret
   11528:	0045a683          	lw	a3,4(a1)
   1152c:	01c5a783          	lw	a5,28(a1)
   11530:	0005af83          	lw	t6,0(a1)
   11534:	0085af03          	lw	t5,8(a1)
   11538:	00c5ae83          	lw	t4,12(a1)
   1153c:	0105ae03          	lw	t3,16(a1)
   11540:	0145a303          	lw	t1,20(a1)
   11544:	0185a803          	lw	a6,24(a1)
   11548:	00d72223          	sw	a3,4(a4)
   1154c:	0205a683          	lw	a3,32(a1)
   11550:	01f72023          	sw	t6,0(a4)
   11554:	01e72423          	sw	t5,8(a4)
   11558:	01d72623          	sw	t4,12(a4)
   1155c:	01c72823          	sw	t3,16(a4)
   11560:	00672a23          	sw	t1,20(a4)
   11564:	01072c23          	sw	a6,24(a4)
   11568:	00f72e23          	sw	a5,28(a4)
   1156c:	02470713          	addi	a4,a4,36
   11570:	40e607b3          	sub	a5,a2,a4
   11574:	fed72e23          	sw	a3,-4(a4)
   11578:	02458593          	addi	a1,a1,36
   1157c:	faf2c6e3          	blt	t0,a5,11528 <memcpy+0x98>
   11580:	f49ff06f          	j	114c8 <memcpy+0x38>
   11584:	0005c683          	lbu	a3,0(a1)
   11588:	00170713          	addi	a4,a4,1
   1158c:	00377793          	andi	a5,a4,3
   11590:	fed70fa3          	sb	a3,-1(a4)
   11594:	00158593          	addi	a1,a1,1
   11598:	f0078ee3          	beqz	a5,114b4 <memcpy+0x24>
   1159c:	0005c683          	lbu	a3,0(a1)
   115a0:	00170713          	addi	a4,a4,1
   115a4:	00377793          	andi	a5,a4,3
   115a8:	fed70fa3          	sb	a3,-1(a4)
   115ac:	00158593          	addi	a1,a1,1
   115b0:	fc079ae3          	bnez	a5,11584 <memcpy+0xf4>
   115b4:	f01ff06f          	j	114b4 <memcpy+0x24>

000115b8 <memset>:
   115b8:	00f00313          	li	t1,15
   115bc:	00050713          	mv	a4,a0
   115c0:	02c37e63          	bgeu	t1,a2,115fc <memset+0x44>
   115c4:	00f77793          	andi	a5,a4,15
   115c8:	0a079063          	bnez	a5,11668 <memset+0xb0>
   115cc:	08059263          	bnez	a1,11650 <memset+0x98>
   115d0:	ff067693          	andi	a3,a2,-16
   115d4:	00f67613          	andi	a2,a2,15
   115d8:	00e686b3          	add	a3,a3,a4
   115dc:	00b72023          	sw	a1,0(a4)
   115e0:	00b72223          	sw	a1,4(a4)
   115e4:	00b72423          	sw	a1,8(a4)
   115e8:	00b72623          	sw	a1,12(a4)
   115ec:	01070713          	addi	a4,a4,16
   115f0:	fed766e3          	bltu	a4,a3,115dc <memset+0x24>
   115f4:	00061463          	bnez	a2,115fc <memset+0x44>
   115f8:	00008067          	ret
   115fc:	40c306b3          	sub	a3,t1,a2
   11600:	00269693          	slli	a3,a3,0x2
   11604:	00000297          	auipc	t0,0x0
   11608:	005686b3          	add	a3,a3,t0
   1160c:	00c68067          	jr	12(a3)
   11610:	00b70723          	sb	a1,14(a4)
   11614:	00b706a3          	sb	a1,13(a4)
   11618:	00b70623          	sb	a1,12(a4)
   1161c:	00b705a3          	sb	a1,11(a4)
   11620:	00b70523          	sb	a1,10(a4)
   11624:	00b704a3          	sb	a1,9(a4)
   11628:	00b70423          	sb	a1,8(a4)
   1162c:	00b703a3          	sb	a1,7(a4)
   11630:	00b70323          	sb	a1,6(a4)
   11634:	00b702a3          	sb	a1,5(a4)
   11638:	00b70223          	sb	a1,4(a4)
   1163c:	00b701a3          	sb	a1,3(a4)
   11640:	00b70123          	sb	a1,2(a4)
   11644:	00b700a3          	sb	a1,1(a4)
   11648:	00b70023          	sb	a1,0(a4)
   1164c:	00008067          	ret
   11650:	0ff5f593          	zext.b	a1,a1
   11654:	00859693          	slli	a3,a1,0x8
   11658:	00d5e5b3          	or	a1,a1,a3
   1165c:	01059693          	slli	a3,a1,0x10
   11660:	00d5e5b3          	or	a1,a1,a3
   11664:	f6dff06f          	j	115d0 <memset+0x18>
   11668:	00279693          	slli	a3,a5,0x2
   1166c:	00000297          	auipc	t0,0x0
   11670:	005686b3          	add	a3,a3,t0
   11674:	00008293          	mv	t0,ra
   11678:	fa0680e7          	jalr	-96(a3)
   1167c:	00028093          	mv	ra,t0
   11680:	ff078793          	addi	a5,a5,-16
   11684:	40f70733          	sub	a4,a4,a5
   11688:	00f60633          	add	a2,a2,a5
   1168c:	f6c378e3          	bgeu	t1,a2,115fc <memset+0x44>
   11690:	f3dff06f          	j	115cc <memset+0x14>

00011694 <__sprint_r.part.0>:
   11694:	0645a703          	lw	a4,100(a1)
   11698:	fd010113          	addi	sp,sp,-48
   1169c:	000027b7          	lui	a5,0x2
   116a0:	01612823          	sw	s6,16(sp)
   116a4:	02112623          	sw	ra,44(sp)
   116a8:	02812423          	sw	s0,40(sp)
   116ac:	02912223          	sw	s1,36(sp)
   116b0:	03212023          	sw	s2,32(sp)
   116b4:	01312e23          	sw	s3,28(sp)
   116b8:	01412c23          	sw	s4,24(sp)
   116bc:	01512a23          	sw	s5,20(sp)
   116c0:	01712623          	sw	s7,12(sp)
   116c4:	01812423          	sw	s8,8(sp)
   116c8:	00e7f7b3          	and	a5,a5,a4
   116cc:	00060b13          	mv	s6,a2
   116d0:	0a078863          	beqz	a5,11780 <__sprint_r.part.0+0xec>
   116d4:	00862783          	lw	a5,8(a2)
   116d8:	00062b83          	lw	s7,0(a2)
   116dc:	00058913          	mv	s2,a1
   116e0:	00050993          	mv	s3,a0
   116e4:	fff00a93          	li	s5,-1
   116e8:	08078863          	beqz	a5,11778 <__sprint_r.part.0+0xe4>
   116ec:	004bac03          	lw	s8,4(s7)
   116f0:	000ba403          	lw	s0,0(s7)
   116f4:	002c5a13          	srli	s4,s8,0x2
   116f8:	060a0663          	beqz	s4,11764 <__sprint_r.part.0+0xd0>
   116fc:	00000493          	li	s1,0
   11700:	00c0006f          	j	1170c <__sprint_r.part.0+0x78>
   11704:	00440413          	addi	s0,s0,4
   11708:	049a0c63          	beq	s4,s1,11760 <__sprint_r.part.0+0xcc>
   1170c:	00042583          	lw	a1,0(s0)
   11710:	00090613          	mv	a2,s2
   11714:	00098513          	mv	a0,s3
   11718:	481010ef          	jal	ra,13398 <_fputwc_r>
   1171c:	00148493          	addi	s1,s1,1
   11720:	ff5512e3          	bne	a0,s5,11704 <__sprint_r.part.0+0x70>
   11724:	fff00513          	li	a0,-1
   11728:	02c12083          	lw	ra,44(sp)
   1172c:	02812403          	lw	s0,40(sp)
   11730:	000b2423          	sw	zero,8(s6)
   11734:	000b2223          	sw	zero,4(s6)
   11738:	02412483          	lw	s1,36(sp)
   1173c:	02012903          	lw	s2,32(sp)
   11740:	01c12983          	lw	s3,28(sp)
   11744:	01812a03          	lw	s4,24(sp)
   11748:	01412a83          	lw	s5,20(sp)
   1174c:	01012b03          	lw	s6,16(sp)
   11750:	00c12b83          	lw	s7,12(sp)
   11754:	00812c03          	lw	s8,8(sp)
   11758:	03010113          	addi	sp,sp,48
   1175c:	00008067          	ret
   11760:	008b2783          	lw	a5,8(s6)
   11764:	ffcc7c13          	andi	s8,s8,-4
   11768:	418787b3          	sub	a5,a5,s8
   1176c:	00fb2423          	sw	a5,8(s6)
   11770:	008b8b93          	addi	s7,s7,8
   11774:	f6079ce3          	bnez	a5,116ec <__sprint_r.part.0+0x58>
   11778:	00000513          	li	a0,0
   1177c:	fadff06f          	j	11728 <__sprint_r.part.0+0x94>
   11780:	094020ef          	jal	ra,13814 <__sfvwrite_r>
   11784:	fa5ff06f          	j	11728 <__sprint_r.part.0+0x94>

00011788 <_vfiprintf_r>:
   11788:	ec010113          	addi	sp,sp,-320
   1178c:	13412423          	sw	s4,296(sp)
   11790:	11912a23          	sw	s9,276(sp)
   11794:	11a12823          	sw	s10,272(sp)
   11798:	12112e23          	sw	ra,316(sp)
   1179c:	12812c23          	sw	s0,312(sp)
   117a0:	12912a23          	sw	s1,308(sp)
   117a4:	13212823          	sw	s2,304(sp)
   117a8:	13312623          	sw	s3,300(sp)
   117ac:	13512223          	sw	s5,292(sp)
   117b0:	13612023          	sw	s6,288(sp)
   117b4:	11712e23          	sw	s7,284(sp)
   117b8:	11812c23          	sw	s8,280(sp)
   117bc:	11b12623          	sw	s11,268(sp)
   117c0:	00d12a23          	sw	a3,20(sp)
   117c4:	00050d13          	mv	s10,a0
   117c8:	00058c93          	mv	s9,a1
   117cc:	00060a13          	mv	s4,a2
   117d0:	00050663          	beqz	a0,117dc <_vfiprintf_r+0x54>
   117d4:	03852783          	lw	a5,56(a0)
   117d8:	6e078263          	beqz	a5,11ebc <_vfiprintf_r+0x734>
   117dc:	00cc9703          	lh	a4,12(s9)
   117e0:	000026b7          	lui	a3,0x2
   117e4:	01071793          	slli	a5,a4,0x10
   117e8:	0107d793          	srli	a5,a5,0x10
   117ec:	00d7f633          	and	a2,a5,a3
   117f0:	02061863          	bnez	a2,11820 <_vfiprintf_r+0x98>
   117f4:	064ca603          	lw	a2,100(s9)
   117f8:	00d767b3          	or	a5,a4,a3
   117fc:	01079793          	slli	a5,a5,0x10
   11800:	ffffe737          	lui	a4,0xffffe
   11804:	4107d793          	srai	a5,a5,0x10
   11808:	fff70713          	addi	a4,a4,-1 # ffffdfff <__BSS_END__+0xfffe4243>
   1180c:	00e67733          	and	a4,a2,a4
   11810:	00fc9623          	sh	a5,12(s9)
   11814:	01079793          	slli	a5,a5,0x10
   11818:	06eca223          	sw	a4,100(s9)
   1181c:	0107d793          	srli	a5,a5,0x10
   11820:	0087f713          	andi	a4,a5,8
   11824:	3c070c63          	beqz	a4,11bfc <_vfiprintf_r+0x474>
   11828:	010ca703          	lw	a4,16(s9)
   1182c:	3c070863          	beqz	a4,11bfc <_vfiprintf_r+0x474>
   11830:	01a7f793          	andi	a5,a5,26
   11834:	00a00713          	li	a4,10
   11838:	3ee78263          	beq	a5,a4,11c1c <_vfiprintf_r+0x494>
   1183c:	000167b7          	lui	a5,0x16
   11840:	ef478793          	addi	a5,a5,-268 # 15ef4 <__func__.0+0x80>
   11844:	00f12c23          	sw	a5,24(sp)
   11848:	000167b7          	lui	a5,0x16
   1184c:	05c10b93          	addi	s7,sp,92
   11850:	06078793          	addi	a5,a5,96 # 16060 <blanks.1>
   11854:	00016c37          	lui	s8,0x16
   11858:	05712823          	sw	s7,80(sp)
   1185c:	04012c23          	sw	zero,88(sp)
   11860:	04012a23          	sw	zero,84(sp)
   11864:	000b8413          	mv	s0,s7
   11868:	00012e23          	sw	zero,28(sp)
   1186c:	02012023          	sw	zero,32(sp)
   11870:	02012223          	sw	zero,36(sp)
   11874:	02012423          	sw	zero,40(sp)
   11878:	00012823          	sw	zero,16(sp)
   1187c:	00f12623          	sw	a5,12(sp)
   11880:	070c0c13          	addi	s8,s8,112 # 16070 <zeroes.0>
   11884:	000a4783          	lbu	a5,0(s4)
   11888:	24078863          	beqz	a5,11ad8 <_vfiprintf_r+0x350>
   1188c:	000a0493          	mv	s1,s4
   11890:	02500713          	li	a4,37
   11894:	44e78663          	beq	a5,a4,11ce0 <_vfiprintf_r+0x558>
   11898:	0014c783          	lbu	a5,1(s1)
   1189c:	00148493          	addi	s1,s1,1
   118a0:	fe079ae3          	bnez	a5,11894 <_vfiprintf_r+0x10c>
   118a4:	41448933          	sub	s2,s1,s4
   118a8:	23448863          	beq	s1,s4,11ad8 <_vfiprintf_r+0x350>
   118ac:	05812703          	lw	a4,88(sp)
   118b0:	05412783          	lw	a5,84(sp)
   118b4:	01442023          	sw	s4,0(s0)
   118b8:	00e90733          	add	a4,s2,a4
   118bc:	00178793          	addi	a5,a5,1
   118c0:	01242223          	sw	s2,4(s0)
   118c4:	04e12c23          	sw	a4,88(sp)
   118c8:	04f12a23          	sw	a5,84(sp)
   118cc:	00700693          	li	a3,7
   118d0:	00840413          	addi	s0,s0,8
   118d4:	02f6d063          	bge	a3,a5,118f4 <_vfiprintf_r+0x16c>
   118d8:	40070ce3          	beqz	a4,124f0 <_vfiprintf_r+0xd68>
   118dc:	05010613          	addi	a2,sp,80
   118e0:	000c8593          	mv	a1,s9
   118e4:	000d0513          	mv	a0,s10
   118e8:	dadff0ef          	jal	ra,11694 <__sprint_r.part.0>
   118ec:	1e051a63          	bnez	a0,11ae0 <_vfiprintf_r+0x358>
   118f0:	000b8413          	mv	s0,s7
   118f4:	01012703          	lw	a4,16(sp)
   118f8:	0004c783          	lbu	a5,0(s1)
   118fc:	01270733          	add	a4,a4,s2
   11900:	00e12823          	sw	a4,16(sp)
   11904:	1c078a63          	beqz	a5,11ad8 <_vfiprintf_r+0x350>
   11908:	0014c703          	lbu	a4,1(s1)
   1190c:	00148a13          	addi	s4,s1,1
   11910:	040105a3          	sb	zero,75(sp)
   11914:	fff00913          	li	s2,-1
   11918:	00000b13          	li	s6,0
   1191c:	00000d93          	li	s11,0
   11920:	05a00493          	li	s1,90
   11924:	00900993          	li	s3,9
   11928:	02a00a93          	li	s5,42
   1192c:	001a0a13          	addi	s4,s4,1
   11930:	fe070793          	addi	a5,a4,-32
   11934:	04f4e463          	bltu	s1,a5,1197c <_vfiprintf_r+0x1f4>
   11938:	01812683          	lw	a3,24(sp)
   1193c:	00279793          	slli	a5,a5,0x2
   11940:	00d787b3          	add	a5,a5,a3
   11944:	0007a783          	lw	a5,0(a5)
   11948:	00078067          	jr	a5
   1194c:	00000b13          	li	s6,0
   11950:	fd070793          	addi	a5,a4,-48
   11954:	000a4703          	lbu	a4,0(s4)
   11958:	002b1693          	slli	a3,s6,0x2
   1195c:	01668b33          	add	s6,a3,s6
   11960:	001b1b13          	slli	s6,s6,0x1
   11964:	01678b33          	add	s6,a5,s6
   11968:	fd070793          	addi	a5,a4,-48
   1196c:	001a0a13          	addi	s4,s4,1
   11970:	fef9f2e3          	bgeu	s3,a5,11954 <_vfiprintf_r+0x1cc>
   11974:	fe070793          	addi	a5,a4,-32
   11978:	fcf4f0e3          	bgeu	s1,a5,11938 <_vfiprintf_r+0x1b0>
   1197c:	14070e63          	beqz	a4,11ad8 <_vfiprintf_r+0x350>
   11980:	08e10e23          	sb	a4,156(sp)
   11984:	040105a3          	sb	zero,75(sp)
   11988:	00100993          	li	s3,1
   1198c:	00100493          	li	s1,1
   11990:	09c10a93          	addi	s5,sp,156
   11994:	00000913          	li	s2,0
   11998:	002dfe93          	andi	t4,s11,2
   1199c:	000e8463          	beqz	t4,119a4 <_vfiprintf_r+0x21c>
   119a0:	00298993          	addi	s3,s3,2
   119a4:	05412703          	lw	a4,84(sp)
   119a8:	084dfe13          	andi	t3,s11,132
   119ac:	05812783          	lw	a5,88(sp)
   119b0:	00170693          	addi	a3,a4,1
   119b4:	00068613          	mv	a2,a3
   119b8:	000e1663          	bnez	t3,119c4 <_vfiprintf_r+0x23c>
   119bc:	413b08b3          	sub	a7,s6,s3
   119c0:	1d104ce3          	bgtz	a7,12398 <_vfiprintf_r+0xc10>
   119c4:	04b14683          	lbu	a3,75(sp)
   119c8:	02068a63          	beqz	a3,119fc <_vfiprintf_r+0x274>
   119cc:	04b10713          	addi	a4,sp,75
   119d0:	00178793          	addi	a5,a5,1
   119d4:	00e42023          	sw	a4,0(s0)
   119d8:	00100713          	li	a4,1
   119dc:	00e42223          	sw	a4,4(s0)
   119e0:	04f12c23          	sw	a5,88(sp)
   119e4:	04c12a23          	sw	a2,84(sp)
   119e8:	00700713          	li	a4,7
   119ec:	12c748e3          	blt	a4,a2,1231c <_vfiprintf_r+0xb94>
   119f0:	00060713          	mv	a4,a2
   119f4:	00840413          	addi	s0,s0,8
   119f8:	00160613          	addi	a2,a2,1
   119fc:	040e8c63          	beqz	t4,11a54 <_vfiprintf_r+0x2cc>
   11a00:	04c10713          	addi	a4,sp,76
   11a04:	00278793          	addi	a5,a5,2
   11a08:	00e42023          	sw	a4,0(s0)
   11a0c:	00200713          	li	a4,2
   11a10:	00e42223          	sw	a4,4(s0)
   11a14:	04f12c23          	sw	a5,88(sp)
   11a18:	04c12a23          	sw	a2,84(sp)
   11a1c:	00700713          	li	a4,7
   11a20:	16c750e3          	bge	a4,a2,12380 <_vfiprintf_r+0xbf8>
   11a24:	32078ee3          	beqz	a5,12560 <_vfiprintf_r+0xdd8>
   11a28:	05010613          	addi	a2,sp,80
   11a2c:	000c8593          	mv	a1,s9
   11a30:	000d0513          	mv	a0,s10
   11a34:	03c12623          	sw	t3,44(sp)
   11a38:	c5dff0ef          	jal	ra,11694 <__sprint_r.part.0>
   11a3c:	0a051263          	bnez	a0,11ae0 <_vfiprintf_r+0x358>
   11a40:	05412703          	lw	a4,84(sp)
   11a44:	05812783          	lw	a5,88(sp)
   11a48:	02c12e03          	lw	t3,44(sp)
   11a4c:	000b8413          	mv	s0,s7
   11a50:	00170613          	addi	a2,a4,1
   11a54:	08000693          	li	a3,128
   11a58:	6ede0e63          	beq	t3,a3,12154 <_vfiprintf_r+0x9cc>
   11a5c:	40990933          	sub	s2,s2,s1
   11a60:	7f204063          	bgtz	s2,12240 <_vfiprintf_r+0xab8>
   11a64:	00f487b3          	add	a5,s1,a5
   11a68:	01542023          	sw	s5,0(s0)
   11a6c:	00942223          	sw	s1,4(s0)
   11a70:	04f12c23          	sw	a5,88(sp)
   11a74:	04c12a23          	sw	a2,84(sp)
   11a78:	00700713          	li	a4,7
   11a7c:	6cc75063          	bge	a4,a2,1213c <_vfiprintf_r+0x9b4>
   11a80:	26078863          	beqz	a5,11cf0 <_vfiprintf_r+0x568>
   11a84:	05010613          	addi	a2,sp,80
   11a88:	000c8593          	mv	a1,s9
   11a8c:	000d0513          	mv	a0,s10
   11a90:	c05ff0ef          	jal	ra,11694 <__sprint_r.part.0>
   11a94:	04051663          	bnez	a0,11ae0 <_vfiprintf_r+0x358>
   11a98:	05812783          	lw	a5,88(sp)
   11a9c:	000b8413          	mv	s0,s7
   11aa0:	004df813          	andi	a6,s11,4
   11aa4:	00080663          	beqz	a6,11ab0 <_vfiprintf_r+0x328>
   11aa8:	413b04b3          	sub	s1,s6,s3
   11aac:	24904e63          	bgtz	s1,11d08 <_vfiprintf_r+0x580>
   11ab0:	013b5463          	bge	s6,s3,11ab8 <_vfiprintf_r+0x330>
   11ab4:	00098b13          	mv	s6,s3
   11ab8:	01012703          	lw	a4,16(sp)
   11abc:	01670733          	add	a4,a4,s6
   11ac0:	00e12823          	sw	a4,16(sp)
   11ac4:	020798e3          	bnez	a5,122f4 <_vfiprintf_r+0xb6c>
   11ac8:	000a4783          	lbu	a5,0(s4)
   11acc:	04012a23          	sw	zero,84(sp)
   11ad0:	000b8413          	mv	s0,s7
   11ad4:	da079ce3          	bnez	a5,1188c <_vfiprintf_r+0x104>
   11ad8:	05812783          	lw	a5,88(sp)
   11adc:	6e0796e3          	bnez	a5,129c8 <_vfiprintf_r+0x1240>
   11ae0:	00ccd783          	lhu	a5,12(s9)
   11ae4:	0407f793          	andi	a5,a5,64
   11ae8:	70079ee3          	bnez	a5,12a04 <_vfiprintf_r+0x127c>
   11aec:	13c12083          	lw	ra,316(sp)
   11af0:	13812403          	lw	s0,312(sp)
   11af4:	01012503          	lw	a0,16(sp)
   11af8:	13412483          	lw	s1,308(sp)
   11afc:	13012903          	lw	s2,304(sp)
   11b00:	12c12983          	lw	s3,300(sp)
   11b04:	12812a03          	lw	s4,296(sp)
   11b08:	12412a83          	lw	s5,292(sp)
   11b0c:	12012b03          	lw	s6,288(sp)
   11b10:	11c12b83          	lw	s7,284(sp)
   11b14:	11812c03          	lw	s8,280(sp)
   11b18:	11412c83          	lw	s9,276(sp)
   11b1c:	11012d03          	lw	s10,272(sp)
   11b20:	10c12d83          	lw	s11,268(sp)
   11b24:	14010113          	addi	sp,sp,320
   11b28:	00008067          	ret
   11b2c:	000d0513          	mv	a0,s10
   11b30:	248020ef          	jal	ra,13d78 <_localeconv_r>
   11b34:	00452783          	lw	a5,4(a0)
   11b38:	00078513          	mv	a0,a5
   11b3c:	02f12423          	sw	a5,40(sp)
   11b40:	648030ef          	jal	ra,15188 <strlen>
   11b44:	00050793          	mv	a5,a0
   11b48:	000d0513          	mv	a0,s10
   11b4c:	02f12223          	sw	a5,36(sp)
   11b50:	228020ef          	jal	ra,13d78 <_localeconv_r>
   11b54:	00852703          	lw	a4,8(a0)
   11b58:	02412783          	lw	a5,36(sp)
   11b5c:	02e12023          	sw	a4,32(sp)
   11b60:	3a079ae3          	bnez	a5,12714 <_vfiprintf_r+0xf8c>
   11b64:	000a4703          	lbu	a4,0(s4)
   11b68:	dc5ff06f          	j	1192c <_vfiprintf_r+0x1a4>
   11b6c:	000a4703          	lbu	a4,0(s4)
   11b70:	020ded93          	ori	s11,s11,32
   11b74:	db9ff06f          	j	1192c <_vfiprintf_r+0x1a4>
   11b78:	010ded93          	ori	s11,s11,16
   11b7c:	020df793          	andi	a5,s11,32
   11b80:	26078a63          	beqz	a5,11df4 <_vfiprintf_r+0x66c>
   11b84:	01412783          	lw	a5,20(sp)
   11b88:	00778793          	addi	a5,a5,7
   11b8c:	ff87f713          	andi	a4,a5,-8
   11b90:	00472783          	lw	a5,4(a4)
   11b94:	00072483          	lw	s1,0(a4)
   11b98:	00870713          	addi	a4,a4,8
   11b9c:	00e12a23          	sw	a4,20(sp)
   11ba0:	00078993          	mv	s3,a5
   11ba4:	2807c263          	bltz	a5,11e28 <_vfiprintf_r+0x6a0>
   11ba8:	fff00793          	li	a5,-1
   11bac:	000d8893          	mv	a7,s11
   11bb0:	00f90863          	beq	s2,a5,11bc0 <_vfiprintf_r+0x438>
   11bb4:	0134e7b3          	or	a5,s1,s3
   11bb8:	f7fdf893          	andi	a7,s11,-129
   11bbc:	140780e3          	beqz	a5,124fc <_vfiprintf_r+0xd74>
   11bc0:	1c0996e3          	bnez	s3,1258c <_vfiprintf_r+0xe04>
   11bc4:	00900793          	li	a5,9
   11bc8:	1c97e2e3          	bltu	a5,s1,1258c <_vfiprintf_r+0xe04>
   11bcc:	03048493          	addi	s1,s1,48
   11bd0:	0e910fa3          	sb	s1,255(sp)
   11bd4:	00088d93          	mv	s11,a7
   11bd8:	00100493          	li	s1,1
   11bdc:	0ff10a93          	addi	s5,sp,255
   11be0:	00090993          	mv	s3,s2
   11be4:	00995463          	bge	s2,s1,11bec <_vfiprintf_r+0x464>
   11be8:	00048993          	mv	s3,s1
   11bec:	04b14783          	lbu	a5,75(sp)
   11bf0:	00f037b3          	snez	a5,a5
   11bf4:	00f989b3          	add	s3,s3,a5
   11bf8:	da1ff06f          	j	11998 <_vfiprintf_r+0x210>
   11bfc:	000c8593          	mv	a1,s9
   11c00:	000d0513          	mv	a0,s10
   11c04:	6f9000ef          	jal	ra,12afc <__swsetup_r>
   11c08:	5e051ee3          	bnez	a0,12a04 <_vfiprintf_r+0x127c>
   11c0c:	00ccd783          	lhu	a5,12(s9)
   11c10:	00a00713          	li	a4,10
   11c14:	01a7f793          	andi	a5,a5,26
   11c18:	c2e792e3          	bne	a5,a4,1183c <_vfiprintf_r+0xb4>
   11c1c:	00ec9783          	lh	a5,14(s9)
   11c20:	c007cee3          	bltz	a5,1183c <_vfiprintf_r+0xb4>
   11c24:	13812403          	lw	s0,312(sp)
   11c28:	01412683          	lw	a3,20(sp)
   11c2c:	13c12083          	lw	ra,316(sp)
   11c30:	13412483          	lw	s1,308(sp)
   11c34:	13012903          	lw	s2,304(sp)
   11c38:	12c12983          	lw	s3,300(sp)
   11c3c:	12412a83          	lw	s5,292(sp)
   11c40:	12012b03          	lw	s6,288(sp)
   11c44:	11c12b83          	lw	s7,284(sp)
   11c48:	11812c03          	lw	s8,280(sp)
   11c4c:	10c12d83          	lw	s11,268(sp)
   11c50:	000a0613          	mv	a2,s4
   11c54:	000c8593          	mv	a1,s9
   11c58:	12812a03          	lw	s4,296(sp)
   11c5c:	11412c83          	lw	s9,276(sp)
   11c60:	000d0513          	mv	a0,s10
   11c64:	11012d03          	lw	s10,272(sp)
   11c68:	14010113          	addi	sp,sp,320
   11c6c:	5d10006f          	j	12a3c <__sbprintf>
   11c70:	010ded93          	ori	s11,s11,16
   11c74:	020df793          	andi	a5,s11,32
   11c78:	14078663          	beqz	a5,11dc4 <_vfiprintf_r+0x63c>
   11c7c:	01412783          	lw	a5,20(sp)
   11c80:	00778793          	addi	a5,a5,7
   11c84:	ff87f793          	andi	a5,a5,-8
   11c88:	0007a483          	lw	s1,0(a5)
   11c8c:	0047a983          	lw	s3,4(a5)
   11c90:	00878793          	addi	a5,a5,8
   11c94:	00f12a23          	sw	a5,20(sp)
   11c98:	bffdf893          	andi	a7,s11,-1025
   11c9c:	00000793          	li	a5,0
   11ca0:	00000713          	li	a4,0
   11ca4:	04e105a3          	sb	a4,75(sp)
   11ca8:	fff00713          	li	a4,-1
   11cac:	1ae90263          	beq	s2,a4,11e50 <_vfiprintf_r+0x6c8>
   11cb0:	0134e733          	or	a4,s1,s3
   11cb4:	f7f8fd93          	andi	s11,a7,-129
   11cb8:	6c071c63          	bnez	a4,12390 <_vfiprintf_r+0xc08>
   11cbc:	40091663          	bnez	s2,120c8 <_vfiprintf_r+0x940>
   11cc0:	040792e3          	bnez	a5,12504 <_vfiprintf_r+0xd7c>
   11cc4:	0018f493          	andi	s1,a7,1
   11cc8:	10010a93          	addi	s5,sp,256
   11ccc:	f0048ae3          	beqz	s1,11be0 <_vfiprintf_r+0x458>
   11cd0:	03000793          	li	a5,48
   11cd4:	0ef10fa3          	sb	a5,255(sp)
   11cd8:	0ff10a93          	addi	s5,sp,255
   11cdc:	f05ff06f          	j	11be0 <_vfiprintf_r+0x458>
   11ce0:	41448933          	sub	s2,s1,s4
   11ce4:	bd4494e3          	bne	s1,s4,118ac <_vfiprintf_r+0x124>
   11ce8:	0004c783          	lbu	a5,0(s1)
   11cec:	c19ff06f          	j	11904 <_vfiprintf_r+0x17c>
   11cf0:	04012a23          	sw	zero,84(sp)
   11cf4:	004df813          	andi	a6,s11,4
   11cf8:	7a080a63          	beqz	a6,124ac <_vfiprintf_r+0xd24>
   11cfc:	413b04b3          	sub	s1,s6,s3
   11d00:	7a905663          	blez	s1,124ac <_vfiprintf_r+0xd24>
   11d04:	000b8413          	mv	s0,s7
   11d08:	01000713          	li	a4,16
   11d0c:	05412683          	lw	a3,84(sp)
   11d10:	4e9752e3          	bge	a4,s1,129f4 <_vfiprintf_r+0x126c>
   11d14:	01000913          	li	s2,16
   11d18:	00700a93          	li	s5,7
   11d1c:	0180006f          	j	11d34 <_vfiprintf_r+0x5ac>
   11d20:	00268613          	addi	a2,a3,2 # 2002 <exit-0xe092>
   11d24:	00840413          	addi	s0,s0,8
   11d28:	00070693          	mv	a3,a4
   11d2c:	ff048493          	addi	s1,s1,-16
   11d30:	04995a63          	bge	s2,s1,11d84 <_vfiprintf_r+0x5fc>
   11d34:	00c12603          	lw	a2,12(sp)
   11d38:	01078793          	addi	a5,a5,16
   11d3c:	00168713          	addi	a4,a3,1
   11d40:	00c42023          	sw	a2,0(s0)
   11d44:	01242223          	sw	s2,4(s0)
   11d48:	04f12c23          	sw	a5,88(sp)
   11d4c:	04e12a23          	sw	a4,84(sp)
   11d50:	fcead8e3          	bge	s5,a4,11d20 <_vfiprintf_r+0x598>
   11d54:	3e078863          	beqz	a5,12144 <_vfiprintf_r+0x9bc>
   11d58:	05010613          	addi	a2,sp,80
   11d5c:	000c8593          	mv	a1,s9
   11d60:	000d0513          	mv	a0,s10
   11d64:	931ff0ef          	jal	ra,11694 <__sprint_r.part.0>
   11d68:	d6051ce3          	bnez	a0,11ae0 <_vfiprintf_r+0x358>
   11d6c:	05412683          	lw	a3,84(sp)
   11d70:	ff048493          	addi	s1,s1,-16
   11d74:	05812783          	lw	a5,88(sp)
   11d78:	000b8413          	mv	s0,s7
   11d7c:	00168613          	addi	a2,a3,1
   11d80:	fa994ae3          	blt	s2,s1,11d34 <_vfiprintf_r+0x5ac>
   11d84:	00c12703          	lw	a4,12(sp)
   11d88:	009787b3          	add	a5,a5,s1
   11d8c:	00942223          	sw	s1,4(s0)
   11d90:	00e42023          	sw	a4,0(s0)
   11d94:	04f12c23          	sw	a5,88(sp)
   11d98:	04c12a23          	sw	a2,84(sp)
   11d9c:	00700713          	li	a4,7
   11da0:	d0c758e3          	bge	a4,a2,11ab0 <_vfiprintf_r+0x328>
   11da4:	70078463          	beqz	a5,124ac <_vfiprintf_r+0xd24>
   11da8:	05010613          	addi	a2,sp,80
   11dac:	000c8593          	mv	a1,s9
   11db0:	000d0513          	mv	a0,s10
   11db4:	8e1ff0ef          	jal	ra,11694 <__sprint_r.part.0>
   11db8:	d20514e3          	bnez	a0,11ae0 <_vfiprintf_r+0x358>
   11dbc:	05812783          	lw	a5,88(sp)
   11dc0:	cf1ff06f          	j	11ab0 <_vfiprintf_r+0x328>
   11dc4:	01412703          	lw	a4,20(sp)
   11dc8:	010df793          	andi	a5,s11,16
   11dcc:	00072483          	lw	s1,0(a4)
   11dd0:	00470713          	addi	a4,a4,4
   11dd4:	00e12a23          	sw	a4,20(sp)
   11dd8:	16079063          	bnez	a5,11f38 <_vfiprintf_r+0x7b0>
   11ddc:	040df793          	andi	a5,s11,64
   11de0:	14078863          	beqz	a5,11f30 <_vfiprintf_r+0x7a8>
   11de4:	01049493          	slli	s1,s1,0x10
   11de8:	0104d493          	srli	s1,s1,0x10
   11dec:	00000993          	li	s3,0
   11df0:	ea9ff06f          	j	11c98 <_vfiprintf_r+0x510>
   11df4:	01412703          	lw	a4,20(sp)
   11df8:	010df793          	andi	a5,s11,16
   11dfc:	00072483          	lw	s1,0(a4)
   11e00:	00470713          	addi	a4,a4,4
   11e04:	00e12a23          	sw	a4,20(sp)
   11e08:	14079063          	bnez	a5,11f48 <_vfiprintf_r+0x7c0>
   11e0c:	040df793          	andi	a5,s11,64
   11e10:	12078863          	beqz	a5,11f40 <_vfiprintf_r+0x7b8>
   11e14:	01049493          	slli	s1,s1,0x10
   11e18:	4104d493          	srai	s1,s1,0x10
   11e1c:	41f4d993          	srai	s3,s1,0x1f
   11e20:	00098793          	mv	a5,s3
   11e24:	d807d2e3          	bgez	a5,11ba8 <_vfiprintf_r+0x420>
   11e28:	02d00713          	li	a4,45
   11e2c:	009037b3          	snez	a5,s1
   11e30:	413009b3          	neg	s3,s3
   11e34:	04e105a3          	sb	a4,75(sp)
   11e38:	fff00713          	li	a4,-1
   11e3c:	40f989b3          	sub	s3,s3,a5
   11e40:	409004b3          	neg	s1,s1
   11e44:	000d8893          	mv	a7,s11
   11e48:	00100793          	li	a5,1
   11e4c:	e6e912e3          	bne	s2,a4,11cb0 <_vfiprintf_r+0x528>
   11e50:	00100713          	li	a4,1
   11e54:	d6e786e3          	beq	a5,a4,11bc0 <_vfiprintf_r+0x438>
   11e58:	00200713          	li	a4,2
   11e5c:	28e78063          	beq	a5,a4,120dc <_vfiprintf_r+0x954>
   11e60:	10010a93          	addi	s5,sp,256
   11e64:	01d99713          	slli	a4,s3,0x1d
   11e68:	0074f793          	andi	a5,s1,7
   11e6c:	0034d493          	srli	s1,s1,0x3
   11e70:	03078793          	addi	a5,a5,48
   11e74:	009764b3          	or	s1,a4,s1
   11e78:	0039d993          	srli	s3,s3,0x3
   11e7c:	fefa8fa3          	sb	a5,-1(s5)
   11e80:	0134e733          	or	a4,s1,s3
   11e84:	000a8693          	mv	a3,s5
   11e88:	fffa8a93          	addi	s5,s5,-1
   11e8c:	fc071ce3          	bnez	a4,11e64 <_vfiprintf_r+0x6dc>
   11e90:	0018f713          	andi	a4,a7,1
   11e94:	26070e63          	beqz	a4,12110 <_vfiprintf_r+0x988>
   11e98:	03000713          	li	a4,48
   11e9c:	26e78a63          	beq	a5,a4,12110 <_vfiprintf_r+0x988>
   11ea0:	ffe68693          	addi	a3,a3,-2
   11ea4:	10010793          	addi	a5,sp,256
   11ea8:	feea8fa3          	sb	a4,-1(s5)
   11eac:	40d784b3          	sub	s1,a5,a3
   11eb0:	00088d93          	mv	s11,a7
   11eb4:	00068a93          	mv	s5,a3
   11eb8:	d29ff06f          	j	11be0 <_vfiprintf_r+0x458>
   11ebc:	33c010ef          	jal	ra,131f8 <__sinit>
   11ec0:	91dff06f          	j	117dc <_vfiprintf_r+0x54>
   11ec4:	01412783          	lw	a5,20(sp)
   11ec8:	040105a3          	sb	zero,75(sp)
   11ecc:	0007aa83          	lw	s5,0(a5)
   11ed0:	00478713          	addi	a4,a5,4
   11ed4:	240a8ae3          	beqz	s5,12928 <_vfiprintf_r+0x11a0>
   11ed8:	fff00793          	li	a5,-1
   11edc:	00e12a23          	sw	a4,20(sp)
   11ee0:	12f908e3          	beq	s2,a5,12810 <_vfiprintf_r+0x1088>
   11ee4:	00090613          	mv	a2,s2
   11ee8:	00000593          	li	a1,0
   11eec:	000a8513          	mv	a0,s5
   11ef0:	059020ef          	jal	ra,14748 <memchr>
   11ef4:	01412703          	lw	a4,20(sp)
   11ef8:	2e0502e3          	beqz	a0,129dc <_vfiprintf_r+0x1254>
   11efc:	415504b3          	sub	s1,a0,s5
   11f00:	00000913          	li	s2,0
   11f04:	cddff06f          	j	11be0 <_vfiprintf_r+0x458>
   11f08:	01412703          	lw	a4,20(sp)
   11f0c:	040105a3          	sb	zero,75(sp)
   11f10:	00100993          	li	s3,1
   11f14:	00072783          	lw	a5,0(a4)
   11f18:	00470713          	addi	a4,a4,4
   11f1c:	00e12a23          	sw	a4,20(sp)
   11f20:	08f10e23          	sb	a5,156(sp)
   11f24:	00100493          	li	s1,1
   11f28:	09c10a93          	addi	s5,sp,156
   11f2c:	a69ff06f          	j	11994 <_vfiprintf_r+0x20c>
   11f30:	200df793          	andi	a5,s11,512
   11f34:	260794e3          	bnez	a5,1299c <_vfiprintf_r+0x1214>
   11f38:	00000993          	li	s3,0
   11f3c:	d5dff06f          	j	11c98 <_vfiprintf_r+0x510>
   11f40:	200df793          	andi	a5,s11,512
   11f44:	260792e3          	bnez	a5,129a8 <_vfiprintf_r+0x1220>
   11f48:	41f4d993          	srai	s3,s1,0x1f
   11f4c:	00098793          	mv	a5,s3
   11f50:	c55ff06f          	j	11ba4 <_vfiprintf_r+0x41c>
   11f54:	01412783          	lw	a5,20(sp)
   11f58:	0007ab03          	lw	s6,0(a5)
   11f5c:	00478793          	addi	a5,a5,4
   11f60:	760b5063          	bgez	s6,126c0 <_vfiprintf_r+0xf38>
   11f64:	41600b33          	neg	s6,s6
   11f68:	00f12a23          	sw	a5,20(sp)
   11f6c:	000a4703          	lbu	a4,0(s4)
   11f70:	004ded93          	ori	s11,s11,4
   11f74:	9b9ff06f          	j	1192c <_vfiprintf_r+0x1a4>
   11f78:	01412703          	lw	a4,20(sp)
   11f7c:	ffff87b7          	lui	a5,0xffff8
   11f80:	8307c793          	xori	a5,a5,-2000
   11f84:	04f11623          	sh	a5,76(sp)
   11f88:	00470793          	addi	a5,a4,4
   11f8c:	00f12a23          	sw	a5,20(sp)
   11f90:	000167b7          	lui	a5,0x16
   11f94:	ed878793          	addi	a5,a5,-296 # 15ed8 <__func__.0+0x64>
   11f98:	00f12e23          	sw	a5,28(sp)
   11f9c:	00072483          	lw	s1,0(a4)
   11fa0:	00000993          	li	s3,0
   11fa4:	002de893          	ori	a7,s11,2
   11fa8:	00200793          	li	a5,2
   11fac:	cf5ff06f          	j	11ca0 <_vfiprintf_r+0x518>
   11fb0:	01412683          	lw	a3,20(sp)
   11fb4:	020df793          	andi	a5,s11,32
   11fb8:	00468713          	addi	a4,a3,4
   11fbc:	76079a63          	bnez	a5,12730 <_vfiprintf_r+0xfa8>
   11fc0:	010df793          	andi	a5,s11,16
   11fc4:	140796e3          	bnez	a5,12910 <_vfiprintf_r+0x1188>
   11fc8:	040df793          	andi	a5,s11,64
   11fcc:	1a079ce3          	bnez	a5,12984 <_vfiprintf_r+0x11fc>
   11fd0:	200df813          	andi	a6,s11,512
   11fd4:	12080ee3          	beqz	a6,12910 <_vfiprintf_r+0x1188>
   11fd8:	01412783          	lw	a5,20(sp)
   11fdc:	00e12a23          	sw	a4,20(sp)
   11fe0:	01012703          	lw	a4,16(sp)
   11fe4:	0007a783          	lw	a5,0(a5)
   11fe8:	00e78023          	sb	a4,0(a5)
   11fec:	899ff06f          	j	11884 <_vfiprintf_r+0xfc>
   11ff0:	000a4703          	lbu	a4,0(s4)
   11ff4:	06c00793          	li	a5,108
   11ff8:	10f704e3          	beq	a4,a5,12900 <_vfiprintf_r+0x1178>
   11ffc:	010ded93          	ori	s11,s11,16
   12000:	92dff06f          	j	1192c <_vfiprintf_r+0x1a4>
   12004:	000a4703          	lbu	a4,0(s4)
   12008:	06800793          	li	a5,104
   1200c:	0ef702e3          	beq	a4,a5,128f0 <_vfiprintf_r+0x1168>
   12010:	040ded93          	ori	s11,s11,64
   12014:	919ff06f          	j	1192c <_vfiprintf_r+0x1a4>
   12018:	010de893          	ori	a7,s11,16
   1201c:	0208f793          	andi	a5,a7,32
   12020:	4e078a63          	beqz	a5,12514 <_vfiprintf_r+0xd8c>
   12024:	01412783          	lw	a5,20(sp)
   12028:	00778d93          	addi	s11,a5,7
   1202c:	ff8dfd93          	andi	s11,s11,-8
   12030:	008d8793          	addi	a5,s11,8
   12034:	00f12a23          	sw	a5,20(sp)
   12038:	000da483          	lw	s1,0(s11)
   1203c:	004da983          	lw	s3,4(s11)
   12040:	00100793          	li	a5,1
   12044:	c5dff06f          	j	11ca0 <_vfiprintf_r+0x518>
   12048:	000a4703          	lbu	a4,0(s4)
   1204c:	080ded93          	ori	s11,s11,128
   12050:	8ddff06f          	j	1192c <_vfiprintf_r+0x1a4>
   12054:	000a4703          	lbu	a4,0(s4)
   12058:	001a0693          	addi	a3,s4,1
   1205c:	1b570ee3          	beq	a4,s5,12a18 <_vfiprintf_r+0x1290>
   12060:	fd070793          	addi	a5,a4,-48
   12064:	00068a13          	mv	s4,a3
   12068:	00000913          	li	s2,0
   1206c:	8cf9e2e3          	bltu	s3,a5,11930 <_vfiprintf_r+0x1a8>
   12070:	000a4703          	lbu	a4,0(s4)
   12074:	00291693          	slli	a3,s2,0x2
   12078:	01268933          	add	s2,a3,s2
   1207c:	00191913          	slli	s2,s2,0x1
   12080:	00f90933          	add	s2,s2,a5
   12084:	fd070793          	addi	a5,a4,-48
   12088:	001a0a13          	addi	s4,s4,1
   1208c:	fef9f2e3          	bgeu	s3,a5,12070 <_vfiprintf_r+0x8e8>
   12090:	8a1ff06f          	j	11930 <_vfiprintf_r+0x1a8>
   12094:	02b00793          	li	a5,43
   12098:	000a4703          	lbu	a4,0(s4)
   1209c:	04f105a3          	sb	a5,75(sp)
   120a0:	88dff06f          	j	1192c <_vfiprintf_r+0x1a4>
   120a4:	000a4703          	lbu	a4,0(s4)
   120a8:	001ded93          	ori	s11,s11,1
   120ac:	881ff06f          	j	1192c <_vfiprintf_r+0x1a4>
   120b0:	04b14783          	lbu	a5,75(sp)
   120b4:	000a4703          	lbu	a4,0(s4)
   120b8:	86079ae3          	bnez	a5,1192c <_vfiprintf_r+0x1a4>
   120bc:	02000793          	li	a5,32
   120c0:	04f105a3          	sb	a5,75(sp)
   120c4:	869ff06f          	j	1192c <_vfiprintf_r+0x1a4>
   120c8:	00100713          	li	a4,1
   120cc:	12e788e3          	beq	a5,a4,129fc <_vfiprintf_r+0x1274>
   120d0:	00200713          	li	a4,2
   120d4:	000d8893          	mv	a7,s11
   120d8:	d8e794e3          	bne	a5,a4,11e60 <_vfiprintf_r+0x6d8>
   120dc:	01c12683          	lw	a3,28(sp)
   120e0:	10010a93          	addi	s5,sp,256
   120e4:	00f4f793          	andi	a5,s1,15
   120e8:	00f687b3          	add	a5,a3,a5
   120ec:	0007c703          	lbu	a4,0(a5)
   120f0:	0044d493          	srli	s1,s1,0x4
   120f4:	01c99793          	slli	a5,s3,0x1c
   120f8:	0097e4b3          	or	s1,a5,s1
   120fc:	0049d993          	srli	s3,s3,0x4
   12100:	feea8fa3          	sb	a4,-1(s5)
   12104:	0134e7b3          	or	a5,s1,s3
   12108:	fffa8a93          	addi	s5,s5,-1
   1210c:	fc079ce3          	bnez	a5,120e4 <_vfiprintf_r+0x95c>
   12110:	10010793          	addi	a5,sp,256
   12114:	415784b3          	sub	s1,a5,s5
   12118:	00088d93          	mv	s11,a7
   1211c:	ac5ff06f          	j	11be0 <_vfiprintf_r+0x458>
   12120:	00100713          	li	a4,1
   12124:	00048793          	mv	a5,s1
   12128:	05512e23          	sw	s5,92(sp)
   1212c:	06912023          	sw	s1,96(sp)
   12130:	04912c23          	sw	s1,88(sp)
   12134:	04e12a23          	sw	a4,84(sp)
   12138:	000b8413          	mv	s0,s7
   1213c:	00840413          	addi	s0,s0,8
   12140:	961ff06f          	j	11aa0 <_vfiprintf_r+0x318>
   12144:	00100613          	li	a2,1
   12148:	00000693          	li	a3,0
   1214c:	000b8413          	mv	s0,s7
   12150:	bddff06f          	j	11d2c <_vfiprintf_r+0x5a4>
   12154:	413b06b3          	sub	a3,s6,s3
   12158:	90d052e3          	blez	a3,11a5c <_vfiprintf_r+0x2d4>
   1215c:	01000593          	li	a1,16
   12160:	0ad5d8e3          	bge	a1,a3,12a10 <_vfiprintf_r+0x1288>
   12164:	02912623          	sw	s1,44(sp)
   12168:	01000893          	li	a7,16
   1216c:	000c8493          	mv	s1,s9
   12170:	00700313          	li	t1,7
   12174:	00068c93          	mv	s9,a3
   12178:	0180006f          	j	12190 <_vfiprintf_r+0xa08>
   1217c:	00270693          	addi	a3,a4,2
   12180:	00840413          	addi	s0,s0,8
   12184:	00060713          	mv	a4,a2
   12188:	ff0c8c93          	addi	s9,s9,-16
   1218c:	0598dc63          	bge	a7,s9,121e4 <_vfiprintf_r+0xa5c>
   12190:	01078793          	addi	a5,a5,16
   12194:	00170613          	addi	a2,a4,1
   12198:	01842023          	sw	s8,0(s0)
   1219c:	01142223          	sw	a7,4(s0)
   121a0:	04f12c23          	sw	a5,88(sp)
   121a4:	04c12a23          	sw	a2,84(sp)
   121a8:	fcc35ae3          	bge	t1,a2,1217c <_vfiprintf_r+0x9f4>
   121ac:	16078063          	beqz	a5,1230c <_vfiprintf_r+0xb84>
   121b0:	05010613          	addi	a2,sp,80
   121b4:	00048593          	mv	a1,s1
   121b8:	000d0513          	mv	a0,s10
   121bc:	cd8ff0ef          	jal	ra,11694 <__sprint_r.part.0>
   121c0:	3c051263          	bnez	a0,12584 <_vfiprintf_r+0xdfc>
   121c4:	05412703          	lw	a4,84(sp)
   121c8:	01000893          	li	a7,16
   121cc:	ff0c8c93          	addi	s9,s9,-16
   121d0:	05812783          	lw	a5,88(sp)
   121d4:	000b8413          	mv	s0,s7
   121d8:	00170693          	addi	a3,a4,1
   121dc:	00700313          	li	t1,7
   121e0:	fb98c8e3          	blt	a7,s9,12190 <_vfiprintf_r+0xa08>
   121e4:	00068593          	mv	a1,a3
   121e8:	000c8693          	mv	a3,s9
   121ec:	00048c93          	mv	s9,s1
   121f0:	02c12483          	lw	s1,44(sp)
   121f4:	00d787b3          	add	a5,a5,a3
   121f8:	01842023          	sw	s8,0(s0)
   121fc:	00d42223          	sw	a3,4(s0)
   12200:	04f12c23          	sw	a5,88(sp)
   12204:	04b12a23          	sw	a1,84(sp)
   12208:	00700713          	li	a4,7
   1220c:	4eb75c63          	bge	a4,a1,12704 <_vfiprintf_r+0xf7c>
   12210:	74078063          	beqz	a5,12950 <_vfiprintf_r+0x11c8>
   12214:	05010613          	addi	a2,sp,80
   12218:	000c8593          	mv	a1,s9
   1221c:	000d0513          	mv	a0,s10
   12220:	c74ff0ef          	jal	ra,11694 <__sprint_r.part.0>
   12224:	8a051ee3          	bnez	a0,11ae0 <_vfiprintf_r+0x358>
   12228:	05412703          	lw	a4,84(sp)
   1222c:	40990933          	sub	s2,s2,s1
   12230:	05812783          	lw	a5,88(sp)
   12234:	000b8413          	mv	s0,s7
   12238:	00170613          	addi	a2,a4,1
   1223c:	832054e3          	blez	s2,11a64 <_vfiprintf_r+0x2dc>
   12240:	01000693          	li	a3,16
   12244:	0726dc63          	bge	a3,s2,122bc <_vfiprintf_r+0xb34>
   12248:	01000893          	li	a7,16
   1224c:	00700313          	li	t1,7
   12250:	0180006f          	j	12268 <_vfiprintf_r+0xae0>
   12254:	00270613          	addi	a2,a4,2
   12258:	00840413          	addi	s0,s0,8
   1225c:	00068713          	mv	a4,a3
   12260:	ff090913          	addi	s2,s2,-16
   12264:	0528dc63          	bge	a7,s2,122bc <_vfiprintf_r+0xb34>
   12268:	01078793          	addi	a5,a5,16
   1226c:	00170693          	addi	a3,a4,1
   12270:	01842023          	sw	s8,0(s0)
   12274:	01142223          	sw	a7,4(s0)
   12278:	04f12c23          	sw	a5,88(sp)
   1227c:	04d12a23          	sw	a3,84(sp)
   12280:	fcd35ae3          	bge	t1,a3,12254 <_vfiprintf_r+0xacc>
   12284:	06078063          	beqz	a5,122e4 <_vfiprintf_r+0xb5c>
   12288:	05010613          	addi	a2,sp,80
   1228c:	000c8593          	mv	a1,s9
   12290:	000d0513          	mv	a0,s10
   12294:	c00ff0ef          	jal	ra,11694 <__sprint_r.part.0>
   12298:	840514e3          	bnez	a0,11ae0 <_vfiprintf_r+0x358>
   1229c:	05412703          	lw	a4,84(sp)
   122a0:	01000893          	li	a7,16
   122a4:	ff090913          	addi	s2,s2,-16
   122a8:	05812783          	lw	a5,88(sp)
   122ac:	000b8413          	mv	s0,s7
   122b0:	00170613          	addi	a2,a4,1
   122b4:	00700313          	li	t1,7
   122b8:	fb28c8e3          	blt	a7,s2,12268 <_vfiprintf_r+0xae0>
   122bc:	012787b3          	add	a5,a5,s2
   122c0:	01842023          	sw	s8,0(s0)
   122c4:	01242223          	sw	s2,4(s0)
   122c8:	04f12c23          	sw	a5,88(sp)
   122cc:	04c12a23          	sw	a2,84(sp)
   122d0:	00700713          	li	a4,7
   122d4:	1ec74863          	blt	a4,a2,124c4 <_vfiprintf_r+0xd3c>
   122d8:	00840413          	addi	s0,s0,8
   122dc:	00160613          	addi	a2,a2,1
   122e0:	f84ff06f          	j	11a64 <_vfiprintf_r+0x2dc>
   122e4:	00100613          	li	a2,1
   122e8:	00000713          	li	a4,0
   122ec:	000b8413          	mv	s0,s7
   122f0:	f71ff06f          	j	12260 <_vfiprintf_r+0xad8>
   122f4:	05010613          	addi	a2,sp,80
   122f8:	000c8593          	mv	a1,s9
   122fc:	000d0513          	mv	a0,s10
   12300:	b94ff0ef          	jal	ra,11694 <__sprint_r.part.0>
   12304:	fc050263          	beqz	a0,11ac8 <_vfiprintf_r+0x340>
   12308:	fd8ff06f          	j	11ae0 <_vfiprintf_r+0x358>
   1230c:	00100693          	li	a3,1
   12310:	00000713          	li	a4,0
   12314:	000b8413          	mv	s0,s7
   12318:	e71ff06f          	j	12188 <_vfiprintf_r+0xa00>
   1231c:	24078a63          	beqz	a5,12570 <_vfiprintf_r+0xde8>
   12320:	05010613          	addi	a2,sp,80
   12324:	000c8593          	mv	a1,s9
   12328:	000d0513          	mv	a0,s10
   1232c:	03c12823          	sw	t3,48(sp)
   12330:	03d12623          	sw	t4,44(sp)
   12334:	b60ff0ef          	jal	ra,11694 <__sprint_r.part.0>
   12338:	fa051463          	bnez	a0,11ae0 <_vfiprintf_r+0x358>
   1233c:	05412703          	lw	a4,84(sp)
   12340:	05812783          	lw	a5,88(sp)
   12344:	03012e03          	lw	t3,48(sp)
   12348:	02c12e83          	lw	t4,44(sp)
   1234c:	000b8413          	mv	s0,s7
   12350:	00170613          	addi	a2,a4,1
   12354:	ea8ff06f          	j	119fc <_vfiprintf_r+0x274>
   12358:	36079a63          	bnez	a5,126cc <_vfiprintf_r+0xf44>
   1235c:	04b14703          	lbu	a4,75(sp)
   12360:	60071463          	bnez	a4,12968 <_vfiprintf_r+0x11e0>
   12364:	200e8863          	beqz	t4,12574 <_vfiprintf_r+0xdec>
   12368:	04c10793          	addi	a5,sp,76
   1236c:	04f12e23          	sw	a5,92(sp)
   12370:	00200793          	li	a5,2
   12374:	06f12023          	sw	a5,96(sp)
   12378:	00100613          	li	a2,1
   1237c:	000b8413          	mv	s0,s7
   12380:	00060713          	mv	a4,a2
   12384:	00840413          	addi	s0,s0,8
   12388:	00170613          	addi	a2,a4,1
   1238c:	ec8ff06f          	j	11a54 <_vfiprintf_r+0x2cc>
   12390:	000d8893          	mv	a7,s11
   12394:	abdff06f          	j	11e50 <_vfiprintf_r+0x6c8>
   12398:	01000613          	li	a2,16
   1239c:	65165863          	bge	a2,a7,129ec <_vfiprintf_r+0x1264>
   123a0:	000a0593          	mv	a1,s4
   123a4:	00040613          	mv	a2,s0
   123a8:	00098a13          	mv	s4,s3
   123ac:	01000313          	li	t1,16
   123b0:	00090993          	mv	s3,s2
   123b4:	00700f13          	li	t5,7
   123b8:	00048913          	mv	s2,s1
   123bc:	03d12623          	sw	t4,44(sp)
   123c0:	000c8493          	mv	s1,s9
   123c4:	03c12823          	sw	t3,48(sp)
   123c8:	00088413          	mv	s0,a7
   123cc:	00058c93          	mv	s9,a1
   123d0:	01c0006f          	j	123ec <_vfiprintf_r+0xc64>
   123d4:	00270513          	addi	a0,a4,2
   123d8:	00860613          	addi	a2,a2,8
   123dc:	00068713          	mv	a4,a3
   123e0:	ff040413          	addi	s0,s0,-16
   123e4:	04835e63          	bge	t1,s0,12440 <_vfiprintf_r+0xcb8>
   123e8:	00170693          	addi	a3,a4,1
   123ec:	00c12583          	lw	a1,12(sp)
   123f0:	01078793          	addi	a5,a5,16
   123f4:	00662223          	sw	t1,4(a2)
   123f8:	00b62023          	sw	a1,0(a2)
   123fc:	04f12c23          	sw	a5,88(sp)
   12400:	04d12a23          	sw	a3,84(sp)
   12404:	fcdf58e3          	bge	t5,a3,123d4 <_vfiprintf_r+0xc4c>
   12408:	08078a63          	beqz	a5,1249c <_vfiprintf_r+0xd14>
   1240c:	05010613          	addi	a2,sp,80
   12410:	00048593          	mv	a1,s1
   12414:	000d0513          	mv	a0,s10
   12418:	a7cff0ef          	jal	ra,11694 <__sprint_r.part.0>
   1241c:	16051463          	bnez	a0,12584 <_vfiprintf_r+0xdfc>
   12420:	05412703          	lw	a4,84(sp)
   12424:	01000313          	li	t1,16
   12428:	ff040413          	addi	s0,s0,-16
   1242c:	05812783          	lw	a5,88(sp)
   12430:	000b8613          	mv	a2,s7
   12434:	00170513          	addi	a0,a4,1
   12438:	00700f13          	li	t5,7
   1243c:	fa8346e3          	blt	t1,s0,123e8 <_vfiprintf_r+0xc60>
   12440:	02c12e83          	lw	t4,44(sp)
   12444:	03012e03          	lw	t3,48(sp)
   12448:	000c8713          	mv	a4,s9
   1244c:	00040893          	mv	a7,s0
   12450:	00048c93          	mv	s9,s1
   12454:	00060413          	mv	s0,a2
   12458:	00090493          	mv	s1,s2
   1245c:	00050593          	mv	a1,a0
   12460:	00098913          	mv	s2,s3
   12464:	000a0993          	mv	s3,s4
   12468:	00070a13          	mv	s4,a4
   1246c:	00c12703          	lw	a4,12(sp)
   12470:	011787b3          	add	a5,a5,a7
   12474:	01142223          	sw	a7,4(s0)
   12478:	00e42023          	sw	a4,0(s0)
   1247c:	04f12c23          	sw	a5,88(sp)
   12480:	04b12a23          	sw	a1,84(sp)
   12484:	00700713          	li	a4,7
   12488:	ecb748e3          	blt	a4,a1,12358 <_vfiprintf_r+0xbd0>
   1248c:	00840413          	addi	s0,s0,8
   12490:	00158613          	addi	a2,a1,1
   12494:	00058713          	mv	a4,a1
   12498:	d2cff06f          	j	119c4 <_vfiprintf_r+0x23c>
   1249c:	00000713          	li	a4,0
   124a0:	00100513          	li	a0,1
   124a4:	000b8613          	mv	a2,s7
   124a8:	f39ff06f          	j	123e0 <_vfiprintf_r+0xc58>
   124ac:	013b5463          	bge	s6,s3,124b4 <_vfiprintf_r+0xd2c>
   124b0:	00098b13          	mv	s6,s3
   124b4:	01012783          	lw	a5,16(sp)
   124b8:	016787b3          	add	a5,a5,s6
   124bc:	00f12823          	sw	a5,16(sp)
   124c0:	e08ff06f          	j	11ac8 <_vfiprintf_r+0x340>
   124c4:	c4078ee3          	beqz	a5,12120 <_vfiprintf_r+0x998>
   124c8:	05010613          	addi	a2,sp,80
   124cc:	000c8593          	mv	a1,s9
   124d0:	000d0513          	mv	a0,s10
   124d4:	9c0ff0ef          	jal	ra,11694 <__sprint_r.part.0>
   124d8:	e0051463          	bnez	a0,11ae0 <_vfiprintf_r+0x358>
   124dc:	05412603          	lw	a2,84(sp)
   124e0:	05812783          	lw	a5,88(sp)
   124e4:	000b8413          	mv	s0,s7
   124e8:	00160613          	addi	a2,a2,1
   124ec:	d78ff06f          	j	11a64 <_vfiprintf_r+0x2dc>
   124f0:	04012a23          	sw	zero,84(sp)
   124f4:	000b8413          	mv	s0,s7
   124f8:	bfcff06f          	j	118f4 <_vfiprintf_r+0x16c>
   124fc:	ec091863          	bnez	s2,11bcc <_vfiprintf_r+0x444>
   12500:	00088d93          	mv	s11,a7
   12504:	00000913          	li	s2,0
   12508:	00000493          	li	s1,0
   1250c:	10010a93          	addi	s5,sp,256
   12510:	ed0ff06f          	j	11be0 <_vfiprintf_r+0x458>
   12514:	01412703          	lw	a4,20(sp)
   12518:	0108f793          	andi	a5,a7,16
   1251c:	00072483          	lw	s1,0(a4)
   12520:	00470713          	addi	a4,a4,4
   12524:	00e12a23          	sw	a4,20(sp)
   12528:	02079663          	bnez	a5,12554 <_vfiprintf_r+0xdcc>
   1252c:	0408f793          	andi	a5,a7,64
   12530:	00078c63          	beqz	a5,12548 <_vfiprintf_r+0xdc0>
   12534:	01049493          	slli	s1,s1,0x10
   12538:	0104d493          	srli	s1,s1,0x10
   1253c:	00000993          	li	s3,0
   12540:	00100793          	li	a5,1
   12544:	f5cff06f          	j	11ca0 <_vfiprintf_r+0x518>
   12548:	2008f793          	andi	a5,a7,512
   1254c:	00078463          	beqz	a5,12554 <_vfiprintf_r+0xdcc>
   12550:	0ff4f493          	zext.b	s1,s1
   12554:	00000993          	li	s3,0
   12558:	00100793          	li	a5,1
   1255c:	f44ff06f          	j	11ca0 <_vfiprintf_r+0x518>
   12560:	00100613          	li	a2,1
   12564:	00000713          	li	a4,0
   12568:	000b8413          	mv	s0,s7
   1256c:	ce8ff06f          	j	11a54 <_vfiprintf_r+0x2cc>
   12570:	1c0e9e63          	bnez	t4,1274c <_vfiprintf_r+0xfc4>
   12574:	00000713          	li	a4,0
   12578:	00100613          	li	a2,1
   1257c:	000b8413          	mv	s0,s7
   12580:	cd4ff06f          	j	11a54 <_vfiprintf_r+0x2cc>
   12584:	00048c93          	mv	s9,s1
   12588:	d58ff06f          	j	11ae0 <_vfiprintf_r+0x358>
   1258c:	ccccdfb7          	lui	t6,0xccccd
   12590:	10000337          	lui	t1,0x10000
   12594:	ccdf8813          	addi	a6,t6,-819 # cccccccd <__BSS_END__+0xcccb2f11>
   12598:	02012e83          	lw	t4,32(sp)
   1259c:	4008f293          	andi	t0,a7,1024
   125a0:	00000593          	li	a1,0
   125a4:	10010613          	addi	a2,sp,256
   125a8:	fff30313          	addi	t1,t1,-1 # fffffff <__BSS_END__+0xffe6243>
   125ac:	00500f13          	li	t5,5
   125b0:	cccf8f93          	addi	t6,t6,-820
   125b4:	00900393          	li	t2,9
   125b8:	0ff00d93          	li	s11,255
   125bc:	03112623          	sw	a7,44(sp)
   125c0:	0600006f          	j	12620 <_vfiprintf_r+0xe98>
   125c4:	00daeab3          	or	s5,s5,a3
   125c8:	0064f7b3          	and	a5,s1,t1
   125cc:	006afab3          	and	s5,s5,t1
   125d0:	015787b3          	add	a5,a5,s5
   125d4:	011787b3          	add	a5,a5,a7
   125d8:	03e7f7b3          	remu	a5,a5,t5
   125dc:	40f487b3          	sub	a5,s1,a5
   125e0:	00f4b733          	sltu	a4,s1,a5
   125e4:	40e98733          	sub	a4,s3,a4
   125e8:	03f78633          	mul	a2,a5,t6
   125ec:	03070733          	mul	a4,a4,a6
   125f0:	0307b6b3          	mulhu	a3,a5,a6
   125f4:	00c70733          	add	a4,a4,a2
   125f8:	030787b3          	mul	a5,a5,a6
   125fc:	00d70733          	add	a4,a4,a3
   12600:	01f71693          	slli	a3,a4,0x1f
   12604:	00175713          	srli	a4,a4,0x1
   12608:	0017d793          	srli	a5,a5,0x1
   1260c:	00f6e7b3          	or	a5,a3,a5
   12610:	32098c63          	beqz	s3,12948 <_vfiprintf_r+0x11c0>
   12614:	00078493          	mv	s1,a5
   12618:	00070993          	mv	s3,a4
   1261c:	000e0613          	mv	a2,t3
   12620:	00499a93          	slli	s5,s3,0x4
   12624:	01c4d693          	srli	a3,s1,0x1c
   12628:	00dae733          	or	a4,s5,a3
   1262c:	00677733          	and	a4,a4,t1
   12630:	0064f7b3          	and	a5,s1,t1
   12634:	00e787b3          	add	a5,a5,a4
   12638:	0189d893          	srli	a7,s3,0x18
   1263c:	011787b3          	add	a5,a5,a7
   12640:	03e7f7b3          	remu	a5,a5,t5
   12644:	fff60e13          	addi	t3,a2,-1
   12648:	00158593          	addi	a1,a1,1
   1264c:	40f487b3          	sub	a5,s1,a5
   12650:	00f4b733          	sltu	a4,s1,a5
   12654:	40e98733          	sub	a4,s3,a4
   12658:	0307b533          	mulhu	a0,a5,a6
   1265c:	03070733          	mul	a4,a4,a6
   12660:	030787b3          	mul	a5,a5,a6
   12664:	00a70733          	add	a4,a4,a0
   12668:	01f71713          	slli	a4,a4,0x1f
   1266c:	0017d513          	srli	a0,a5,0x1
   12670:	00a76533          	or	a0,a4,a0
   12674:	00251793          	slli	a5,a0,0x2
   12678:	00a787b3          	add	a5,a5,a0
   1267c:	00179793          	slli	a5,a5,0x1
   12680:	40f487b3          	sub	a5,s1,a5
   12684:	03078793          	addi	a5,a5,48
   12688:	fef60fa3          	sb	a5,-1(a2)
   1268c:	f2028ce3          	beqz	t0,125c4 <_vfiprintf_r+0xe3c>
   12690:	000ec783          	lbu	a5,0(t4)
   12694:	f2b798e3          	bne	a5,a1,125c4 <_vfiprintf_r+0xe3c>
   12698:	f3b586e3          	beq	a1,s11,125c4 <_vfiprintf_r+0xe3c>
   1269c:	18099463          	bnez	s3,12824 <_vfiprintf_r+0x109c>
   126a0:	1893e263          	bltu	t2,s1,12824 <_vfiprintf_r+0x109c>
   126a4:	02c12883          	lw	a7,44(sp)
   126a8:	000e0a93          	mv	s5,t3
   126ac:	10010793          	addi	a5,sp,256
   126b0:	03d12023          	sw	t4,32(sp)
   126b4:	415784b3          	sub	s1,a5,s5
   126b8:	00088d93          	mv	s11,a7
   126bc:	d24ff06f          	j	11be0 <_vfiprintf_r+0x458>
   126c0:	000a4703          	lbu	a4,0(s4)
   126c4:	00f12a23          	sw	a5,20(sp)
   126c8:	a64ff06f          	j	1192c <_vfiprintf_r+0x1a4>
   126cc:	05010613          	addi	a2,sp,80
   126d0:	000c8593          	mv	a1,s9
   126d4:	000d0513          	mv	a0,s10
   126d8:	03c12823          	sw	t3,48(sp)
   126dc:	03d12623          	sw	t4,44(sp)
   126e0:	fb5fe0ef          	jal	ra,11694 <__sprint_r.part.0>
   126e4:	be051e63          	bnez	a0,11ae0 <_vfiprintf_r+0x358>
   126e8:	05412703          	lw	a4,84(sp)
   126ec:	05812783          	lw	a5,88(sp)
   126f0:	03012e03          	lw	t3,48(sp)
   126f4:	02c12e83          	lw	t4,44(sp)
   126f8:	000b8413          	mv	s0,s7
   126fc:	00170613          	addi	a2,a4,1
   12700:	ac4ff06f          	j	119c4 <_vfiprintf_r+0x23c>
   12704:	00840413          	addi	s0,s0,8
   12708:	00158613          	addi	a2,a1,1
   1270c:	00058713          	mv	a4,a1
   12710:	b4cff06f          	j	11a5c <_vfiprintf_r+0x2d4>
   12714:	02012783          	lw	a5,32(sp)
   12718:	000a4703          	lbu	a4,0(s4)
   1271c:	a0078863          	beqz	a5,1192c <_vfiprintf_r+0x1a4>
   12720:	0007c783          	lbu	a5,0(a5)
   12724:	a0078463          	beqz	a5,1192c <_vfiprintf_r+0x1a4>
   12728:	400ded93          	ori	s11,s11,1024
   1272c:	a00ff06f          	j	1192c <_vfiprintf_r+0x1a4>
   12730:	01012603          	lw	a2,16(sp)
   12734:	0006a783          	lw	a5,0(a3)
   12738:	00e12a23          	sw	a4,20(sp)
   1273c:	41f65693          	srai	a3,a2,0x1f
   12740:	00c7a023          	sw	a2,0(a5)
   12744:	00d7a223          	sw	a3,4(a5)
   12748:	93cff06f          	j	11884 <_vfiprintf_r+0xfc>
   1274c:	04c10793          	addi	a5,sp,76
   12750:	04f12e23          	sw	a5,92(sp)
   12754:	00200793          	li	a5,2
   12758:	06f12023          	sw	a5,96(sp)
   1275c:	00100713          	li	a4,1
   12760:	000b8413          	mv	s0,s7
   12764:	c21ff06f          	j	12384 <_vfiprintf_r+0xbfc>
   12768:	000d8893          	mv	a7,s11
   1276c:	8b1ff06f          	j	1201c <_vfiprintf_r+0x894>
   12770:	000167b7          	lui	a5,0x16
   12774:	ed878793          	addi	a5,a5,-296 # 15ed8 <__func__.0+0x64>
   12778:	00f12e23          	sw	a5,28(sp)
   1277c:	020df793          	andi	a5,s11,32
   12780:	06078063          	beqz	a5,127e0 <_vfiprintf_r+0x1058>
   12784:	01412783          	lw	a5,20(sp)
   12788:	00778793          	addi	a5,a5,7
   1278c:	ff87f793          	andi	a5,a5,-8
   12790:	0007a483          	lw	s1,0(a5)
   12794:	0047a983          	lw	s3,4(a5)
   12798:	00878793          	addi	a5,a5,8
   1279c:	00f12a23          	sw	a5,20(sp)
   127a0:	001df793          	andi	a5,s11,1
   127a4:	00078e63          	beqz	a5,127c0 <_vfiprintf_r+0x1038>
   127a8:	0134e7b3          	or	a5,s1,s3
   127ac:	00078a63          	beqz	a5,127c0 <_vfiprintf_r+0x1038>
   127b0:	03000793          	li	a5,48
   127b4:	04f10623          	sb	a5,76(sp)
   127b8:	04e106a3          	sb	a4,77(sp)
   127bc:	002ded93          	ori	s11,s11,2
   127c0:	bffdf893          	andi	a7,s11,-1025
   127c4:	00200793          	li	a5,2
   127c8:	cd8ff06f          	j	11ca0 <_vfiprintf_r+0x518>
   127cc:	000167b7          	lui	a5,0x16
   127d0:	ec478793          	addi	a5,a5,-316 # 15ec4 <__func__.0+0x50>
   127d4:	00f12e23          	sw	a5,28(sp)
   127d8:	020df793          	andi	a5,s11,32
   127dc:	fa0794e3          	bnez	a5,12784 <_vfiprintf_r+0xffc>
   127e0:	01412683          	lw	a3,20(sp)
   127e4:	010df793          	andi	a5,s11,16
   127e8:	0006a483          	lw	s1,0(a3)
   127ec:	00468693          	addi	a3,a3,4
   127f0:	00d12a23          	sw	a3,20(sp)
   127f4:	0e079a63          	bnez	a5,128e8 <_vfiprintf_r+0x1160>
   127f8:	040df793          	andi	a5,s11,64
   127fc:	0e078263          	beqz	a5,128e0 <_vfiprintf_r+0x1158>
   12800:	01049493          	slli	s1,s1,0x10
   12804:	0104d493          	srli	s1,s1,0x10
   12808:	00000993          	li	s3,0
   1280c:	f95ff06f          	j	127a0 <_vfiprintf_r+0x1018>
   12810:	000a8513          	mv	a0,s5
   12814:	175020ef          	jal	ra,15188 <strlen>
   12818:	00050493          	mv	s1,a0
   1281c:	00000913          	li	s2,0
   12820:	bc0ff06f          	j	11be0 <_vfiprintf_r+0x458>
   12824:	02412783          	lw	a5,36(sp)
   12828:	02812583          	lw	a1,40(sp)
   1282c:	02512e23          	sw	t0,60(sp)
   12830:	40fe0e33          	sub	t3,t3,a5
   12834:	00078613          	mv	a2,a5
   12838:	000e0513          	mv	a0,t3
   1283c:	03d12c23          	sw	t4,56(sp)
   12840:	02d12a23          	sw	a3,52(sp)
   12844:	03112823          	sw	a7,48(sp)
   12848:	03c12023          	sw	t3,32(sp)
   1284c:	1c9020ef          	jal	ra,15214 <strncpy>
   12850:	03412683          	lw	a3,52(sp)
   12854:	100007b7          	lui	a5,0x10000
   12858:	fff78313          	addi	t1,a5,-1 # fffffff <__BSS_END__+0xffe6243>
   1285c:	00dae733          	or	a4,s5,a3
   12860:	03012883          	lw	a7,48(sp)
   12864:	00677733          	and	a4,a4,t1
   12868:	0064f7b3          	and	a5,s1,t1
   1286c:	00e787b3          	add	a5,a5,a4
   12870:	011787b3          	add	a5,a5,a7
   12874:	00500f13          	li	t5,5
   12878:	03e7f7b3          	remu	a5,a5,t5
   1287c:	03812e83          	lw	t4,56(sp)
   12880:	ccccd6b7          	lui	a3,0xccccd
   12884:	ccd68813          	addi	a6,a3,-819 # cccccccd <__BSS_END__+0xcccb2f11>
   12888:	001ec703          	lbu	a4,1(t4)
   1288c:	ccc68f93          	addi	t6,a3,-820
   12890:	02012e03          	lw	t3,32(sp)
   12894:	00e03733          	snez	a4,a4
   12898:	00ee8eb3          	add	t4,t4,a4
   1289c:	03c12283          	lw	t0,60(sp)
   128a0:	00000593          	li	a1,0
   128a4:	00900393          	li	t2,9
   128a8:	40f487b3          	sub	a5,s1,a5
   128ac:	00f4b733          	sltu	a4,s1,a5
   128b0:	40e98733          	sub	a4,s3,a4
   128b4:	03f786b3          	mul	a3,a5,t6
   128b8:	03070733          	mul	a4,a4,a6
   128bc:	0307b633          	mulhu	a2,a5,a6
   128c0:	00d70733          	add	a4,a4,a3
   128c4:	030786b3          	mul	a3,a5,a6
   128c8:	00c70733          	add	a4,a4,a2
   128cc:	01f71793          	slli	a5,a4,0x1f
   128d0:	00175713          	srli	a4,a4,0x1
   128d4:	0016d693          	srli	a3,a3,0x1
   128d8:	00d7e7b3          	or	a5,a5,a3
   128dc:	d39ff06f          	j	12614 <_vfiprintf_r+0xe8c>
   128e0:	200df793          	andi	a5,s11,512
   128e4:	0c079c63          	bnez	a5,129bc <_vfiprintf_r+0x1234>
   128e8:	00000993          	li	s3,0
   128ec:	eb5ff06f          	j	127a0 <_vfiprintf_r+0x1018>
   128f0:	001a4703          	lbu	a4,1(s4)
   128f4:	200ded93          	ori	s11,s11,512
   128f8:	001a0a13          	addi	s4,s4,1
   128fc:	830ff06f          	j	1192c <_vfiprintf_r+0x1a4>
   12900:	001a4703          	lbu	a4,1(s4)
   12904:	020ded93          	ori	s11,s11,32
   12908:	001a0a13          	addi	s4,s4,1
   1290c:	820ff06f          	j	1192c <_vfiprintf_r+0x1a4>
   12910:	01412783          	lw	a5,20(sp)
   12914:	0007a783          	lw	a5,0(a5)
   12918:	00e12a23          	sw	a4,20(sp)
   1291c:	01012703          	lw	a4,16(sp)
   12920:	00e7a023          	sw	a4,0(a5)
   12924:	f61fe06f          	j	11884 <_vfiprintf_r+0xfc>
   12928:	00600793          	li	a5,6
   1292c:	00090493          	mv	s1,s2
   12930:	0327e863          	bltu	a5,s2,12960 <_vfiprintf_r+0x11d8>
   12934:	00016ab7          	lui	s5,0x16
   12938:	00048993          	mv	s3,s1
   1293c:	00e12a23          	sw	a4,20(sp)
   12940:	eeca8a93          	addi	s5,s5,-276 # 15eec <__func__.0+0x78>
   12944:	850ff06f          	j	11994 <_vfiprintf_r+0x20c>
   12948:	cc93e6e3          	bltu	t2,s1,12614 <_vfiprintf_r+0xe8c>
   1294c:	d59ff06f          	j	126a4 <_vfiprintf_r+0xf1c>
   12950:	00100613          	li	a2,1
   12954:	00000713          	li	a4,0
   12958:	000b8413          	mv	s0,s7
   1295c:	900ff06f          	j	11a5c <_vfiprintf_r+0x2d4>
   12960:	00600493          	li	s1,6
   12964:	fd1ff06f          	j	12934 <_vfiprintf_r+0x11ac>
   12968:	04b10793          	addi	a5,sp,75
   1296c:	04f12e23          	sw	a5,92(sp)
   12970:	00100793          	li	a5,1
   12974:	06f12023          	sw	a5,96(sp)
   12978:	00100613          	li	a2,1
   1297c:	000b8413          	mv	s0,s7
   12980:	870ff06f          	j	119f0 <_vfiprintf_r+0x268>
   12984:	01412783          	lw	a5,20(sp)
   12988:	00e12a23          	sw	a4,20(sp)
   1298c:	01012703          	lw	a4,16(sp)
   12990:	0007a783          	lw	a5,0(a5)
   12994:	00e79023          	sh	a4,0(a5)
   12998:	eedfe06f          	j	11884 <_vfiprintf_r+0xfc>
   1299c:	0ff4f493          	zext.b	s1,s1
   129a0:	00000993          	li	s3,0
   129a4:	af4ff06f          	j	11c98 <_vfiprintf_r+0x510>
   129a8:	01849493          	slli	s1,s1,0x18
   129ac:	4184d493          	srai	s1,s1,0x18
   129b0:	41f4d993          	srai	s3,s1,0x1f
   129b4:	00098793          	mv	a5,s3
   129b8:	9ecff06f          	j	11ba4 <_vfiprintf_r+0x41c>
   129bc:	0ff4f493          	zext.b	s1,s1
   129c0:	00000993          	li	s3,0
   129c4:	dddff06f          	j	127a0 <_vfiprintf_r+0x1018>
   129c8:	05010613          	addi	a2,sp,80
   129cc:	000c8593          	mv	a1,s9
   129d0:	000d0513          	mv	a0,s10
   129d4:	cc1fe0ef          	jal	ra,11694 <__sprint_r.part.0>
   129d8:	908ff06f          	j	11ae0 <_vfiprintf_r+0x358>
   129dc:	00090493          	mv	s1,s2
   129e0:	00e12a23          	sw	a4,20(sp)
   129e4:	00000913          	li	s2,0
   129e8:	9f8ff06f          	j	11be0 <_vfiprintf_r+0x458>
   129ec:	00068593          	mv	a1,a3
   129f0:	a7dff06f          	j	1246c <_vfiprintf_r+0xce4>
   129f4:	00168613          	addi	a2,a3,1
   129f8:	b8cff06f          	j	11d84 <_vfiprintf_r+0x5fc>
   129fc:	000d8893          	mv	a7,s11
   12a00:	9ccff06f          	j	11bcc <_vfiprintf_r+0x444>
   12a04:	fff00793          	li	a5,-1
   12a08:	00f12823          	sw	a5,16(sp)
   12a0c:	8e0ff06f          	j	11aec <_vfiprintf_r+0x364>
   12a10:	00060593          	mv	a1,a2
   12a14:	fe0ff06f          	j	121f4 <_vfiprintf_r+0xa6c>
   12a18:	01412783          	lw	a5,20(sp)
   12a1c:	0007a903          	lw	s2,0(a5)
   12a20:	00478793          	addi	a5,a5,4
   12a24:	00095463          	bgez	s2,12a2c <_vfiprintf_r+0x12a4>
   12a28:	fff00913          	li	s2,-1
   12a2c:	001a4703          	lbu	a4,1(s4)
   12a30:	00f12a23          	sw	a5,20(sp)
   12a34:	00068a13          	mv	s4,a3
   12a38:	ef5fe06f          	j	1192c <_vfiprintf_r+0x1a4>

00012a3c <__sbprintf>:
   12a3c:	00c5d783          	lhu	a5,12(a1)
   12a40:	0645ae03          	lw	t3,100(a1)
   12a44:	00e5d303          	lhu	t1,14(a1)
   12a48:	01c5a883          	lw	a7,28(a1)
   12a4c:	0245a803          	lw	a6,36(a1)
   12a50:	b8010113          	addi	sp,sp,-1152
   12a54:	ffd7f793          	andi	a5,a5,-3
   12a58:	40000713          	li	a4,1024
   12a5c:	46812c23          	sw	s0,1144(sp)
   12a60:	00f11a23          	sh	a5,20(sp)
   12a64:	00058413          	mv	s0,a1
   12a68:	07010793          	addi	a5,sp,112
   12a6c:	00810593          	addi	a1,sp,8
   12a70:	46912a23          	sw	s1,1140(sp)
   12a74:	47212823          	sw	s2,1136(sp)
   12a78:	46112e23          	sw	ra,1148(sp)
   12a7c:	00050913          	mv	s2,a0
   12a80:	07c12623          	sw	t3,108(sp)
   12a84:	00611b23          	sh	t1,22(sp)
   12a88:	03112223          	sw	a7,36(sp)
   12a8c:	03012623          	sw	a6,44(sp)
   12a90:	00f12423          	sw	a5,8(sp)
   12a94:	00f12c23          	sw	a5,24(sp)
   12a98:	00e12823          	sw	a4,16(sp)
   12a9c:	00e12e23          	sw	a4,28(sp)
   12aa0:	02012023          	sw	zero,32(sp)
   12aa4:	ce5fe0ef          	jal	ra,11788 <_vfiprintf_r>
   12aa8:	00050493          	mv	s1,a0
   12aac:	02055c63          	bgez	a0,12ae4 <__sbprintf+0xa8>
   12ab0:	01415783          	lhu	a5,20(sp)
   12ab4:	0407f793          	andi	a5,a5,64
   12ab8:	00078863          	beqz	a5,12ac8 <__sbprintf+0x8c>
   12abc:	00c45783          	lhu	a5,12(s0)
   12ac0:	0407e793          	ori	a5,a5,64
   12ac4:	00f41623          	sh	a5,12(s0)
   12ac8:	47c12083          	lw	ra,1148(sp)
   12acc:	47812403          	lw	s0,1144(sp)
   12ad0:	47012903          	lw	s2,1136(sp)
   12ad4:	00048513          	mv	a0,s1
   12ad8:	47412483          	lw	s1,1140(sp)
   12adc:	48010113          	addi	sp,sp,1152
   12ae0:	00008067          	ret
   12ae4:	00810593          	addi	a1,sp,8
   12ae8:	00090513          	mv	a0,s2
   12aec:	51c000ef          	jal	ra,13008 <_fflush_r>
   12af0:	fc0500e3          	beqz	a0,12ab0 <__sbprintf+0x74>
   12af4:	fff00493          	li	s1,-1
   12af8:	fb9ff06f          	j	12ab0 <__sbprintf+0x74>

00012afc <__swsetup_r>:
   12afc:	000187b7          	lui	a5,0x18
   12b00:	b487a783          	lw	a5,-1208(a5) # 17b48 <_impure_ptr>
   12b04:	ff010113          	addi	sp,sp,-16
   12b08:	00812423          	sw	s0,8(sp)
   12b0c:	00912223          	sw	s1,4(sp)
   12b10:	00112623          	sw	ra,12(sp)
   12b14:	00050493          	mv	s1,a0
   12b18:	00058413          	mv	s0,a1
   12b1c:	00078663          	beqz	a5,12b28 <__swsetup_r+0x2c>
   12b20:	0387a703          	lw	a4,56(a5)
   12b24:	08070463          	beqz	a4,12bac <__swsetup_r+0xb0>
   12b28:	00c41703          	lh	a4,12(s0)
   12b2c:	01071793          	slli	a5,a4,0x10
   12b30:	00877693          	andi	a3,a4,8
   12b34:	0107d793          	srli	a5,a5,0x10
   12b38:	08068863          	beqz	a3,12bc8 <__swsetup_r+0xcc>
   12b3c:	01042683          	lw	a3,16(s0)
   12b40:	0a068863          	beqz	a3,12bf0 <__swsetup_r+0xf4>
   12b44:	0017f613          	andi	a2,a5,1
   12b48:	02060863          	beqz	a2,12b78 <__swsetup_r+0x7c>
   12b4c:	01442603          	lw	a2,20(s0)
   12b50:	00042423          	sw	zero,8(s0)
   12b54:	00000513          	li	a0,0
   12b58:	40c00633          	neg	a2,a2
   12b5c:	00c42c23          	sw	a2,24(s0)
   12b60:	02068a63          	beqz	a3,12b94 <__swsetup_r+0x98>
   12b64:	00c12083          	lw	ra,12(sp)
   12b68:	00812403          	lw	s0,8(sp)
   12b6c:	00412483          	lw	s1,4(sp)
   12b70:	01010113          	addi	sp,sp,16
   12b74:	00008067          	ret
   12b78:	0027f613          	andi	a2,a5,2
   12b7c:	00000593          	li	a1,0
   12b80:	00061463          	bnez	a2,12b88 <__swsetup_r+0x8c>
   12b84:	01442583          	lw	a1,20(s0)
   12b88:	00b42423          	sw	a1,8(s0)
   12b8c:	00000513          	li	a0,0
   12b90:	fc069ae3          	bnez	a3,12b64 <__swsetup_r+0x68>
   12b94:	0807f793          	andi	a5,a5,128
   12b98:	fc0786e3          	beqz	a5,12b64 <__swsetup_r+0x68>
   12b9c:	04076713          	ori	a4,a4,64
   12ba0:	00e41623          	sh	a4,12(s0)
   12ba4:	fff00513          	li	a0,-1
   12ba8:	fbdff06f          	j	12b64 <__swsetup_r+0x68>
   12bac:	00078513          	mv	a0,a5
   12bb0:	648000ef          	jal	ra,131f8 <__sinit>
   12bb4:	00c41703          	lh	a4,12(s0)
   12bb8:	01071793          	slli	a5,a4,0x10
   12bbc:	00877693          	andi	a3,a4,8
   12bc0:	0107d793          	srli	a5,a5,0x10
   12bc4:	f6069ce3          	bnez	a3,12b3c <__swsetup_r+0x40>
   12bc8:	0107f693          	andi	a3,a5,16
   12bcc:	08068263          	beqz	a3,12c50 <__swsetup_r+0x154>
   12bd0:	0047f793          	andi	a5,a5,4
   12bd4:	04079463          	bnez	a5,12c1c <__swsetup_r+0x120>
   12bd8:	01042683          	lw	a3,16(s0)
   12bdc:	00876713          	ori	a4,a4,8
   12be0:	01071793          	slli	a5,a4,0x10
   12be4:	00e41623          	sh	a4,12(s0)
   12be8:	0107d793          	srli	a5,a5,0x10
   12bec:	f4069ce3          	bnez	a3,12b44 <__swsetup_r+0x48>
   12bf0:	2807f613          	andi	a2,a5,640
   12bf4:	20000593          	li	a1,512
   12bf8:	f4b606e3          	beq	a2,a1,12b44 <__swsetup_r+0x48>
   12bfc:	00040593          	mv	a1,s0
   12c00:	00048513          	mv	a0,s1
   12c04:	18c010ef          	jal	ra,13d90 <__smakebuf_r>
   12c08:	00c41703          	lh	a4,12(s0)
   12c0c:	01042683          	lw	a3,16(s0)
   12c10:	01071793          	slli	a5,a4,0x10
   12c14:	0107d793          	srli	a5,a5,0x10
   12c18:	f2dff06f          	j	12b44 <__swsetup_r+0x48>
   12c1c:	03042583          	lw	a1,48(s0)
   12c20:	00058e63          	beqz	a1,12c3c <__swsetup_r+0x140>
   12c24:	04040793          	addi	a5,s0,64
   12c28:	00f58863          	beq	a1,a5,12c38 <__swsetup_r+0x13c>
   12c2c:	00048513          	mv	a0,s1
   12c30:	0d5000ef          	jal	ra,13504 <_free_r>
   12c34:	00c41703          	lh	a4,12(s0)
   12c38:	02042823          	sw	zero,48(s0)
   12c3c:	01042683          	lw	a3,16(s0)
   12c40:	fdb77713          	andi	a4,a4,-37
   12c44:	00042223          	sw	zero,4(s0)
   12c48:	00d42023          	sw	a3,0(s0)
   12c4c:	f91ff06f          	j	12bdc <__swsetup_r+0xe0>
   12c50:	00900793          	li	a5,9
   12c54:	00f4a023          	sw	a5,0(s1)
   12c58:	04076713          	ori	a4,a4,64
   12c5c:	00e41623          	sh	a4,12(s0)
   12c60:	fff00513          	li	a0,-1
   12c64:	f01ff06f          	j	12b64 <__swsetup_r+0x68>

00012c68 <abort>:
   12c68:	ff010113          	addi	sp,sp,-16
   12c6c:	00600513          	li	a0,6
   12c70:	00112623          	sw	ra,12(sp)
   12c74:	27c020ef          	jal	ra,14ef0 <raise>
   12c78:	00100513          	li	a0,1
   12c7c:	4c9020ef          	jal	ra,15944 <_exit>

00012c80 <__call_exitprocs>:
   12c80:	fd010113          	addi	sp,sp,-48
   12c84:	000187b7          	lui	a5,0x18
   12c88:	01412c23          	sw	s4,24(sp)
   12c8c:	b447aa03          	lw	s4,-1212(a5) # 17b44 <_global_impure_ptr>
   12c90:	03212023          	sw	s2,32(sp)
   12c94:	02112623          	sw	ra,44(sp)
   12c98:	148a2903          	lw	s2,328(s4)
   12c9c:	02812423          	sw	s0,40(sp)
   12ca0:	02912223          	sw	s1,36(sp)
   12ca4:	01312e23          	sw	s3,28(sp)
   12ca8:	01512a23          	sw	s5,20(sp)
   12cac:	01612823          	sw	s6,16(sp)
   12cb0:	01712623          	sw	s7,12(sp)
   12cb4:	01812423          	sw	s8,8(sp)
   12cb8:	04090063          	beqz	s2,12cf8 <__call_exitprocs+0x78>
   12cbc:	00050b13          	mv	s6,a0
   12cc0:	00058b93          	mv	s7,a1
   12cc4:	00100a93          	li	s5,1
   12cc8:	fff00993          	li	s3,-1
   12ccc:	00492483          	lw	s1,4(s2)
   12cd0:	fff48413          	addi	s0,s1,-1
   12cd4:	02044263          	bltz	s0,12cf8 <__call_exitprocs+0x78>
   12cd8:	00249493          	slli	s1,s1,0x2
   12cdc:	009904b3          	add	s1,s2,s1
   12ce0:	040b8463          	beqz	s7,12d28 <__call_exitprocs+0xa8>
   12ce4:	1044a783          	lw	a5,260(s1)
   12ce8:	05778063          	beq	a5,s7,12d28 <__call_exitprocs+0xa8>
   12cec:	fff40413          	addi	s0,s0,-1
   12cf0:	ffc48493          	addi	s1,s1,-4
   12cf4:	ff3416e3          	bne	s0,s3,12ce0 <__call_exitprocs+0x60>
   12cf8:	02c12083          	lw	ra,44(sp)
   12cfc:	02812403          	lw	s0,40(sp)
   12d00:	02412483          	lw	s1,36(sp)
   12d04:	02012903          	lw	s2,32(sp)
   12d08:	01c12983          	lw	s3,28(sp)
   12d0c:	01812a03          	lw	s4,24(sp)
   12d10:	01412a83          	lw	s5,20(sp)
   12d14:	01012b03          	lw	s6,16(sp)
   12d18:	00c12b83          	lw	s7,12(sp)
   12d1c:	00812c03          	lw	s8,8(sp)
   12d20:	03010113          	addi	sp,sp,48
   12d24:	00008067          	ret
   12d28:	00492783          	lw	a5,4(s2)
   12d2c:	0044a683          	lw	a3,4(s1)
   12d30:	fff78793          	addi	a5,a5,-1
   12d34:	04878e63          	beq	a5,s0,12d90 <__call_exitprocs+0x110>
   12d38:	0004a223          	sw	zero,4(s1)
   12d3c:	fa0688e3          	beqz	a3,12cec <__call_exitprocs+0x6c>
   12d40:	18892783          	lw	a5,392(s2)
   12d44:	008a9733          	sll	a4,s5,s0
   12d48:	00492c03          	lw	s8,4(s2)
   12d4c:	00f777b3          	and	a5,a4,a5
   12d50:	02079263          	bnez	a5,12d74 <__call_exitprocs+0xf4>
   12d54:	000680e7          	jalr	a3
   12d58:	00492703          	lw	a4,4(s2)
   12d5c:	148a2783          	lw	a5,328(s4)
   12d60:	01871463          	bne	a4,s8,12d68 <__call_exitprocs+0xe8>
   12d64:	f92784e3          	beq	a5,s2,12cec <__call_exitprocs+0x6c>
   12d68:	f80788e3          	beqz	a5,12cf8 <__call_exitprocs+0x78>
   12d6c:	00078913          	mv	s2,a5
   12d70:	f5dff06f          	j	12ccc <__call_exitprocs+0x4c>
   12d74:	18c92783          	lw	a5,396(s2)
   12d78:	0844a583          	lw	a1,132(s1)
   12d7c:	00f77733          	and	a4,a4,a5
   12d80:	00071c63          	bnez	a4,12d98 <__call_exitprocs+0x118>
   12d84:	000b0513          	mv	a0,s6
   12d88:	000680e7          	jalr	a3
   12d8c:	fcdff06f          	j	12d58 <__call_exitprocs+0xd8>
   12d90:	00892223          	sw	s0,4(s2)
   12d94:	fa9ff06f          	j	12d3c <__call_exitprocs+0xbc>
   12d98:	00058513          	mv	a0,a1
   12d9c:	000680e7          	jalr	a3
   12da0:	fb9ff06f          	j	12d58 <__call_exitprocs+0xd8>

00012da4 <__sflush_r>:
   12da4:	00c59783          	lh	a5,12(a1)
   12da8:	fe010113          	addi	sp,sp,-32
   12dac:	00812c23          	sw	s0,24(sp)
   12db0:	01312623          	sw	s3,12(sp)
   12db4:	00112e23          	sw	ra,28(sp)
   12db8:	00912a23          	sw	s1,20(sp)
   12dbc:	01212823          	sw	s2,16(sp)
   12dc0:	0087f693          	andi	a3,a5,8
   12dc4:	00058413          	mv	s0,a1
   12dc8:	00050993          	mv	s3,a0
   12dcc:	10069c63          	bnez	a3,12ee4 <__sflush_r+0x140>
   12dd0:	00001737          	lui	a4,0x1
   12dd4:	80070713          	addi	a4,a4,-2048 # 800 <exit-0xf894>
   12dd8:	0045a683          	lw	a3,4(a1)
   12ddc:	00e7e7b3          	or	a5,a5,a4
   12de0:	00f59623          	sh	a5,12(a1)
   12de4:	18d05663          	blez	a3,12f70 <__sflush_r+0x1cc>
   12de8:	02842703          	lw	a4,40(s0)
   12dec:	0c070c63          	beqz	a4,12ec4 <__sflush_r+0x120>
   12df0:	01079793          	slli	a5,a5,0x10
   12df4:	0107d793          	srli	a5,a5,0x10
   12df8:	000016b7          	lui	a3,0x1
   12dfc:	0009a483          	lw	s1,0(s3)
   12e00:	00d7f6b3          	and	a3,a5,a3
   12e04:	0009a023          	sw	zero,0(s3)
   12e08:	01c42583          	lw	a1,28(s0)
   12e0c:	16069863          	bnez	a3,12f7c <__sflush_r+0x1d8>
   12e10:	00100693          	li	a3,1
   12e14:	00000613          	li	a2,0
   12e18:	00098513          	mv	a0,s3
   12e1c:	000700e7          	jalr	a4
   12e20:	fff00793          	li	a5,-1
   12e24:	18f50e63          	beq	a0,a5,12fc0 <__sflush_r+0x21c>
   12e28:	00c45783          	lhu	a5,12(s0)
   12e2c:	02842703          	lw	a4,40(s0)
   12e30:	01c42583          	lw	a1,28(s0)
   12e34:	0047f793          	andi	a5,a5,4
   12e38:	00078e63          	beqz	a5,12e54 <__sflush_r+0xb0>
   12e3c:	00442683          	lw	a3,4(s0)
   12e40:	03042783          	lw	a5,48(s0)
   12e44:	40d50533          	sub	a0,a0,a3
   12e48:	00078663          	beqz	a5,12e54 <__sflush_r+0xb0>
   12e4c:	03c42783          	lw	a5,60(s0)
   12e50:	40f50533          	sub	a0,a0,a5
   12e54:	00050613          	mv	a2,a0
   12e58:	00000693          	li	a3,0
   12e5c:	00098513          	mv	a0,s3
   12e60:	000700e7          	jalr	a4
   12e64:	fff00793          	li	a5,-1
   12e68:	10f51e63          	bne	a0,a5,12f84 <__sflush_r+0x1e0>
   12e6c:	0009a703          	lw	a4,0(s3)
   12e70:	00c41783          	lh	a5,12(s0)
   12e74:	16070a63          	beqz	a4,12fe8 <__sflush_r+0x244>
   12e78:	01d00693          	li	a3,29
   12e7c:	00d70663          	beq	a4,a3,12e88 <__sflush_r+0xe4>
   12e80:	01600693          	li	a3,22
   12e84:	0cd71463          	bne	a4,a3,12f4c <__sflush_r+0x1a8>
   12e88:	01042683          	lw	a3,16(s0)
   12e8c:	fffff737          	lui	a4,0xfffff
   12e90:	7ff70713          	addi	a4,a4,2047 # fffff7ff <__BSS_END__+0xfffe5a43>
   12e94:	00e7f7b3          	and	a5,a5,a4
   12e98:	00f41623          	sh	a5,12(s0)
   12e9c:	00042223          	sw	zero,4(s0)
   12ea0:	00d42023          	sw	a3,0(s0)
   12ea4:	03042583          	lw	a1,48(s0)
   12ea8:	0099a023          	sw	s1,0(s3)
   12eac:	00058c63          	beqz	a1,12ec4 <__sflush_r+0x120>
   12eb0:	04040793          	addi	a5,s0,64
   12eb4:	00f58663          	beq	a1,a5,12ec0 <__sflush_r+0x11c>
   12eb8:	00098513          	mv	a0,s3
   12ebc:	648000ef          	jal	ra,13504 <_free_r>
   12ec0:	02042823          	sw	zero,48(s0)
   12ec4:	00000513          	li	a0,0
   12ec8:	01c12083          	lw	ra,28(sp)
   12ecc:	01812403          	lw	s0,24(sp)
   12ed0:	01412483          	lw	s1,20(sp)
   12ed4:	01012903          	lw	s2,16(sp)
   12ed8:	00c12983          	lw	s3,12(sp)
   12edc:	02010113          	addi	sp,sp,32
   12ee0:	00008067          	ret
   12ee4:	0105a903          	lw	s2,16(a1)
   12ee8:	fc090ee3          	beqz	s2,12ec4 <__sflush_r+0x120>
   12eec:	0005a483          	lw	s1,0(a1)
   12ef0:	01079713          	slli	a4,a5,0x10
   12ef4:	01075713          	srli	a4,a4,0x10
   12ef8:	00377713          	andi	a4,a4,3
   12efc:	0125a023          	sw	s2,0(a1)
   12f00:	412484b3          	sub	s1,s1,s2
   12f04:	00000793          	li	a5,0
   12f08:	00071463          	bnez	a4,12f10 <__sflush_r+0x16c>
   12f0c:	0145a783          	lw	a5,20(a1)
   12f10:	00f42423          	sw	a5,8(s0)
   12f14:	00904863          	bgtz	s1,12f24 <__sflush_r+0x180>
   12f18:	fadff06f          	j	12ec4 <__sflush_r+0x120>
   12f1c:	00a90933          	add	s2,s2,a0
   12f20:	fa9052e3          	blez	s1,12ec4 <__sflush_r+0x120>
   12f24:	02442783          	lw	a5,36(s0)
   12f28:	01c42583          	lw	a1,28(s0)
   12f2c:	00048693          	mv	a3,s1
   12f30:	00090613          	mv	a2,s2
   12f34:	00098513          	mv	a0,s3
   12f38:	000780e7          	jalr	a5
   12f3c:	40a484b3          	sub	s1,s1,a0
   12f40:	fca04ee3          	bgtz	a0,12f1c <__sflush_r+0x178>
   12f44:	00c45783          	lhu	a5,12(s0)
   12f48:	fff00513          	li	a0,-1
   12f4c:	0407e793          	ori	a5,a5,64
   12f50:	01c12083          	lw	ra,28(sp)
   12f54:	00f41623          	sh	a5,12(s0)
   12f58:	01812403          	lw	s0,24(sp)
   12f5c:	01412483          	lw	s1,20(sp)
   12f60:	01012903          	lw	s2,16(sp)
   12f64:	00c12983          	lw	s3,12(sp)
   12f68:	02010113          	addi	sp,sp,32
   12f6c:	00008067          	ret
   12f70:	03c5a703          	lw	a4,60(a1)
   12f74:	e6e04ae3          	bgtz	a4,12de8 <__sflush_r+0x44>
   12f78:	f4dff06f          	j	12ec4 <__sflush_r+0x120>
   12f7c:	05042503          	lw	a0,80(s0)
   12f80:	eb5ff06f          	j	12e34 <__sflush_r+0x90>
   12f84:	00c45783          	lhu	a5,12(s0)
   12f88:	fffff737          	lui	a4,0xfffff
   12f8c:	7ff70713          	addi	a4,a4,2047 # fffff7ff <__BSS_END__+0xfffe5a43>
   12f90:	00e7f7b3          	and	a5,a5,a4
   12f94:	01042683          	lw	a3,16(s0)
   12f98:	01079793          	slli	a5,a5,0x10
   12f9c:	4107d793          	srai	a5,a5,0x10
   12fa0:	00c7d713          	srli	a4,a5,0xc
   12fa4:	00f41623          	sh	a5,12(s0)
   12fa8:	00042223          	sw	zero,4(s0)
   12fac:	00d42023          	sw	a3,0(s0)
   12fb0:	00177793          	andi	a5,a4,1
   12fb4:	ee0788e3          	beqz	a5,12ea4 <__sflush_r+0x100>
   12fb8:	04a42823          	sw	a0,80(s0)
   12fbc:	ee9ff06f          	j	12ea4 <__sflush_r+0x100>
   12fc0:	0009a783          	lw	a5,0(s3)
   12fc4:	e60782e3          	beqz	a5,12e28 <__sflush_r+0x84>
   12fc8:	01d00713          	li	a4,29
   12fcc:	02e78863          	beq	a5,a4,12ffc <__sflush_r+0x258>
   12fd0:	01600713          	li	a4,22
   12fd4:	02e78463          	beq	a5,a4,12ffc <__sflush_r+0x258>
   12fd8:	00c45783          	lhu	a5,12(s0)
   12fdc:	0407e793          	ori	a5,a5,64
   12fe0:	00f41623          	sh	a5,12(s0)
   12fe4:	ee5ff06f          	j	12ec8 <__sflush_r+0x124>
   12fe8:	fffff737          	lui	a4,0xfffff
   12fec:	7ff70713          	addi	a4,a4,2047 # fffff7ff <__BSS_END__+0xfffe5a43>
   12ff0:	01042683          	lw	a3,16(s0)
   12ff4:	00e7f7b3          	and	a5,a5,a4
   12ff8:	fa9ff06f          	j	12fa0 <__sflush_r+0x1fc>
   12ffc:	0099a023          	sw	s1,0(s3)
   13000:	00000513          	li	a0,0
   13004:	ec5ff06f          	j	12ec8 <__sflush_r+0x124>

00013008 <_fflush_r>:
   13008:	fe010113          	addi	sp,sp,-32
   1300c:	00812c23          	sw	s0,24(sp)
   13010:	00112e23          	sw	ra,28(sp)
   13014:	00050413          	mv	s0,a0
   13018:	00050663          	beqz	a0,13024 <_fflush_r+0x1c>
   1301c:	03852783          	lw	a5,56(a0)
   13020:	02078063          	beqz	a5,13040 <_fflush_r+0x38>
   13024:	00c59783          	lh	a5,12(a1)
   13028:	02079663          	bnez	a5,13054 <_fflush_r+0x4c>
   1302c:	01c12083          	lw	ra,28(sp)
   13030:	01812403          	lw	s0,24(sp)
   13034:	00000513          	li	a0,0
   13038:	02010113          	addi	sp,sp,32
   1303c:	00008067          	ret
   13040:	00b12623          	sw	a1,12(sp)
   13044:	1b4000ef          	jal	ra,131f8 <__sinit>
   13048:	00c12583          	lw	a1,12(sp)
   1304c:	00c59783          	lh	a5,12(a1)
   13050:	fc078ee3          	beqz	a5,1302c <_fflush_r+0x24>
   13054:	00040513          	mv	a0,s0
   13058:	01812403          	lw	s0,24(sp)
   1305c:	01c12083          	lw	ra,28(sp)
   13060:	02010113          	addi	sp,sp,32
   13064:	d41ff06f          	j	12da4 <__sflush_r>

00013068 <_cleanup_r>:
   13068:	000155b7          	lui	a1,0x15
   1306c:	5c458593          	addi	a1,a1,1476 # 155c4 <_fclose_r>
   13070:	4550006f          	j	13cc4 <_fwalk_reent>

00013074 <__sinit.part.0>:
   13074:	fe010113          	addi	sp,sp,-32
   13078:	000137b7          	lui	a5,0x13
   1307c:	00112e23          	sw	ra,28(sp)
   13080:	00812c23          	sw	s0,24(sp)
   13084:	00912a23          	sw	s1,20(sp)
   13088:	01212823          	sw	s2,16(sp)
   1308c:	01312623          	sw	s3,12(sp)
   13090:	01412423          	sw	s4,8(sp)
   13094:	01512223          	sw	s5,4(sp)
   13098:	01612023          	sw	s6,0(sp)
   1309c:	00452403          	lw	s0,4(a0)
   130a0:	06878793          	addi	a5,a5,104 # 13068 <_cleanup_r>
   130a4:	02f52e23          	sw	a5,60(a0)
   130a8:	2ec50713          	addi	a4,a0,748
   130ac:	00300793          	li	a5,3
   130b0:	2ee52423          	sw	a4,744(a0)
   130b4:	2ef52223          	sw	a5,740(a0)
   130b8:	2e052023          	sw	zero,736(a0)
   130bc:	00400793          	li	a5,4
   130c0:	00050913          	mv	s2,a0
   130c4:	00f42623          	sw	a5,12(s0)
   130c8:	00800613          	li	a2,8
   130cc:	00000593          	li	a1,0
   130d0:	06042223          	sw	zero,100(s0)
   130d4:	00042023          	sw	zero,0(s0)
   130d8:	00042223          	sw	zero,4(s0)
   130dc:	00042423          	sw	zero,8(s0)
   130e0:	00042823          	sw	zero,16(s0)
   130e4:	00042a23          	sw	zero,20(s0)
   130e8:	00042c23          	sw	zero,24(s0)
   130ec:	05c40513          	addi	a0,s0,92
   130f0:	cc8fe0ef          	jal	ra,115b8 <memset>
   130f4:	00015b37          	lui	s6,0x15
   130f8:	00892483          	lw	s1,8(s2)
   130fc:	00015ab7          	lui	s5,0x15
   13100:	00015a37          	lui	s4,0x15
   13104:	000159b7          	lui	s3,0x15
   13108:	034b0b13          	addi	s6,s6,52 # 15034 <__sread>
   1310c:	090a8a93          	addi	s5,s5,144 # 15090 <__swrite>
   13110:	118a0a13          	addi	s4,s4,280 # 15118 <__sseek>
   13114:	18098993          	addi	s3,s3,384 # 15180 <__sclose>
   13118:	000107b7          	lui	a5,0x10
   1311c:	03642023          	sw	s6,32(s0)
   13120:	03542223          	sw	s5,36(s0)
   13124:	03442423          	sw	s4,40(s0)
   13128:	03342623          	sw	s3,44(s0)
   1312c:	00842e23          	sw	s0,28(s0)
   13130:	00978793          	addi	a5,a5,9 # 10009 <exit-0x8b>
   13134:	00f4a623          	sw	a5,12(s1)
   13138:	00800613          	li	a2,8
   1313c:	00000593          	li	a1,0
   13140:	0604a223          	sw	zero,100(s1)
   13144:	0004a023          	sw	zero,0(s1)
   13148:	0004a223          	sw	zero,4(s1)
   1314c:	0004a423          	sw	zero,8(s1)
   13150:	0004a823          	sw	zero,16(s1)
   13154:	0004aa23          	sw	zero,20(s1)
   13158:	0004ac23          	sw	zero,24(s1)
   1315c:	05c48513          	addi	a0,s1,92
   13160:	c58fe0ef          	jal	ra,115b8 <memset>
   13164:	00c92403          	lw	s0,12(s2)
   13168:	000207b7          	lui	a5,0x20
   1316c:	0364a023          	sw	s6,32(s1)
   13170:	0354a223          	sw	s5,36(s1)
   13174:	0344a423          	sw	s4,40(s1)
   13178:	0334a623          	sw	s3,44(s1)
   1317c:	0094ae23          	sw	s1,28(s1)
   13180:	01278793          	addi	a5,a5,18 # 20012 <__BSS_END__+0x6256>
   13184:	00f42623          	sw	a5,12(s0)
   13188:	06042223          	sw	zero,100(s0)
   1318c:	00042023          	sw	zero,0(s0)
   13190:	00042223          	sw	zero,4(s0)
   13194:	00042423          	sw	zero,8(s0)
   13198:	00042823          	sw	zero,16(s0)
   1319c:	00042a23          	sw	zero,20(s0)
   131a0:	00042c23          	sw	zero,24(s0)
   131a4:	05c40513          	addi	a0,s0,92
   131a8:	00800613          	li	a2,8
   131ac:	00000593          	li	a1,0
   131b0:	c08fe0ef          	jal	ra,115b8 <memset>
   131b4:	01c12083          	lw	ra,28(sp)
   131b8:	03642023          	sw	s6,32(s0)
   131bc:	03542223          	sw	s5,36(s0)
   131c0:	03442423          	sw	s4,40(s0)
   131c4:	03342623          	sw	s3,44(s0)
   131c8:	00842e23          	sw	s0,28(s0)
   131cc:	01812403          	lw	s0,24(sp)
   131d0:	00100793          	li	a5,1
   131d4:	02f92c23          	sw	a5,56(s2)
   131d8:	01412483          	lw	s1,20(sp)
   131dc:	01012903          	lw	s2,16(sp)
   131e0:	00c12983          	lw	s3,12(sp)
   131e4:	00812a03          	lw	s4,8(sp)
   131e8:	00412a83          	lw	s5,4(sp)
   131ec:	00012b03          	lw	s6,0(sp)
   131f0:	02010113          	addi	sp,sp,32
   131f4:	00008067          	ret

000131f8 <__sinit>:
   131f8:	03852783          	lw	a5,56(a0)
   131fc:	00078463          	beqz	a5,13204 <__sinit+0xc>
   13200:	00008067          	ret
   13204:	e71ff06f          	j	13074 <__sinit.part.0>

00013208 <__sfp_lock_acquire>:
   13208:	00008067          	ret

0001320c <__sfp_lock_release>:
   1320c:	00008067          	ret

00013210 <__libc_fini_array>:
   13210:	ff010113          	addi	sp,sp,-16
   13214:	00812423          	sw	s0,8(sp)
   13218:	000177b7          	lui	a5,0x17
   1321c:	00017437          	lui	s0,0x17
   13220:	1a078793          	addi	a5,a5,416 # 171a0 <__do_global_dtors_aux_fini_array_entry>
   13224:	1a440413          	addi	s0,s0,420 # 171a4 <__fini_array_end>
   13228:	40f40433          	sub	s0,s0,a5
   1322c:	00912223          	sw	s1,4(sp)
   13230:	00112623          	sw	ra,12(sp)
   13234:	40245493          	srai	s1,s0,0x2
   13238:	02048063          	beqz	s1,13258 <__libc_fini_array+0x48>
   1323c:	ffc40413          	addi	s0,s0,-4
   13240:	00f40433          	add	s0,s0,a5
   13244:	00042783          	lw	a5,0(s0)
   13248:	fff48493          	addi	s1,s1,-1
   1324c:	ffc40413          	addi	s0,s0,-4
   13250:	000780e7          	jalr	a5
   13254:	fe0498e3          	bnez	s1,13244 <__libc_fini_array+0x34>
   13258:	00c12083          	lw	ra,12(sp)
   1325c:	00812403          	lw	s0,8(sp)
   13260:	00412483          	lw	s1,4(sp)
   13264:	01010113          	addi	sp,sp,16
   13268:	00008067          	ret

0001326c <__fputwc>:
   1326c:	fd010113          	addi	sp,sp,-48
   13270:	02812423          	sw	s0,40(sp)
   13274:	01312e23          	sw	s3,28(sp)
   13278:	01612823          	sw	s6,16(sp)
   1327c:	02112623          	sw	ra,44(sp)
   13280:	02912223          	sw	s1,36(sp)
   13284:	03212023          	sw	s2,32(sp)
   13288:	01412c23          	sw	s4,24(sp)
   1328c:	01512a23          	sw	s5,20(sp)
   13290:	00050b13          	mv	s6,a0
   13294:	00058993          	mv	s3,a1
   13298:	00060413          	mv	s0,a2
   1329c:	2e9000ef          	jal	ra,13d84 <__locale_mb_cur_max>
   132a0:	00100793          	li	a5,1
   132a4:	02f51063          	bne	a0,a5,132c4 <__fputwc+0x58>
   132a8:	fff98793          	addi	a5,s3,-1
   132ac:	0fe00713          	li	a4,254
   132b0:	00f76a63          	bltu	a4,a5,132c4 <__fputwc+0x58>
   132b4:	0ff9f713          	zext.b	a4,s3
   132b8:	00e10623          	sb	a4,12(sp)
   132bc:	00100913          	li	s2,1
   132c0:	02c0006f          	j	132ec <__fputwc+0x80>
   132c4:	05c40693          	addi	a3,s0,92
   132c8:	00098613          	mv	a2,s3
   132cc:	00c10593          	addi	a1,sp,12
   132d0:	000b0513          	mv	a0,s6
   132d4:	170020ef          	jal	ra,15444 <_wcrtomb_r>
   132d8:	fff00793          	li	a5,-1
   132dc:	00050913          	mv	s2,a0
   132e0:	0af50463          	beq	a0,a5,13388 <__fputwc+0x11c>
   132e4:	08050e63          	beqz	a0,13380 <__fputwc+0x114>
   132e8:	00c14703          	lbu	a4,12(sp)
   132ec:	00000493          	li	s1,0
   132f0:	fff00a13          	li	s4,-1
   132f4:	00a00a93          	li	s5,10
   132f8:	0280006f          	j	13320 <__fputwc+0xb4>
   132fc:	00042783          	lw	a5,0(s0)
   13300:	00178693          	addi	a3,a5,1
   13304:	00d42023          	sw	a3,0(s0)
   13308:	00e78023          	sb	a4,0(a5)
   1330c:	00148493          	addi	s1,s1,1
   13310:	00c10793          	addi	a5,sp,12
   13314:	009787b3          	add	a5,a5,s1
   13318:	0724f463          	bgeu	s1,s2,13380 <__fputwc+0x114>
   1331c:	0007c703          	lbu	a4,0(a5)
   13320:	00842783          	lw	a5,8(s0)
   13324:	fff78793          	addi	a5,a5,-1
   13328:	00f42423          	sw	a5,8(s0)
   1332c:	fc07d8e3          	bgez	a5,132fc <__fputwc+0x90>
   13330:	01842683          	lw	a3,24(s0)
   13334:	00070593          	mv	a1,a4
   13338:	00040613          	mv	a2,s0
   1333c:	000b0513          	mv	a0,s6
   13340:	00d7c463          	blt	a5,a3,13348 <__fputwc+0xdc>
   13344:	fb571ce3          	bne	a4,s5,132fc <__fputwc+0x90>
   13348:	775010ef          	jal	ra,152bc <__swbuf_r>
   1334c:	fd4510e3          	bne	a0,s4,1330c <__fputwc+0xa0>
   13350:	fff00913          	li	s2,-1
   13354:	02c12083          	lw	ra,44(sp)
   13358:	02812403          	lw	s0,40(sp)
   1335c:	02412483          	lw	s1,36(sp)
   13360:	01c12983          	lw	s3,28(sp)
   13364:	01812a03          	lw	s4,24(sp)
   13368:	01412a83          	lw	s5,20(sp)
   1336c:	01012b03          	lw	s6,16(sp)
   13370:	00090513          	mv	a0,s2
   13374:	02012903          	lw	s2,32(sp)
   13378:	03010113          	addi	sp,sp,48
   1337c:	00008067          	ret
   13380:	00098913          	mv	s2,s3
   13384:	fd1ff06f          	j	13354 <__fputwc+0xe8>
   13388:	00c45783          	lhu	a5,12(s0)
   1338c:	0407e793          	ori	a5,a5,64
   13390:	00f41623          	sh	a5,12(s0)
   13394:	fc1ff06f          	j	13354 <__fputwc+0xe8>

00013398 <_fputwc_r>:
   13398:	00c61783          	lh	a5,12(a2)
   1339c:	01279713          	slli	a4,a5,0x12
   133a0:	02074063          	bltz	a4,133c0 <_fputwc_r+0x28>
   133a4:	06462703          	lw	a4,100(a2)
   133a8:	000026b7          	lui	a3,0x2
   133ac:	00d7e7b3          	or	a5,a5,a3
   133b0:	000026b7          	lui	a3,0x2
   133b4:	00d76733          	or	a4,a4,a3
   133b8:	00f61623          	sh	a5,12(a2)
   133bc:	06e62223          	sw	a4,100(a2)
   133c0:	eadff06f          	j	1326c <__fputwc>

000133c4 <_malloc_trim_r>:
   133c4:	fe010113          	addi	sp,sp,-32
   133c8:	01312623          	sw	s3,12(sp)
   133cc:	000179b7          	lui	s3,0x17
   133d0:	00812c23          	sw	s0,24(sp)
   133d4:	00912a23          	sw	s1,20(sp)
   133d8:	01212823          	sw	s2,16(sp)
   133dc:	01412423          	sw	s4,8(sp)
   133e0:	00112e23          	sw	ra,28(sp)
   133e4:	00058a13          	mv	s4,a1
   133e8:	00050913          	mv	s2,a0
   133ec:	73c98993          	addi	s3,s3,1852 # 1773c <__malloc_av_>
   133f0:	540010ef          	jal	ra,14930 <__malloc_lock>
   133f4:	0089a703          	lw	a4,8(s3)
   133f8:	000017b7          	lui	a5,0x1
   133fc:	fef78413          	addi	s0,a5,-17 # fef <exit-0xf0a5>
   13400:	00472483          	lw	s1,4(a4)
   13404:	41440433          	sub	s0,s0,s4
   13408:	ffc4f493          	andi	s1,s1,-4
   1340c:	00940433          	add	s0,s0,s1
   13410:	00c45413          	srli	s0,s0,0xc
   13414:	fff40413          	addi	s0,s0,-1
   13418:	00c41413          	slli	s0,s0,0xc
   1341c:	00f44e63          	blt	s0,a5,13438 <_malloc_trim_r+0x74>
   13420:	00000593          	li	a1,0
   13424:	00090513          	mv	a0,s2
   13428:	26d010ef          	jal	ra,14e94 <_sbrk_r>
   1342c:	0089a783          	lw	a5,8(s3)
   13430:	009787b3          	add	a5,a5,s1
   13434:	02f50863          	beq	a0,a5,13464 <_malloc_trim_r+0xa0>
   13438:	00090513          	mv	a0,s2
   1343c:	4f8010ef          	jal	ra,14934 <__malloc_unlock>
   13440:	01c12083          	lw	ra,28(sp)
   13444:	01812403          	lw	s0,24(sp)
   13448:	01412483          	lw	s1,20(sp)
   1344c:	01012903          	lw	s2,16(sp)
   13450:	00c12983          	lw	s3,12(sp)
   13454:	00812a03          	lw	s4,8(sp)
   13458:	00000513          	li	a0,0
   1345c:	02010113          	addi	sp,sp,32
   13460:	00008067          	ret
   13464:	408005b3          	neg	a1,s0
   13468:	00090513          	mv	a0,s2
   1346c:	229010ef          	jal	ra,14e94 <_sbrk_r>
   13470:	fff00793          	li	a5,-1
   13474:	04f50a63          	beq	a0,a5,134c8 <_malloc_trim_r+0x104>
   13478:	0001a7b7          	lui	a5,0x1a
   1347c:	d9478793          	addi	a5,a5,-620 # 19d94 <__malloc_current_mallinfo>
   13480:	0007a703          	lw	a4,0(a5)
   13484:	0089a683          	lw	a3,8(s3)
   13488:	408484b3          	sub	s1,s1,s0
   1348c:	0014e493          	ori	s1,s1,1
   13490:	40870733          	sub	a4,a4,s0
   13494:	00090513          	mv	a0,s2
   13498:	0096a223          	sw	s1,4(a3) # 2004 <exit-0xe090>
   1349c:	00e7a023          	sw	a4,0(a5)
   134a0:	494010ef          	jal	ra,14934 <__malloc_unlock>
   134a4:	01c12083          	lw	ra,28(sp)
   134a8:	01812403          	lw	s0,24(sp)
   134ac:	01412483          	lw	s1,20(sp)
   134b0:	01012903          	lw	s2,16(sp)
   134b4:	00c12983          	lw	s3,12(sp)
   134b8:	00812a03          	lw	s4,8(sp)
   134bc:	00100513          	li	a0,1
   134c0:	02010113          	addi	sp,sp,32
   134c4:	00008067          	ret
   134c8:	00000593          	li	a1,0
   134cc:	00090513          	mv	a0,s2
   134d0:	1c5010ef          	jal	ra,14e94 <_sbrk_r>
   134d4:	0089a703          	lw	a4,8(s3)
   134d8:	00f00693          	li	a3,15
   134dc:	40e507b3          	sub	a5,a0,a4
   134e0:	f4f6dce3          	bge	a3,a5,13438 <_malloc_trim_r+0x74>
   134e4:	000186b7          	lui	a3,0x18
   134e8:	b4c6a683          	lw	a3,-1204(a3) # 17b4c <__malloc_sbrk_base>
   134ec:	0017e793          	ori	a5,a5,1
   134f0:	00f72223          	sw	a5,4(a4)
   134f4:	40d50533          	sub	a0,a0,a3
   134f8:	0001a6b7          	lui	a3,0x1a
   134fc:	d8a6aa23          	sw	a0,-620(a3) # 19d94 <__malloc_current_mallinfo>
   13500:	f39ff06f          	j	13438 <_malloc_trim_r+0x74>

00013504 <_free_r>:
   13504:	12058a63          	beqz	a1,13638 <_free_r+0x134>
   13508:	ff010113          	addi	sp,sp,-16
   1350c:	00812423          	sw	s0,8(sp)
   13510:	00912223          	sw	s1,4(sp)
   13514:	00058413          	mv	s0,a1
   13518:	00050493          	mv	s1,a0
   1351c:	00112623          	sw	ra,12(sp)
   13520:	410010ef          	jal	ra,14930 <__malloc_lock>
   13524:	ffc42803          	lw	a6,-4(s0)
   13528:	ff840713          	addi	a4,s0,-8
   1352c:	000175b7          	lui	a1,0x17
   13530:	ffe87793          	andi	a5,a6,-2
   13534:	00f70633          	add	a2,a4,a5
   13538:	73c58593          	addi	a1,a1,1852 # 1773c <__malloc_av_>
   1353c:	00462683          	lw	a3,4(a2)
   13540:	0085a503          	lw	a0,8(a1)
   13544:	ffc6f693          	andi	a3,a3,-4
   13548:	1ac50a63          	beq	a0,a2,136fc <_free_r+0x1f8>
   1354c:	00d62223          	sw	a3,4(a2)
   13550:	00187813          	andi	a6,a6,1
   13554:	00d60533          	add	a0,a2,a3
   13558:	0a081063          	bnez	a6,135f8 <_free_r+0xf4>
   1355c:	ff842303          	lw	t1,-8(s0)
   13560:	00452803          	lw	a6,4(a0)
   13564:	00017537          	lui	a0,0x17
   13568:	40670733          	sub	a4,a4,t1
   1356c:	00872883          	lw	a7,8(a4)
   13570:	74450513          	addi	a0,a0,1860 # 17744 <__malloc_av_+0x8>
   13574:	006787b3          	add	a5,a5,t1
   13578:	00187813          	andi	a6,a6,1
   1357c:	14a88063          	beq	a7,a0,136bc <_free_r+0x1b8>
   13580:	00c72303          	lw	t1,12(a4)
   13584:	0068a623          	sw	t1,12(a7)
   13588:	01132423          	sw	a7,8(t1)
   1358c:	1e080263          	beqz	a6,13770 <_free_r+0x26c>
   13590:	0017e693          	ori	a3,a5,1
   13594:	00d72223          	sw	a3,4(a4)
   13598:	00f62023          	sw	a5,0(a2)
   1359c:	1ff00693          	li	a3,511
   135a0:	0af6e863          	bltu	a3,a5,13650 <_free_r+0x14c>
   135a4:	ff87f693          	andi	a3,a5,-8
   135a8:	00868693          	addi	a3,a3,8
   135ac:	0045a503          	lw	a0,4(a1)
   135b0:	00d586b3          	add	a3,a1,a3
   135b4:	0006a603          	lw	a2,0(a3)
   135b8:	0057d813          	srli	a6,a5,0x5
   135bc:	00100793          	li	a5,1
   135c0:	010797b3          	sll	a5,a5,a6
   135c4:	00a7e7b3          	or	a5,a5,a0
   135c8:	ff868513          	addi	a0,a3,-8
   135cc:	00a72623          	sw	a0,12(a4)
   135d0:	00c72423          	sw	a2,8(a4)
   135d4:	00f5a223          	sw	a5,4(a1)
   135d8:	00e6a023          	sw	a4,0(a3)
   135dc:	00e62623          	sw	a4,12(a2)
   135e0:	00812403          	lw	s0,8(sp)
   135e4:	00c12083          	lw	ra,12(sp)
   135e8:	00048513          	mv	a0,s1
   135ec:	00412483          	lw	s1,4(sp)
   135f0:	01010113          	addi	sp,sp,16
   135f4:	3400106f          	j	14934 <__malloc_unlock>
   135f8:	00452503          	lw	a0,4(a0)
   135fc:	00157513          	andi	a0,a0,1
   13600:	02051e63          	bnez	a0,1363c <_free_r+0x138>
   13604:	00017537          	lui	a0,0x17
   13608:	00d787b3          	add	a5,a5,a3
   1360c:	74450513          	addi	a0,a0,1860 # 17744 <__malloc_av_+0x8>
   13610:	00862683          	lw	a3,8(a2)
   13614:	0017e893          	ori	a7,a5,1
   13618:	00f70833          	add	a6,a4,a5
   1361c:	16a68663          	beq	a3,a0,13788 <_free_r+0x284>
   13620:	00c62603          	lw	a2,12(a2)
   13624:	00c6a623          	sw	a2,12(a3)
   13628:	00d62423          	sw	a3,8(a2)
   1362c:	01172223          	sw	a7,4(a4)
   13630:	00f82023          	sw	a5,0(a6)
   13634:	f69ff06f          	j	1359c <_free_r+0x98>
   13638:	00008067          	ret
   1363c:	0017e693          	ori	a3,a5,1
   13640:	fed42e23          	sw	a3,-4(s0)
   13644:	00f62023          	sw	a5,0(a2)
   13648:	1ff00693          	li	a3,511
   1364c:	f4f6fce3          	bgeu	a3,a5,135a4 <_free_r+0xa0>
   13650:	0097d693          	srli	a3,a5,0x9
   13654:	00400613          	li	a2,4
   13658:	0ed66a63          	bltu	a2,a3,1374c <_free_r+0x248>
   1365c:	0067d693          	srli	a3,a5,0x6
   13660:	03968813          	addi	a6,a3,57
   13664:	03868613          	addi	a2,a3,56
   13668:	00381813          	slli	a6,a6,0x3
   1366c:	01058833          	add	a6,a1,a6
   13670:	00082683          	lw	a3,0(a6)
   13674:	ff880813          	addi	a6,a6,-8
   13678:	12d80663          	beq	a6,a3,137a4 <_free_r+0x2a0>
   1367c:	0046a603          	lw	a2,4(a3)
   13680:	ffc67613          	andi	a2,a2,-4
   13684:	00c7f663          	bgeu	a5,a2,13690 <_free_r+0x18c>
   13688:	0086a683          	lw	a3,8(a3)
   1368c:	fed818e3          	bne	a6,a3,1367c <_free_r+0x178>
   13690:	00c6a803          	lw	a6,12(a3)
   13694:	01072623          	sw	a6,12(a4)
   13698:	00d72423          	sw	a3,8(a4)
   1369c:	00812403          	lw	s0,8(sp)
   136a0:	00c12083          	lw	ra,12(sp)
   136a4:	00e82423          	sw	a4,8(a6)
   136a8:	00048513          	mv	a0,s1
   136ac:	00412483          	lw	s1,4(sp)
   136b0:	00e6a623          	sw	a4,12(a3)
   136b4:	01010113          	addi	sp,sp,16
   136b8:	27c0106f          	j	14934 <__malloc_unlock>
   136bc:	14081463          	bnez	a6,13804 <_free_r+0x300>
   136c0:	00c62583          	lw	a1,12(a2)
   136c4:	00862603          	lw	a2,8(a2)
   136c8:	00f686b3          	add	a3,a3,a5
   136cc:	00812403          	lw	s0,8(sp)
   136d0:	00b62623          	sw	a1,12(a2)
   136d4:	00c5a423          	sw	a2,8(a1)
   136d8:	0016e793          	ori	a5,a3,1
   136dc:	00c12083          	lw	ra,12(sp)
   136e0:	00f72223          	sw	a5,4(a4)
   136e4:	00048513          	mv	a0,s1
   136e8:	00d70733          	add	a4,a4,a3
   136ec:	00412483          	lw	s1,4(sp)
   136f0:	00d72023          	sw	a3,0(a4)
   136f4:	01010113          	addi	sp,sp,16
   136f8:	23c0106f          	j	14934 <__malloc_unlock>
   136fc:	00187813          	andi	a6,a6,1
   13700:	00d786b3          	add	a3,a5,a3
   13704:	02081063          	bnez	a6,13724 <_free_r+0x220>
   13708:	ff842503          	lw	a0,-8(s0)
   1370c:	40a70733          	sub	a4,a4,a0
   13710:	00c72783          	lw	a5,12(a4)
   13714:	00872603          	lw	a2,8(a4)
   13718:	00a686b3          	add	a3,a3,a0
   1371c:	00f62623          	sw	a5,12(a2)
   13720:	00c7a423          	sw	a2,8(a5)
   13724:	000187b7          	lui	a5,0x18
   13728:	0016e613          	ori	a2,a3,1
   1372c:	b507a783          	lw	a5,-1200(a5) # 17b50 <__malloc_trim_threshold>
   13730:	00c72223          	sw	a2,4(a4)
   13734:	00e5a423          	sw	a4,8(a1)
   13738:	eaf6e4e3          	bltu	a3,a5,135e0 <_free_r+0xdc>
   1373c:	8181a583          	lw	a1,-2024(gp) # 17b5c <__malloc_top_pad>
   13740:	00048513          	mv	a0,s1
   13744:	c81ff0ef          	jal	ra,133c4 <_malloc_trim_r>
   13748:	e99ff06f          	j	135e0 <_free_r+0xdc>
   1374c:	01400613          	li	a2,20
   13750:	02d67463          	bgeu	a2,a3,13778 <_free_r+0x274>
   13754:	05400613          	li	a2,84
   13758:	06d66463          	bltu	a2,a3,137c0 <_free_r+0x2bc>
   1375c:	00c7d693          	srli	a3,a5,0xc
   13760:	06f68813          	addi	a6,a3,111
   13764:	06e68613          	addi	a2,a3,110
   13768:	00381813          	slli	a6,a6,0x3
   1376c:	f01ff06f          	j	1366c <_free_r+0x168>
   13770:	00d787b3          	add	a5,a5,a3
   13774:	e9dff06f          	j	13610 <_free_r+0x10c>
   13778:	05c68813          	addi	a6,a3,92
   1377c:	05b68613          	addi	a2,a3,91
   13780:	00381813          	slli	a6,a6,0x3
   13784:	ee9ff06f          	j	1366c <_free_r+0x168>
   13788:	00e5aa23          	sw	a4,20(a1)
   1378c:	00e5a823          	sw	a4,16(a1)
   13790:	00a72623          	sw	a0,12(a4)
   13794:	00a72423          	sw	a0,8(a4)
   13798:	01172223          	sw	a7,4(a4)
   1379c:	00f82023          	sw	a5,0(a6)
   137a0:	e41ff06f          	j	135e0 <_free_r+0xdc>
   137a4:	0045a503          	lw	a0,4(a1)
   137a8:	40265613          	srai	a2,a2,0x2
   137ac:	00100793          	li	a5,1
   137b0:	00c797b3          	sll	a5,a5,a2
   137b4:	00a7e7b3          	or	a5,a5,a0
   137b8:	00f5a223          	sw	a5,4(a1)
   137bc:	ed9ff06f          	j	13694 <_free_r+0x190>
   137c0:	15400613          	li	a2,340
   137c4:	00d66c63          	bltu	a2,a3,137dc <_free_r+0x2d8>
   137c8:	00f7d693          	srli	a3,a5,0xf
   137cc:	07868813          	addi	a6,a3,120
   137d0:	07768613          	addi	a2,a3,119
   137d4:	00381813          	slli	a6,a6,0x3
   137d8:	e95ff06f          	j	1366c <_free_r+0x168>
   137dc:	55400613          	li	a2,1364
   137e0:	00d66c63          	bltu	a2,a3,137f8 <_free_r+0x2f4>
   137e4:	0127d693          	srli	a3,a5,0x12
   137e8:	07d68813          	addi	a6,a3,125
   137ec:	07c68613          	addi	a2,a3,124
   137f0:	00381813          	slli	a6,a6,0x3
   137f4:	e79ff06f          	j	1366c <_free_r+0x168>
   137f8:	3f800813          	li	a6,1016
   137fc:	07e00613          	li	a2,126
   13800:	e6dff06f          	j	1366c <_free_r+0x168>
   13804:	0017e693          	ori	a3,a5,1
   13808:	00d72223          	sw	a3,4(a4)
   1380c:	00f62023          	sw	a5,0(a2)
   13810:	dd1ff06f          	j	135e0 <_free_r+0xdc>

00013814 <__sfvwrite_r>:
   13814:	00862783          	lw	a5,8(a2)
   13818:	32078063          	beqz	a5,13b38 <__sfvwrite_r+0x324>
   1381c:	00c5d683          	lhu	a3,12(a1)
   13820:	fd010113          	addi	sp,sp,-48
   13824:	02812423          	sw	s0,40(sp)
   13828:	01412c23          	sw	s4,24(sp)
   1382c:	01712623          	sw	s7,12(sp)
   13830:	02112623          	sw	ra,44(sp)
   13834:	02912223          	sw	s1,36(sp)
   13838:	03212023          	sw	s2,32(sp)
   1383c:	01312e23          	sw	s3,28(sp)
   13840:	01512a23          	sw	s5,20(sp)
   13844:	01612823          	sw	s6,16(sp)
   13848:	01812423          	sw	s8,8(sp)
   1384c:	01912223          	sw	s9,4(sp)
   13850:	01a12023          	sw	s10,0(sp)
   13854:	0086f793          	andi	a5,a3,8
   13858:	00060b93          	mv	s7,a2
   1385c:	00050a13          	mv	s4,a0
   13860:	00058413          	mv	s0,a1
   13864:	08078663          	beqz	a5,138f0 <__sfvwrite_r+0xdc>
   13868:	0105a783          	lw	a5,16(a1)
   1386c:	08078263          	beqz	a5,138f0 <__sfvwrite_r+0xdc>
   13870:	0026f793          	andi	a5,a3,2
   13874:	000ba483          	lw	s1,0(s7)
   13878:	08078c63          	beqz	a5,13910 <__sfvwrite_r+0xfc>
   1387c:	02442783          	lw	a5,36(s0)
   13880:	01c42583          	lw	a1,28(s0)
   13884:	80000ab7          	lui	s5,0x80000
   13888:	00000993          	li	s3,0
   1388c:	00000913          	li	s2,0
   13890:	c00aca93          	xori	s5,s5,-1024
   13894:	00098613          	mv	a2,s3
   13898:	000a0513          	mv	a0,s4
   1389c:	04090263          	beqz	s2,138e0 <__sfvwrite_r+0xcc>
   138a0:	00090693          	mv	a3,s2
   138a4:	012af463          	bgeu	s5,s2,138ac <__sfvwrite_r+0x98>
   138a8:	000a8693          	mv	a3,s5
   138ac:	000780e7          	jalr	a5
   138b0:	26a05a63          	blez	a0,13b24 <__sfvwrite_r+0x310>
   138b4:	008ba783          	lw	a5,8(s7)
   138b8:	00a989b3          	add	s3,s3,a0
   138bc:	40a90933          	sub	s2,s2,a0
   138c0:	40a787b3          	sub	a5,a5,a0
   138c4:	00fba423          	sw	a5,8(s7)
   138c8:	20078863          	beqz	a5,13ad8 <__sfvwrite_r+0x2c4>
   138cc:	02442783          	lw	a5,36(s0)
   138d0:	01c42583          	lw	a1,28(s0)
   138d4:	00098613          	mv	a2,s3
   138d8:	000a0513          	mv	a0,s4
   138dc:	fc0912e3          	bnez	s2,138a0 <__sfvwrite_r+0x8c>
   138e0:	0004a983          	lw	s3,0(s1)
   138e4:	0044a903          	lw	s2,4(s1)
   138e8:	00848493          	addi	s1,s1,8
   138ec:	fa9ff06f          	j	13894 <__sfvwrite_r+0x80>
   138f0:	00040593          	mv	a1,s0
   138f4:	000a0513          	mv	a0,s4
   138f8:	a04ff0ef          	jal	ra,12afc <__swsetup_r>
   138fc:	3c051063          	bnez	a0,13cbc <__sfvwrite_r+0x4a8>
   13900:	00c45683          	lhu	a3,12(s0)
   13904:	000ba483          	lw	s1,0(s7)
   13908:	0026f793          	andi	a5,a3,2
   1390c:	f60798e3          	bnez	a5,1387c <__sfvwrite_r+0x68>
   13910:	0016f793          	andi	a5,a3,1
   13914:	12079e63          	bnez	a5,13a50 <__sfvwrite_r+0x23c>
   13918:	00042783          	lw	a5,0(s0)
   1391c:	00842703          	lw	a4,8(s0)
   13920:	80000ab7          	lui	s5,0x80000
   13924:	ffeacb13          	xori	s6,s5,-2
   13928:	00000c13          	li	s8,0
   1392c:	00000993          	li	s3,0
   13930:	fffaca93          	not	s5,s5
   13934:	00078513          	mv	a0,a5
   13938:	00070c93          	mv	s9,a4
   1393c:	10098263          	beqz	s3,13a40 <__sfvwrite_r+0x22c>
   13940:	2006f613          	andi	a2,a3,512
   13944:	24060e63          	beqz	a2,13ba0 <__sfvwrite_r+0x38c>
   13948:	00070d13          	mv	s10,a4
   1394c:	2ee9e663          	bltu	s3,a4,13c38 <__sfvwrite_r+0x424>
   13950:	4806f713          	andi	a4,a3,1152
   13954:	08070a63          	beqz	a4,139e8 <__sfvwrite_r+0x1d4>
   13958:	01442603          	lw	a2,20(s0)
   1395c:	01042583          	lw	a1,16(s0)
   13960:	00161713          	slli	a4,a2,0x1
   13964:	00c70733          	add	a4,a4,a2
   13968:	40b78933          	sub	s2,a5,a1
   1396c:	01f75c93          	srli	s9,a4,0x1f
   13970:	00ec8cb3          	add	s9,s9,a4
   13974:	00190793          	addi	a5,s2,1
   13978:	401cdc93          	srai	s9,s9,0x1
   1397c:	013787b3          	add	a5,a5,s3
   13980:	000c8613          	mv	a2,s9
   13984:	00fcf663          	bgeu	s9,a5,13990 <__sfvwrite_r+0x17c>
   13988:	00078c93          	mv	s9,a5
   1398c:	00078613          	mv	a2,a5
   13990:	4006f693          	andi	a3,a3,1024
   13994:	2c068e63          	beqz	a3,13c70 <__sfvwrite_r+0x45c>
   13998:	00060593          	mv	a1,a2
   1399c:	000a0513          	mv	a0,s4
   139a0:	580000ef          	jal	ra,13f20 <_malloc_r>
   139a4:	00050d13          	mv	s10,a0
   139a8:	30050263          	beqz	a0,13cac <__sfvwrite_r+0x498>
   139ac:	01042583          	lw	a1,16(s0)
   139b0:	00090613          	mv	a2,s2
   139b4:	addfd0ef          	jal	ra,11490 <memcpy>
   139b8:	00c45783          	lhu	a5,12(s0)
   139bc:	b7f7f793          	andi	a5,a5,-1153
   139c0:	0807e793          	ori	a5,a5,128
   139c4:	00f41623          	sh	a5,12(s0)
   139c8:	012d0533          	add	a0,s10,s2
   139cc:	412c87b3          	sub	a5,s9,s2
   139d0:	01a42823          	sw	s10,16(s0)
   139d4:	01942a23          	sw	s9,20(s0)
   139d8:	00a42023          	sw	a0,0(s0)
   139dc:	00098c93          	mv	s9,s3
   139e0:	00f42423          	sw	a5,8(s0)
   139e4:	00098d13          	mv	s10,s3
   139e8:	000d0613          	mv	a2,s10
   139ec:	000c0593          	mv	a1,s8
   139f0:	621000ef          	jal	ra,14810 <memmove>
   139f4:	00842703          	lw	a4,8(s0)
   139f8:	00042783          	lw	a5,0(s0)
   139fc:	00098913          	mv	s2,s3
   13a00:	41970733          	sub	a4,a4,s9
   13a04:	01a787b3          	add	a5,a5,s10
   13a08:	00e42423          	sw	a4,8(s0)
   13a0c:	00f42023          	sw	a5,0(s0)
   13a10:	00000993          	li	s3,0
   13a14:	008ba783          	lw	a5,8(s7)
   13a18:	012c0c33          	add	s8,s8,s2
   13a1c:	412787b3          	sub	a5,a5,s2
   13a20:	00fba423          	sw	a5,8(s7)
   13a24:	0a078a63          	beqz	a5,13ad8 <__sfvwrite_r+0x2c4>
   13a28:	00042783          	lw	a5,0(s0)
   13a2c:	00842703          	lw	a4,8(s0)
   13a30:	00c45683          	lhu	a3,12(s0)
   13a34:	00078513          	mv	a0,a5
   13a38:	00070c93          	mv	s9,a4
   13a3c:	f00992e3          	bnez	s3,13940 <__sfvwrite_r+0x12c>
   13a40:	0004ac03          	lw	s8,0(s1)
   13a44:	0044a983          	lw	s3,4(s1)
   13a48:	00848493          	addi	s1,s1,8
   13a4c:	ee9ff06f          	j	13934 <__sfvwrite_r+0x120>
   13a50:	00000a93          	li	s5,0
   13a54:	00000513          	li	a0,0
   13a58:	00000c13          	li	s8,0
   13a5c:	00000993          	li	s3,0
   13a60:	0e098063          	beqz	s3,13b40 <__sfvwrite_r+0x32c>
   13a64:	0e050863          	beqz	a0,13b54 <__sfvwrite_r+0x340>
   13a68:	000a8793          	mv	a5,s5
   13a6c:	00098b13          	mv	s6,s3
   13a70:	0137f463          	bgeu	a5,s3,13a78 <__sfvwrite_r+0x264>
   13a74:	00078b13          	mv	s6,a5
   13a78:	00042503          	lw	a0,0(s0)
   13a7c:	01042783          	lw	a5,16(s0)
   13a80:	00842903          	lw	s2,8(s0)
   13a84:	01442683          	lw	a3,20(s0)
   13a88:	00a7f663          	bgeu	a5,a0,13a94 <__sfvwrite_r+0x280>
   13a8c:	00d90933          	add	s2,s2,a3
   13a90:	0f694263          	blt	s2,s6,13b74 <__sfvwrite_r+0x360>
   13a94:	1adb4863          	blt	s6,a3,13c44 <__sfvwrite_r+0x430>
   13a98:	02442783          	lw	a5,36(s0)
   13a9c:	01c42583          	lw	a1,28(s0)
   13aa0:	000c0613          	mv	a2,s8
   13aa4:	000a0513          	mv	a0,s4
   13aa8:	000780e7          	jalr	a5
   13aac:	00050913          	mv	s2,a0
   13ab0:	06a05a63          	blez	a0,13b24 <__sfvwrite_r+0x310>
   13ab4:	412a8ab3          	sub	s5,s5,s2
   13ab8:	00100513          	li	a0,1
   13abc:	040a8c63          	beqz	s5,13b14 <__sfvwrite_r+0x300>
   13ac0:	008ba783          	lw	a5,8(s7)
   13ac4:	012c0c33          	add	s8,s8,s2
   13ac8:	412989b3          	sub	s3,s3,s2
   13acc:	412787b3          	sub	a5,a5,s2
   13ad0:	00fba423          	sw	a5,8(s7)
   13ad4:	f80796e3          	bnez	a5,13a60 <__sfvwrite_r+0x24c>
   13ad8:	00000513          	li	a0,0
   13adc:	02c12083          	lw	ra,44(sp)
   13ae0:	02812403          	lw	s0,40(sp)
   13ae4:	02412483          	lw	s1,36(sp)
   13ae8:	02012903          	lw	s2,32(sp)
   13aec:	01c12983          	lw	s3,28(sp)
   13af0:	01812a03          	lw	s4,24(sp)
   13af4:	01412a83          	lw	s5,20(sp)
   13af8:	01012b03          	lw	s6,16(sp)
   13afc:	00c12b83          	lw	s7,12(sp)
   13b00:	00812c03          	lw	s8,8(sp)
   13b04:	00412c83          	lw	s9,4(sp)
   13b08:	00012d03          	lw	s10,0(sp)
   13b0c:	03010113          	addi	sp,sp,48
   13b10:	00008067          	ret
   13b14:	00040593          	mv	a1,s0
   13b18:	000a0513          	mv	a0,s4
   13b1c:	cecff0ef          	jal	ra,13008 <_fflush_r>
   13b20:	fa0500e3          	beqz	a0,13ac0 <__sfvwrite_r+0x2ac>
   13b24:	00c41783          	lh	a5,12(s0)
   13b28:	0407e793          	ori	a5,a5,64
   13b2c:	00f41623          	sh	a5,12(s0)
   13b30:	fff00513          	li	a0,-1
   13b34:	fa9ff06f          	j	13adc <__sfvwrite_r+0x2c8>
   13b38:	00000513          	li	a0,0
   13b3c:	00008067          	ret
   13b40:	0044a983          	lw	s3,4(s1)
   13b44:	00048793          	mv	a5,s1
   13b48:	00848493          	addi	s1,s1,8
   13b4c:	fe098ae3          	beqz	s3,13b40 <__sfvwrite_r+0x32c>
   13b50:	0007ac03          	lw	s8,0(a5)
   13b54:	00098613          	mv	a2,s3
   13b58:	00a00593          	li	a1,10
   13b5c:	000c0513          	mv	a0,s8
   13b60:	3e9000ef          	jal	ra,14748 <memchr>
   13b64:	12050e63          	beqz	a0,13ca0 <__sfvwrite_r+0x48c>
   13b68:	00150513          	addi	a0,a0,1
   13b6c:	41850ab3          	sub	s5,a0,s8
   13b70:	ef9ff06f          	j	13a68 <__sfvwrite_r+0x254>
   13b74:	000c0593          	mv	a1,s8
   13b78:	00090613          	mv	a2,s2
   13b7c:	495000ef          	jal	ra,14810 <memmove>
   13b80:	00042783          	lw	a5,0(s0)
   13b84:	00040593          	mv	a1,s0
   13b88:	000a0513          	mv	a0,s4
   13b8c:	012787b3          	add	a5,a5,s2
   13b90:	00f42023          	sw	a5,0(s0)
   13b94:	c74ff0ef          	jal	ra,13008 <_fflush_r>
   13b98:	f0050ee3          	beqz	a0,13ab4 <__sfvwrite_r+0x2a0>
   13b9c:	f89ff06f          	j	13b24 <__sfvwrite_r+0x310>
   13ba0:	01042683          	lw	a3,16(s0)
   13ba4:	04f6e263          	bltu	a3,a5,13be8 <__sfvwrite_r+0x3d4>
   13ba8:	01442803          	lw	a6,20(s0)
   13bac:	0309ee63          	bltu	s3,a6,13be8 <__sfvwrite_r+0x3d4>
   13bb0:	00098693          	mv	a3,s3
   13bb4:	013b7463          	bgeu	s6,s3,13bbc <__sfvwrite_r+0x3a8>
   13bb8:	000a8693          	mv	a3,s5
   13bbc:	0306c6b3          	div	a3,a3,a6
   13bc0:	02442783          	lw	a5,36(s0)
   13bc4:	01c42583          	lw	a1,28(s0)
   13bc8:	000c0613          	mv	a2,s8
   13bcc:	000a0513          	mv	a0,s4
   13bd0:	030686b3          	mul	a3,a3,a6
   13bd4:	000780e7          	jalr	a5
   13bd8:	00050913          	mv	s2,a0
   13bdc:	f4a054e3          	blez	a0,13b24 <__sfvwrite_r+0x310>
   13be0:	412989b3          	sub	s3,s3,s2
   13be4:	e31ff06f          	j	13a14 <__sfvwrite_r+0x200>
   13be8:	00070913          	mv	s2,a4
   13bec:	00e9f463          	bgeu	s3,a4,13bf4 <__sfvwrite_r+0x3e0>
   13bf0:	00098913          	mv	s2,s3
   13bf4:	00078513          	mv	a0,a5
   13bf8:	00090613          	mv	a2,s2
   13bfc:	000c0593          	mv	a1,s8
   13c00:	411000ef          	jal	ra,14810 <memmove>
   13c04:	00842703          	lw	a4,8(s0)
   13c08:	00042783          	lw	a5,0(s0)
   13c0c:	41270733          	sub	a4,a4,s2
   13c10:	012787b3          	add	a5,a5,s2
   13c14:	00e42423          	sw	a4,8(s0)
   13c18:	00f42023          	sw	a5,0(s0)
   13c1c:	fc0712e3          	bnez	a4,13be0 <__sfvwrite_r+0x3cc>
   13c20:	00040593          	mv	a1,s0
   13c24:	000a0513          	mv	a0,s4
   13c28:	be0ff0ef          	jal	ra,13008 <_fflush_r>
   13c2c:	ee051ce3          	bnez	a0,13b24 <__sfvwrite_r+0x310>
   13c30:	412989b3          	sub	s3,s3,s2
   13c34:	de1ff06f          	j	13a14 <__sfvwrite_r+0x200>
   13c38:	00098c93          	mv	s9,s3
   13c3c:	00098d13          	mv	s10,s3
   13c40:	da9ff06f          	j	139e8 <__sfvwrite_r+0x1d4>
   13c44:	000b0613          	mv	a2,s6
   13c48:	000c0593          	mv	a1,s8
   13c4c:	3c5000ef          	jal	ra,14810 <memmove>
   13c50:	00842703          	lw	a4,8(s0)
   13c54:	00042783          	lw	a5,0(s0)
   13c58:	000b0913          	mv	s2,s6
   13c5c:	41670733          	sub	a4,a4,s6
   13c60:	016787b3          	add	a5,a5,s6
   13c64:	00e42423          	sw	a4,8(s0)
   13c68:	00f42023          	sw	a5,0(s0)
   13c6c:	e49ff06f          	j	13ab4 <__sfvwrite_r+0x2a0>
   13c70:	000a0513          	mv	a0,s4
   13c74:	4c5000ef          	jal	ra,14938 <_realloc_r>
   13c78:	00050d13          	mv	s10,a0
   13c7c:	d40516e3          	bnez	a0,139c8 <__sfvwrite_r+0x1b4>
   13c80:	01042583          	lw	a1,16(s0)
   13c84:	000a0513          	mv	a0,s4
   13c88:	87dff0ef          	jal	ra,13504 <_free_r>
   13c8c:	00c41783          	lh	a5,12(s0)
   13c90:	00c00713          	li	a4,12
   13c94:	00ea2023          	sw	a4,0(s4)
   13c98:	f7f7f793          	andi	a5,a5,-129
   13c9c:	e8dff06f          	j	13b28 <__sfvwrite_r+0x314>
   13ca0:	00198793          	addi	a5,s3,1
   13ca4:	00078a93          	mv	s5,a5
   13ca8:	dc5ff06f          	j	13a6c <__sfvwrite_r+0x258>
   13cac:	00c00713          	li	a4,12
   13cb0:	00c41783          	lh	a5,12(s0)
   13cb4:	00ea2023          	sw	a4,0(s4)
   13cb8:	e71ff06f          	j	13b28 <__sfvwrite_r+0x314>
   13cbc:	fff00513          	li	a0,-1
   13cc0:	e1dff06f          	j	13adc <__sfvwrite_r+0x2c8>

00013cc4 <_fwalk_reent>:
   13cc4:	fd010113          	addi	sp,sp,-48
   13cc8:	03212023          	sw	s2,32(sp)
   13ccc:	01312e23          	sw	s3,28(sp)
   13cd0:	01412c23          	sw	s4,24(sp)
   13cd4:	01512a23          	sw	s5,20(sp)
   13cd8:	01612823          	sw	s6,16(sp)
   13cdc:	01712623          	sw	s7,12(sp)
   13ce0:	02112623          	sw	ra,44(sp)
   13ce4:	02812423          	sw	s0,40(sp)
   13ce8:	02912223          	sw	s1,36(sp)
   13cec:	00050a93          	mv	s5,a0
   13cf0:	00058b93          	mv	s7,a1
   13cf4:	2e050b13          	addi	s6,a0,736
   13cf8:	00000a13          	li	s4,0
   13cfc:	00100993          	li	s3,1
   13d00:	fff00913          	li	s2,-1
   13d04:	004b2483          	lw	s1,4(s6)
   13d08:	008b2403          	lw	s0,8(s6)
   13d0c:	fff48493          	addi	s1,s1,-1
   13d10:	0204c863          	bltz	s1,13d40 <_fwalk_reent+0x7c>
   13d14:	00c45783          	lhu	a5,12(s0)
   13d18:	fff48493          	addi	s1,s1,-1
   13d1c:	00f9fe63          	bgeu	s3,a5,13d38 <_fwalk_reent+0x74>
   13d20:	00e41783          	lh	a5,14(s0)
   13d24:	00040593          	mv	a1,s0
   13d28:	000a8513          	mv	a0,s5
   13d2c:	01278663          	beq	a5,s2,13d38 <_fwalk_reent+0x74>
   13d30:	000b80e7          	jalr	s7
   13d34:	00aa6a33          	or	s4,s4,a0
   13d38:	06840413          	addi	s0,s0,104
   13d3c:	fd249ce3          	bne	s1,s2,13d14 <_fwalk_reent+0x50>
   13d40:	000b2b03          	lw	s6,0(s6)
   13d44:	fc0b10e3          	bnez	s6,13d04 <_fwalk_reent+0x40>
   13d48:	02c12083          	lw	ra,44(sp)
   13d4c:	02812403          	lw	s0,40(sp)
   13d50:	02412483          	lw	s1,36(sp)
   13d54:	02012903          	lw	s2,32(sp)
   13d58:	01c12983          	lw	s3,28(sp)
   13d5c:	01412a83          	lw	s5,20(sp)
   13d60:	01012b03          	lw	s6,16(sp)
   13d64:	00c12b83          	lw	s7,12(sp)
   13d68:	000a0513          	mv	a0,s4
   13d6c:	01812a03          	lw	s4,24(sp)
   13d70:	03010113          	addi	sp,sp,48
   13d74:	00008067          	ret

00013d78 <_localeconv_r>:
   13d78:	00017537          	lui	a0,0x17
   13d7c:	6c050513          	addi	a0,a0,1728 # 176c0 <__global_locale+0xf0>
   13d80:	00008067          	ret

00013d84 <__locale_mb_cur_max>:
   13d84:	000177b7          	lui	a5,0x17
   13d88:	6f87c503          	lbu	a0,1784(a5) # 176f8 <__global_locale+0x128>
   13d8c:	00008067          	ret

00013d90 <__smakebuf_r>:
   13d90:	00c5d783          	lhu	a5,12(a1)
   13d94:	f8010113          	addi	sp,sp,-128
   13d98:	06812c23          	sw	s0,120(sp)
   13d9c:	06112e23          	sw	ra,124(sp)
   13da0:	06912a23          	sw	s1,116(sp)
   13da4:	07212823          	sw	s2,112(sp)
   13da8:	07312623          	sw	s3,108(sp)
   13dac:	07412423          	sw	s4,104(sp)
   13db0:	0027f713          	andi	a4,a5,2
   13db4:	00058413          	mv	s0,a1
   13db8:	02070c63          	beqz	a4,13df0 <__smakebuf_r+0x60>
   13dbc:	04358793          	addi	a5,a1,67
   13dc0:	00f5a023          	sw	a5,0(a1)
   13dc4:	00f5a823          	sw	a5,16(a1)
   13dc8:	00100793          	li	a5,1
   13dcc:	00f5aa23          	sw	a5,20(a1)
   13dd0:	07c12083          	lw	ra,124(sp)
   13dd4:	07812403          	lw	s0,120(sp)
   13dd8:	07412483          	lw	s1,116(sp)
   13ddc:	07012903          	lw	s2,112(sp)
   13de0:	06c12983          	lw	s3,108(sp)
   13de4:	06812a03          	lw	s4,104(sp)
   13de8:	08010113          	addi	sp,sp,128
   13dec:	00008067          	ret
   13df0:	00e59583          	lh	a1,14(a1)
   13df4:	00050493          	mv	s1,a0
   13df8:	0805cc63          	bltz	a1,13e90 <__smakebuf_r+0x100>
   13dfc:	00810613          	addi	a2,sp,8
   13e00:	0d5010ef          	jal	ra,156d4 <_fstat_r>
   13e04:	08054463          	bltz	a0,13e8c <__smakebuf_r+0xfc>
   13e08:	00c12783          	lw	a5,12(sp)
   13e0c:	0000f937          	lui	s2,0xf
   13e10:	000019b7          	lui	s3,0x1
   13e14:	00f97933          	and	s2,s2,a5
   13e18:	ffffe7b7          	lui	a5,0xffffe
   13e1c:	00f90933          	add	s2,s2,a5
   13e20:	00193913          	seqz	s2,s2
   13e24:	40000a13          	li	s4,1024
   13e28:	80098993          	addi	s3,s3,-2048 # 800 <exit-0xf894>
   13e2c:	000a0593          	mv	a1,s4
   13e30:	00048513          	mv	a0,s1
   13e34:	0ec000ef          	jal	ra,13f20 <_malloc_r>
   13e38:	00c41783          	lh	a5,12(s0)
   13e3c:	06050e63          	beqz	a0,13eb8 <__smakebuf_r+0x128>
   13e40:	00013737          	lui	a4,0x13
   13e44:	06870713          	addi	a4,a4,104 # 13068 <_cleanup_r>
   13e48:	02e4ae23          	sw	a4,60(s1)
   13e4c:	0807e793          	ori	a5,a5,128
   13e50:	00f41623          	sh	a5,12(s0)
   13e54:	00a42023          	sw	a0,0(s0)
   13e58:	00a42823          	sw	a0,16(s0)
   13e5c:	01442a23          	sw	s4,20(s0)
   13e60:	08091863          	bnez	s2,13ef0 <__smakebuf_r+0x160>
   13e64:	0137e7b3          	or	a5,a5,s3
   13e68:	07c12083          	lw	ra,124(sp)
   13e6c:	00f41623          	sh	a5,12(s0)
   13e70:	07812403          	lw	s0,120(sp)
   13e74:	07412483          	lw	s1,116(sp)
   13e78:	07012903          	lw	s2,112(sp)
   13e7c:	06c12983          	lw	s3,108(sp)
   13e80:	06812a03          	lw	s4,104(sp)
   13e84:	08010113          	addi	sp,sp,128
   13e88:	00008067          	ret
   13e8c:	00c45783          	lhu	a5,12(s0)
   13e90:	0807f793          	andi	a5,a5,128
   13e94:	00000913          	li	s2,0
   13e98:	04078663          	beqz	a5,13ee4 <__smakebuf_r+0x154>
   13e9c:	04000a13          	li	s4,64
   13ea0:	000a0593          	mv	a1,s4
   13ea4:	00048513          	mv	a0,s1
   13ea8:	078000ef          	jal	ra,13f20 <_malloc_r>
   13eac:	00c41783          	lh	a5,12(s0)
   13eb0:	00000993          	li	s3,0
   13eb4:	f80516e3          	bnez	a0,13e40 <__smakebuf_r+0xb0>
   13eb8:	2007f713          	andi	a4,a5,512
   13ebc:	f0071ae3          	bnez	a4,13dd0 <__smakebuf_r+0x40>
   13ec0:	ffc7f793          	andi	a5,a5,-4
   13ec4:	0027e793          	ori	a5,a5,2
   13ec8:	04340713          	addi	a4,s0,67
   13ecc:	00f41623          	sh	a5,12(s0)
   13ed0:	00100793          	li	a5,1
   13ed4:	00e42023          	sw	a4,0(s0)
   13ed8:	00e42823          	sw	a4,16(s0)
   13edc:	00f42a23          	sw	a5,20(s0)
   13ee0:	ef1ff06f          	j	13dd0 <__smakebuf_r+0x40>
   13ee4:	40000a13          	li	s4,1024
   13ee8:	00000993          	li	s3,0
   13eec:	f41ff06f          	j	13e2c <__smakebuf_r+0x9c>
   13ef0:	00e41583          	lh	a1,14(s0)
   13ef4:	00048513          	mv	a0,s1
   13ef8:	041010ef          	jal	ra,15738 <_isatty_r>
   13efc:	00051663          	bnez	a0,13f08 <__smakebuf_r+0x178>
   13f00:	00c41783          	lh	a5,12(s0)
   13f04:	f61ff06f          	j	13e64 <__smakebuf_r+0xd4>
   13f08:	00c45783          	lhu	a5,12(s0)
   13f0c:	ffc7f793          	andi	a5,a5,-4
   13f10:	0017e793          	ori	a5,a5,1
   13f14:	01079793          	slli	a5,a5,0x10
   13f18:	4107d793          	srai	a5,a5,0x10
   13f1c:	f49ff06f          	j	13e64 <__smakebuf_r+0xd4>

00013f20 <_malloc_r>:
   13f20:	fd010113          	addi	sp,sp,-48
   13f24:	01312e23          	sw	s3,28(sp)
   13f28:	02112623          	sw	ra,44(sp)
   13f2c:	02812423          	sw	s0,40(sp)
   13f30:	02912223          	sw	s1,36(sp)
   13f34:	03212023          	sw	s2,32(sp)
   13f38:	01412c23          	sw	s4,24(sp)
   13f3c:	01512a23          	sw	s5,20(sp)
   13f40:	01612823          	sw	s6,16(sp)
   13f44:	01712623          	sw	s7,12(sp)
   13f48:	01812423          	sw	s8,8(sp)
   13f4c:	01912223          	sw	s9,4(sp)
   13f50:	01a12023          	sw	s10,0(sp)
   13f54:	00b58793          	addi	a5,a1,11
   13f58:	01600713          	li	a4,22
   13f5c:	00050993          	mv	s3,a0
   13f60:	06f76663          	bltu	a4,a5,13fcc <_malloc_r+0xac>
   13f64:	01000793          	li	a5,16
   13f68:	1eb7e663          	bltu	a5,a1,14154 <_malloc_r+0x234>
   13f6c:	1c5000ef          	jal	ra,14930 <__malloc_lock>
   13f70:	01000493          	li	s1,16
   13f74:	01800793          	li	a5,24
   13f78:	00200613          	li	a2,2
   13f7c:	00017937          	lui	s2,0x17
   13f80:	73c90913          	addi	s2,s2,1852 # 1773c <__malloc_av_>
   13f84:	00f907b3          	add	a5,s2,a5
   13f88:	0047a403          	lw	s0,4(a5) # ffffe004 <__BSS_END__+0xfffe4248>
   13f8c:	ff878713          	addi	a4,a5,-8
   13f90:	20e40c63          	beq	s0,a4,141a8 <_malloc_r+0x288>
   13f94:	00442783          	lw	a5,4(s0)
   13f98:	00c42683          	lw	a3,12(s0)
   13f9c:	00842603          	lw	a2,8(s0)
   13fa0:	ffc7f793          	andi	a5,a5,-4
   13fa4:	00f407b3          	add	a5,s0,a5
   13fa8:	0047a703          	lw	a4,4(a5)
   13fac:	00d62623          	sw	a3,12(a2)
   13fb0:	00c6a423          	sw	a2,8(a3)
   13fb4:	00176713          	ori	a4,a4,1
   13fb8:	00098513          	mv	a0,s3
   13fbc:	00e7a223          	sw	a4,4(a5)
   13fc0:	175000ef          	jal	ra,14934 <__malloc_unlock>
   13fc4:	00840513          	addi	a0,s0,8
   13fc8:	1980006f          	j	14160 <_malloc_r+0x240>
   13fcc:	ff87f493          	andi	s1,a5,-8
   13fd0:	1807c263          	bltz	a5,14154 <_malloc_r+0x234>
   13fd4:	18b4e063          	bltu	s1,a1,14154 <_malloc_r+0x234>
   13fd8:	159000ef          	jal	ra,14930 <__malloc_lock>
   13fdc:	1f700793          	li	a5,503
   13fe0:	4697f863          	bgeu	a5,s1,14450 <_malloc_r+0x530>
   13fe4:	0094d793          	srli	a5,s1,0x9
   13fe8:	1a078863          	beqz	a5,14198 <_malloc_r+0x278>
   13fec:	00400713          	li	a4,4
   13ff0:	3cf76e63          	bltu	a4,a5,143cc <_malloc_r+0x4ac>
   13ff4:	0064d793          	srli	a5,s1,0x6
   13ff8:	03978613          	addi	a2,a5,57
   13ffc:	03878513          	addi	a0,a5,56
   14000:	00361693          	slli	a3,a2,0x3
   14004:	00017937          	lui	s2,0x17
   14008:	73c90913          	addi	s2,s2,1852 # 1773c <__malloc_av_>
   1400c:	00d906b3          	add	a3,s2,a3
   14010:	0046a403          	lw	s0,4(a3)
   14014:	ff868693          	addi	a3,a3,-8
   14018:	02868663          	beq	a3,s0,14044 <_malloc_r+0x124>
   1401c:	00f00593          	li	a1,15
   14020:	0100006f          	j	14030 <_malloc_r+0x110>
   14024:	32075e63          	bgez	a4,14360 <_malloc_r+0x440>
   14028:	00c42403          	lw	s0,12(s0)
   1402c:	00868c63          	beq	a3,s0,14044 <_malloc_r+0x124>
   14030:	00442783          	lw	a5,4(s0)
   14034:	ffc7f793          	andi	a5,a5,-4
   14038:	40978733          	sub	a4,a5,s1
   1403c:	fee5d4e3          	bge	a1,a4,14024 <_malloc_r+0x104>
   14040:	00050613          	mv	a2,a0
   14044:	01092403          	lw	s0,16(s2)
   14048:	00890893          	addi	a7,s2,8
   1404c:	17140a63          	beq	s0,a7,141c0 <_malloc_r+0x2a0>
   14050:	00442583          	lw	a1,4(s0)
   14054:	00f00713          	li	a4,15
   14058:	ffc5f593          	andi	a1,a1,-4
   1405c:	409587b3          	sub	a5,a1,s1
   14060:	40f74e63          	blt	a4,a5,1447c <_malloc_r+0x55c>
   14064:	01192a23          	sw	a7,20(s2)
   14068:	01192823          	sw	a7,16(s2)
   1406c:	3e07d863          	bgez	a5,1445c <_malloc_r+0x53c>
   14070:	1ff00793          	li	a5,511
   14074:	2eb7ec63          	bltu	a5,a1,1436c <_malloc_r+0x44c>
   14078:	ff85f793          	andi	a5,a1,-8
   1407c:	00878793          	addi	a5,a5,8
   14080:	00492503          	lw	a0,4(s2)
   14084:	00f907b3          	add	a5,s2,a5
   14088:	0007a683          	lw	a3,0(a5)
   1408c:	0055d593          	srli	a1,a1,0x5
   14090:	00100713          	li	a4,1
   14094:	00b71733          	sll	a4,a4,a1
   14098:	00a76733          	or	a4,a4,a0
   1409c:	ff878593          	addi	a1,a5,-8
   140a0:	00b42623          	sw	a1,12(s0)
   140a4:	00d42423          	sw	a3,8(s0)
   140a8:	00e92223          	sw	a4,4(s2)
   140ac:	0087a023          	sw	s0,0(a5)
   140b0:	0086a623          	sw	s0,12(a3)
   140b4:	40265793          	srai	a5,a2,0x2
   140b8:	00100593          	li	a1,1
   140bc:	00f595b3          	sll	a1,a1,a5
   140c0:	10b76a63          	bltu	a4,a1,141d4 <_malloc_r+0x2b4>
   140c4:	00e5f7b3          	and	a5,a1,a4
   140c8:	02079463          	bnez	a5,140f0 <_malloc_r+0x1d0>
   140cc:	00159593          	slli	a1,a1,0x1
   140d0:	ffc67613          	andi	a2,a2,-4
   140d4:	00e5f7b3          	and	a5,a1,a4
   140d8:	00460613          	addi	a2,a2,4
   140dc:	00079a63          	bnez	a5,140f0 <_malloc_r+0x1d0>
   140e0:	00159593          	slli	a1,a1,0x1
   140e4:	00e5f7b3          	and	a5,a1,a4
   140e8:	00460613          	addi	a2,a2,4
   140ec:	fe078ae3          	beqz	a5,140e0 <_malloc_r+0x1c0>
   140f0:	00f00813          	li	a6,15
   140f4:	00361313          	slli	t1,a2,0x3
   140f8:	00690333          	add	t1,s2,t1
   140fc:	00030513          	mv	a0,t1
   14100:	00c52783          	lw	a5,12(a0)
   14104:	00060e13          	mv	t3,a2
   14108:	2ef50463          	beq	a0,a5,143f0 <_malloc_r+0x4d0>
   1410c:	0047a703          	lw	a4,4(a5)
   14110:	00078413          	mv	s0,a5
   14114:	00c7a783          	lw	a5,12(a5)
   14118:	ffc77713          	andi	a4,a4,-4
   1411c:	409706b3          	sub	a3,a4,s1
   14120:	2ed84463          	blt	a6,a3,14408 <_malloc_r+0x4e8>
   14124:	fe06c2e3          	bltz	a3,14108 <_malloc_r+0x1e8>
   14128:	00e40733          	add	a4,s0,a4
   1412c:	00472683          	lw	a3,4(a4)
   14130:	00842603          	lw	a2,8(s0)
   14134:	00098513          	mv	a0,s3
   14138:	0016e693          	ori	a3,a3,1
   1413c:	00d72223          	sw	a3,4(a4)
   14140:	00f62623          	sw	a5,12(a2)
   14144:	00c7a423          	sw	a2,8(a5)
   14148:	7ec000ef          	jal	ra,14934 <__malloc_unlock>
   1414c:	00840513          	addi	a0,s0,8
   14150:	0100006f          	j	14160 <_malloc_r+0x240>
   14154:	00c00793          	li	a5,12
   14158:	00f9a023          	sw	a5,0(s3)
   1415c:	00000513          	li	a0,0
   14160:	02c12083          	lw	ra,44(sp)
   14164:	02812403          	lw	s0,40(sp)
   14168:	02412483          	lw	s1,36(sp)
   1416c:	02012903          	lw	s2,32(sp)
   14170:	01c12983          	lw	s3,28(sp)
   14174:	01812a03          	lw	s4,24(sp)
   14178:	01412a83          	lw	s5,20(sp)
   1417c:	01012b03          	lw	s6,16(sp)
   14180:	00c12b83          	lw	s7,12(sp)
   14184:	00812c03          	lw	s8,8(sp)
   14188:	00412c83          	lw	s9,4(sp)
   1418c:	00012d03          	lw	s10,0(sp)
   14190:	03010113          	addi	sp,sp,48
   14194:	00008067          	ret
   14198:	20000693          	li	a3,512
   1419c:	04000613          	li	a2,64
   141a0:	03f00513          	li	a0,63
   141a4:	e61ff06f          	j	14004 <_malloc_r+0xe4>
   141a8:	00c7a403          	lw	s0,12(a5)
   141ac:	00260613          	addi	a2,a2,2
   141b0:	de8792e3          	bne	a5,s0,13f94 <_malloc_r+0x74>
   141b4:	01092403          	lw	s0,16(s2)
   141b8:	00890893          	addi	a7,s2,8
   141bc:	e9141ae3          	bne	s0,a7,14050 <_malloc_r+0x130>
   141c0:	00492703          	lw	a4,4(s2)
   141c4:	40265793          	srai	a5,a2,0x2
   141c8:	00100593          	li	a1,1
   141cc:	00f595b3          	sll	a1,a1,a5
   141d0:	eeb77ae3          	bgeu	a4,a1,140c4 <_malloc_r+0x1a4>
   141d4:	00892403          	lw	s0,8(s2)
   141d8:	00442b03          	lw	s6,4(s0)
   141dc:	ffcb7b13          	andi	s6,s6,-4
   141e0:	009b6863          	bltu	s6,s1,141f0 <_malloc_r+0x2d0>
   141e4:	409b07b3          	sub	a5,s6,s1
   141e8:	00f00713          	li	a4,15
   141ec:	14f74663          	blt	a4,a5,14338 <_malloc_r+0x418>
   141f0:	00018c37          	lui	s8,0x18
   141f4:	b4cc0c13          	addi	s8,s8,-1204 # 17b4c <__malloc_sbrk_base>
   141f8:	8181aa83          	lw	s5,-2024(gp) # 17b5c <__malloc_top_pad>
   141fc:	000c2703          	lw	a4,0(s8)
   14200:	fff00793          	li	a5,-1
   14204:	01640cb3          	add	s9,s0,s6
   14208:	01548ab3          	add	s5,s1,s5
   1420c:	34f70a63          	beq	a4,a5,14560 <_malloc_r+0x640>
   14210:	000017b7          	lui	a5,0x1
   14214:	00f78793          	addi	a5,a5,15 # 100f <exit-0xf085>
   14218:	00fa8ab3          	add	s5,s5,a5
   1421c:	fffff7b7          	lui	a5,0xfffff
   14220:	00fafab3          	and	s5,s5,a5
   14224:	000a8593          	mv	a1,s5
   14228:	00098513          	mv	a0,s3
   1422c:	469000ef          	jal	ra,14e94 <_sbrk_r>
   14230:	fff00793          	li	a5,-1
   14234:	00050b93          	mv	s7,a0
   14238:	28f50c63          	beq	a0,a5,144d0 <_malloc_r+0x5b0>
   1423c:	29956863          	bltu	a0,s9,144cc <_malloc_r+0x5ac>
   14240:	0001ad37          	lui	s10,0x1a
   14244:	d94d0d13          	addi	s10,s10,-620 # 19d94 <__malloc_current_mallinfo>
   14248:	000d2a03          	lw	s4,0(s10)
   1424c:	014a8a33          	add	s4,s5,s4
   14250:	014d2023          	sw	s4,0(s10)
   14254:	000a0793          	mv	a5,s4
   14258:	3aac8463          	beq	s9,a0,14600 <_malloc_r+0x6e0>
   1425c:	000c2683          	lw	a3,0(s8)
   14260:	fff00713          	li	a4,-1
   14264:	3ae68c63          	beq	a3,a4,1461c <_malloc_r+0x6fc>
   14268:	419b8cb3          	sub	s9,s7,s9
   1426c:	00fc87b3          	add	a5,s9,a5
   14270:	00fd2023          	sw	a5,0(s10)
   14274:	007bfc13          	andi	s8,s7,7
   14278:	300c0663          	beqz	s8,14584 <_malloc_r+0x664>
   1427c:	000017b7          	lui	a5,0x1
   14280:	418b8bb3          	sub	s7,s7,s8
   14284:	00878a13          	addi	s4,a5,8 # 1008 <exit-0xf08c>
   14288:	008b8b93          	addi	s7,s7,8
   1428c:	418a0a33          	sub	s4,s4,s8
   14290:	015b8ab3          	add	s5,s7,s5
   14294:	fff78793          	addi	a5,a5,-1
   14298:	415a0a33          	sub	s4,s4,s5
   1429c:	00fa7a33          	and	s4,s4,a5
   142a0:	000a0593          	mv	a1,s4
   142a4:	00098513          	mv	a0,s3
   142a8:	3ed000ef          	jal	ra,14e94 <_sbrk_r>
   142ac:	fff00793          	li	a5,-1
   142b0:	3cf50063          	beq	a0,a5,14670 <_malloc_r+0x750>
   142b4:	41750533          	sub	a0,a0,s7
   142b8:	01450ab3          	add	s5,a0,s4
   142bc:	000d2783          	lw	a5,0(s10)
   142c0:	01792423          	sw	s7,8(s2)
   142c4:	001aea93          	ori	s5,s5,1
   142c8:	00fa0a33          	add	s4,s4,a5
   142cc:	014d2023          	sw	s4,0(s10)
   142d0:	015ba223          	sw	s5,4(s7)
   142d4:	35240863          	beq	s0,s2,14624 <_malloc_r+0x704>
   142d8:	00f00693          	li	a3,15
   142dc:	3566f863          	bgeu	a3,s6,1462c <_malloc_r+0x70c>
   142e0:	00442703          	lw	a4,4(s0)
   142e4:	ff4b0793          	addi	a5,s6,-12
   142e8:	ff87f793          	andi	a5,a5,-8
   142ec:	00177713          	andi	a4,a4,1
   142f0:	00f76733          	or	a4,a4,a5
   142f4:	00e42223          	sw	a4,4(s0)
   142f8:	00500613          	li	a2,5
   142fc:	00f40733          	add	a4,s0,a5
   14300:	00c72223          	sw	a2,4(a4)
   14304:	00c72423          	sw	a2,8(a4)
   14308:	36f6ee63          	bltu	a3,a5,14684 <_malloc_r+0x764>
   1430c:	004baa83          	lw	s5,4(s7)
   14310:	000b8413          	mv	s0,s7
   14314:	81018793          	addi	a5,gp,-2032 # 17b54 <__malloc_max_sbrked_mem>
   14318:	0007a703          	lw	a4,0(a5)
   1431c:	01477463          	bgeu	a4,s4,14324 <_malloc_r+0x404>
   14320:	0147a023          	sw	s4,0(a5)
   14324:	81418793          	addi	a5,gp,-2028 # 17b58 <__malloc_max_total_mem>
   14328:	0007a703          	lw	a4,0(a5)
   1432c:	1b477663          	bgeu	a4,s4,144d8 <_malloc_r+0x5b8>
   14330:	0147a023          	sw	s4,0(a5)
   14334:	1a40006f          	j	144d8 <_malloc_r+0x5b8>
   14338:	0014e713          	ori	a4,s1,1
   1433c:	00e42223          	sw	a4,4(s0)
   14340:	009404b3          	add	s1,s0,s1
   14344:	00992423          	sw	s1,8(s2)
   14348:	0017e793          	ori	a5,a5,1
   1434c:	00098513          	mv	a0,s3
   14350:	00f4a223          	sw	a5,4(s1)
   14354:	5e0000ef          	jal	ra,14934 <__malloc_unlock>
   14358:	00840513          	addi	a0,s0,8
   1435c:	e05ff06f          	j	14160 <_malloc_r+0x240>
   14360:	00c42683          	lw	a3,12(s0)
   14364:	00842603          	lw	a2,8(s0)
   14368:	c3dff06f          	j	13fa4 <_malloc_r+0x84>
   1436c:	0095d793          	srli	a5,a1,0x9
   14370:	00400713          	li	a4,4
   14374:	14f77263          	bgeu	a4,a5,144b8 <_malloc_r+0x598>
   14378:	01400713          	li	a4,20
   1437c:	22f76a63          	bltu	a4,a5,145b0 <_malloc_r+0x690>
   14380:	05c78693          	addi	a3,a5,92
   14384:	05b78713          	addi	a4,a5,91
   14388:	00369693          	slli	a3,a3,0x3
   1438c:	00d906b3          	add	a3,s2,a3
   14390:	0006a783          	lw	a5,0(a3)
   14394:	ff868693          	addi	a3,a3,-8
   14398:	1cf68863          	beq	a3,a5,14568 <_malloc_r+0x648>
   1439c:	0047a703          	lw	a4,4(a5)
   143a0:	ffc77713          	andi	a4,a4,-4
   143a4:	00e5f663          	bgeu	a1,a4,143b0 <_malloc_r+0x490>
   143a8:	0087a783          	lw	a5,8(a5)
   143ac:	fef698e3          	bne	a3,a5,1439c <_malloc_r+0x47c>
   143b0:	00c7a683          	lw	a3,12(a5)
   143b4:	00492703          	lw	a4,4(s2)
   143b8:	00d42623          	sw	a3,12(s0)
   143bc:	00f42423          	sw	a5,8(s0)
   143c0:	0086a423          	sw	s0,8(a3)
   143c4:	0087a623          	sw	s0,12(a5)
   143c8:	cedff06f          	j	140b4 <_malloc_r+0x194>
   143cc:	01400713          	li	a4,20
   143d0:	12f77663          	bgeu	a4,a5,144fc <_malloc_r+0x5dc>
   143d4:	05400713          	li	a4,84
   143d8:	1ef76a63          	bltu	a4,a5,145cc <_malloc_r+0x6ac>
   143dc:	00c4d793          	srli	a5,s1,0xc
   143e0:	06f78613          	addi	a2,a5,111
   143e4:	06e78513          	addi	a0,a5,110
   143e8:	00361693          	slli	a3,a2,0x3
   143ec:	c19ff06f          	j	14004 <_malloc_r+0xe4>
   143f0:	001e0e13          	addi	t3,t3,1
   143f4:	003e7793          	andi	a5,t3,3
   143f8:	00850513          	addi	a0,a0,8
   143fc:	10078e63          	beqz	a5,14518 <_malloc_r+0x5f8>
   14400:	00c52783          	lw	a5,12(a0)
   14404:	d05ff06f          	j	14108 <_malloc_r+0x1e8>
   14408:	00842603          	lw	a2,8(s0)
   1440c:	0014e593          	ori	a1,s1,1
   14410:	00b42223          	sw	a1,4(s0)
   14414:	00f62623          	sw	a5,12(a2)
   14418:	00c7a423          	sw	a2,8(a5)
   1441c:	009404b3          	add	s1,s0,s1
   14420:	00992a23          	sw	s1,20(s2)
   14424:	00992823          	sw	s1,16(s2)
   14428:	0016e793          	ori	a5,a3,1
   1442c:	0114a623          	sw	a7,12(s1)
   14430:	0114a423          	sw	a7,8(s1)
   14434:	00f4a223          	sw	a5,4(s1)
   14438:	00e40733          	add	a4,s0,a4
   1443c:	00098513          	mv	a0,s3
   14440:	00d72023          	sw	a3,0(a4)
   14444:	4f0000ef          	jal	ra,14934 <__malloc_unlock>
   14448:	00840513          	addi	a0,s0,8
   1444c:	d15ff06f          	j	14160 <_malloc_r+0x240>
   14450:	0034d613          	srli	a2,s1,0x3
   14454:	00848793          	addi	a5,s1,8
   14458:	b25ff06f          	j	13f7c <_malloc_r+0x5c>
   1445c:	00b405b3          	add	a1,s0,a1
   14460:	0045a783          	lw	a5,4(a1)
   14464:	00098513          	mv	a0,s3
   14468:	0017e793          	ori	a5,a5,1
   1446c:	00f5a223          	sw	a5,4(a1)
   14470:	4c4000ef          	jal	ra,14934 <__malloc_unlock>
   14474:	00840513          	addi	a0,s0,8
   14478:	ce9ff06f          	j	14160 <_malloc_r+0x240>
   1447c:	0014e713          	ori	a4,s1,1
   14480:	00e42223          	sw	a4,4(s0)
   14484:	009404b3          	add	s1,s0,s1
   14488:	00992a23          	sw	s1,20(s2)
   1448c:	00992823          	sw	s1,16(s2)
   14490:	0017e713          	ori	a4,a5,1
   14494:	0114a623          	sw	a7,12(s1)
   14498:	0114a423          	sw	a7,8(s1)
   1449c:	00e4a223          	sw	a4,4(s1)
   144a0:	00b405b3          	add	a1,s0,a1
   144a4:	00098513          	mv	a0,s3
   144a8:	00f5a023          	sw	a5,0(a1)
   144ac:	488000ef          	jal	ra,14934 <__malloc_unlock>
   144b0:	00840513          	addi	a0,s0,8
   144b4:	cadff06f          	j	14160 <_malloc_r+0x240>
   144b8:	0065d793          	srli	a5,a1,0x6
   144bc:	03978693          	addi	a3,a5,57
   144c0:	03878713          	addi	a4,a5,56
   144c4:	00369693          	slli	a3,a3,0x3
   144c8:	ec5ff06f          	j	1438c <_malloc_r+0x46c>
   144cc:	11240e63          	beq	s0,s2,145e8 <_malloc_r+0x6c8>
   144d0:	00892403          	lw	s0,8(s2)
   144d4:	00442a83          	lw	s5,4(s0)
   144d8:	ffcafa93          	andi	s5,s5,-4
   144dc:	409a87b3          	sub	a5,s5,s1
   144e0:	009ae663          	bltu	s5,s1,144ec <_malloc_r+0x5cc>
   144e4:	00f00713          	li	a4,15
   144e8:	e4f748e3          	blt	a4,a5,14338 <_malloc_r+0x418>
   144ec:	00098513          	mv	a0,s3
   144f0:	444000ef          	jal	ra,14934 <__malloc_unlock>
   144f4:	00000513          	li	a0,0
   144f8:	c69ff06f          	j	14160 <_malloc_r+0x240>
   144fc:	05c78613          	addi	a2,a5,92
   14500:	05b78513          	addi	a0,a5,91
   14504:	00361693          	slli	a3,a2,0x3
   14508:	afdff06f          	j	14004 <_malloc_r+0xe4>
   1450c:	00832783          	lw	a5,8(t1)
   14510:	fff60613          	addi	a2,a2,-1
   14514:	1c679263          	bne	a5,t1,146d8 <_malloc_r+0x7b8>
   14518:	00367793          	andi	a5,a2,3
   1451c:	ff830313          	addi	t1,t1,-8
   14520:	fe0796e3          	bnez	a5,1450c <_malloc_r+0x5ec>
   14524:	00492703          	lw	a4,4(s2)
   14528:	fff5c793          	not	a5,a1
   1452c:	00e7f7b3          	and	a5,a5,a4
   14530:	00f92223          	sw	a5,4(s2)
   14534:	00159593          	slli	a1,a1,0x1
   14538:	c8b7eee3          	bltu	a5,a1,141d4 <_malloc_r+0x2b4>
   1453c:	c8058ce3          	beqz	a1,141d4 <_malloc_r+0x2b4>
   14540:	00f5f733          	and	a4,a1,a5
   14544:	00071a63          	bnez	a4,14558 <_malloc_r+0x638>
   14548:	00159593          	slli	a1,a1,0x1
   1454c:	00f5f733          	and	a4,a1,a5
   14550:	004e0e13          	addi	t3,t3,4
   14554:	fe070ae3          	beqz	a4,14548 <_malloc_r+0x628>
   14558:	000e0613          	mv	a2,t3
   1455c:	b99ff06f          	j	140f4 <_malloc_r+0x1d4>
   14560:	010a8a93          	addi	s5,s5,16 # 80000010 <__BSS_END__+0x7ffe6254>
   14564:	cc1ff06f          	j	14224 <_malloc_r+0x304>
   14568:	00492503          	lw	a0,4(s2)
   1456c:	40275593          	srai	a1,a4,0x2
   14570:	00100713          	li	a4,1
   14574:	00b71733          	sll	a4,a4,a1
   14578:	00a76733          	or	a4,a4,a0
   1457c:	00e92223          	sw	a4,4(s2)
   14580:	e39ff06f          	j	143b8 <_malloc_r+0x498>
   14584:	015b8a33          	add	s4,s7,s5
   14588:	41400a33          	neg	s4,s4
   1458c:	014a1a13          	slli	s4,s4,0x14
   14590:	014a5a13          	srli	s4,s4,0x14
   14594:	000a0593          	mv	a1,s4
   14598:	00098513          	mv	a0,s3
   1459c:	0f9000ef          	jal	ra,14e94 <_sbrk_r>
   145a0:	fff00793          	li	a5,-1
   145a4:	d0f518e3          	bne	a0,a5,142b4 <_malloc_r+0x394>
   145a8:	00000a13          	li	s4,0
   145ac:	d11ff06f          	j	142bc <_malloc_r+0x39c>
   145b0:	05400713          	li	a4,84
   145b4:	08f76263          	bltu	a4,a5,14638 <_malloc_r+0x718>
   145b8:	00c5d793          	srli	a5,a1,0xc
   145bc:	06f78693          	addi	a3,a5,111
   145c0:	06e78713          	addi	a4,a5,110
   145c4:	00369693          	slli	a3,a3,0x3
   145c8:	dc5ff06f          	j	1438c <_malloc_r+0x46c>
   145cc:	15400713          	li	a4,340
   145d0:	08f76263          	bltu	a4,a5,14654 <_malloc_r+0x734>
   145d4:	00f4d793          	srli	a5,s1,0xf
   145d8:	07878613          	addi	a2,a5,120
   145dc:	07778513          	addi	a0,a5,119
   145e0:	00361693          	slli	a3,a2,0x3
   145e4:	a21ff06f          	j	14004 <_malloc_r+0xe4>
   145e8:	0001ad37          	lui	s10,0x1a
   145ec:	d94d0d13          	addi	s10,s10,-620 # 19d94 <__malloc_current_mallinfo>
   145f0:	000d2783          	lw	a5,0(s10)
   145f4:	00fa87b3          	add	a5,s5,a5
   145f8:	00fd2023          	sw	a5,0(s10)
   145fc:	c61ff06f          	j	1425c <_malloc_r+0x33c>
   14600:	014c9713          	slli	a4,s9,0x14
   14604:	c4071ce3          	bnez	a4,1425c <_malloc_r+0x33c>
   14608:	00892403          	lw	s0,8(s2)
   1460c:	015b0ab3          	add	s5,s6,s5
   14610:	001aea93          	ori	s5,s5,1
   14614:	01542223          	sw	s5,4(s0)
   14618:	cfdff06f          	j	14314 <_malloc_r+0x3f4>
   1461c:	017c2023          	sw	s7,0(s8)
   14620:	c55ff06f          	j	14274 <_malloc_r+0x354>
   14624:	000b8413          	mv	s0,s7
   14628:	cedff06f          	j	14314 <_malloc_r+0x3f4>
   1462c:	00100793          	li	a5,1
   14630:	00fba223          	sw	a5,4(s7)
   14634:	eb9ff06f          	j	144ec <_malloc_r+0x5cc>
   14638:	15400713          	li	a4,340
   1463c:	06f76263          	bltu	a4,a5,146a0 <_malloc_r+0x780>
   14640:	00f5d793          	srli	a5,a1,0xf
   14644:	07878693          	addi	a3,a5,120
   14648:	07778713          	addi	a4,a5,119
   1464c:	00369693          	slli	a3,a3,0x3
   14650:	d3dff06f          	j	1438c <_malloc_r+0x46c>
   14654:	55400713          	li	a4,1364
   14658:	06f76263          	bltu	a4,a5,146bc <_malloc_r+0x79c>
   1465c:	0124d793          	srli	a5,s1,0x12
   14660:	07d78613          	addi	a2,a5,125
   14664:	07c78513          	addi	a0,a5,124
   14668:	00361693          	slli	a3,a2,0x3
   1466c:	999ff06f          	j	14004 <_malloc_r+0xe4>
   14670:	ff8c0c13          	addi	s8,s8,-8
   14674:	018a8ab3          	add	s5,s5,s8
   14678:	417a8ab3          	sub	s5,s5,s7
   1467c:	00000a13          	li	s4,0
   14680:	c3dff06f          	j	142bc <_malloc_r+0x39c>
   14684:	00840593          	addi	a1,s0,8
   14688:	00098513          	mv	a0,s3
   1468c:	e79fe0ef          	jal	ra,13504 <_free_r>
   14690:	00892403          	lw	s0,8(s2)
   14694:	000d2a03          	lw	s4,0(s10)
   14698:	00442a83          	lw	s5,4(s0)
   1469c:	c79ff06f          	j	14314 <_malloc_r+0x3f4>
   146a0:	55400713          	li	a4,1364
   146a4:	02f76463          	bltu	a4,a5,146cc <_malloc_r+0x7ac>
   146a8:	0125d793          	srli	a5,a1,0x12
   146ac:	07d78693          	addi	a3,a5,125
   146b0:	07c78713          	addi	a4,a5,124
   146b4:	00369693          	slli	a3,a3,0x3
   146b8:	cd5ff06f          	j	1438c <_malloc_r+0x46c>
   146bc:	3f800693          	li	a3,1016
   146c0:	07f00613          	li	a2,127
   146c4:	07e00513          	li	a0,126
   146c8:	93dff06f          	j	14004 <_malloc_r+0xe4>
   146cc:	3f800693          	li	a3,1016
   146d0:	07e00713          	li	a4,126
   146d4:	cb9ff06f          	j	1438c <_malloc_r+0x46c>
   146d8:	00492783          	lw	a5,4(s2)
   146dc:	e59ff06f          	j	14534 <_malloc_r+0x614>

000146e0 <__ascii_mbtowc>:
   146e0:	02058063          	beqz	a1,14700 <__ascii_mbtowc+0x20>
   146e4:	04060263          	beqz	a2,14728 <__ascii_mbtowc+0x48>
   146e8:	04068863          	beqz	a3,14738 <__ascii_mbtowc+0x58>
   146ec:	00064783          	lbu	a5,0(a2)
   146f0:	00f5a023          	sw	a5,0(a1)
   146f4:	00064503          	lbu	a0,0(a2)
   146f8:	00a03533          	snez	a0,a0
   146fc:	00008067          	ret
   14700:	ff010113          	addi	sp,sp,-16
   14704:	00c10593          	addi	a1,sp,12
   14708:	02060463          	beqz	a2,14730 <__ascii_mbtowc+0x50>
   1470c:	02068a63          	beqz	a3,14740 <__ascii_mbtowc+0x60>
   14710:	00064783          	lbu	a5,0(a2)
   14714:	00f5a023          	sw	a5,0(a1)
   14718:	00064503          	lbu	a0,0(a2)
   1471c:	00a03533          	snez	a0,a0
   14720:	01010113          	addi	sp,sp,16
   14724:	00008067          	ret
   14728:	00000513          	li	a0,0
   1472c:	00008067          	ret
   14730:	00000513          	li	a0,0
   14734:	fedff06f          	j	14720 <__ascii_mbtowc+0x40>
   14738:	ffe00513          	li	a0,-2
   1473c:	00008067          	ret
   14740:	ffe00513          	li	a0,-2
   14744:	fddff06f          	j	14720 <__ascii_mbtowc+0x40>

00014748 <memchr>:
   14748:	00357793          	andi	a5,a0,3
   1474c:	0ff5f693          	zext.b	a3,a1
   14750:	02078a63          	beqz	a5,14784 <memchr+0x3c>
   14754:	fff60793          	addi	a5,a2,-1
   14758:	02060e63          	beqz	a2,14794 <memchr+0x4c>
   1475c:	fff00613          	li	a2,-1
   14760:	0180006f          	j	14778 <memchr+0x30>
   14764:	00150513          	addi	a0,a0,1
   14768:	00357713          	andi	a4,a0,3
   1476c:	00070e63          	beqz	a4,14788 <memchr+0x40>
   14770:	fff78793          	addi	a5,a5,-1
   14774:	02c78063          	beq	a5,a2,14794 <memchr+0x4c>
   14778:	00054703          	lbu	a4,0(a0)
   1477c:	fed714e3          	bne	a4,a3,14764 <memchr+0x1c>
   14780:	00008067          	ret
   14784:	00060793          	mv	a5,a2
   14788:	00300713          	li	a4,3
   1478c:	02f76663          	bltu	a4,a5,147b8 <memchr+0x70>
   14790:	00079663          	bnez	a5,1479c <memchr+0x54>
   14794:	00000513          	li	a0,0
   14798:	00008067          	ret
   1479c:	00f507b3          	add	a5,a0,a5
   147a0:	00c0006f          	j	147ac <memchr+0x64>
   147a4:	00150513          	addi	a0,a0,1
   147a8:	fea786e3          	beq	a5,a0,14794 <memchr+0x4c>
   147ac:	00054703          	lbu	a4,0(a0)
   147b0:	fed71ae3          	bne	a4,a3,147a4 <memchr+0x5c>
   147b4:	00008067          	ret
   147b8:	0ff5f593          	zext.b	a1,a1
   147bc:	00859713          	slli	a4,a1,0x8
   147c0:	00b76733          	or	a4,a4,a1
   147c4:	01071893          	slli	a7,a4,0x10
   147c8:	feff0837          	lui	a6,0xfeff0
   147cc:	808085b7          	lui	a1,0x80808
   147d0:	00e8e8b3          	or	a7,a7,a4
   147d4:	eff80813          	addi	a6,a6,-257 # fefefeff <__BSS_END__+0xfefd6143>
   147d8:	08058593          	addi	a1,a1,128 # 80808080 <__BSS_END__+0x807ee2c4>
   147dc:	00300313          	li	t1,3
   147e0:	00052703          	lw	a4,0(a0)
   147e4:	00e8c733          	xor	a4,a7,a4
   147e8:	01070633          	add	a2,a4,a6
   147ec:	fff74713          	not	a4,a4
   147f0:	00e67733          	and	a4,a2,a4
   147f4:	00b77733          	and	a4,a4,a1
   147f8:	fa0712e3          	bnez	a4,1479c <memchr+0x54>
   147fc:	ffc78793          	addi	a5,a5,-4
   14800:	00450513          	addi	a0,a0,4
   14804:	fcf36ee3          	bltu	t1,a5,147e0 <memchr+0x98>
   14808:	f8079ae3          	bnez	a5,1479c <memchr+0x54>
   1480c:	f89ff06f          	j	14794 <memchr+0x4c>

00014810 <memmove>:
   14810:	02a5f663          	bgeu	a1,a0,1483c <memmove+0x2c>
   14814:	00c587b3          	add	a5,a1,a2
   14818:	02f57263          	bgeu	a0,a5,1483c <memmove+0x2c>
   1481c:	00c50733          	add	a4,a0,a2
   14820:	0e060a63          	beqz	a2,14914 <memmove+0x104>
   14824:	fff7c683          	lbu	a3,-1(a5)
   14828:	fff78793          	addi	a5,a5,-1
   1482c:	fff70713          	addi	a4,a4,-1
   14830:	00d70023          	sb	a3,0(a4)
   14834:	fef598e3          	bne	a1,a5,14824 <memmove+0x14>
   14838:	00008067          	ret
   1483c:	00f00793          	li	a5,15
   14840:	02c7e863          	bltu	a5,a2,14870 <memmove+0x60>
   14844:	00050793          	mv	a5,a0
   14848:	fff60693          	addi	a3,a2,-1
   1484c:	0c060c63          	beqz	a2,14924 <memmove+0x114>
   14850:	00168693          	addi	a3,a3,1
   14854:	00d786b3          	add	a3,a5,a3
   14858:	0005c703          	lbu	a4,0(a1)
   1485c:	00178793          	addi	a5,a5,1
   14860:	00158593          	addi	a1,a1,1
   14864:	fee78fa3          	sb	a4,-1(a5)
   14868:	fed798e3          	bne	a5,a3,14858 <memmove+0x48>
   1486c:	00008067          	ret
   14870:	00b567b3          	or	a5,a0,a1
   14874:	0037f793          	andi	a5,a5,3
   14878:	0a079063          	bnez	a5,14918 <memmove+0x108>
   1487c:	ff060893          	addi	a7,a2,-16
   14880:	ff08f893          	andi	a7,a7,-16
   14884:	01088893          	addi	a7,a7,16
   14888:	01150833          	add	a6,a0,a7
   1488c:	00058713          	mv	a4,a1
   14890:	00050793          	mv	a5,a0
   14894:	00072683          	lw	a3,0(a4)
   14898:	01070713          	addi	a4,a4,16
   1489c:	01078793          	addi	a5,a5,16
   148a0:	fed7a823          	sw	a3,-16(a5)
   148a4:	ff472683          	lw	a3,-12(a4)
   148a8:	fed7aa23          	sw	a3,-12(a5)
   148ac:	ff872683          	lw	a3,-8(a4)
   148b0:	fed7ac23          	sw	a3,-8(a5)
   148b4:	ffc72683          	lw	a3,-4(a4)
   148b8:	fed7ae23          	sw	a3,-4(a5)
   148bc:	fcf81ce3          	bne	a6,a5,14894 <memmove+0x84>
   148c0:	00c67713          	andi	a4,a2,12
   148c4:	011585b3          	add	a1,a1,a7
   148c8:	00f67813          	andi	a6,a2,15
   148cc:	04070e63          	beqz	a4,14928 <memmove+0x118>
   148d0:	00058713          	mv	a4,a1
   148d4:	00078893          	mv	a7,a5
   148d8:	00300e13          	li	t3,3
   148dc:	00072303          	lw	t1,0(a4)
   148e0:	00470713          	addi	a4,a4,4
   148e4:	40e806b3          	sub	a3,a6,a4
   148e8:	0068a023          	sw	t1,0(a7)
   148ec:	00d586b3          	add	a3,a1,a3
   148f0:	00488893          	addi	a7,a7,4
   148f4:	fede64e3          	bltu	t3,a3,148dc <memmove+0xcc>
   148f8:	ffc80713          	addi	a4,a6,-4
   148fc:	ffc77713          	andi	a4,a4,-4
   14900:	00470713          	addi	a4,a4,4
   14904:	00367613          	andi	a2,a2,3
   14908:	00e787b3          	add	a5,a5,a4
   1490c:	00e585b3          	add	a1,a1,a4
   14910:	f39ff06f          	j	14848 <memmove+0x38>
   14914:	00008067          	ret
   14918:	fff60693          	addi	a3,a2,-1
   1491c:	00050793          	mv	a5,a0
   14920:	f31ff06f          	j	14850 <memmove+0x40>
   14924:	00008067          	ret
   14928:	00080613          	mv	a2,a6
   1492c:	f1dff06f          	j	14848 <memmove+0x38>

00014930 <__malloc_lock>:
   14930:	00008067          	ret

00014934 <__malloc_unlock>:
   14934:	00008067          	ret

00014938 <_realloc_r>:
   14938:	fd010113          	addi	sp,sp,-48
   1493c:	03212023          	sw	s2,32(sp)
   14940:	02112623          	sw	ra,44(sp)
   14944:	02812423          	sw	s0,40(sp)
   14948:	02912223          	sw	s1,36(sp)
   1494c:	01312e23          	sw	s3,28(sp)
   14950:	01412c23          	sw	s4,24(sp)
   14954:	01512a23          	sw	s5,20(sp)
   14958:	01612823          	sw	s6,16(sp)
   1495c:	01712623          	sw	s7,12(sp)
   14960:	01812423          	sw	s8,8(sp)
   14964:	00060913          	mv	s2,a2
   14968:	1c058663          	beqz	a1,14b34 <_realloc_r+0x1fc>
   1496c:	00058413          	mv	s0,a1
   14970:	00050993          	mv	s3,a0
   14974:	fbdff0ef          	jal	ra,14930 <__malloc_lock>
   14978:	00b90493          	addi	s1,s2,11
   1497c:	01600713          	li	a4,22
   14980:	ffc42783          	lw	a5,-4(s0)
   14984:	0e977c63          	bgeu	a4,s1,14a7c <_realloc_r+0x144>
   14988:	ff84f493          	andi	s1,s1,-8
   1498c:	00048713          	mv	a4,s1
   14990:	0e04cc63          	bltz	s1,14a88 <_realloc_r+0x150>
   14994:	0f24ea63          	bltu	s1,s2,14a88 <_realloc_r+0x150>
   14998:	ffc7fa13          	andi	s4,a5,-4
   1499c:	ff840a93          	addi	s5,s0,-8
   149a0:	12ea5e63          	bge	s4,a4,14adc <_realloc_r+0x1a4>
   149a4:	000176b7          	lui	a3,0x17
   149a8:	73c68c13          	addi	s8,a3,1852 # 1773c <__malloc_av_>
   149ac:	008c2583          	lw	a1,8(s8)
   149b0:	014a8633          	add	a2,s5,s4
   149b4:	00462683          	lw	a3,4(a2)
   149b8:	1ec58063          	beq	a1,a2,14b98 <_realloc_r+0x260>
   149bc:	ffe6f593          	andi	a1,a3,-2
   149c0:	00b605b3          	add	a1,a2,a1
   149c4:	0045a583          	lw	a1,4(a1)
   149c8:	0015f593          	andi	a1,a1,1
   149cc:	14059663          	bnez	a1,14b18 <_realloc_r+0x1e0>
   149d0:	ffc6f693          	andi	a3,a3,-4
   149d4:	00da05b3          	add	a1,s4,a3
   149d8:	0ee5d863          	bge	a1,a4,14ac8 <_realloc_r+0x190>
   149dc:	0017f793          	andi	a5,a5,1
   149e0:	02079463          	bnez	a5,14a08 <_realloc_r+0xd0>
   149e4:	ff842b83          	lw	s7,-8(s0)
   149e8:	417a8bb3          	sub	s7,s5,s7
   149ec:	004ba783          	lw	a5,4(s7)
   149f0:	ffc7f793          	andi	a5,a5,-4
   149f4:	00d786b3          	add	a3,a5,a3
   149f8:	01468b33          	add	s6,a3,s4
   149fc:	36eb5063          	bge	s6,a4,14d5c <_realloc_r+0x424>
   14a00:	00fa0b33          	add	s6,s4,a5
   14a04:	2ceb5263          	bge	s6,a4,14cc8 <_realloc_r+0x390>
   14a08:	00090593          	mv	a1,s2
   14a0c:	00098513          	mv	a0,s3
   14a10:	d10ff0ef          	jal	ra,13f20 <_malloc_r>
   14a14:	00050913          	mv	s2,a0
   14a18:	04050c63          	beqz	a0,14a70 <_realloc_r+0x138>
   14a1c:	ffc42783          	lw	a5,-4(s0)
   14a20:	ff850713          	addi	a4,a0,-8
   14a24:	ffe7f793          	andi	a5,a5,-2
   14a28:	00fa87b3          	add	a5,s5,a5
   14a2c:	28e78663          	beq	a5,a4,14cb8 <_realloc_r+0x380>
   14a30:	ffca0613          	addi	a2,s4,-4
   14a34:	02400793          	li	a5,36
   14a38:	30c7ec63          	bltu	a5,a2,14d50 <_realloc_r+0x418>
   14a3c:	01300713          	li	a4,19
   14a40:	22c76063          	bltu	a4,a2,14c60 <_realloc_r+0x328>
   14a44:	00050793          	mv	a5,a0
   14a48:	00040713          	mv	a4,s0
   14a4c:	00072683          	lw	a3,0(a4)
   14a50:	00d7a023          	sw	a3,0(a5)
   14a54:	00472683          	lw	a3,4(a4)
   14a58:	00d7a223          	sw	a3,4(a5)
   14a5c:	00872703          	lw	a4,8(a4)
   14a60:	00e7a423          	sw	a4,8(a5)
   14a64:	00040593          	mv	a1,s0
   14a68:	00098513          	mv	a0,s3
   14a6c:	a99fe0ef          	jal	ra,13504 <_free_r>
   14a70:	00098513          	mv	a0,s3
   14a74:	ec1ff0ef          	jal	ra,14934 <__malloc_unlock>
   14a78:	01c0006f          	j	14a94 <_realloc_r+0x15c>
   14a7c:	01000493          	li	s1,16
   14a80:	01000713          	li	a4,16
   14a84:	f124fae3          	bgeu	s1,s2,14998 <_realloc_r+0x60>
   14a88:	00c00793          	li	a5,12
   14a8c:	00f9a023          	sw	a5,0(s3)
   14a90:	00000913          	li	s2,0
   14a94:	02c12083          	lw	ra,44(sp)
   14a98:	02812403          	lw	s0,40(sp)
   14a9c:	02412483          	lw	s1,36(sp)
   14aa0:	01c12983          	lw	s3,28(sp)
   14aa4:	01812a03          	lw	s4,24(sp)
   14aa8:	01412a83          	lw	s5,20(sp)
   14aac:	01012b03          	lw	s6,16(sp)
   14ab0:	00c12b83          	lw	s7,12(sp)
   14ab4:	00812c03          	lw	s8,8(sp)
   14ab8:	00090513          	mv	a0,s2
   14abc:	02012903          	lw	s2,32(sp)
   14ac0:	03010113          	addi	sp,sp,48
   14ac4:	00008067          	ret
   14ac8:	00c62783          	lw	a5,12(a2)
   14acc:	00862703          	lw	a4,8(a2)
   14ad0:	00058a13          	mv	s4,a1
   14ad4:	00f72623          	sw	a5,12(a4)
   14ad8:	00e7a423          	sw	a4,8(a5)
   14adc:	004aa783          	lw	a5,4(s5)
   14ae0:	409a06b3          	sub	a3,s4,s1
   14ae4:	00f00613          	li	a2,15
   14ae8:	0017f793          	andi	a5,a5,1
   14aec:	014a8733          	add	a4,s5,s4
   14af0:	06d66c63          	bltu	a2,a3,14b68 <_realloc_r+0x230>
   14af4:	00fa67b3          	or	a5,s4,a5
   14af8:	00faa223          	sw	a5,4(s5)
   14afc:	00472783          	lw	a5,4(a4)
   14b00:	0017e793          	ori	a5,a5,1
   14b04:	00f72223          	sw	a5,4(a4)
   14b08:	00098513          	mv	a0,s3
   14b0c:	e29ff0ef          	jal	ra,14934 <__malloc_unlock>
   14b10:	00040913          	mv	s2,s0
   14b14:	f81ff06f          	j	14a94 <_realloc_r+0x15c>
   14b18:	0017f793          	andi	a5,a5,1
   14b1c:	ee0796e3          	bnez	a5,14a08 <_realloc_r+0xd0>
   14b20:	ff842b83          	lw	s7,-8(s0)
   14b24:	417a8bb3          	sub	s7,s5,s7
   14b28:	004ba783          	lw	a5,4(s7)
   14b2c:	ffc7f793          	andi	a5,a5,-4
   14b30:	ed1ff06f          	j	14a00 <_realloc_r+0xc8>
   14b34:	02812403          	lw	s0,40(sp)
   14b38:	02c12083          	lw	ra,44(sp)
   14b3c:	02412483          	lw	s1,36(sp)
   14b40:	02012903          	lw	s2,32(sp)
   14b44:	01c12983          	lw	s3,28(sp)
   14b48:	01812a03          	lw	s4,24(sp)
   14b4c:	01412a83          	lw	s5,20(sp)
   14b50:	01012b03          	lw	s6,16(sp)
   14b54:	00c12b83          	lw	s7,12(sp)
   14b58:	00812c03          	lw	s8,8(sp)
   14b5c:	00060593          	mv	a1,a2
   14b60:	03010113          	addi	sp,sp,48
   14b64:	bbcff06f          	j	13f20 <_malloc_r>
   14b68:	0097e7b3          	or	a5,a5,s1
   14b6c:	00faa223          	sw	a5,4(s5)
   14b70:	009a85b3          	add	a1,s5,s1
   14b74:	0016e693          	ori	a3,a3,1
   14b78:	00d5a223          	sw	a3,4(a1)
   14b7c:	00472783          	lw	a5,4(a4)
   14b80:	00858593          	addi	a1,a1,8
   14b84:	00098513          	mv	a0,s3
   14b88:	0017e793          	ori	a5,a5,1
   14b8c:	00f72223          	sw	a5,4(a4)
   14b90:	975fe0ef          	jal	ra,13504 <_free_r>
   14b94:	f75ff06f          	j	14b08 <_realloc_r+0x1d0>
   14b98:	ffc6f693          	andi	a3,a3,-4
   14b9c:	00da0633          	add	a2,s4,a3
   14ba0:	01048593          	addi	a1,s1,16
   14ba4:	0eb65063          	bge	a2,a1,14c84 <_realloc_r+0x34c>
   14ba8:	0017f793          	andi	a5,a5,1
   14bac:	e4079ee3          	bnez	a5,14a08 <_realloc_r+0xd0>
   14bb0:	ff842b83          	lw	s7,-8(s0)
   14bb4:	417a8bb3          	sub	s7,s5,s7
   14bb8:	004ba783          	lw	a5,4(s7)
   14bbc:	ffc7f793          	andi	a5,a5,-4
   14bc0:	00d786b3          	add	a3,a5,a3
   14bc4:	01468b33          	add	s6,a3,s4
   14bc8:	e2bb4ce3          	blt	s6,a1,14a00 <_realloc_r+0xc8>
   14bcc:	00cba783          	lw	a5,12(s7)
   14bd0:	008ba703          	lw	a4,8(s7)
   14bd4:	ffca0613          	addi	a2,s4,-4
   14bd8:	02400693          	li	a3,36
   14bdc:	00f72623          	sw	a5,12(a4)
   14be0:	00e7a423          	sw	a4,8(a5)
   14be4:	008b8913          	addi	s2,s7,8
   14be8:	26c6e063          	bltu	a3,a2,14e48 <_realloc_r+0x510>
   14bec:	01300713          	li	a4,19
   14bf0:	00090793          	mv	a5,s2
   14bf4:	02c77263          	bgeu	a4,a2,14c18 <_realloc_r+0x2e0>
   14bf8:	00042703          	lw	a4,0(s0)
   14bfc:	01b00793          	li	a5,27
   14c00:	00eba423          	sw	a4,8(s7)
   14c04:	00442703          	lw	a4,4(s0)
   14c08:	00eba623          	sw	a4,12(s7)
   14c0c:	24c7e663          	bltu	a5,a2,14e58 <_realloc_r+0x520>
   14c10:	00840413          	addi	s0,s0,8
   14c14:	010b8793          	addi	a5,s7,16
   14c18:	00042703          	lw	a4,0(s0)
   14c1c:	00e7a023          	sw	a4,0(a5)
   14c20:	00442703          	lw	a4,4(s0)
   14c24:	00e7a223          	sw	a4,4(a5)
   14c28:	00842703          	lw	a4,8(s0)
   14c2c:	00e7a423          	sw	a4,8(a5)
   14c30:	009b8733          	add	a4,s7,s1
   14c34:	409b07b3          	sub	a5,s6,s1
   14c38:	00ec2423          	sw	a4,8(s8)
   14c3c:	0017e793          	ori	a5,a5,1
   14c40:	00f72223          	sw	a5,4(a4)
   14c44:	004ba783          	lw	a5,4(s7)
   14c48:	00098513          	mv	a0,s3
   14c4c:	0017f793          	andi	a5,a5,1
   14c50:	0097e7b3          	or	a5,a5,s1
   14c54:	00fba223          	sw	a5,4(s7)
   14c58:	cddff0ef          	jal	ra,14934 <__malloc_unlock>
   14c5c:	e39ff06f          	j	14a94 <_realloc_r+0x15c>
   14c60:	00042683          	lw	a3,0(s0)
   14c64:	01b00713          	li	a4,27
   14c68:	00d52023          	sw	a3,0(a0)
   14c6c:	00442683          	lw	a3,4(s0)
   14c70:	00d52223          	sw	a3,4(a0)
   14c74:	18c76663          	bltu	a4,a2,14e00 <_realloc_r+0x4c8>
   14c78:	00840713          	addi	a4,s0,8
   14c7c:	00850793          	addi	a5,a0,8
   14c80:	dcdff06f          	j	14a4c <_realloc_r+0x114>
   14c84:	009a8ab3          	add	s5,s5,s1
   14c88:	409607b3          	sub	a5,a2,s1
   14c8c:	015c2423          	sw	s5,8(s8)
   14c90:	0017e793          	ori	a5,a5,1
   14c94:	00faa223          	sw	a5,4(s5)
   14c98:	ffc42783          	lw	a5,-4(s0)
   14c9c:	00098513          	mv	a0,s3
   14ca0:	00040913          	mv	s2,s0
   14ca4:	0017f793          	andi	a5,a5,1
   14ca8:	0097e7b3          	or	a5,a5,s1
   14cac:	fef42e23          	sw	a5,-4(s0)
   14cb0:	c85ff0ef          	jal	ra,14934 <__malloc_unlock>
   14cb4:	de1ff06f          	j	14a94 <_realloc_r+0x15c>
   14cb8:	ffc52783          	lw	a5,-4(a0)
   14cbc:	ffc7f793          	andi	a5,a5,-4
   14cc0:	00fa0a33          	add	s4,s4,a5
   14cc4:	e19ff06f          	j	14adc <_realloc_r+0x1a4>
   14cc8:	00cba783          	lw	a5,12(s7)
   14ccc:	008ba703          	lw	a4,8(s7)
   14cd0:	ffca0613          	addi	a2,s4,-4
   14cd4:	02400693          	li	a3,36
   14cd8:	00f72623          	sw	a5,12(a4)
   14cdc:	00e7a423          	sw	a4,8(a5)
   14ce0:	008b8913          	addi	s2,s7,8
   14ce4:	10c6e063          	bltu	a3,a2,14de4 <_realloc_r+0x4ac>
   14ce8:	01300713          	li	a4,19
   14cec:	00090793          	mv	a5,s2
   14cf0:	02c77c63          	bgeu	a4,a2,14d28 <_realloc_r+0x3f0>
   14cf4:	00042703          	lw	a4,0(s0)
   14cf8:	01b00793          	li	a5,27
   14cfc:	00eba423          	sw	a4,8(s7)
   14d00:	00442703          	lw	a4,4(s0)
   14d04:	00eba623          	sw	a4,12(s7)
   14d08:	10c7fc63          	bgeu	a5,a2,14e20 <_realloc_r+0x4e8>
   14d0c:	00842783          	lw	a5,8(s0)
   14d10:	00fba823          	sw	a5,16(s7)
   14d14:	00c42783          	lw	a5,12(s0)
   14d18:	00fbaa23          	sw	a5,20(s7)
   14d1c:	0ad60663          	beq	a2,a3,14dc8 <_realloc_r+0x490>
   14d20:	01040413          	addi	s0,s0,16
   14d24:	018b8793          	addi	a5,s7,24
   14d28:	00042703          	lw	a4,0(s0)
   14d2c:	000b0a13          	mv	s4,s6
   14d30:	000b8a93          	mv	s5,s7
   14d34:	00e7a023          	sw	a4,0(a5)
   14d38:	00442703          	lw	a4,4(s0)
   14d3c:	00e7a223          	sw	a4,4(a5)
   14d40:	00842703          	lw	a4,8(s0)
   14d44:	00090413          	mv	s0,s2
   14d48:	00e7a423          	sw	a4,8(a5)
   14d4c:	d91ff06f          	j	14adc <_realloc_r+0x1a4>
   14d50:	00040593          	mv	a1,s0
   14d54:	abdff0ef          	jal	ra,14810 <memmove>
   14d58:	d0dff06f          	j	14a64 <_realloc_r+0x12c>
   14d5c:	00c62783          	lw	a5,12(a2)
   14d60:	00862703          	lw	a4,8(a2)
   14d64:	02400693          	li	a3,36
   14d68:	ffca0613          	addi	a2,s4,-4
   14d6c:	00f72623          	sw	a5,12(a4)
   14d70:	00e7a423          	sw	a4,8(a5)
   14d74:	008ba703          	lw	a4,8(s7)
   14d78:	00cba783          	lw	a5,12(s7)
   14d7c:	008b8913          	addi	s2,s7,8
   14d80:	00f72623          	sw	a5,12(a4)
   14d84:	00e7a423          	sw	a4,8(a5)
   14d88:	04c6ee63          	bltu	a3,a2,14de4 <_realloc_r+0x4ac>
   14d8c:	01300713          	li	a4,19
   14d90:	00090793          	mv	a5,s2
   14d94:	f8c77ae3          	bgeu	a4,a2,14d28 <_realloc_r+0x3f0>
   14d98:	00042703          	lw	a4,0(s0)
   14d9c:	01b00793          	li	a5,27
   14da0:	00eba423          	sw	a4,8(s7)
   14da4:	00442703          	lw	a4,4(s0)
   14da8:	00eba623          	sw	a4,12(s7)
   14dac:	06c7fa63          	bgeu	a5,a2,14e20 <_realloc_r+0x4e8>
   14db0:	00842703          	lw	a4,8(s0)
   14db4:	02400793          	li	a5,36
   14db8:	00eba823          	sw	a4,16(s7)
   14dbc:	00c42703          	lw	a4,12(s0)
   14dc0:	00ebaa23          	sw	a4,20(s7)
   14dc4:	f4f61ee3          	bne	a2,a5,14d20 <_realloc_r+0x3e8>
   14dc8:	01042703          	lw	a4,16(s0)
   14dcc:	020b8793          	addi	a5,s7,32
   14dd0:	01840413          	addi	s0,s0,24
   14dd4:	00ebac23          	sw	a4,24(s7)
   14dd8:	ffc42703          	lw	a4,-4(s0)
   14ddc:	00ebae23          	sw	a4,28(s7)
   14de0:	f49ff06f          	j	14d28 <_realloc_r+0x3f0>
   14de4:	00040593          	mv	a1,s0
   14de8:	00090513          	mv	a0,s2
   14dec:	a25ff0ef          	jal	ra,14810 <memmove>
   14df0:	00090413          	mv	s0,s2
   14df4:	000b0a13          	mv	s4,s6
   14df8:	000b8a93          	mv	s5,s7
   14dfc:	ce1ff06f          	j	14adc <_realloc_r+0x1a4>
   14e00:	00842703          	lw	a4,8(s0)
   14e04:	00e52423          	sw	a4,8(a0)
   14e08:	00c42703          	lw	a4,12(s0)
   14e0c:	00e52623          	sw	a4,12(a0)
   14e10:	00f60e63          	beq	a2,a5,14e2c <_realloc_r+0x4f4>
   14e14:	01040713          	addi	a4,s0,16
   14e18:	01050793          	addi	a5,a0,16
   14e1c:	c31ff06f          	j	14a4c <_realloc_r+0x114>
   14e20:	00840413          	addi	s0,s0,8
   14e24:	010b8793          	addi	a5,s7,16
   14e28:	f01ff06f          	j	14d28 <_realloc_r+0x3f0>
   14e2c:	01042683          	lw	a3,16(s0)
   14e30:	01840713          	addi	a4,s0,24
   14e34:	01850793          	addi	a5,a0,24
   14e38:	00d52823          	sw	a3,16(a0)
   14e3c:	01442683          	lw	a3,20(s0)
   14e40:	00d52a23          	sw	a3,20(a0)
   14e44:	c09ff06f          	j	14a4c <_realloc_r+0x114>
   14e48:	00040593          	mv	a1,s0
   14e4c:	00090513          	mv	a0,s2
   14e50:	9c1ff0ef          	jal	ra,14810 <memmove>
   14e54:	dddff06f          	j	14c30 <_realloc_r+0x2f8>
   14e58:	00842783          	lw	a5,8(s0)
   14e5c:	00fba823          	sw	a5,16(s7)
   14e60:	00c42783          	lw	a5,12(s0)
   14e64:	00fbaa23          	sw	a5,20(s7)
   14e68:	00d60863          	beq	a2,a3,14e78 <_realloc_r+0x540>
   14e6c:	01040413          	addi	s0,s0,16
   14e70:	018b8793          	addi	a5,s7,24
   14e74:	da5ff06f          	j	14c18 <_realloc_r+0x2e0>
   14e78:	01042703          	lw	a4,16(s0)
   14e7c:	020b8793          	addi	a5,s7,32
   14e80:	01840413          	addi	s0,s0,24
   14e84:	00ebac23          	sw	a4,24(s7)
   14e88:	ffc42703          	lw	a4,-4(s0)
   14e8c:	00ebae23          	sw	a4,28(s7)
   14e90:	d89ff06f          	j	14c18 <_realloc_r+0x2e0>

00014e94 <_sbrk_r>:
   14e94:	ff010113          	addi	sp,sp,-16
   14e98:	00812423          	sw	s0,8(sp)
   14e9c:	00912223          	sw	s1,4(sp)
   14ea0:	00050413          	mv	s0,a0
   14ea4:	00058513          	mv	a0,a1
   14ea8:	00112623          	sw	ra,12(sp)
   14eac:	8001ae23          	sw	zero,-2020(gp) # 17b60 <errno>
   14eb0:	419000ef          	jal	ra,15ac8 <_sbrk>
   14eb4:	fff00793          	li	a5,-1
   14eb8:	00f50c63          	beq	a0,a5,14ed0 <_sbrk_r+0x3c>
   14ebc:	00c12083          	lw	ra,12(sp)
   14ec0:	00812403          	lw	s0,8(sp)
   14ec4:	00412483          	lw	s1,4(sp)
   14ec8:	01010113          	addi	sp,sp,16
   14ecc:	00008067          	ret
   14ed0:	81c1a783          	lw	a5,-2020(gp) # 17b60 <errno>
   14ed4:	fe0784e3          	beqz	a5,14ebc <_sbrk_r+0x28>
   14ed8:	00c12083          	lw	ra,12(sp)
   14edc:	00f42023          	sw	a5,0(s0)
   14ee0:	00812403          	lw	s0,8(sp)
   14ee4:	00412483          	lw	s1,4(sp)
   14ee8:	01010113          	addi	sp,sp,16
   14eec:	00008067          	ret

00014ef0 <raise>:
   14ef0:	ff010113          	addi	sp,sp,-16
   14ef4:	00912223          	sw	s1,4(sp)
   14ef8:	00018737          	lui	a4,0x18
   14efc:	00112623          	sw	ra,12(sp)
   14f00:	00812423          	sw	s0,8(sp)
   14f04:	01f00793          	li	a5,31
   14f08:	b4872483          	lw	s1,-1208(a4) # 17b48 <_impure_ptr>
   14f0c:	0aa7e863          	bltu	a5,a0,14fbc <raise+0xcc>
   14f10:	2dc4a783          	lw	a5,732(s1)
   14f14:	00050413          	mv	s0,a0
   14f18:	04078263          	beqz	a5,14f5c <raise+0x6c>
   14f1c:	00251713          	slli	a4,a0,0x2
   14f20:	00e787b3          	add	a5,a5,a4
   14f24:	0007a703          	lw	a4,0(a5)
   14f28:	02070a63          	beqz	a4,14f5c <raise+0x6c>
   14f2c:	00100693          	li	a3,1
   14f30:	06d70a63          	beq	a4,a3,14fa4 <raise+0xb4>
   14f34:	fff00693          	li	a3,-1
   14f38:	04d70663          	beq	a4,a3,14f84 <raise+0x94>
   14f3c:	0007a023          	sw	zero,0(a5)
   14f40:	000700e7          	jalr	a4
   14f44:	00000513          	li	a0,0
   14f48:	00c12083          	lw	ra,12(sp)
   14f4c:	00812403          	lw	s0,8(sp)
   14f50:	00412483          	lw	s1,4(sp)
   14f54:	01010113          	addi	sp,sp,16
   14f58:	00008067          	ret
   14f5c:	00048513          	mv	a0,s1
   14f60:	0d0000ef          	jal	ra,15030 <_getpid_r>
   14f64:	00040613          	mv	a2,s0
   14f68:	00812403          	lw	s0,8(sp)
   14f6c:	00c12083          	lw	ra,12(sp)
   14f70:	00050593          	mv	a1,a0
   14f74:	00048513          	mv	a0,s1
   14f78:	00412483          	lw	s1,4(sp)
   14f7c:	01010113          	addi	sp,sp,16
   14f80:	04c0006f          	j	14fcc <_kill_r>
   14f84:	00c12083          	lw	ra,12(sp)
   14f88:	00812403          	lw	s0,8(sp)
   14f8c:	01600793          	li	a5,22
   14f90:	00f4a023          	sw	a5,0(s1)
   14f94:	00100513          	li	a0,1
   14f98:	00412483          	lw	s1,4(sp)
   14f9c:	01010113          	addi	sp,sp,16
   14fa0:	00008067          	ret
   14fa4:	00c12083          	lw	ra,12(sp)
   14fa8:	00812403          	lw	s0,8(sp)
   14fac:	00412483          	lw	s1,4(sp)
   14fb0:	00000513          	li	a0,0
   14fb4:	01010113          	addi	sp,sp,16
   14fb8:	00008067          	ret
   14fbc:	01600793          	li	a5,22
   14fc0:	00f4a023          	sw	a5,0(s1)
   14fc4:	fff00513          	li	a0,-1
   14fc8:	f81ff06f          	j	14f48 <raise+0x58>

00014fcc <_kill_r>:
   14fcc:	ff010113          	addi	sp,sp,-16
   14fd0:	00058713          	mv	a4,a1
   14fd4:	00812423          	sw	s0,8(sp)
   14fd8:	00912223          	sw	s1,4(sp)
   14fdc:	00050413          	mv	s0,a0
   14fe0:	00060593          	mv	a1,a2
   14fe4:	00070513          	mv	a0,a4
   14fe8:	00112623          	sw	ra,12(sp)
   14fec:	8001ae23          	sw	zero,-2020(gp) # 17b60 <errno>
   14ff0:	22d000ef          	jal	ra,15a1c <_kill>
   14ff4:	fff00793          	li	a5,-1
   14ff8:	00f50c63          	beq	a0,a5,15010 <_kill_r+0x44>
   14ffc:	00c12083          	lw	ra,12(sp)
   15000:	00812403          	lw	s0,8(sp)
   15004:	00412483          	lw	s1,4(sp)
   15008:	01010113          	addi	sp,sp,16
   1500c:	00008067          	ret
   15010:	81c1a783          	lw	a5,-2020(gp) # 17b60 <errno>
   15014:	fe0784e3          	beqz	a5,14ffc <_kill_r+0x30>
   15018:	00c12083          	lw	ra,12(sp)
   1501c:	00f42023          	sw	a5,0(s0)
   15020:	00812403          	lw	s0,8(sp)
   15024:	00412483          	lw	s1,4(sp)
   15028:	01010113          	addi	sp,sp,16
   1502c:	00008067          	ret

00015030 <_getpid_r>:
   15030:	1a50006f          	j	159d4 <_getpid>

00015034 <__sread>:
   15034:	ff010113          	addi	sp,sp,-16
   15038:	00812423          	sw	s0,8(sp)
   1503c:	00058413          	mv	s0,a1
   15040:	00e59583          	lh	a1,14(a1)
   15044:	00112623          	sw	ra,12(sp)
   15048:	7b4000ef          	jal	ra,157fc <_read_r>
   1504c:	02054063          	bltz	a0,1506c <__sread+0x38>
   15050:	05042783          	lw	a5,80(s0)
   15054:	00c12083          	lw	ra,12(sp)
   15058:	00a787b3          	add	a5,a5,a0
   1505c:	04f42823          	sw	a5,80(s0)
   15060:	00812403          	lw	s0,8(sp)
   15064:	01010113          	addi	sp,sp,16
   15068:	00008067          	ret
   1506c:	00c45783          	lhu	a5,12(s0)
   15070:	fffff737          	lui	a4,0xfffff
   15074:	fff70713          	addi	a4,a4,-1 # ffffefff <__BSS_END__+0xfffe5243>
   15078:	00e7f7b3          	and	a5,a5,a4
   1507c:	00c12083          	lw	ra,12(sp)
   15080:	00f41623          	sh	a5,12(s0)
   15084:	00812403          	lw	s0,8(sp)
   15088:	01010113          	addi	sp,sp,16
   1508c:	00008067          	ret

00015090 <__swrite>:
   15090:	00c59783          	lh	a5,12(a1)
   15094:	fe010113          	addi	sp,sp,-32
   15098:	00812c23          	sw	s0,24(sp)
   1509c:	00912a23          	sw	s1,20(sp)
   150a0:	01212823          	sw	s2,16(sp)
   150a4:	01312623          	sw	s3,12(sp)
   150a8:	00112e23          	sw	ra,28(sp)
   150ac:	1007f713          	andi	a4,a5,256
   150b0:	00058413          	mv	s0,a1
   150b4:	00050493          	mv	s1,a0
   150b8:	00060913          	mv	s2,a2
   150bc:	00068993          	mv	s3,a3
   150c0:	04071063          	bnez	a4,15100 <__swrite+0x70>
   150c4:	fffff737          	lui	a4,0xfffff
   150c8:	fff70713          	addi	a4,a4,-1 # ffffefff <__BSS_END__+0xfffe5243>
   150cc:	00e7f7b3          	and	a5,a5,a4
   150d0:	00e41583          	lh	a1,14(s0)
   150d4:	00f41623          	sh	a5,12(s0)
   150d8:	01812403          	lw	s0,24(sp)
   150dc:	01c12083          	lw	ra,28(sp)
   150e0:	00098693          	mv	a3,s3
   150e4:	00090613          	mv	a2,s2
   150e8:	00c12983          	lw	s3,12(sp)
   150ec:	01012903          	lw	s2,16(sp)
   150f0:	00048513          	mv	a0,s1
   150f4:	01412483          	lw	s1,20(sp)
   150f8:	02010113          	addi	sp,sp,32
   150fc:	3f00006f          	j	154ec <_write_r>
   15100:	00e59583          	lh	a1,14(a1)
   15104:	00200693          	li	a3,2
   15108:	00000613          	li	a2,0
   1510c:	688000ef          	jal	ra,15794 <_lseek_r>
   15110:	00c41783          	lh	a5,12(s0)
   15114:	fb1ff06f          	j	150c4 <__swrite+0x34>

00015118 <__sseek>:
   15118:	ff010113          	addi	sp,sp,-16
   1511c:	00812423          	sw	s0,8(sp)
   15120:	00058413          	mv	s0,a1
   15124:	00e59583          	lh	a1,14(a1)
   15128:	00112623          	sw	ra,12(sp)
   1512c:	668000ef          	jal	ra,15794 <_lseek_r>
   15130:	fff00793          	li	a5,-1
   15134:	02f50463          	beq	a0,a5,1515c <__sseek+0x44>
   15138:	00c45783          	lhu	a5,12(s0)
   1513c:	00001737          	lui	a4,0x1
   15140:	00c12083          	lw	ra,12(sp)
   15144:	00e7e7b3          	or	a5,a5,a4
   15148:	04a42823          	sw	a0,80(s0)
   1514c:	00f41623          	sh	a5,12(s0)
   15150:	00812403          	lw	s0,8(sp)
   15154:	01010113          	addi	sp,sp,16
   15158:	00008067          	ret
   1515c:	00c45783          	lhu	a5,12(s0)
   15160:	fffff737          	lui	a4,0xfffff
   15164:	fff70713          	addi	a4,a4,-1 # ffffefff <__BSS_END__+0xfffe5243>
   15168:	00e7f7b3          	and	a5,a5,a4
   1516c:	00c12083          	lw	ra,12(sp)
   15170:	00f41623          	sh	a5,12(s0)
   15174:	00812403          	lw	s0,8(sp)
   15178:	01010113          	addi	sp,sp,16
   1517c:	00008067          	ret

00015180 <__sclose>:
   15180:	00e59583          	lh	a1,14(a1)
   15184:	3e40006f          	j	15568 <_close_r>

00015188 <strlen>:
   15188:	00357793          	andi	a5,a0,3
   1518c:	00050713          	mv	a4,a0
   15190:	04079c63          	bnez	a5,151e8 <strlen+0x60>
   15194:	7f7f86b7          	lui	a3,0x7f7f8
   15198:	f7f68693          	addi	a3,a3,-129 # 7f7f7f7f <__BSS_END__+0x7f7de1c3>
   1519c:	fff00593          	li	a1,-1
   151a0:	00072603          	lw	a2,0(a4)
   151a4:	00470713          	addi	a4,a4,4
   151a8:	00d677b3          	and	a5,a2,a3
   151ac:	00d787b3          	add	a5,a5,a3
   151b0:	00c7e7b3          	or	a5,a5,a2
   151b4:	00d7e7b3          	or	a5,a5,a3
   151b8:	feb784e3          	beq	a5,a1,151a0 <strlen+0x18>
   151bc:	ffc74683          	lbu	a3,-4(a4)
   151c0:	40a707b3          	sub	a5,a4,a0
   151c4:	04068463          	beqz	a3,1520c <strlen+0x84>
   151c8:	ffd74683          	lbu	a3,-3(a4)
   151cc:	02068c63          	beqz	a3,15204 <strlen+0x7c>
   151d0:	ffe74503          	lbu	a0,-2(a4)
   151d4:	00a03533          	snez	a0,a0
   151d8:	00f50533          	add	a0,a0,a5
   151dc:	ffe50513          	addi	a0,a0,-2
   151e0:	00008067          	ret
   151e4:	fa0688e3          	beqz	a3,15194 <strlen+0xc>
   151e8:	00074783          	lbu	a5,0(a4)
   151ec:	00170713          	addi	a4,a4,1
   151f0:	00377693          	andi	a3,a4,3
   151f4:	fe0798e3          	bnez	a5,151e4 <strlen+0x5c>
   151f8:	40a70733          	sub	a4,a4,a0
   151fc:	fff70513          	addi	a0,a4,-1
   15200:	00008067          	ret
   15204:	ffd78513          	addi	a0,a5,-3
   15208:	00008067          	ret
   1520c:	ffc78513          	addi	a0,a5,-4
   15210:	00008067          	ret

00015214 <strncpy>:
   15214:	00b567b3          	or	a5,a0,a1
   15218:	0037f793          	andi	a5,a5,3
   1521c:	00050713          	mv	a4,a0
   15220:	06079863          	bnez	a5,15290 <strncpy+0x7c>
   15224:	00300793          	li	a5,3
   15228:	06c7f463          	bgeu	a5,a2,15290 <strncpy+0x7c>
   1522c:	feff0337          	lui	t1,0xfeff0
   15230:	808088b7          	lui	a7,0x80808
   15234:	eff30313          	addi	t1,t1,-257 # fefefeff <__BSS_END__+0xfefd6143>
   15238:	08088893          	addi	a7,a7,128 # 80808080 <__BSS_END__+0x807ee2c4>
   1523c:	00300e13          	li	t3,3
   15240:	0005a683          	lw	a3,0(a1)
   15244:	006687b3          	add	a5,a3,t1
   15248:	fff6c813          	not	a6,a3
   1524c:	0107f7b3          	and	a5,a5,a6
   15250:	0117f7b3          	and	a5,a5,a7
   15254:	02079e63          	bnez	a5,15290 <strncpy+0x7c>
   15258:	00d72023          	sw	a3,0(a4)
   1525c:	ffc60613          	addi	a2,a2,-4
   15260:	00470713          	addi	a4,a4,4
   15264:	00458593          	addi	a1,a1,4
   15268:	fcce6ce3          	bltu	t3,a2,15240 <strncpy+0x2c>
   1526c:	00158593          	addi	a1,a1,1
   15270:	00170793          	addi	a5,a4,1
   15274:	02060463          	beqz	a2,1529c <strncpy+0x88>
   15278:	fff5c683          	lbu	a3,-1(a1)
   1527c:	fff60813          	addi	a6,a2,-1
   15280:	fed78fa3          	sb	a3,-1(a5)
   15284:	00068e63          	beqz	a3,152a0 <strncpy+0x8c>
   15288:	00078713          	mv	a4,a5
   1528c:	00080613          	mv	a2,a6
   15290:	00158593          	addi	a1,a1,1
   15294:	00170793          	addi	a5,a4,1
   15298:	fe0610e3          	bnez	a2,15278 <strncpy+0x64>
   1529c:	00008067          	ret
   152a0:	00c70733          	add	a4,a4,a2
   152a4:	00080a63          	beqz	a6,152b8 <strncpy+0xa4>
   152a8:	00178793          	addi	a5,a5,1
   152ac:	fe078fa3          	sb	zero,-1(a5)
   152b0:	fee79ce3          	bne	a5,a4,152a8 <strncpy+0x94>
   152b4:	00008067          	ret
   152b8:	00008067          	ret

000152bc <__swbuf_r>:
   152bc:	fe010113          	addi	sp,sp,-32
   152c0:	00812c23          	sw	s0,24(sp)
   152c4:	00912a23          	sw	s1,20(sp)
   152c8:	01212823          	sw	s2,16(sp)
   152cc:	00112e23          	sw	ra,28(sp)
   152d0:	01312623          	sw	s3,12(sp)
   152d4:	00050913          	mv	s2,a0
   152d8:	00058493          	mv	s1,a1
   152dc:	00060413          	mv	s0,a2
   152e0:	00050663          	beqz	a0,152ec <__swbuf_r+0x30>
   152e4:	03852783          	lw	a5,56(a0)
   152e8:	14078a63          	beqz	a5,1543c <__swbuf_r+0x180>
   152ec:	00c41703          	lh	a4,12(s0)
   152f0:	01842683          	lw	a3,24(s0)
   152f4:	00877793          	andi	a5,a4,8
   152f8:	00d42423          	sw	a3,8(s0)
   152fc:	01071693          	slli	a3,a4,0x10
   15300:	0106d693          	srli	a3,a3,0x10
   15304:	08078463          	beqz	a5,1538c <__swbuf_r+0xd0>
   15308:	01042783          	lw	a5,16(s0)
   1530c:	08078063          	beqz	a5,1538c <__swbuf_r+0xd0>
   15310:	00002637          	lui	a2,0x2
   15314:	00c6f6b3          	and	a3,a3,a2
   15318:	0ff4f993          	zext.b	s3,s1
   1531c:	0ff4f493          	zext.b	s1,s1
   15320:	0a068063          	beqz	a3,153c0 <__swbuf_r+0x104>
   15324:	00042703          	lw	a4,0(s0)
   15328:	01442683          	lw	a3,20(s0)
   1532c:	40f707b3          	sub	a5,a4,a5
   15330:	0ad7de63          	bge	a5,a3,153ec <__swbuf_r+0x130>
   15334:	00842683          	lw	a3,8(s0)
   15338:	00170613          	addi	a2,a4,1
   1533c:	00c42023          	sw	a2,0(s0)
   15340:	fff68693          	addi	a3,a3,-1
   15344:	00d42423          	sw	a3,8(s0)
   15348:	01370023          	sb	s3,0(a4)
   1534c:	01442703          	lw	a4,20(s0)
   15350:	00178793          	addi	a5,a5,1
   15354:	0cf70863          	beq	a4,a5,15424 <__swbuf_r+0x168>
   15358:	00c45783          	lhu	a5,12(s0)
   1535c:	0017f793          	andi	a5,a5,1
   15360:	00078663          	beqz	a5,1536c <__swbuf_r+0xb0>
   15364:	00a00793          	li	a5,10
   15368:	0af48e63          	beq	s1,a5,15424 <__swbuf_r+0x168>
   1536c:	01c12083          	lw	ra,28(sp)
   15370:	01812403          	lw	s0,24(sp)
   15374:	01012903          	lw	s2,16(sp)
   15378:	00c12983          	lw	s3,12(sp)
   1537c:	00048513          	mv	a0,s1
   15380:	01412483          	lw	s1,20(sp)
   15384:	02010113          	addi	sp,sp,32
   15388:	00008067          	ret
   1538c:	00040593          	mv	a1,s0
   15390:	00090513          	mv	a0,s2
   15394:	f68fd0ef          	jal	ra,12afc <__swsetup_r>
   15398:	08051e63          	bnez	a0,15434 <__swbuf_r+0x178>
   1539c:	00c41703          	lh	a4,12(s0)
   153a0:	00002637          	lui	a2,0x2
   153a4:	0ff4f993          	zext.b	s3,s1
   153a8:	01071693          	slli	a3,a4,0x10
   153ac:	0106d693          	srli	a3,a3,0x10
   153b0:	00c6f6b3          	and	a3,a3,a2
   153b4:	01042783          	lw	a5,16(s0)
   153b8:	0ff4f493          	zext.b	s1,s1
   153bc:	f60694e3          	bnez	a3,15324 <__swbuf_r+0x68>
   153c0:	06442683          	lw	a3,100(s0)
   153c4:	00c76733          	or	a4,a4,a2
   153c8:	ffffe637          	lui	a2,0xffffe
   153cc:	fff60613          	addi	a2,a2,-1 # ffffdfff <__BSS_END__+0xfffe4243>
   153d0:	00c6f6b3          	and	a3,a3,a2
   153d4:	00e41623          	sh	a4,12(s0)
   153d8:	00042703          	lw	a4,0(s0)
   153dc:	06d42223          	sw	a3,100(s0)
   153e0:	01442683          	lw	a3,20(s0)
   153e4:	40f707b3          	sub	a5,a4,a5
   153e8:	f4d7c6e3          	blt	a5,a3,15334 <__swbuf_r+0x78>
   153ec:	00040593          	mv	a1,s0
   153f0:	00090513          	mv	a0,s2
   153f4:	c15fd0ef          	jal	ra,13008 <_fflush_r>
   153f8:	02051e63          	bnez	a0,15434 <__swbuf_r+0x178>
   153fc:	00042703          	lw	a4,0(s0)
   15400:	00842683          	lw	a3,8(s0)
   15404:	00100793          	li	a5,1
   15408:	00170613          	addi	a2,a4,1
   1540c:	fff68693          	addi	a3,a3,-1
   15410:	00c42023          	sw	a2,0(s0)
   15414:	00d42423          	sw	a3,8(s0)
   15418:	01370023          	sb	s3,0(a4)
   1541c:	01442703          	lw	a4,20(s0)
   15420:	f2f71ce3          	bne	a4,a5,15358 <__swbuf_r+0x9c>
   15424:	00040593          	mv	a1,s0
   15428:	00090513          	mv	a0,s2
   1542c:	bddfd0ef          	jal	ra,13008 <_fflush_r>
   15430:	f2050ee3          	beqz	a0,1536c <__swbuf_r+0xb0>
   15434:	fff00493          	li	s1,-1
   15438:	f35ff06f          	j	1536c <__swbuf_r+0xb0>
   1543c:	dbdfd0ef          	jal	ra,131f8 <__sinit>
   15440:	eadff06f          	j	152ec <__swbuf_r+0x30>

00015444 <_wcrtomb_r>:
   15444:	fe010113          	addi	sp,sp,-32
   15448:	00812c23          	sw	s0,24(sp)
   1544c:	00912a23          	sw	s1,20(sp)
   15450:	000177b7          	lui	a5,0x17
   15454:	00112e23          	sw	ra,28(sp)
   15458:	6b07a783          	lw	a5,1712(a5) # 176b0 <__global_locale+0xe0>
   1545c:	00050413          	mv	s0,a0
   15460:	00068493          	mv	s1,a3
   15464:	02058263          	beqz	a1,15488 <_wcrtomb_r+0x44>
   15468:	000780e7          	jalr	a5
   1546c:	fff00793          	li	a5,-1
   15470:	02f50663          	beq	a0,a5,1549c <_wcrtomb_r+0x58>
   15474:	01c12083          	lw	ra,28(sp)
   15478:	01812403          	lw	s0,24(sp)
   1547c:	01412483          	lw	s1,20(sp)
   15480:	02010113          	addi	sp,sp,32
   15484:	00008067          	ret
   15488:	00000613          	li	a2,0
   1548c:	00410593          	addi	a1,sp,4
   15490:	000780e7          	jalr	a5
   15494:	fff00793          	li	a5,-1
   15498:	fcf51ee3          	bne	a0,a5,15474 <_wcrtomb_r+0x30>
   1549c:	0004a023          	sw	zero,0(s1)
   154a0:	08a00793          	li	a5,138
   154a4:	01c12083          	lw	ra,28(sp)
   154a8:	00f42023          	sw	a5,0(s0)
   154ac:	01812403          	lw	s0,24(sp)
   154b0:	01412483          	lw	s1,20(sp)
   154b4:	02010113          	addi	sp,sp,32
   154b8:	00008067          	ret

000154bc <__ascii_wctomb>:
   154bc:	02058463          	beqz	a1,154e4 <__ascii_wctomb+0x28>
   154c0:	0ff00793          	li	a5,255
   154c4:	00c7e863          	bltu	a5,a2,154d4 <__ascii_wctomb+0x18>
   154c8:	00c58023          	sb	a2,0(a1)
   154cc:	00100513          	li	a0,1
   154d0:	00008067          	ret
   154d4:	08a00793          	li	a5,138
   154d8:	00f52023          	sw	a5,0(a0)
   154dc:	fff00513          	li	a0,-1
   154e0:	00008067          	ret
   154e4:	00000513          	li	a0,0
   154e8:	00008067          	ret

000154ec <_write_r>:
   154ec:	ff010113          	addi	sp,sp,-16
   154f0:	00058713          	mv	a4,a1
   154f4:	00812423          	sw	s0,8(sp)
   154f8:	00912223          	sw	s1,4(sp)
   154fc:	00060593          	mv	a1,a2
   15500:	00050413          	mv	s0,a0
   15504:	00068613          	mv	a2,a3
   15508:	00070513          	mv	a0,a4
   1550c:	00112623          	sw	ra,12(sp)
   15510:	8001ae23          	sw	zero,-2020(gp) # 17b60 <errno>
   15514:	630000ef          	jal	ra,15b44 <_write>
   15518:	fff00793          	li	a5,-1
   1551c:	00f50c63          	beq	a0,a5,15534 <_write_r+0x48>
   15520:	00c12083          	lw	ra,12(sp)
   15524:	00812403          	lw	s0,8(sp)
   15528:	00412483          	lw	s1,4(sp)
   1552c:	01010113          	addi	sp,sp,16
   15530:	00008067          	ret
   15534:	81c1a783          	lw	a5,-2020(gp) # 17b60 <errno>
   15538:	fe0784e3          	beqz	a5,15520 <_write_r+0x34>
   1553c:	00c12083          	lw	ra,12(sp)
   15540:	00f42023          	sw	a5,0(s0)
   15544:	00812403          	lw	s0,8(sp)
   15548:	00412483          	lw	s1,4(sp)
   1554c:	01010113          	addi	sp,sp,16
   15550:	00008067          	ret

00015554 <atexit>:
   15554:	00050593          	mv	a1,a0
   15558:	00000693          	li	a3,0
   1555c:	00000613          	li	a2,0
   15560:	00000513          	li	a0,0
   15564:	3000006f          	j	15864 <__register_exitproc>

00015568 <_close_r>:
   15568:	ff010113          	addi	sp,sp,-16
   1556c:	00812423          	sw	s0,8(sp)
   15570:	00912223          	sw	s1,4(sp)
   15574:	00050413          	mv	s0,a0
   15578:	00058513          	mv	a0,a1
   1557c:	00112623          	sw	ra,12(sp)
   15580:	8001ae23          	sw	zero,-2020(gp) # 17b60 <errno>
   15584:	37c000ef          	jal	ra,15900 <_close>
   15588:	fff00793          	li	a5,-1
   1558c:	00f50c63          	beq	a0,a5,155a4 <_close_r+0x3c>
   15590:	00c12083          	lw	ra,12(sp)
   15594:	00812403          	lw	s0,8(sp)
   15598:	00412483          	lw	s1,4(sp)
   1559c:	01010113          	addi	sp,sp,16
   155a0:	00008067          	ret
   155a4:	81c1a783          	lw	a5,-2020(gp) # 17b60 <errno>
   155a8:	fe0784e3          	beqz	a5,15590 <_close_r+0x28>
   155ac:	00c12083          	lw	ra,12(sp)
   155b0:	00f42023          	sw	a5,0(s0)
   155b4:	00812403          	lw	s0,8(sp)
   155b8:	00412483          	lw	s1,4(sp)
   155bc:	01010113          	addi	sp,sp,16
   155c0:	00008067          	ret

000155c4 <_fclose_r>:
   155c4:	ff010113          	addi	sp,sp,-16
   155c8:	00112623          	sw	ra,12(sp)
   155cc:	00812423          	sw	s0,8(sp)
   155d0:	00912223          	sw	s1,4(sp)
   155d4:	01212023          	sw	s2,0(sp)
   155d8:	02058063          	beqz	a1,155f8 <_fclose_r+0x34>
   155dc:	00058413          	mv	s0,a1
   155e0:	00050493          	mv	s1,a0
   155e4:	00050663          	beqz	a0,155f0 <_fclose_r+0x2c>
   155e8:	03852783          	lw	a5,56(a0)
   155ec:	0a078c63          	beqz	a5,156a4 <_fclose_r+0xe0>
   155f0:	00c41783          	lh	a5,12(s0)
   155f4:	02079263          	bnez	a5,15618 <_fclose_r+0x54>
   155f8:	00c12083          	lw	ra,12(sp)
   155fc:	00812403          	lw	s0,8(sp)
   15600:	00000913          	li	s2,0
   15604:	00412483          	lw	s1,4(sp)
   15608:	00090513          	mv	a0,s2
   1560c:	00012903          	lw	s2,0(sp)
   15610:	01010113          	addi	sp,sp,16
   15614:	00008067          	ret
   15618:	00040593          	mv	a1,s0
   1561c:	00048513          	mv	a0,s1
   15620:	f84fd0ef          	jal	ra,12da4 <__sflush_r>
   15624:	02c42783          	lw	a5,44(s0)
   15628:	00050913          	mv	s2,a0
   1562c:	00078a63          	beqz	a5,15640 <_fclose_r+0x7c>
   15630:	01c42583          	lw	a1,28(s0)
   15634:	00048513          	mv	a0,s1
   15638:	000780e7          	jalr	a5
   1563c:	06054c63          	bltz	a0,156b4 <_fclose_r+0xf0>
   15640:	00c45783          	lhu	a5,12(s0)
   15644:	0807f793          	andi	a5,a5,128
   15648:	06079e63          	bnez	a5,156c4 <_fclose_r+0x100>
   1564c:	03042583          	lw	a1,48(s0)
   15650:	00058c63          	beqz	a1,15668 <_fclose_r+0xa4>
   15654:	04040793          	addi	a5,s0,64
   15658:	00f58663          	beq	a1,a5,15664 <_fclose_r+0xa0>
   1565c:	00048513          	mv	a0,s1
   15660:	ea5fd0ef          	jal	ra,13504 <_free_r>
   15664:	02042823          	sw	zero,48(s0)
   15668:	04442583          	lw	a1,68(s0)
   1566c:	00058863          	beqz	a1,1567c <_fclose_r+0xb8>
   15670:	00048513          	mv	a0,s1
   15674:	e91fd0ef          	jal	ra,13504 <_free_r>
   15678:	04042223          	sw	zero,68(s0)
   1567c:	b8dfd0ef          	jal	ra,13208 <__sfp_lock_acquire>
   15680:	00041623          	sh	zero,12(s0)
   15684:	b89fd0ef          	jal	ra,1320c <__sfp_lock_release>
   15688:	00c12083          	lw	ra,12(sp)
   1568c:	00812403          	lw	s0,8(sp)
   15690:	00412483          	lw	s1,4(sp)
   15694:	00090513          	mv	a0,s2
   15698:	00012903          	lw	s2,0(sp)
   1569c:	01010113          	addi	sp,sp,16
   156a0:	00008067          	ret
   156a4:	b55fd0ef          	jal	ra,131f8 <__sinit>
   156a8:	00c41783          	lh	a5,12(s0)
   156ac:	f40786e3          	beqz	a5,155f8 <_fclose_r+0x34>
   156b0:	f69ff06f          	j	15618 <_fclose_r+0x54>
   156b4:	00c45783          	lhu	a5,12(s0)
   156b8:	fff00913          	li	s2,-1
   156bc:	0807f793          	andi	a5,a5,128
   156c0:	f80786e3          	beqz	a5,1564c <_fclose_r+0x88>
   156c4:	01042583          	lw	a1,16(s0)
   156c8:	00048513          	mv	a0,s1
   156cc:	e39fd0ef          	jal	ra,13504 <_free_r>
   156d0:	f7dff06f          	j	1564c <_fclose_r+0x88>

000156d4 <_fstat_r>:
   156d4:	ff010113          	addi	sp,sp,-16
   156d8:	00058713          	mv	a4,a1
   156dc:	00812423          	sw	s0,8(sp)
   156e0:	00912223          	sw	s1,4(sp)
   156e4:	00050413          	mv	s0,a0
   156e8:	00060593          	mv	a1,a2
   156ec:	00070513          	mv	a0,a4
   156f0:	00112623          	sw	ra,12(sp)
   156f4:	8001ae23          	sw	zero,-2020(gp) # 17b60 <errno>
   156f8:	27c000ef          	jal	ra,15974 <_fstat>
   156fc:	fff00793          	li	a5,-1
   15700:	00f50c63          	beq	a0,a5,15718 <_fstat_r+0x44>
   15704:	00c12083          	lw	ra,12(sp)
   15708:	00812403          	lw	s0,8(sp)
   1570c:	00412483          	lw	s1,4(sp)
   15710:	01010113          	addi	sp,sp,16
   15714:	00008067          	ret
   15718:	81c1a783          	lw	a5,-2020(gp) # 17b60 <errno>
   1571c:	fe0784e3          	beqz	a5,15704 <_fstat_r+0x30>
   15720:	00c12083          	lw	ra,12(sp)
   15724:	00f42023          	sw	a5,0(s0)
   15728:	00812403          	lw	s0,8(sp)
   1572c:	00412483          	lw	s1,4(sp)
   15730:	01010113          	addi	sp,sp,16
   15734:	00008067          	ret

00015738 <_isatty_r>:
   15738:	ff010113          	addi	sp,sp,-16
   1573c:	00812423          	sw	s0,8(sp)
   15740:	00912223          	sw	s1,4(sp)
   15744:	00050413          	mv	s0,a0
   15748:	00058513          	mv	a0,a1
   1574c:	00112623          	sw	ra,12(sp)
   15750:	8001ae23          	sw	zero,-2020(gp) # 17b60 <errno>
   15754:	288000ef          	jal	ra,159dc <_isatty>
   15758:	fff00793          	li	a5,-1
   1575c:	00f50c63          	beq	a0,a5,15774 <_isatty_r+0x3c>
   15760:	00c12083          	lw	ra,12(sp)
   15764:	00812403          	lw	s0,8(sp)
   15768:	00412483          	lw	s1,4(sp)
   1576c:	01010113          	addi	sp,sp,16
   15770:	00008067          	ret
   15774:	81c1a783          	lw	a5,-2020(gp) # 17b60 <errno>
   15778:	fe0784e3          	beqz	a5,15760 <_isatty_r+0x28>
   1577c:	00c12083          	lw	ra,12(sp)
   15780:	00f42023          	sw	a5,0(s0)
   15784:	00812403          	lw	s0,8(sp)
   15788:	00412483          	lw	s1,4(sp)
   1578c:	01010113          	addi	sp,sp,16
   15790:	00008067          	ret

00015794 <_lseek_r>:
   15794:	ff010113          	addi	sp,sp,-16
   15798:	00058713          	mv	a4,a1
   1579c:	00812423          	sw	s0,8(sp)
   157a0:	00912223          	sw	s1,4(sp)
   157a4:	00060593          	mv	a1,a2
   157a8:	00050413          	mv	s0,a0
   157ac:	00068613          	mv	a2,a3
   157b0:	00070513          	mv	a0,a4
   157b4:	00112623          	sw	ra,12(sp)
   157b8:	8001ae23          	sw	zero,-2020(gp) # 17b60 <errno>
   157bc:	284000ef          	jal	ra,15a40 <_lseek>
   157c0:	fff00793          	li	a5,-1
   157c4:	00f50c63          	beq	a0,a5,157dc <_lseek_r+0x48>
   157c8:	00c12083          	lw	ra,12(sp)
   157cc:	00812403          	lw	s0,8(sp)
   157d0:	00412483          	lw	s1,4(sp)
   157d4:	01010113          	addi	sp,sp,16
   157d8:	00008067          	ret
   157dc:	81c1a783          	lw	a5,-2020(gp) # 17b60 <errno>
   157e0:	fe0784e3          	beqz	a5,157c8 <_lseek_r+0x34>
   157e4:	00c12083          	lw	ra,12(sp)
   157e8:	00f42023          	sw	a5,0(s0)
   157ec:	00812403          	lw	s0,8(sp)
   157f0:	00412483          	lw	s1,4(sp)
   157f4:	01010113          	addi	sp,sp,16
   157f8:	00008067          	ret

000157fc <_read_r>:
   157fc:	ff010113          	addi	sp,sp,-16
   15800:	00058713          	mv	a4,a1
   15804:	00812423          	sw	s0,8(sp)
   15808:	00912223          	sw	s1,4(sp)
   1580c:	00060593          	mv	a1,a2
   15810:	00050413          	mv	s0,a0
   15814:	00068613          	mv	a2,a3
   15818:	00070513          	mv	a0,a4
   1581c:	00112623          	sw	ra,12(sp)
   15820:	8001ae23          	sw	zero,-2020(gp) # 17b60 <errno>
   15824:	260000ef          	jal	ra,15a84 <_read>
   15828:	fff00793          	li	a5,-1
   1582c:	00f50c63          	beq	a0,a5,15844 <_read_r+0x48>
   15830:	00c12083          	lw	ra,12(sp)
   15834:	00812403          	lw	s0,8(sp)
   15838:	00412483          	lw	s1,4(sp)
   1583c:	01010113          	addi	sp,sp,16
   15840:	00008067          	ret
   15844:	81c1a783          	lw	a5,-2020(gp) # 17b60 <errno>
   15848:	fe0784e3          	beqz	a5,15830 <_read_r+0x34>
   1584c:	00c12083          	lw	ra,12(sp)
   15850:	00f42023          	sw	a5,0(s0)
   15854:	00812403          	lw	s0,8(sp)
   15858:	00412483          	lw	s1,4(sp)
   1585c:	01010113          	addi	sp,sp,16
   15860:	00008067          	ret

00015864 <__register_exitproc>:
   15864:	000187b7          	lui	a5,0x18
   15868:	b447a703          	lw	a4,-1212(a5) # 17b44 <_global_impure_ptr>
   1586c:	14872783          	lw	a5,328(a4)
   15870:	04078c63          	beqz	a5,158c8 <__register_exitproc+0x64>
   15874:	0047a703          	lw	a4,4(a5)
   15878:	01f00813          	li	a6,31
   1587c:	06e84e63          	blt	a6,a4,158f8 <__register_exitproc+0x94>
   15880:	00271813          	slli	a6,a4,0x2
   15884:	02050663          	beqz	a0,158b0 <__register_exitproc+0x4c>
   15888:	01078333          	add	t1,a5,a6
   1588c:	08c32423          	sw	a2,136(t1)
   15890:	1887a883          	lw	a7,392(a5)
   15894:	00100613          	li	a2,1
   15898:	00e61633          	sll	a2,a2,a4
   1589c:	00c8e8b3          	or	a7,a7,a2
   158a0:	1917a423          	sw	a7,392(a5)
   158a4:	10d32423          	sw	a3,264(t1)
   158a8:	00200693          	li	a3,2
   158ac:	02d50463          	beq	a0,a3,158d4 <__register_exitproc+0x70>
   158b0:	00170713          	addi	a4,a4,1
   158b4:	00e7a223          	sw	a4,4(a5)
   158b8:	010787b3          	add	a5,a5,a6
   158bc:	00b7a423          	sw	a1,8(a5)
   158c0:	00000513          	li	a0,0
   158c4:	00008067          	ret
   158c8:	14c70793          	addi	a5,a4,332
   158cc:	14f72423          	sw	a5,328(a4)
   158d0:	fa5ff06f          	j	15874 <__register_exitproc+0x10>
   158d4:	18c7a683          	lw	a3,396(a5)
   158d8:	00170713          	addi	a4,a4,1
   158dc:	00e7a223          	sw	a4,4(a5)
   158e0:	00c6e6b3          	or	a3,a3,a2
   158e4:	18d7a623          	sw	a3,396(a5)
   158e8:	010787b3          	add	a5,a5,a6
   158ec:	00b7a423          	sw	a1,8(a5)
   158f0:	00000513          	li	a0,0
   158f4:	00008067          	ret
   158f8:	fff00513          	li	a0,-1
   158fc:	00008067          	ret

00015900 <_close>:
   15900:	ff010113          	addi	sp,sp,-16
   15904:	00112623          	sw	ra,12(sp)
   15908:	00812423          	sw	s0,8(sp)
   1590c:	03900893          	li	a7,57
   15910:	00000073          	ecall
   15914:	00050413          	mv	s0,a0
   15918:	00054c63          	bltz	a0,15930 <_close+0x30>
   1591c:	00c12083          	lw	ra,12(sp)
   15920:	00040513          	mv	a0,s0
   15924:	00812403          	lw	s0,8(sp)
   15928:	01010113          	addi	sp,sp,16
   1592c:	00008067          	ret
   15930:	40800433          	neg	s0,s0
   15934:	2f8000ef          	jal	ra,15c2c <__errno>
   15938:	00852023          	sw	s0,0(a0)
   1593c:	fff00413          	li	s0,-1
   15940:	fddff06f          	j	1591c <_close+0x1c>

00015944 <_exit>:
   15944:	05d00893          	li	a7,93
   15948:	00000073          	ecall
   1594c:	00054463          	bltz	a0,15954 <_exit+0x10>
   15950:	0000006f          	j	15950 <_exit+0xc>
   15954:	ff010113          	addi	sp,sp,-16
   15958:	00812423          	sw	s0,8(sp)
   1595c:	00050413          	mv	s0,a0
   15960:	00112623          	sw	ra,12(sp)
   15964:	40800433          	neg	s0,s0
   15968:	2c4000ef          	jal	ra,15c2c <__errno>
   1596c:	00852023          	sw	s0,0(a0)
   15970:	0000006f          	j	15970 <_exit+0x2c>

00015974 <_fstat>:
   15974:	f7010113          	addi	sp,sp,-144
   15978:	08912223          	sw	s1,132(sp)
   1597c:	08112623          	sw	ra,140(sp)
   15980:	00058493          	mv	s1,a1
   15984:	08812423          	sw	s0,136(sp)
   15988:	05000893          	li	a7,80
   1598c:	00010593          	mv	a1,sp
   15990:	00000073          	ecall
   15994:	00050413          	mv	s0,a0
   15998:	02054463          	bltz	a0,159c0 <_fstat+0x4c>
   1599c:	00048513          	mv	a0,s1
   159a0:	00010593          	mv	a1,sp
   159a4:	1e4000ef          	jal	ra,15b88 <_conv_stat>
   159a8:	08c12083          	lw	ra,140(sp)
   159ac:	00040513          	mv	a0,s0
   159b0:	08812403          	lw	s0,136(sp)
   159b4:	08412483          	lw	s1,132(sp)
   159b8:	09010113          	addi	sp,sp,144
   159bc:	00008067          	ret
   159c0:	40800433          	neg	s0,s0
   159c4:	268000ef          	jal	ra,15c2c <__errno>
   159c8:	00852023          	sw	s0,0(a0)
   159cc:	fff00413          	li	s0,-1
   159d0:	fcdff06f          	j	1599c <_fstat+0x28>

000159d4 <_getpid>:
   159d4:	00100513          	li	a0,1
   159d8:	00008067          	ret

000159dc <_isatty>:
   159dc:	f9010113          	addi	sp,sp,-112
   159e0:	00810593          	addi	a1,sp,8
   159e4:	06112623          	sw	ra,108(sp)
   159e8:	f8dff0ef          	jal	ra,15974 <_fstat>
   159ec:	fff00793          	li	a5,-1
   159f0:	00f50e63          	beq	a0,a5,15a0c <_isatty+0x30>
   159f4:	00c12503          	lw	a0,12(sp)
   159f8:	06c12083          	lw	ra,108(sp)
   159fc:	00d55513          	srli	a0,a0,0xd
   15a00:	00157513          	andi	a0,a0,1
   15a04:	07010113          	addi	sp,sp,112
   15a08:	00008067          	ret
   15a0c:	06c12083          	lw	ra,108(sp)
   15a10:	00000513          	li	a0,0
   15a14:	07010113          	addi	sp,sp,112
   15a18:	00008067          	ret

00015a1c <_kill>:
   15a1c:	ff010113          	addi	sp,sp,-16
   15a20:	00112623          	sw	ra,12(sp)
   15a24:	208000ef          	jal	ra,15c2c <__errno>
   15a28:	00c12083          	lw	ra,12(sp)
   15a2c:	01600793          	li	a5,22
   15a30:	00f52023          	sw	a5,0(a0)
   15a34:	fff00513          	li	a0,-1
   15a38:	01010113          	addi	sp,sp,16
   15a3c:	00008067          	ret

00015a40 <_lseek>:
   15a40:	ff010113          	addi	sp,sp,-16
   15a44:	00112623          	sw	ra,12(sp)
   15a48:	00812423          	sw	s0,8(sp)
   15a4c:	03e00893          	li	a7,62
   15a50:	00000073          	ecall
   15a54:	00050413          	mv	s0,a0
   15a58:	00054c63          	bltz	a0,15a70 <_lseek+0x30>
   15a5c:	00c12083          	lw	ra,12(sp)
   15a60:	00040513          	mv	a0,s0
   15a64:	00812403          	lw	s0,8(sp)
   15a68:	01010113          	addi	sp,sp,16
   15a6c:	00008067          	ret
   15a70:	40800433          	neg	s0,s0
   15a74:	1b8000ef          	jal	ra,15c2c <__errno>
   15a78:	00852023          	sw	s0,0(a0)
   15a7c:	fff00413          	li	s0,-1
   15a80:	fddff06f          	j	15a5c <_lseek+0x1c>

00015a84 <_read>:
   15a84:	ff010113          	addi	sp,sp,-16
   15a88:	00112623          	sw	ra,12(sp)
   15a8c:	00812423          	sw	s0,8(sp)
   15a90:	03f00893          	li	a7,63
   15a94:	00000073          	ecall
   15a98:	00050413          	mv	s0,a0
   15a9c:	00054c63          	bltz	a0,15ab4 <_read+0x30>
   15aa0:	00c12083          	lw	ra,12(sp)
   15aa4:	00040513          	mv	a0,s0
   15aa8:	00812403          	lw	s0,8(sp)
   15aac:	01010113          	addi	sp,sp,16
   15ab0:	00008067          	ret
   15ab4:	40800433          	neg	s0,s0
   15ab8:	174000ef          	jal	ra,15c2c <__errno>
   15abc:	00852023          	sw	s0,0(a0)
   15ac0:	fff00413          	li	s0,-1
   15ac4:	fddff06f          	j	15aa0 <_read+0x1c>

00015ac8 <_sbrk>:
   15ac8:	82018693          	addi	a3,gp,-2016 # 17b64 <heap_end.0>
   15acc:	0006a703          	lw	a4,0(a3)
   15ad0:	ff010113          	addi	sp,sp,-16
   15ad4:	00112623          	sw	ra,12(sp)
   15ad8:	00050793          	mv	a5,a0
   15adc:	02071063          	bnez	a4,15afc <_sbrk+0x34>
   15ae0:	0d600893          	li	a7,214
   15ae4:	00000513          	li	a0,0
   15ae8:	00000073          	ecall
   15aec:	fff00613          	li	a2,-1
   15af0:	00050713          	mv	a4,a0
   15af4:	02c50a63          	beq	a0,a2,15b28 <_sbrk+0x60>
   15af8:	00a6a023          	sw	a0,0(a3)
   15afc:	0d600893          	li	a7,214
   15b00:	00e78533          	add	a0,a5,a4
   15b04:	00000073          	ecall
   15b08:	0006a703          	lw	a4,0(a3)
   15b0c:	00e787b3          	add	a5,a5,a4
   15b10:	00f51c63          	bne	a0,a5,15b28 <_sbrk+0x60>
   15b14:	00c12083          	lw	ra,12(sp)
   15b18:	00a6a023          	sw	a0,0(a3)
   15b1c:	00070513          	mv	a0,a4
   15b20:	01010113          	addi	sp,sp,16
   15b24:	00008067          	ret
   15b28:	104000ef          	jal	ra,15c2c <__errno>
   15b2c:	00c12083          	lw	ra,12(sp)
   15b30:	00c00793          	li	a5,12
   15b34:	00f52023          	sw	a5,0(a0)
   15b38:	fff00513          	li	a0,-1
   15b3c:	01010113          	addi	sp,sp,16
   15b40:	00008067          	ret

00015b44 <_write>:
   15b44:	ff010113          	addi	sp,sp,-16
   15b48:	00112623          	sw	ra,12(sp)
   15b4c:	00812423          	sw	s0,8(sp)
   15b50:	04000893          	li	a7,64
   15b54:	00000073          	ecall
   15b58:	00050413          	mv	s0,a0
   15b5c:	00054c63          	bltz	a0,15b74 <_write+0x30>
   15b60:	00c12083          	lw	ra,12(sp)
   15b64:	00040513          	mv	a0,s0
   15b68:	00812403          	lw	s0,8(sp)
   15b6c:	01010113          	addi	sp,sp,16
   15b70:	00008067          	ret
   15b74:	40800433          	neg	s0,s0
   15b78:	0b4000ef          	jal	ra,15c2c <__errno>
   15b7c:	00852023          	sw	s0,0(a0)
   15b80:	fff00413          	li	s0,-1
   15b84:	fddff06f          	j	15b60 <_write+0x1c>

00015b88 <_conv_stat>:
   15b88:	ff010113          	addi	sp,sp,-16
   15b8c:	0145a383          	lw	t2,20(a1)
   15b90:	0185a283          	lw	t0,24(a1)
   15b94:	01c5af83          	lw	t6,28(a1)
   15b98:	0205af03          	lw	t5,32(a1)
   15b9c:	0305ae83          	lw	t4,48(a1)
   15ba0:	0405ae03          	lw	t3,64(a1)
   15ba4:	0385a303          	lw	t1,56(a1)
   15ba8:	0485a803          	lw	a6,72(a1)
   15bac:	04c5a883          	lw	a7,76(a1)
   15bb0:	0585a603          	lw	a2,88(a1)
   15bb4:	00812623          	sw	s0,12(sp)
   15bb8:	00912423          	sw	s1,8(sp)
   15bbc:	0105a403          	lw	s0,16(a1)
   15bc0:	0085a483          	lw	s1,8(a1)
   15bc4:	01212223          	sw	s2,4(sp)
   15bc8:	0005a903          	lw	s2,0(a1)
   15bcc:	05c5a683          	lw	a3,92(a1)
   15bd0:	0685a703          	lw	a4,104(a1)
   15bd4:	06c5a783          	lw	a5,108(a1)
   15bd8:	01251023          	sh	s2,0(a0)
   15bdc:	00951123          	sh	s1,2(a0)
   15be0:	00852223          	sw	s0,4(a0)
   15be4:	00751423          	sh	t2,8(a0)
   15be8:	00551523          	sh	t0,10(a0)
   15bec:	01f51623          	sh	t6,12(a0)
   15bf0:	01e51723          	sh	t5,14(a0)
   15bf4:	01d52823          	sw	t4,16(a0)
   15bf8:	05c52623          	sw	t3,76(a0)
   15bfc:	04652423          	sw	t1,72(a0)
   15c00:	01052c23          	sw	a6,24(a0)
   15c04:	01152e23          	sw	a7,28(a0)
   15c08:	02c52423          	sw	a2,40(a0)
   15c0c:	02d52623          	sw	a3,44(a0)
   15c10:	00c12403          	lw	s0,12(sp)
   15c14:	02e52c23          	sw	a4,56(a0)
   15c18:	02f52e23          	sw	a5,60(a0)
   15c1c:	00812483          	lw	s1,8(sp)
   15c20:	00412903          	lw	s2,4(sp)
   15c24:	01010113          	addi	sp,sp,16
   15c28:	00008067          	ret

00015c2c <__errno>:
   15c2c:	000187b7          	lui	a5,0x18
   15c30:	b487a503          	lw	a0,-1208(a5) # 17b48 <_impure_ptr>
   15c34:	00008067          	ret
