
UART-sha.elf:     file format elf32-littlearm

Sections:
Idx Name          Size      VMA       LMA       File off  Algn
  0 .isr_vector   000001ac  08080000  08080000  00010000  2**0
                  CONTENTS, ALLOC, LOAD, READONLY, DATA
  1 .text         00008968  080801b0  080801b0  000101b0  2**4
                  CONTENTS, ALLOC, LOAD, READONLY, CODE
  2 .rodata       0000008c  08088b18  08088b18  00018b18  2**2
                  CONTENTS, ALLOC, LOAD, READONLY, DATA
  3 .ARM.extab    00000000  08088ba4  08088ba4  00039074  2**0
                  CONTENTS
  4 .ARM          00000008  08088ba4  08088ba4  00018ba4  2**2
                  CONTENTS, ALLOC, LOAD, READONLY, DATA
  5 .preinit_array 00000000  08088bac  08088bac  00039074  2**0
                  CONTENTS, ALLOC, LOAD, DATA
  6 .init_array   00000004  08088bac  08088bac  00018bac  2**2
                  CONTENTS, ALLOC, LOAD, DATA
  7 .fini_array   00000004  08088bb0  08088bb0  00018bb0  2**2
                  CONTENTS, ALLOC, LOAD, DATA
  8 .data         00019074  20000000  08088bb4  00020000  2**2
                  CONTENTS, ALLOC, LOAD, DATA
  9 .bss          000000b4  20019074  080a1c28  00039074  2**2
                  ALLOC
 10 ._user_heap_stack 00000600  20019128  080a1c28  00039128  2**0
                  ALLOC
 11 .ARM.attributes 00000030  00000000  00000000  00039074  2**0
                  CONTENTS, READONLY
 12 .comment      0000007b  00000000  00000000  000390a4  2**0
                  CONTENTS, READONLY
 13 .debug_frame  000003f0  00000000  00000000  00039120  2**2
                  CONTENTS, READONLY, DEBUGGING

Disassembly of section .text:

080801b0 <__do_global_dtors_aux>:
 80801b0:	b510      	push	{r4, lr}
 80801b2:	4c05      	ldr	r4, [pc, #20]	; (80801c8 <__do_global_dtors_aux+0x18>)
 80801b4:	7823      	ldrb	r3, [r4, #0]
 80801b6:	b933      	cbnz	r3, 80801c6 <__do_global_dtors_aux+0x16>
 80801b8:	4b04      	ldr	r3, [pc, #16]	; (80801cc <__do_global_dtors_aux+0x1c>)
 80801ba:	b113      	cbz	r3, 80801c2 <__do_global_dtors_aux+0x12>
 80801bc:	4804      	ldr	r0, [pc, #16]	; (80801d0 <__do_global_dtors_aux+0x20>)
 80801be:	f3af 8000 	nop.w
 80801c2:	2301      	movs	r3, #1
 80801c4:	7023      	strb	r3, [r4, #0]
 80801c6:	bd10      	pop	{r4, pc}
 80801c8:	20019074 	.word	0x20019074
 80801cc:	00000000 	.word	0x00000000
 80801d0:	08088b00 	.word	0x08088b00

080801d4 <frame_dummy>:
 80801d4:	b508      	push	{r3, lr}
 80801d6:	4b03      	ldr	r3, [pc, #12]	; (80801e4 <frame_dummy+0x10>)
 80801d8:	b11b      	cbz	r3, 80801e2 <frame_dummy+0xe>
 80801da:	4903      	ldr	r1, [pc, #12]	; (80801e8 <frame_dummy+0x14>)
 80801dc:	4803      	ldr	r0, [pc, #12]	; (80801ec <frame_dummy+0x18>)
 80801de:	f3af 8000 	nop.w
 80801e2:	bd08      	pop	{r3, pc}
 80801e4:	00000000 	.word	0x00000000
 80801e8:	20019078 	.word	0x20019078
 80801ec:	08088b00 	.word	0x08088b00

080801f0 <MX_GPIO_Init>:
 80801f0:	b082      	sub	sp, #8
 80801f2:	4b0c      	ldr	r3, [pc, #48]	; (8080224 <MX_GPIO_Init+0x34>)
 80801f4:	2100      	movs	r1, #0
 80801f6:	9100      	str	r1, [sp, #0]
 80801f8:	6b1a      	ldr	r2, [r3, #48]	; 0x30
 80801fa:	f042 0202 	orr.w	r2, r2, #2
 80801fe:	631a      	str	r2, [r3, #48]	; 0x30
 8080200:	6b1a      	ldr	r2, [r3, #48]	; 0x30
 8080202:	f002 0202 	and.w	r2, r2, #2
 8080206:	9200      	str	r2, [sp, #0]
 8080208:	9a00      	ldr	r2, [sp, #0]
 808020a:	9101      	str	r1, [sp, #4]
 808020c:	6b1a      	ldr	r2, [r3, #48]	; 0x30
 808020e:	f042 0201 	orr.w	r2, r2, #1
 8080212:	631a      	str	r2, [r3, #48]	; 0x30
 8080214:	6b1b      	ldr	r3, [r3, #48]	; 0x30
 8080216:	f003 0301 	and.w	r3, r3, #1
 808021a:	9301      	str	r3, [sp, #4]
 808021c:	9b01      	ldr	r3, [sp, #4]
 808021e:	b002      	add	sp, #8
 8080220:	4770      	bx	lr
 8080222:	bf00      	nop
 8080224:	40023800 	.word	0x40023800

08080228 <sha_transform>:
 8080228:	e92d 4ff0 	stmdb	sp!, {r4, r5, r6, r7, r8, r9, sl, fp, lr}
 808022c:	b0d5      	sub	sp, #340	; 0x154
 808022e:	4604      	mov	r4, r0
 8080230:	f100 051c 	add.w	r5, r0, #28
 8080234:	f100 0c5c 	add.w	ip, r0, #92	; 0x5c
 8080238:	af04      	add	r7, sp, #16
 808023a:	6828      	ldr	r0, [r5, #0]
 808023c:	6869      	ldr	r1, [r5, #4]
 808023e:	68aa      	ldr	r2, [r5, #8]
 8080240:	68eb      	ldr	r3, [r5, #12]
 8080242:	463e      	mov	r6, r7
 8080244:	c60f      	stmia	r6!, {r0, r1, r2, r3}
 8080246:	3510      	adds	r5, #16
 8080248:	4565      	cmp	r5, ip
 808024a:	4637      	mov	r7, r6
 808024c:	d1f5      	bne.n	808023a <sha_transform+0x12>
 808024e:	e9dd 8704 	ldrd	r8, r7, [sp, #16]
 8080252:	e9dd 6011 	ldrd	r6, r0, [sp, #68]	; 0x44
 8080256:	9a13      	ldr	r2, [sp, #76]	; 0x4c
 8080258:	46a6      	mov	lr, r4
 808025a:	ab04      	add	r3, sp, #16
 808025c:	463c      	mov	r4, r7
 808025e:	f04f 0c10 	mov.w	ip, #16
 8080262:	4647      	mov	r7, r8
 8080264:	6a99      	ldr	r1, [r3, #40]	; 0x28
 8080266:	689d      	ldr	r5, [r3, #8]
 8080268:	4060      	eors	r0, r4
 808026a:	691c      	ldr	r4, [r3, #16]
 808026c:	ea81 0804 	eor.w	r8, r1, r4
 8080270:	6a19      	ldr	r1, [r3, #32]
 8080272:	407e      	eors	r6, r7
 8080274:	404e      	eors	r6, r1
 8080276:	6a59      	ldr	r1, [r3, #36]	; 0x24
 8080278:	68df      	ldr	r7, [r3, #12]
 808027a:	4048      	eors	r0, r1
 808027c:	ea82 0208 	eor.w	r2, r2, r8
 8080280:	f10c 0c03 	add.w	ip, ip, #3
 8080284:	406a      	eors	r2, r5
 8080286:	406e      	eors	r6, r5
 8080288:	4078      	eors	r0, r7
 808028a:	f1bc 0f4f 	cmp.w	ip, #79	; 0x4f
 808028e:	649a      	str	r2, [r3, #72]	; 0x48
 8080290:	e9c3 6010 	strd	r6, r0, [r3, #64]	; 0x40
 8080294:	f103 030c 	add.w	r3, r3, #12
 8080298:	d1e4      	bne.n	8080264 <sha_transform+0x3c>
 808029a:	e9de 5302 	ldrd	r5, r3, [lr, #8]
 808029e:	9301      	str	r3, [sp, #4]
 80802a0:	f8de 3010 	ldr.w	r3, [lr, #16]
 80802a4:	9850      	ldr	r0, [sp, #320]	; 0x140
 80802a6:	9302      	str	r3, [sp, #8]
 80802a8:	9b4b      	ldr	r3, [sp, #300]	; 0x12c
 80802aa:	9945      	ldr	r1, [sp, #276]	; 0x114
 80802ac:	9a43      	ldr	r2, [sp, #268]	; 0x10c
 80802ae:	f8df c11c 	ldr.w	ip, [pc, #284]	; 80803cc <sha_transform+0x1a4>
 80802b2:	e9de 7600 	ldrd	r7, r6, [lr]
 80802b6:	4043      	eors	r3, r0
 80802b8:	4059      	eors	r1, r3
 80802ba:	404a      	eors	r2, r1
 80802bc:	4674      	mov	r4, lr
 80802be:	9253      	str	r2, [sp, #332]	; 0x14c
 80802c0:	4639      	mov	r1, r7
 80802c2:	46b0      	mov	r8, r6
 80802c4:	462a      	mov	r2, r5
 80802c6:	e9dd 0901 	ldrd	r0, r9, [sp, #4]
 80802ca:	f10d 0e0c 	add.w	lr, sp, #12
 80802ce:	f10d 0a5c 	add.w	sl, sp, #92	; 0x5c
 80802d2:	e002      	b.n	80802da <sha_transform+0xb2>
 80802d4:	4610      	mov	r0, r2
 80802d6:	4619      	mov	r1, r3
 80802d8:	465a      	mov	r2, fp
 80802da:	f85e 3f04 	ldr.w	r3, [lr, #4]!
 80802de:	ea82 0b00 	eor.w	fp, r2, r0
 80802e2:	ea0b 0b08 	and.w	fp, fp, r8
 80802e6:	4463      	add	r3, ip
 80802e8:	ea8b 0b00 	eor.w	fp, fp, r0
 80802ec:	eb03 63f1 	add.w	r3, r3, r1, ror #27
 80802f0:	445b      	add	r3, fp
 80802f2:	45f2      	cmp	sl, lr
 80802f4:	444b      	add	r3, r9
 80802f6:	ea4f 0bb8 	mov.w	fp, r8, ror #2
 80802fa:	4681      	mov	r9, r0
 80802fc:	4688      	mov	r8, r1
 80802fe:	d1e9      	bne.n	80802d4 <sha_transform+0xac>
 8080300:	f10d 085c 	add.w	r8, sp, #92	; 0x5c
 8080304:	f10d 09ac 	add.w	r9, sp, #172	; 0xac
 8080308:	f8df a0c4 	ldr.w	sl, [pc, #196]	; 80803d0 <sha_transform+0x1a8>
 808030c:	9403      	str	r4, [sp, #12]
 808030e:	e002      	b.n	8080316 <sha_transform+0xee>
 8080310:	465a      	mov	r2, fp
 8080312:	4663      	mov	r3, ip
 8080314:	46f3      	mov	fp, lr
 8080316:	f858 4f04 	ldr.w	r4, [r8, #4]!
 808031a:	ea81 0e0b 	eor.w	lr, r1, fp
 808031e:	eb04 0c0a 	add.w	ip, r4, sl
 8080322:	ea8e 0e02 	eor.w	lr, lr, r2
 8080326:	eb0c 6cf3 	add.w	ip, ip, r3, ror #27
 808032a:	44f4      	add	ip, lr
 808032c:	45c1      	cmp	r9, r8
 808032e:	4484      	add	ip, r0
 8080330:	ea4f 0eb1 	mov.w	lr, r1, ror #2
 8080334:	4610      	mov	r0, r2
 8080336:	4619      	mov	r1, r3
 8080338:	d1ea      	bne.n	8080310 <sha_transform+0xe8>
 808033a:	a93f      	add	r1, sp, #252	; 0xfc
 808033c:	9c03      	ldr	r4, [sp, #12]
 808033e:	f10d 09ac 	add.w	r9, sp, #172	; 0xac
 8080342:	4688      	mov	r8, r1
 8080344:	e002      	b.n	808034c <sha_transform+0x124>
 8080346:	46f3      	mov	fp, lr
 8080348:	468c      	mov	ip, r1
 808034a:	46d6      	mov	lr, sl
 808034c:	f859 0f04 	ldr.w	r0, [r9, #4]!
 8080350:	f8df a080 	ldr.w	sl, [pc, #128]	; 80803d4 <sha_transform+0x1ac>
 8080354:	ea4e 010b 	orr.w	r1, lr, fp
 8080358:	4482      	add	sl, r0
 808035a:	ea01 0003 	and.w	r0, r1, r3
 808035e:	ea0e 010b 	and.w	r1, lr, fp
 8080362:	eb0a 6afc 	add.w	sl, sl, ip, ror #27
 8080366:	4301      	orrs	r1, r0
 8080368:	4451      	add	r1, sl
 808036a:	45c1      	cmp	r9, r8
 808036c:	ea4f 0ab3 	mov.w	sl, r3, ror #2
 8080370:	4411      	add	r1, r2
 8080372:	4663      	mov	r3, ip
 8080374:	465a      	mov	r2, fp
 8080376:	d1e6      	bne.n	8080346 <sha_transform+0x11e>
 8080378:	f50d 78a6 	add.w	r8, sp, #332	; 0x14c
 808037c:	a83f      	add	r0, sp, #252	; 0xfc
 808037e:	f8df 9058 	ldr.w	r9, [pc, #88]	; 80803d8 <sha_transform+0x1b0>
 8080382:	e002      	b.n	808038a <sha_transform+0x162>
 8080384:	46d6      	mov	lr, sl
 8080386:	4619      	mov	r1, r3
 8080388:	4692      	mov	sl, r2
 808038a:	f850 3f04 	ldr.w	r3, [r0, #4]!
 808038e:	ea8c 020a 	eor.w	r2, ip, sl
 8080392:	444b      	add	r3, r9
 8080394:	ea82 020e 	eor.w	r2, r2, lr
 8080398:	eb03 63f1 	add.w	r3, r3, r1, ror #27
 808039c:	4413      	add	r3, r2
 808039e:	4580      	cmp	r8, r0
 80803a0:	445b      	add	r3, fp
 80803a2:	ea4f 02bc 	mov.w	r2, ip, ror #2
 80803a6:	46f3      	mov	fp, lr
 80803a8:	468c      	mov	ip, r1
 80803aa:	d1eb      	bne.n	8080384 <sha_transform+0x15c>
 80803ac:	441f      	add	r7, r3
 80803ae:	9b01      	ldr	r3, [sp, #4]
 80803b0:	4453      	add	r3, sl
 80803b2:	4415      	add	r5, r2
 80803b4:	461a      	mov	r2, r3
 80803b6:	9b02      	ldr	r3, [sp, #8]
 80803b8:	4431      	add	r1, r6
 80803ba:	4473      	add	r3, lr
 80803bc:	e9c4 7100 	strd	r7, r1, [r4]
 80803c0:	e9c4 5202 	strd	r5, r2, [r4, #8]
 80803c4:	6123      	str	r3, [r4, #16]
 80803c6:	b055      	add	sp, #340	; 0x154
 80803c8:	e8bd 8ff0 	ldmia.w	sp!, {r4, r5, r6, r7, r8, r9, sl, fp, pc}
 80803cc:	5a827999 	.word	0x5a827999
 80803d0:	6ed9eba1 	.word	0x6ed9eba1
 80803d4:	8f1bbcdc 	.word	0x8f1bbcdc
 80803d8:	ca62c1d6 	.word	0xca62c1d6

080803dc <sha_init>:
 80803dc:	b430      	push	{r4, r5}
 80803de:	4b07      	ldr	r3, [pc, #28]	; (80803fc <sha_init+0x20>)
 80803e0:	4d07      	ldr	r5, [pc, #28]	; (8080400 <sha_init+0x24>)
 80803e2:	4c08      	ldr	r4, [pc, #32]	; (8080404 <sha_init+0x28>)
 80803e4:	4908      	ldr	r1, [pc, #32]	; (8080408 <sha_init+0x2c>)
 80803e6:	4a09      	ldr	r2, [pc, #36]	; (808040c <sha_init+0x30>)
 80803e8:	6003      	str	r3, [r0, #0]
 80803ea:	2300      	movs	r3, #0
 80803ec:	e9c0 5401 	strd	r5, r4, [r0, #4]
 80803f0:	e9c0 1203 	strd	r1, r2, [r0, #12]
 80803f4:	e9c0 3305 	strd	r3, r3, [r0, #20]
 80803f8:	bc30      	pop	{r4, r5}
 80803fa:	4770      	bx	lr
 80803fc:	67452301 	.word	0x67452301
 8080400:	efcdab89 	.word	0xefcdab89
 8080404:	98badcfe 	.word	0x98badcfe
 8080408:	10325476 	.word	0x10325476
 808040c:	c3d2e1f0 	.word	0xc3d2e1f0

08080410 <sha_update>:
 8080410:	e92d 43f8 	stmdb	sp!, {r3, r4, r5, r6, r7, r8, r9, lr}
 8080414:	6943      	ldr	r3, [r0, #20]
 8080416:	4604      	mov	r4, r0
 8080418:	00d0      	lsls	r0, r2, #3
 808041a:	181b      	adds	r3, r3, r0
 808041c:	bf2c      	ite	cs
 808041e:	2501      	movcs	r5, #1
 8080420:	2500      	movcc	r5, #0
 8080422:	4616      	mov	r6, r2
 8080424:	69a0      	ldr	r0, [r4, #24]
 8080426:	b105      	cbz	r5, 808042a <sha_update+0x1a>
 8080428:	3001      	adds	r0, #1
 808042a:	eb00 7052 	add.w	r0, r0, r2, lsr #29
 808042e:	2a3f      	cmp	r2, #63	; 0x3f
 8080430:	e9c4 3005 	strd	r3, r0, [r4, #20]
 8080434:	f104 091c 	add.w	r9, r4, #28
 8080438:	f340 811f 	ble.w	808067a <sha_update+0x26a>
 808043c:	f1a2 0640 	sub.w	r6, r2, #64	; 0x40
 8080440:	09b7      	lsrs	r7, r6, #6
 8080442:	f107 0801 	add.w	r8, r7, #1
 8080446:	eb01 1888 	add.w	r8, r1, r8, lsl #6
 808044a:	460d      	mov	r5, r1
 808044c:	f101 0240 	add.w	r2, r1, #64	; 0x40
 8080450:	464b      	mov	r3, r9
 8080452:	f8d5 c000 	ldr.w	ip, [r5]
 8080456:	6868      	ldr	r0, [r5, #4]
 8080458:	68a9      	ldr	r1, [r5, #8]
 808045a:	f8d5 e00c 	ldr.w	lr, [r5, #12]
 808045e:	f8c3 e00c 	str.w	lr, [r3, #12]
 8080462:	3510      	adds	r5, #16
 8080464:	4295      	cmp	r5, r2
 8080466:	f8c3 c000 	str.w	ip, [r3]
 808046a:	6058      	str	r0, [r3, #4]
 808046c:	6099      	str	r1, [r3, #8]
 808046e:	f103 0310 	add.w	r3, r3, #16
 8080472:	d1ee      	bne.n	8080452 <sha_update+0x42>
 8080474:	7f20      	ldrb	r0, [r4, #28]
 8080476:	7fe1      	ldrb	r1, [r4, #31]
 8080478:	7f62      	ldrb	r2, [r4, #29]
 808047a:	7fa3      	ldrb	r3, [r4, #30]
 808047c:	77e0      	strb	r0, [r4, #31]
 808047e:	7721      	strb	r1, [r4, #28]
 8080480:	f894 0020 	ldrb.w	r0, [r4, #32]
 8080484:	f894 1023 	ldrb.w	r1, [r4, #35]	; 0x23
 8080488:	77a2      	strb	r2, [r4, #30]
 808048a:	7763      	strb	r3, [r4, #29]
 808048c:	f894 2021 	ldrb.w	r2, [r4, #33]	; 0x21
 8080490:	f894 3022 	ldrb.w	r3, [r4, #34]	; 0x22
 8080494:	f884 0023 	strb.w	r0, [r4, #35]	; 0x23
 8080498:	f884 1020 	strb.w	r1, [r4, #32]
 808049c:	f894 0024 	ldrb.w	r0, [r4, #36]	; 0x24
 80804a0:	f894 1027 	ldrb.w	r1, [r4, #39]	; 0x27
 80804a4:	f884 2022 	strb.w	r2, [r4, #34]	; 0x22
 80804a8:	f884 3021 	strb.w	r3, [r4, #33]	; 0x21
 80804ac:	f894 2025 	ldrb.w	r2, [r4, #37]	; 0x25
 80804b0:	f894 3026 	ldrb.w	r3, [r4, #38]	; 0x26
 80804b4:	f884 0027 	strb.w	r0, [r4, #39]	; 0x27
 80804b8:	f884 1024 	strb.w	r1, [r4, #36]	; 0x24
 80804bc:	f894 0028 	ldrb.w	r0, [r4, #40]	; 0x28
 80804c0:	f894 102b 	ldrb.w	r1, [r4, #43]	; 0x2b
 80804c4:	f884 2026 	strb.w	r2, [r4, #38]	; 0x26
 80804c8:	f884 3025 	strb.w	r3, [r4, #37]	; 0x25
 80804cc:	f894 2029 	ldrb.w	r2, [r4, #41]	; 0x29
 80804d0:	f894 302a 	ldrb.w	r3, [r4, #42]	; 0x2a
 80804d4:	f884 1028 	strb.w	r1, [r4, #40]	; 0x28
 80804d8:	f884 202a 	strb.w	r2, [r4, #42]	; 0x2a
 80804dc:	f884 3029 	strb.w	r3, [r4, #41]	; 0x29
 80804e0:	f884 002b 	strb.w	r0, [r4, #43]	; 0x2b
 80804e4:	f894 002c 	ldrb.w	r0, [r4, #44]	; 0x2c
 80804e8:	f894 102f 	ldrb.w	r1, [r4, #47]	; 0x2f
 80804ec:	f894 202d 	ldrb.w	r2, [r4, #45]	; 0x2d
 80804f0:	f894 302e 	ldrb.w	r3, [r4, #46]	; 0x2e
 80804f4:	f884 002f 	strb.w	r0, [r4, #47]	; 0x2f
 80804f8:	f884 102c 	strb.w	r1, [r4, #44]	; 0x2c
 80804fc:	f894 0030 	ldrb.w	r0, [r4, #48]	; 0x30
 8080500:	f894 1033 	ldrb.w	r1, [r4, #51]	; 0x33
 8080504:	f884 202e 	strb.w	r2, [r4, #46]	; 0x2e
 8080508:	f884 302d 	strb.w	r3, [r4, #45]	; 0x2d
 808050c:	f894 2031 	ldrb.w	r2, [r4, #49]	; 0x31
 8080510:	f894 3032 	ldrb.w	r3, [r4, #50]	; 0x32
 8080514:	f884 0033 	strb.w	r0, [r4, #51]	; 0x33
 8080518:	f884 1030 	strb.w	r1, [r4, #48]	; 0x30
 808051c:	f894 0034 	ldrb.w	r0, [r4, #52]	; 0x34
 8080520:	f894 1037 	ldrb.w	r1, [r4, #55]	; 0x37
 8080524:	f884 2032 	strb.w	r2, [r4, #50]	; 0x32
 8080528:	f884 3031 	strb.w	r3, [r4, #49]	; 0x31
 808052c:	f894 2035 	ldrb.w	r2, [r4, #53]	; 0x35
 8080530:	f894 3036 	ldrb.w	r3, [r4, #54]	; 0x36
 8080534:	f884 0037 	strb.w	r0, [r4, #55]	; 0x37
 8080538:	f884 1034 	strb.w	r1, [r4, #52]	; 0x34
 808053c:	f894 0038 	ldrb.w	r0, [r4, #56]	; 0x38
 8080540:	f894 103b 	ldrb.w	r1, [r4, #59]	; 0x3b
 8080544:	f884 2036 	strb.w	r2, [r4, #54]	; 0x36
 8080548:	f884 3035 	strb.w	r3, [r4, #53]	; 0x35
 808054c:	f894 2039 	ldrb.w	r2, [r4, #57]	; 0x39
 8080550:	f894 303a 	ldrb.w	r3, [r4, #58]	; 0x3a
 8080554:	f884 1038 	strb.w	r1, [r4, #56]	; 0x38
 8080558:	f884 203a 	strb.w	r2, [r4, #58]	; 0x3a
 808055c:	f884 3039 	strb.w	r3, [r4, #57]	; 0x39
 8080560:	f884 003b 	strb.w	r0, [r4, #59]	; 0x3b
 8080564:	f894 003c 	ldrb.w	r0, [r4, #60]	; 0x3c
 8080568:	f894 103f 	ldrb.w	r1, [r4, #63]	; 0x3f
 808056c:	f894 203d 	ldrb.w	r2, [r4, #61]	; 0x3d
 8080570:	f894 303e 	ldrb.w	r3, [r4, #62]	; 0x3e
 8080574:	f884 003f 	strb.w	r0, [r4, #63]	; 0x3f
 8080578:	f884 103c 	strb.w	r1, [r4, #60]	; 0x3c
 808057c:	f894 0040 	ldrb.w	r0, [r4, #64]	; 0x40
 8080580:	f894 1043 	ldrb.w	r1, [r4, #67]	; 0x43
 8080584:	f884 203e 	strb.w	r2, [r4, #62]	; 0x3e
 8080588:	f884 303d 	strb.w	r3, [r4, #61]	; 0x3d
 808058c:	f894 2041 	ldrb.w	r2, [r4, #65]	; 0x41
 8080590:	f894 3042 	ldrb.w	r3, [r4, #66]	; 0x42
 8080594:	f884 0043 	strb.w	r0, [r4, #67]	; 0x43
 8080598:	f884 1040 	strb.w	r1, [r4, #64]	; 0x40
 808059c:	f894 0044 	ldrb.w	r0, [r4, #68]	; 0x44
 80805a0:	f894 1047 	ldrb.w	r1, [r4, #71]	; 0x47
 80805a4:	f884 2042 	strb.w	r2, [r4, #66]	; 0x42
 80805a8:	f884 3041 	strb.w	r3, [r4, #65]	; 0x41
 80805ac:	f894 2045 	ldrb.w	r2, [r4, #69]	; 0x45
 80805b0:	f894 3046 	ldrb.w	r3, [r4, #70]	; 0x46
 80805b4:	f884 0047 	strb.w	r0, [r4, #71]	; 0x47
 80805b8:	f884 1044 	strb.w	r1, [r4, #68]	; 0x44
 80805bc:	f894 0048 	ldrb.w	r0, [r4, #72]	; 0x48
 80805c0:	f894 104b 	ldrb.w	r1, [r4, #75]	; 0x4b
 80805c4:	f884 2046 	strb.w	r2, [r4, #70]	; 0x46
 80805c8:	f884 3045 	strb.w	r3, [r4, #69]	; 0x45
 80805cc:	f894 2049 	ldrb.w	r2, [r4, #73]	; 0x49
 80805d0:	f894 304a 	ldrb.w	r3, [r4, #74]	; 0x4a
 80805d4:	f884 1048 	strb.w	r1, [r4, #72]	; 0x48
 80805d8:	f884 204a 	strb.w	r2, [r4, #74]	; 0x4a
 80805dc:	f884 3049 	strb.w	r3, [r4, #73]	; 0x49
 80805e0:	f884 004b 	strb.w	r0, [r4, #75]	; 0x4b
 80805e4:	f894 004c 	ldrb.w	r0, [r4, #76]	; 0x4c
 80805e8:	f894 104f 	ldrb.w	r1, [r4, #79]	; 0x4f
 80805ec:	f894 204d 	ldrb.w	r2, [r4, #77]	; 0x4d
 80805f0:	f894 304e 	ldrb.w	r3, [r4, #78]	; 0x4e
 80805f4:	f884 004f 	strb.w	r0, [r4, #79]	; 0x4f
 80805f8:	f884 104c 	strb.w	r1, [r4, #76]	; 0x4c
 80805fc:	f894 0050 	ldrb.w	r0, [r4, #80]	; 0x50
 8080600:	f894 1053 	ldrb.w	r1, [r4, #83]	; 0x53
 8080604:	f884 204e 	strb.w	r2, [r4, #78]	; 0x4e
 8080608:	f884 304d 	strb.w	r3, [r4, #77]	; 0x4d
 808060c:	f894 2051 	ldrb.w	r2, [r4, #81]	; 0x51
 8080610:	f894 3052 	ldrb.w	r3, [r4, #82]	; 0x52
 8080614:	f884 0053 	strb.w	r0, [r4, #83]	; 0x53
 8080618:	f884 1050 	strb.w	r1, [r4, #80]	; 0x50
 808061c:	f894 0054 	ldrb.w	r0, [r4, #84]	; 0x54
 8080620:	f894 1057 	ldrb.w	r1, [r4, #87]	; 0x57
 8080624:	f884 2052 	strb.w	r2, [r4, #82]	; 0x52
 8080628:	f884 3051 	strb.w	r3, [r4, #81]	; 0x51
 808062c:	f894 2055 	ldrb.w	r2, [r4, #85]	; 0x55
 8080630:	f894 3056 	ldrb.w	r3, [r4, #86]	; 0x56
 8080634:	f884 0057 	strb.w	r0, [r4, #87]	; 0x57
 8080638:	f884 1054 	strb.w	r1, [r4, #84]	; 0x54
 808063c:	f894 0058 	ldrb.w	r0, [r4, #88]	; 0x58
 8080640:	f894 105b 	ldrb.w	r1, [r4, #91]	; 0x5b
 8080644:	f884 2056 	strb.w	r2, [r4, #86]	; 0x56
 8080648:	f884 3055 	strb.w	r3, [r4, #85]	; 0x55
 808064c:	f894 2059 	ldrb.w	r2, [r4, #89]	; 0x59
 8080650:	f894 305a 	ldrb.w	r3, [r4, #90]	; 0x5a
 8080654:	f884 005b 	strb.w	r0, [r4, #91]	; 0x5b
 8080658:	f884 1058 	strb.w	r1, [r4, #88]	; 0x58
 808065c:	f884 205a 	strb.w	r2, [r4, #90]	; 0x5a
 8080660:	f884 3059 	strb.w	r3, [r4, #89]	; 0x59
 8080664:	4620      	mov	r0, r4
 8080666:	f7ff fddf 	bl	8080228 <sha_transform>
 808066a:	4545      	cmp	r5, r8
 808066c:	4629      	mov	r1, r5
 808066e:	f47f aeec 	bne.w	808044a <sha_update+0x3a>
 8080672:	ebc7 6787 	rsb	r7, r7, r7, lsl #26
 8080676:	eb06 1687 	add.w	r6, r6, r7, lsl #6
 808067a:	4632      	mov	r2, r6
 808067c:	4648      	mov	r0, r9
 808067e:	e8bd 43f8 	ldmia.w	sp!, {r3, r4, r5, r6, r7, r8, r9, lr}
 8080682:	f007 be1f 	b.w	80882c4 <memcpy>
 8080686:	bf00      	nop

08080688 <sha_final>:
 8080688:	e92d 41f0 	stmdb	sp!, {r4, r5, r6, r7, r8, lr}
 808068c:	e9d0 6805 	ldrd	r6, r8, [r0, #20]
 8080690:	f3c6 03c5 	ubfx	r3, r6, #3, #6
 8080694:	f100 051c 	add.w	r5, r0, #28
 8080698:	1c5a      	adds	r2, r3, #1
 808069a:	2180      	movs	r1, #128	; 0x80
 808069c:	2a38      	cmp	r2, #56	; 0x38
 808069e:	4604      	mov	r4, r0
 80806a0:	54e9      	strb	r1, [r5, r3]
 80806a2:	eb05 0002 	add.w	r0, r5, r2
 80806a6:	f340 81e5 	ble.w	8080a74 <sha_final+0x3ec>
 80806aa:	f1c2 0240 	rsb	r2, r2, #64	; 0x40
 80806ae:	2100      	movs	r1, #0
 80806b0:	f007 fe13 	bl	80882da <memset>
 80806b4:	7f20      	ldrb	r0, [r4, #28]
 80806b6:	7fe1      	ldrb	r1, [r4, #31]
 80806b8:	7f62      	ldrb	r2, [r4, #29]
 80806ba:	7fa3      	ldrb	r3, [r4, #30]
 80806bc:	77e0      	strb	r0, [r4, #31]
 80806be:	7721      	strb	r1, [r4, #28]
 80806c0:	f894 0020 	ldrb.w	r0, [r4, #32]
 80806c4:	f894 1023 	ldrb.w	r1, [r4, #35]	; 0x23
 80806c8:	77a2      	strb	r2, [r4, #30]
 80806ca:	7763      	strb	r3, [r4, #29]
 80806cc:	f894 2021 	ldrb.w	r2, [r4, #33]	; 0x21
 80806d0:	f894 3022 	ldrb.w	r3, [r4, #34]	; 0x22
 80806d4:	f884 0023 	strb.w	r0, [r4, #35]	; 0x23
 80806d8:	f884 1020 	strb.w	r1, [r4, #32]
 80806dc:	f894 0024 	ldrb.w	r0, [r4, #36]	; 0x24
 80806e0:	f894 1027 	ldrb.w	r1, [r4, #39]	; 0x27
 80806e4:	f884 2022 	strb.w	r2, [r4, #34]	; 0x22
 80806e8:	f884 3021 	strb.w	r3, [r4, #33]	; 0x21
 80806ec:	f894 2025 	ldrb.w	r2, [r4, #37]	; 0x25
 80806f0:	f894 3026 	ldrb.w	r3, [r4, #38]	; 0x26
 80806f4:	f884 0027 	strb.w	r0, [r4, #39]	; 0x27
 80806f8:	f884 1024 	strb.w	r1, [r4, #36]	; 0x24
 80806fc:	f894 0028 	ldrb.w	r0, [r4, #40]	; 0x28
 8080700:	f894 102b 	ldrb.w	r1, [r4, #43]	; 0x2b
 8080704:	f884 2026 	strb.w	r2, [r4, #38]	; 0x26
 8080708:	f884 3025 	strb.w	r3, [r4, #37]	; 0x25
 808070c:	f894 2029 	ldrb.w	r2, [r4, #41]	; 0x29
 8080710:	f894 302a 	ldrb.w	r3, [r4, #42]	; 0x2a
 8080714:	f884 1028 	strb.w	r1, [r4, #40]	; 0x28
 8080718:	f884 202a 	strb.w	r2, [r4, #42]	; 0x2a
 808071c:	f884 3029 	strb.w	r3, [r4, #41]	; 0x29
 8080720:	f884 002b 	strb.w	r0, [r4, #43]	; 0x2b
 8080724:	f894 002c 	ldrb.w	r0, [r4, #44]	; 0x2c
 8080728:	f894 102f 	ldrb.w	r1, [r4, #47]	; 0x2f
 808072c:	f894 202d 	ldrb.w	r2, [r4, #45]	; 0x2d
 8080730:	f894 302e 	ldrb.w	r3, [r4, #46]	; 0x2e
 8080734:	f884 002f 	strb.w	r0, [r4, #47]	; 0x2f
 8080738:	f884 102c 	strb.w	r1, [r4, #44]	; 0x2c
 808073c:	f894 0030 	ldrb.w	r0, [r4, #48]	; 0x30
 8080740:	f894 1033 	ldrb.w	r1, [r4, #51]	; 0x33
 8080744:	f884 202e 	strb.w	r2, [r4, #46]	; 0x2e
 8080748:	f884 302d 	strb.w	r3, [r4, #45]	; 0x2d
 808074c:	f894 2031 	ldrb.w	r2, [r4, #49]	; 0x31
 8080750:	f894 3032 	ldrb.w	r3, [r4, #50]	; 0x32
 8080754:	f884 0033 	strb.w	r0, [r4, #51]	; 0x33
 8080758:	f884 1030 	strb.w	r1, [r4, #48]	; 0x30
 808075c:	f894 0034 	ldrb.w	r0, [r4, #52]	; 0x34
 8080760:	f894 1037 	ldrb.w	r1, [r4, #55]	; 0x37
 8080764:	f884 2032 	strb.w	r2, [r4, #50]	; 0x32
 8080768:	f884 3031 	strb.w	r3, [r4, #49]	; 0x31
 808076c:	f894 2035 	ldrb.w	r2, [r4, #53]	; 0x35
 8080770:	f894 3036 	ldrb.w	r3, [r4, #54]	; 0x36
 8080774:	f884 0037 	strb.w	r0, [r4, #55]	; 0x37
 8080778:	f884 1034 	strb.w	r1, [r4, #52]	; 0x34
 808077c:	f894 0038 	ldrb.w	r0, [r4, #56]	; 0x38
 8080780:	f894 103b 	ldrb.w	r1, [r4, #59]	; 0x3b
 8080784:	f884 2036 	strb.w	r2, [r4, #54]	; 0x36
 8080788:	f884 3035 	strb.w	r3, [r4, #53]	; 0x35
 808078c:	f894 2039 	ldrb.w	r2, [r4, #57]	; 0x39
 8080790:	f894 303a 	ldrb.w	r3, [r4, #58]	; 0x3a
 8080794:	f884 1038 	strb.w	r1, [r4, #56]	; 0x38
 8080798:	f884 203a 	strb.w	r2, [r4, #58]	; 0x3a
 808079c:	f884 3039 	strb.w	r3, [r4, #57]	; 0x39
 80807a0:	f884 003b 	strb.w	r0, [r4, #59]	; 0x3b
 80807a4:	f894 003c 	ldrb.w	r0, [r4, #60]	; 0x3c
 80807a8:	f894 103f 	ldrb.w	r1, [r4, #63]	; 0x3f
 80807ac:	f894 203d 	ldrb.w	r2, [r4, #61]	; 0x3d
 80807b0:	f894 303e 	ldrb.w	r3, [r4, #62]	; 0x3e
 80807b4:	f884 003f 	strb.w	r0, [r4, #63]	; 0x3f
 80807b8:	f884 103c 	strb.w	r1, [r4, #60]	; 0x3c
 80807bc:	f894 0040 	ldrb.w	r0, [r4, #64]	; 0x40
 80807c0:	f894 1043 	ldrb.w	r1, [r4, #67]	; 0x43
 80807c4:	f884 203e 	strb.w	r2, [r4, #62]	; 0x3e
 80807c8:	f884 303d 	strb.w	r3, [r4, #61]	; 0x3d
 80807cc:	f894 2041 	ldrb.w	r2, [r4, #65]	; 0x41
 80807d0:	f894 3042 	ldrb.w	r3, [r4, #66]	; 0x42
 80807d4:	f884 0043 	strb.w	r0, [r4, #67]	; 0x43
 80807d8:	f884 1040 	strb.w	r1, [r4, #64]	; 0x40
 80807dc:	f894 0044 	ldrb.w	r0, [r4, #68]	; 0x44
 80807e0:	f894 1047 	ldrb.w	r1, [r4, #71]	; 0x47
 80807e4:	f884 2042 	strb.w	r2, [r4, #66]	; 0x42
 80807e8:	f884 3041 	strb.w	r3, [r4, #65]	; 0x41
 80807ec:	f894 2045 	ldrb.w	r2, [r4, #69]	; 0x45
 80807f0:	f894 3046 	ldrb.w	r3, [r4, #70]	; 0x46
 80807f4:	f884 0047 	strb.w	r0, [r4, #71]	; 0x47
 80807f8:	f884 1044 	strb.w	r1, [r4, #68]	; 0x44
 80807fc:	f894 0048 	ldrb.w	r0, [r4, #72]	; 0x48
 8080800:	f894 104b 	ldrb.w	r1, [r4, #75]	; 0x4b
 8080804:	f884 2046 	strb.w	r2, [r4, #70]	; 0x46
 8080808:	f884 3045 	strb.w	r3, [r4, #69]	; 0x45
 808080c:	f894 2049 	ldrb.w	r2, [r4, #73]	; 0x49
 8080810:	f894 304a 	ldrb.w	r3, [r4, #74]	; 0x4a
 8080814:	f884 1048 	strb.w	r1, [r4, #72]	; 0x48
 8080818:	f884 204a 	strb.w	r2, [r4, #74]	; 0x4a
 808081c:	f884 3049 	strb.w	r3, [r4, #73]	; 0x49
 8080820:	f884 004b 	strb.w	r0, [r4, #75]	; 0x4b
 8080824:	f894 004c 	ldrb.w	r0, [r4, #76]	; 0x4c
 8080828:	f894 104f 	ldrb.w	r1, [r4, #79]	; 0x4f
 808082c:	f894 204d 	ldrb.w	r2, [r4, #77]	; 0x4d
 8080830:	f894 304e 	ldrb.w	r3, [r4, #78]	; 0x4e
 8080834:	f884 004f 	strb.w	r0, [r4, #79]	; 0x4f
 8080838:	f884 104c 	strb.w	r1, [r4, #76]	; 0x4c
 808083c:	f894 0050 	ldrb.w	r0, [r4, #80]	; 0x50
 8080840:	f894 1053 	ldrb.w	r1, [r4, #83]	; 0x53
 8080844:	f884 204e 	strb.w	r2, [r4, #78]	; 0x4e
 8080848:	f884 304d 	strb.w	r3, [r4, #77]	; 0x4d
 808084c:	f894 2051 	ldrb.w	r2, [r4, #81]	; 0x51
 8080850:	f894 3052 	ldrb.w	r3, [r4, #82]	; 0x52
 8080854:	f884 0053 	strb.w	r0, [r4, #83]	; 0x53
 8080858:	f884 1050 	strb.w	r1, [r4, #80]	; 0x50
 808085c:	f894 0054 	ldrb.w	r0, [r4, #84]	; 0x54
 8080860:	f894 1057 	ldrb.w	r1, [r4, #87]	; 0x57
 8080864:	f884 2052 	strb.w	r2, [r4, #82]	; 0x52
 8080868:	f884 3051 	strb.w	r3, [r4, #81]	; 0x51
 808086c:	f894 2055 	ldrb.w	r2, [r4, #85]	; 0x55
 8080870:	f894 3056 	ldrb.w	r3, [r4, #86]	; 0x56
 8080874:	f884 0057 	strb.w	r0, [r4, #87]	; 0x57
 8080878:	f884 1054 	strb.w	r1, [r4, #84]	; 0x54
 808087c:	f894 0058 	ldrb.w	r0, [r4, #88]	; 0x58
 8080880:	f894 105b 	ldrb.w	r1, [r4, #91]	; 0x5b
 8080884:	f884 2056 	strb.w	r2, [r4, #86]	; 0x56
 8080888:	f884 3055 	strb.w	r3, [r4, #85]	; 0x55
 808088c:	f894 2059 	ldrb.w	r2, [r4, #89]	; 0x59
 8080890:	f894 305a 	ldrb.w	r3, [r4, #90]	; 0x5a
 8080894:	f884 005b 	strb.w	r0, [r4, #91]	; 0x5b
 8080898:	f884 1058 	strb.w	r1, [r4, #88]	; 0x58
 808089c:	f884 205a 	strb.w	r2, [r4, #90]	; 0x5a
 80808a0:	4620      	mov	r0, r4
 80808a2:	f884 3059 	strb.w	r3, [r4, #89]	; 0x59
 80808a6:	f7ff fcbf 	bl	8080228 <sha_transform>
 80808aa:	4628      	mov	r0, r5
 80808ac:	2238      	movs	r2, #56	; 0x38
 80808ae:	2100      	movs	r1, #0
 80808b0:	f007 fd13 	bl	80882da <memset>
 80808b4:	7f20      	ldrb	r0, [r4, #28]
 80808b6:	7fe1      	ldrb	r1, [r4, #31]
 80808b8:	7f62      	ldrb	r2, [r4, #29]
 80808ba:	7fa3      	ldrb	r3, [r4, #30]
 80808bc:	77e0      	strb	r0, [r4, #31]
 80808be:	7721      	strb	r1, [r4, #28]
 80808c0:	f894 0020 	ldrb.w	r0, [r4, #32]
 80808c4:	f894 1023 	ldrb.w	r1, [r4, #35]	; 0x23
 80808c8:	77a2      	strb	r2, [r4, #30]
 80808ca:	7763      	strb	r3, [r4, #29]
 80808cc:	f894 2021 	ldrb.w	r2, [r4, #33]	; 0x21
 80808d0:	f894 3022 	ldrb.w	r3, [r4, #34]	; 0x22
 80808d4:	f884 0023 	strb.w	r0, [r4, #35]	; 0x23
 80808d8:	f884 1020 	strb.w	r1, [r4, #32]
 80808dc:	f894 0024 	ldrb.w	r0, [r4, #36]	; 0x24
 80808e0:	f894 1027 	ldrb.w	r1, [r4, #39]	; 0x27
 80808e4:	f884 2022 	strb.w	r2, [r4, #34]	; 0x22
 80808e8:	f884 3021 	strb.w	r3, [r4, #33]	; 0x21
 80808ec:	f894 2025 	ldrb.w	r2, [r4, #37]	; 0x25
 80808f0:	f894 3026 	ldrb.w	r3, [r4, #38]	; 0x26
 80808f4:	f884 0027 	strb.w	r0, [r4, #39]	; 0x27
 80808f8:	f884 1024 	strb.w	r1, [r4, #36]	; 0x24
 80808fc:	f894 0028 	ldrb.w	r0, [r4, #40]	; 0x28
 8080900:	f894 102b 	ldrb.w	r1, [r4, #43]	; 0x2b
 8080904:	f884 2026 	strb.w	r2, [r4, #38]	; 0x26
 8080908:	f884 3025 	strb.w	r3, [r4, #37]	; 0x25
 808090c:	f894 2029 	ldrb.w	r2, [r4, #41]	; 0x29
 8080910:	f894 302a 	ldrb.w	r3, [r4, #42]	; 0x2a
 8080914:	f884 1028 	strb.w	r1, [r4, #40]	; 0x28
 8080918:	f884 202a 	strb.w	r2, [r4, #42]	; 0x2a
 808091c:	f884 3029 	strb.w	r3, [r4, #41]	; 0x29
 8080920:	f884 002b 	strb.w	r0, [r4, #43]	; 0x2b
 8080924:	f894 002c 	ldrb.w	r0, [r4, #44]	; 0x2c
 8080928:	f894 102f 	ldrb.w	r1, [r4, #47]	; 0x2f
 808092c:	f894 202d 	ldrb.w	r2, [r4, #45]	; 0x2d
 8080930:	f894 302e 	ldrb.w	r3, [r4, #46]	; 0x2e
 8080934:	f884 002f 	strb.w	r0, [r4, #47]	; 0x2f
 8080938:	f884 102c 	strb.w	r1, [r4, #44]	; 0x2c
 808093c:	f894 0030 	ldrb.w	r0, [r4, #48]	; 0x30
 8080940:	f894 1033 	ldrb.w	r1, [r4, #51]	; 0x33
 8080944:	f884 202e 	strb.w	r2, [r4, #46]	; 0x2e
 8080948:	f884 302d 	strb.w	r3, [r4, #45]	; 0x2d
 808094c:	f894 2031 	ldrb.w	r2, [r4, #49]	; 0x31
 8080950:	f894 3032 	ldrb.w	r3, [r4, #50]	; 0x32
 8080954:	f884 0033 	strb.w	r0, [r4, #51]	; 0x33
 8080958:	f884 1030 	strb.w	r1, [r4, #48]	; 0x30
 808095c:	f894 0034 	ldrb.w	r0, [r4, #52]	; 0x34
 8080960:	f894 1037 	ldrb.w	r1, [r4, #55]	; 0x37
 8080964:	f884 2032 	strb.w	r2, [r4, #50]	; 0x32
 8080968:	f884 3031 	strb.w	r3, [r4, #49]	; 0x31
 808096c:	f894 2035 	ldrb.w	r2, [r4, #53]	; 0x35
 8080970:	f894 3036 	ldrb.w	r3, [r4, #54]	; 0x36
 8080974:	f884 0037 	strb.w	r0, [r4, #55]	; 0x37
 8080978:	f884 1034 	strb.w	r1, [r4, #52]	; 0x34
 808097c:	f894 0038 	ldrb.w	r0, [r4, #56]	; 0x38
 8080980:	f894 103b 	ldrb.w	r1, [r4, #59]	; 0x3b
 8080984:	f884 2036 	strb.w	r2, [r4, #54]	; 0x36
 8080988:	f884 3035 	strb.w	r3, [r4, #53]	; 0x35
 808098c:	f894 2039 	ldrb.w	r2, [r4, #57]	; 0x39
 8080990:	f894 303a 	ldrb.w	r3, [r4, #58]	; 0x3a
 8080994:	f884 1038 	strb.w	r1, [r4, #56]	; 0x38
 8080998:	f884 203a 	strb.w	r2, [r4, #58]	; 0x3a
 808099c:	f884 3039 	strb.w	r3, [r4, #57]	; 0x39
 80809a0:	f884 003b 	strb.w	r0, [r4, #59]	; 0x3b
 80809a4:	f894 003c 	ldrb.w	r0, [r4, #60]	; 0x3c
 80809a8:	f894 103f 	ldrb.w	r1, [r4, #63]	; 0x3f
 80809ac:	f894 203d 	ldrb.w	r2, [r4, #61]	; 0x3d
 80809b0:	f894 303e 	ldrb.w	r3, [r4, #62]	; 0x3e
 80809b4:	f884 003f 	strb.w	r0, [r4, #63]	; 0x3f
 80809b8:	f884 103c 	strb.w	r1, [r4, #60]	; 0x3c
 80809bc:	f894 0040 	ldrb.w	r0, [r4, #64]	; 0x40
 80809c0:	f894 1043 	ldrb.w	r1, [r4, #67]	; 0x43
 80809c4:	f884 203e 	strb.w	r2, [r4, #62]	; 0x3e
 80809c8:	f884 303d 	strb.w	r3, [r4, #61]	; 0x3d
 80809cc:	f894 2041 	ldrb.w	r2, [r4, #65]	; 0x41
 80809d0:	f894 3042 	ldrb.w	r3, [r4, #66]	; 0x42
 80809d4:	f884 0043 	strb.w	r0, [r4, #67]	; 0x43
 80809d8:	f884 1040 	strb.w	r1, [r4, #64]	; 0x40
 80809dc:	f894 0044 	ldrb.w	r0, [r4, #68]	; 0x44
 80809e0:	f894 1047 	ldrb.w	r1, [r4, #71]	; 0x47
 80809e4:	f884 2042 	strb.w	r2, [r4, #66]	; 0x42
 80809e8:	f884 3041 	strb.w	r3, [r4, #65]	; 0x41
 80809ec:	f894 2045 	ldrb.w	r2, [r4, #69]	; 0x45
 80809f0:	f894 3046 	ldrb.w	r3, [r4, #70]	; 0x46
 80809f4:	f884 0047 	strb.w	r0, [r4, #71]	; 0x47
 80809f8:	f884 1044 	strb.w	r1, [r4, #68]	; 0x44
 80809fc:	f894 0048 	ldrb.w	r0, [r4, #72]	; 0x48
 8080a00:	f894 104b 	ldrb.w	r1, [r4, #75]	; 0x4b
 8080a04:	f884 2046 	strb.w	r2, [r4, #70]	; 0x46
 8080a08:	f884 3045 	strb.w	r3, [r4, #69]	; 0x45
 8080a0c:	f894 2049 	ldrb.w	r2, [r4, #73]	; 0x49
 8080a10:	f894 304a 	ldrb.w	r3, [r4, #74]	; 0x4a
 8080a14:	f884 004b 	strb.w	r0, [r4, #75]	; 0x4b
 8080a18:	f884 1048 	strb.w	r1, [r4, #72]	; 0x48
 8080a1c:	f884 3049 	strb.w	r3, [r4, #73]	; 0x49
 8080a20:	f884 204a 	strb.w	r2, [r4, #74]	; 0x4a
 8080a24:	f894 204c 	ldrb.w	r2, [r4, #76]	; 0x4c
 8080a28:	f894 304f 	ldrb.w	r3, [r4, #79]	; 0x4f
 8080a2c:	f894 0050 	ldrb.w	r0, [r4, #80]	; 0x50
 8080a30:	f894 704d 	ldrb.w	r7, [r4, #77]	; 0x4d
 8080a34:	f894 504e 	ldrb.w	r5, [r4, #78]	; 0x4e
 8080a38:	f894 1053 	ldrb.w	r1, [r4, #83]	; 0x53
 8080a3c:	f884 204f 	strb.w	r2, [r4, #79]	; 0x4f
 8080a40:	f884 304c 	strb.w	r3, [r4, #76]	; 0x4c
 8080a44:	f894 2051 	ldrb.w	r2, [r4, #81]	; 0x51
 8080a48:	f894 3052 	ldrb.w	r3, [r4, #82]	; 0x52
 8080a4c:	f884 0053 	strb.w	r0, [r4, #83]	; 0x53
 8080a50:	f884 704e 	strb.w	r7, [r4, #78]	; 0x4e
 8080a54:	f884 504d 	strb.w	r5, [r4, #77]	; 0x4d
 8080a58:	f884 1050 	strb.w	r1, [r4, #80]	; 0x50
 8080a5c:	f884 2052 	strb.w	r2, [r4, #82]	; 0x52
 8080a60:	f884 3051 	strb.w	r3, [r4, #81]	; 0x51
 8080a64:	f8c4 8054 	str.w	r8, [r4, #84]	; 0x54
 8080a68:	65a6      	str	r6, [r4, #88]	; 0x58
 8080a6a:	4620      	mov	r0, r4
 8080a6c:	e8bd 41f0 	ldmia.w	sp!, {r4, r5, r6, r7, r8, lr}
 8080a70:	f7ff bbda 	b.w	8080228 <sha_transform>
 8080a74:	f1c2 0238 	rsb	r2, r2, #56	; 0x38
 8080a78:	2100      	movs	r1, #0
 8080a7a:	f007 fc2e 	bl	80882da <memset>
 8080a7e:	e719      	b.n	80808b4 <sha_final+0x22c>

08080a80 <sha_stream>:
 8080a80:	e92d 4ff0 	stmdb	sp!, {r4, r5, r6, r7, r8, r9, sl, fp, lr}
 8080a84:	4604      	mov	r4, r0
 8080a86:	f8df a314 	ldr.w	sl, [pc, #788]	; 8080d9c <sha_stream+0x31c>
 8080a8a:	4dbf      	ldr	r5, [pc, #764]	; (8080d88 <sha_stream+0x308>)
 8080a8c:	4ebf      	ldr	r6, [pc, #764]	; (8080d8c <sha_stream+0x30c>)
 8080a8e:	6045      	str	r5, [r0, #4]
 8080a90:	468b      	mov	fp, r1
 8080a92:	49bf      	ldr	r1, [pc, #764]	; (8080d90 <sha_stream+0x310>)
 8080a94:	f8da 3000 	ldr.w	r3, [sl]
 8080a98:	4abe      	ldr	r2, [pc, #760]	; (8080d94 <sha_stream+0x314>)
 8080a9a:	6006      	str	r6, [r0, #0]
 8080a9c:	60a1      	str	r1, [r4, #8]
 8080a9e:	f101 512c 	add.w	r1, r1, #721420288	; 0x2b000000
 8080aa2:	f501 11c0 	add.w	r1, r1, #1572864	; 0x180000
 8080aa6:	2500      	movs	r5, #0
 8080aa8:	f5ad 5d00 	sub.w	sp, sp, #8192	; 0x2000
 8080aac:	48ba      	ldr	r0, [pc, #744]	; (8080d98 <sha_stream+0x318>)
 8080aae:	60e0      	str	r0, [r4, #12]
 8080ab0:	f201 41f2 	addw	r1, r1, #1266	; 0x4f2
 8080ab4:	4293      	cmp	r3, r2
 8080ab6:	b081      	sub	sp, #4
 8080ab8:	e9c4 1504 	strd	r1, r5, [r4, #16]
 8080abc:	61a5      	str	r5, [r4, #24]
 8080abe:	f200 814f 	bhi.w	8080d60 <sha_stream+0x2e0>
 8080ac2:	4691      	mov	r9, r2
 8080ac4:	f503 5200 	add.w	r2, r3, #8192	; 0x2000
 8080ac8:	454a      	cmp	r2, r9
 8080aca:	f104 081c 	add.w	r8, r4, #28
 8080ace:	eb0b 0103 	add.w	r1, fp, r3
 8080ad2:	f200 8135 	bhi.w	8080d40 <sha_stream+0x2c0>
 8080ad6:	f44f 5200 	mov.w	r2, #8192	; 0x2000
 8080ada:	4668      	mov	r0, sp
 8080adc:	f007 fbf2 	bl	80882c4 <memcpy>
 8080ae0:	f44f 3380 	mov.w	r3, #65536	; 0x10000
 8080ae4:	18eb      	adds	r3, r5, r3
 8080ae6:	f080 8143 	bcs.w	8080d70 <sha_stream+0x2f0>
 8080aea:	6163      	str	r3, [r4, #20]
 8080aec:	f44f 5700 	mov.w	r7, #8192	; 0x2000
 8080af0:	46ee      	mov	lr, sp
 8080af2:	f10e 0640 	add.w	r6, lr, #64	; 0x40
 8080af6:	46c4      	mov	ip, r8
 8080af8:	4675      	mov	r5, lr
 8080afa:	cd0f      	ldmia	r5!, {r0, r1, r2, r3}
 8080afc:	42b5      	cmp	r5, r6
 8080afe:	f8cc 0000 	str.w	r0, [ip]
 8080b02:	f8cc 1004 	str.w	r1, [ip, #4]
 8080b06:	f8cc 2008 	str.w	r2, [ip, #8]
 8080b0a:	f8cc 300c 	str.w	r3, [ip, #12]
 8080b0e:	46ae      	mov	lr, r5
 8080b10:	f10c 0c10 	add.w	ip, ip, #16
 8080b14:	d1f0      	bne.n	8080af8 <sha_stream+0x78>
 8080b16:	7f20      	ldrb	r0, [r4, #28]
 8080b18:	7fe1      	ldrb	r1, [r4, #31]
 8080b1a:	7f62      	ldrb	r2, [r4, #29]
 8080b1c:	7fa3      	ldrb	r3, [r4, #30]
 8080b1e:	f894 c020 	ldrb.w	ip, [r4, #32]
 8080b22:	f894 5023 	ldrb.w	r5, [r4, #35]	; 0x23
 8080b26:	77e0      	strb	r0, [r4, #31]
 8080b28:	7721      	strb	r1, [r4, #28]
 8080b2a:	f894 0021 	ldrb.w	r0, [r4, #33]	; 0x21
 8080b2e:	f894 1022 	ldrb.w	r1, [r4, #34]	; 0x22
 8080b32:	77a2      	strb	r2, [r4, #30]
 8080b34:	7763      	strb	r3, [r4, #29]
 8080b36:	f894 2024 	ldrb.w	r2, [r4, #36]	; 0x24
 8080b3a:	f894 3027 	ldrb.w	r3, [r4, #39]	; 0x27
 8080b3e:	f884 c023 	strb.w	ip, [r4, #35]	; 0x23
 8080b42:	f884 5020 	strb.w	r5, [r4, #32]
 8080b46:	f894 c025 	ldrb.w	ip, [r4, #37]	; 0x25
 8080b4a:	f894 5026 	ldrb.w	r5, [r4, #38]	; 0x26
 8080b4e:	f884 0022 	strb.w	r0, [r4, #34]	; 0x22
 8080b52:	f884 1021 	strb.w	r1, [r4, #33]	; 0x21
 8080b56:	f894 0028 	ldrb.w	r0, [r4, #40]	; 0x28
 8080b5a:	f894 102b 	ldrb.w	r1, [r4, #43]	; 0x2b
 8080b5e:	f884 2027 	strb.w	r2, [r4, #39]	; 0x27
 8080b62:	f884 3024 	strb.w	r3, [r4, #36]	; 0x24
 8080b66:	f894 2029 	ldrb.w	r2, [r4, #41]	; 0x29
 8080b6a:	f894 302a 	ldrb.w	r3, [r4, #42]	; 0x2a
 8080b6e:	f884 c026 	strb.w	ip, [r4, #38]	; 0x26
 8080b72:	f884 5025 	strb.w	r5, [r4, #37]	; 0x25
 8080b76:	f884 1028 	strb.w	r1, [r4, #40]	; 0x28
 8080b7a:	f884 202a 	strb.w	r2, [r4, #42]	; 0x2a
 8080b7e:	f884 3029 	strb.w	r3, [r4, #41]	; 0x29
 8080b82:	f884 002b 	strb.w	r0, [r4, #43]	; 0x2b
 8080b86:	f894 002c 	ldrb.w	r0, [r4, #44]	; 0x2c
 8080b8a:	f894 102f 	ldrb.w	r1, [r4, #47]	; 0x2f
 8080b8e:	f894 202d 	ldrb.w	r2, [r4, #45]	; 0x2d
 8080b92:	f894 302e 	ldrb.w	r3, [r4, #46]	; 0x2e
 8080b96:	f894 c030 	ldrb.w	ip, [r4, #48]	; 0x30
 8080b9a:	f894 5033 	ldrb.w	r5, [r4, #51]	; 0x33
 8080b9e:	f884 002f 	strb.w	r0, [r4, #47]	; 0x2f
 8080ba2:	f884 102c 	strb.w	r1, [r4, #44]	; 0x2c
 8080ba6:	f894 0031 	ldrb.w	r0, [r4, #49]	; 0x31
 8080baa:	f894 1032 	ldrb.w	r1, [r4, #50]	; 0x32
 8080bae:	f884 202e 	strb.w	r2, [r4, #46]	; 0x2e
 8080bb2:	f884 302d 	strb.w	r3, [r4, #45]	; 0x2d
 8080bb6:	f894 2034 	ldrb.w	r2, [r4, #52]	; 0x34
 8080bba:	f894 3037 	ldrb.w	r3, [r4, #55]	; 0x37
 8080bbe:	f884 c033 	strb.w	ip, [r4, #51]	; 0x33
 8080bc2:	f884 5030 	strb.w	r5, [r4, #48]	; 0x30
 8080bc6:	f894 c035 	ldrb.w	ip, [r4, #53]	; 0x35
 8080bca:	f894 5036 	ldrb.w	r5, [r4, #54]	; 0x36
 8080bce:	f884 0032 	strb.w	r0, [r4, #50]	; 0x32
 8080bd2:	f884 1031 	strb.w	r1, [r4, #49]	; 0x31
 8080bd6:	f894 0038 	ldrb.w	r0, [r4, #56]	; 0x38
 8080bda:	f894 103b 	ldrb.w	r1, [r4, #59]	; 0x3b
 8080bde:	f884 2037 	strb.w	r2, [r4, #55]	; 0x37
 8080be2:	f884 3034 	strb.w	r3, [r4, #52]	; 0x34
 8080be6:	f894 2039 	ldrb.w	r2, [r4, #57]	; 0x39
 8080bea:	f894 303a 	ldrb.w	r3, [r4, #58]	; 0x3a
 8080bee:	f884 c036 	strb.w	ip, [r4, #54]	; 0x36
 8080bf2:	f884 5035 	strb.w	r5, [r4, #53]	; 0x35
 8080bf6:	f884 1038 	strb.w	r1, [r4, #56]	; 0x38
 8080bfa:	f884 203a 	strb.w	r2, [r4, #58]	; 0x3a
 8080bfe:	f884 3039 	strb.w	r3, [r4, #57]	; 0x39
 8080c02:	f884 003b 	strb.w	r0, [r4, #59]	; 0x3b
 8080c06:	f894 003c 	ldrb.w	r0, [r4, #60]	; 0x3c
 8080c0a:	f894 103f 	ldrb.w	r1, [r4, #63]	; 0x3f
 8080c0e:	f894 203d 	ldrb.w	r2, [r4, #61]	; 0x3d
 8080c12:	f894 303e 	ldrb.w	r3, [r4, #62]	; 0x3e
 8080c16:	f894 c040 	ldrb.w	ip, [r4, #64]	; 0x40
 8080c1a:	f894 5043 	ldrb.w	r5, [r4, #67]	; 0x43
 8080c1e:	f884 003f 	strb.w	r0, [r4, #63]	; 0x3f
 8080c22:	f884 103c 	strb.w	r1, [r4, #60]	; 0x3c
 8080c26:	f894 0041 	ldrb.w	r0, [r4, #65]	; 0x41
 8080c2a:	f894 1042 	ldrb.w	r1, [r4, #66]	; 0x42
 8080c2e:	f884 203e 	strb.w	r2, [r4, #62]	; 0x3e
 8080c32:	f884 303d 	strb.w	r3, [r4, #61]	; 0x3d
 8080c36:	f894 2044 	ldrb.w	r2, [r4, #68]	; 0x44
 8080c3a:	f894 3047 	ldrb.w	r3, [r4, #71]	; 0x47
 8080c3e:	f884 c043 	strb.w	ip, [r4, #67]	; 0x43
 8080c42:	f884 5040 	strb.w	r5, [r4, #64]	; 0x40
 8080c46:	f894 c045 	ldrb.w	ip, [r4, #69]	; 0x45
 8080c4a:	f894 5046 	ldrb.w	r5, [r4, #70]	; 0x46
 8080c4e:	f884 0042 	strb.w	r0, [r4, #66]	; 0x42
 8080c52:	f884 1041 	strb.w	r1, [r4, #65]	; 0x41
 8080c56:	f894 0048 	ldrb.w	r0, [r4, #72]	; 0x48
 8080c5a:	f894 104b 	ldrb.w	r1, [r4, #75]	; 0x4b
 8080c5e:	f884 2047 	strb.w	r2, [r4, #71]	; 0x47
 8080c62:	f884 3044 	strb.w	r3, [r4, #68]	; 0x44
 8080c66:	f894 2049 	ldrb.w	r2, [r4, #73]	; 0x49
 8080c6a:	f894 304a 	ldrb.w	r3, [r4, #74]	; 0x4a
 8080c6e:	f884 c046 	strb.w	ip, [r4, #70]	; 0x46
 8080c72:	f884 5045 	strb.w	r5, [r4, #69]	; 0x45
 8080c76:	f884 1048 	strb.w	r1, [r4, #72]	; 0x48
 8080c7a:	f884 204a 	strb.w	r2, [r4, #74]	; 0x4a
 8080c7e:	f884 3049 	strb.w	r3, [r4, #73]	; 0x49
 8080c82:	f884 004b 	strb.w	r0, [r4, #75]	; 0x4b
 8080c86:	f894 004c 	ldrb.w	r0, [r4, #76]	; 0x4c
 8080c8a:	f894 104f 	ldrb.w	r1, [r4, #79]	; 0x4f
 8080c8e:	f894 204d 	ldrb.w	r2, [r4, #77]	; 0x4d
 8080c92:	f894 304e 	ldrb.w	r3, [r4, #78]	; 0x4e
 8080c96:	f894 c050 	ldrb.w	ip, [r4, #80]	; 0x50
 8080c9a:	f894 5053 	ldrb.w	r5, [r4, #83]	; 0x53
 8080c9e:	f884 004f 	strb.w	r0, [r4, #79]	; 0x4f
 8080ca2:	f884 104c 	strb.w	r1, [r4, #76]	; 0x4c
 8080ca6:	f894 0051 	ldrb.w	r0, [r4, #81]	; 0x51
 8080caa:	f894 1052 	ldrb.w	r1, [r4, #82]	; 0x52
 8080cae:	f884 204e 	strb.w	r2, [r4, #78]	; 0x4e
 8080cb2:	f884 304d 	strb.w	r3, [r4, #77]	; 0x4d
 8080cb6:	f894 2054 	ldrb.w	r2, [r4, #84]	; 0x54
 8080cba:	f894 3057 	ldrb.w	r3, [r4, #87]	; 0x57
 8080cbe:	f884 c053 	strb.w	ip, [r4, #83]	; 0x53
 8080cc2:	f884 5050 	strb.w	r5, [r4, #80]	; 0x50
 8080cc6:	f894 c055 	ldrb.w	ip, [r4, #85]	; 0x55
 8080cca:	f894 5056 	ldrb.w	r5, [r4, #86]	; 0x56
 8080cce:	f884 0052 	strb.w	r0, [r4, #82]	; 0x52
 8080cd2:	f884 1051 	strb.w	r1, [r4, #81]	; 0x51
 8080cd6:	f894 0058 	ldrb.w	r0, [r4, #88]	; 0x58
 8080cda:	f894 105b 	ldrb.w	r1, [r4, #91]	; 0x5b
 8080cde:	f884 2057 	strb.w	r2, [r4, #87]	; 0x57
 8080ce2:	f884 3054 	strb.w	r3, [r4, #84]	; 0x54
 8080ce6:	f894 2059 	ldrb.w	r2, [r4, #89]	; 0x59
 8080cea:	f894 305a 	ldrb.w	r3, [r4, #90]	; 0x5a
 8080cee:	f884 005b 	strb.w	r0, [r4, #91]	; 0x5b
 8080cf2:	f884 c056 	strb.w	ip, [r4, #86]	; 0x56
 8080cf6:	3f40      	subs	r7, #64	; 0x40
 8080cf8:	f884 5055 	strb.w	r5, [r4, #85]	; 0x55
 8080cfc:	f884 1058 	strb.w	r1, [r4, #88]	; 0x58
 8080d00:	f884 205a 	strb.w	r2, [r4, #90]	; 0x5a
 8080d04:	f884 3059 	strb.w	r3, [r4, #89]	; 0x59
 8080d08:	4620      	mov	r0, r4
 8080d0a:	f7ff fa8d 	bl	8080228 <sha_transform>
 8080d0e:	2f3f      	cmp	r7, #63	; 0x3f
 8080d10:	46b6      	mov	lr, r6
 8080d12:	f73f aeee 	bgt.w	8080af2 <sha_stream+0x72>
 8080d16:	463a      	mov	r2, r7
 8080d18:	4671      	mov	r1, lr
 8080d1a:	4640      	mov	r0, r8
 8080d1c:	f007 fad2 	bl	80882c4 <memcpy>
 8080d20:	f8da 3000 	ldr.w	r3, [sl]
 8080d24:	f503 5300 	add.w	r3, r3, #8192	; 0x2000
 8080d28:	454b      	cmp	r3, r9
 8080d2a:	f8ca 3000 	str.w	r3, [sl]
 8080d2e:	d817      	bhi.n	8080d60 <sha_stream+0x2e0>
 8080d30:	f503 5200 	add.w	r2, r3, #8192	; 0x2000
 8080d34:	454a      	cmp	r2, r9
 8080d36:	6965      	ldr	r5, [r4, #20]
 8080d38:	eb0b 0103 	add.w	r1, fp, r3
 8080d3c:	f67f aecb 	bls.w	8080ad6 <sha_stream+0x56>
 8080d40:	f5c3 36c8 	rsb	r6, r3, #102400	; 0x19000
 8080d44:	4632      	mov	r2, r6
 8080d46:	4668      	mov	r0, sp
 8080d48:	f007 fabc 	bl	80882c4 <memcpy>
 8080d4c:	00f3      	lsls	r3, r6, #3
 8080d4e:	18eb      	adds	r3, r5, r3
 8080d50:	4637      	mov	r7, r6
 8080d52:	d214      	bcs.n	8080d7e <sha_stream+0x2fe>
 8080d54:	2e3f      	cmp	r6, #63	; 0x3f
 8080d56:	6163      	str	r3, [r4, #20]
 8080d58:	f63f aeca 	bhi.w	8080af0 <sha_stream+0x70>
 8080d5c:	46ee      	mov	lr, sp
 8080d5e:	e7da      	b.n	8080d16 <sha_stream+0x296>
 8080d60:	4620      	mov	r0, r4
 8080d62:	f50d 5d00 	add.w	sp, sp, #8192	; 0x2000
 8080d66:	b001      	add	sp, #4
 8080d68:	e8bd 4ff0 	ldmia.w	sp!, {r4, r5, r6, r7, r8, r9, sl, fp, lr}
 8080d6c:	f7ff bc8c 	b.w	8080688 <sha_final>
 8080d70:	69a2      	ldr	r2, [r4, #24]
 8080d72:	6163      	str	r3, [r4, #20]
 8080d74:	3201      	adds	r2, #1
 8080d76:	61a2      	str	r2, [r4, #24]
 8080d78:	f44f 5700 	mov.w	r7, #8192	; 0x2000
 8080d7c:	e6b8      	b.n	8080af0 <sha_stream+0x70>
 8080d7e:	69a2      	ldr	r2, [r4, #24]
 8080d80:	3201      	adds	r2, #1
 8080d82:	61a2      	str	r2, [r4, #24]
 8080d84:	e7e6      	b.n	8080d54 <sha_stream+0x2d4>
 8080d86:	bf00      	nop
 8080d88:	efcdab89 	.word	0xefcdab89
 8080d8c:	67452301 	.word	0x67452301
 8080d90:	98badcfe 	.word	0x98badcfe
 8080d94:	00018fff 	.word	0x00018fff
 8080d98:	10325476 	.word	0x10325476
 8080d9c:	20019090 	.word	0x20019090

08080da0 <HAL_MspInit>:
 8080da0:	b082      	sub	sp, #8
 8080da2:	4b0c      	ldr	r3, [pc, #48]	; (8080dd4 <HAL_MspInit+0x34>)
 8080da4:	2100      	movs	r1, #0
 8080da6:	9100      	str	r1, [sp, #0]
 8080da8:	6c5a      	ldr	r2, [r3, #68]	; 0x44
 8080daa:	f442 4280 	orr.w	r2, r2, #16384	; 0x4000
 8080dae:	645a      	str	r2, [r3, #68]	; 0x44
 8080db0:	6c5a      	ldr	r2, [r3, #68]	; 0x44
 8080db2:	f402 4280 	and.w	r2, r2, #16384	; 0x4000
 8080db6:	9200      	str	r2, [sp, #0]
 8080db8:	9a00      	ldr	r2, [sp, #0]
 8080dba:	9101      	str	r1, [sp, #4]
 8080dbc:	6c1a      	ldr	r2, [r3, #64]	; 0x40
 8080dbe:	f042 5280 	orr.w	r2, r2, #268435456	; 0x10000000
 8080dc2:	641a      	str	r2, [r3, #64]	; 0x40
 8080dc4:	6c1b      	ldr	r3, [r3, #64]	; 0x40
 8080dc6:	f003 5380 	and.w	r3, r3, #268435456	; 0x10000000
 8080dca:	9301      	str	r3, [sp, #4]
 8080dcc:	9b01      	ldr	r3, [sp, #4]
 8080dce:	b002      	add	sp, #8
 8080dd0:	4770      	bx	lr
 8080dd2:	bf00      	nop
 8080dd4:	40023800 	.word	0x40023800

08080dd8 <NMI_Handler>:
 8080dd8:	4770      	bx	lr
 8080dda:	bf00      	nop

08080ddc <HardFault_Handler>:
 8080ddc:	e7fe      	b.n	8080ddc <HardFault_Handler>
 8080dde:	bf00      	nop

08080de0 <MemManage_Handler>:
 8080de0:	e7fe      	b.n	8080de0 <MemManage_Handler>
 8080de2:	bf00      	nop

08080de4 <BusFault_Handler>:
 8080de4:	e7fe      	b.n	8080de4 <BusFault_Handler>
 8080de6:	bf00      	nop

08080de8 <UsageFault_Handler>:
 8080de8:	e7fe      	b.n	8080de8 <UsageFault_Handler>
 8080dea:	bf00      	nop

08080dec <SVC_Handler>:
 8080dec:	4770      	bx	lr
 8080dee:	bf00      	nop

08080df0 <DebugMon_Handler>:
 8080df0:	4770      	bx	lr
 8080df2:	bf00      	nop

08080df4 <PendSV_Handler>:
 8080df4:	4770      	bx	lr
 8080df6:	bf00      	nop

08080df8 <SysTick_Handler>:
 8080df8:	f000 b9c8 	b.w	808118c <HAL_IncTick>

08080dfc <USART1_IRQHandler>:
 8080dfc:	4801      	ldr	r0, [pc, #4]	; (8080e04 <USART1_IRQHandler+0x8>)
 8080dfe:	f006 bd39 	b.w	8087874 <HAL_UART_IRQHandler>
 8080e02:	bf00      	nop
 8080e04:	200190e0 	.word	0x200190e0

08080e08 <TIM5_IRQHandler>:
 8080e08:	4801      	ldr	r0, [pc, #4]	; (8080e10 <TIM5_IRQHandler+0x8>)
 8080e0a:	f004 baff 	b.w	808540c <HAL_TIM_IRQHandler>
 8080e0e:	bf00      	nop
 8080e10:	200190a0 	.word	0x200190a0

08080e14 <SystemInit>:
 8080e14:	490f      	ldr	r1, [pc, #60]	; (8080e54 <SystemInit+0x40>)
 8080e16:	4b10      	ldr	r3, [pc, #64]	; (8080e58 <SystemInit+0x44>)
 8080e18:	f8d1 2088 	ldr.w	r2, [r1, #136]	; 0x88
 8080e1c:	f442 0270 	orr.w	r2, r2, #15728640	; 0xf00000
 8080e20:	b430      	push	{r4, r5}
 8080e22:	f8c1 2088 	str.w	r2, [r1, #136]	; 0x88
 8080e26:	681a      	ldr	r2, [r3, #0]
 8080e28:	4d0c      	ldr	r5, [pc, #48]	; (8080e5c <SystemInit+0x48>)
 8080e2a:	4c0d      	ldr	r4, [pc, #52]	; (8080e60 <SystemInit+0x4c>)
 8080e2c:	2000      	movs	r0, #0
 8080e2e:	f042 0201 	orr.w	r2, r2, #1
 8080e32:	601a      	str	r2, [r3, #0]
 8080e34:	6098      	str	r0, [r3, #8]
 8080e36:	681a      	ldr	r2, [r3, #0]
 8080e38:	f022 7284 	bic.w	r2, r2, #17301504	; 0x1080000
 8080e3c:	f422 3280 	bic.w	r2, r2, #65536	; 0x10000
 8080e40:	601a      	str	r2, [r3, #0]
 8080e42:	605d      	str	r5, [r3, #4]
 8080e44:	681a      	ldr	r2, [r3, #0]
 8080e46:	f422 2280 	bic.w	r2, r2, #262144	; 0x40000
 8080e4a:	601a      	str	r2, [r3, #0]
 8080e4c:	60d8      	str	r0, [r3, #12]
 8080e4e:	608c      	str	r4, [r1, #8]
 8080e50:	bc30      	pop	{r4, r5}
 8080e52:	4770      	bx	lr
 8080e54:	e000ed00 	.word	0xe000ed00
 8080e58:	40023800 	.word	0x40023800
 8080e5c:	24003010 	.word	0x24003010
 8080e60:	08080000 	.word	0x08080000

08080e64 <SystemCoreClockUpdate>:
 8080e64:	4a16      	ldr	r2, [pc, #88]	; (8080ec0 <SystemCoreClockUpdate+0x5c>)
 8080e66:	6893      	ldr	r3, [r2, #8]
 8080e68:	f003 030c 	and.w	r3, r3, #12
 8080e6c:	2b04      	cmp	r3, #4
 8080e6e:	d024      	beq.n	8080eba <SystemCoreClockUpdate+0x56>
 8080e70:	2b08      	cmp	r3, #8
 8080e72:	d00a      	beq.n	8080e8a <SystemCoreClockUpdate+0x26>
 8080e74:	4b13      	ldr	r3, [pc, #76]	; (8080ec4 <SystemCoreClockUpdate+0x60>)
 8080e76:	4a12      	ldr	r2, [pc, #72]	; (8080ec0 <SystemCoreClockUpdate+0x5c>)
 8080e78:	4813      	ldr	r0, [pc, #76]	; (8080ec8 <SystemCoreClockUpdate+0x64>)
 8080e7a:	6892      	ldr	r2, [r2, #8]
 8080e7c:	4913      	ldr	r1, [pc, #76]	; (8080ecc <SystemCoreClockUpdate+0x68>)
 8080e7e:	f3c2 1203 	ubfx	r2, r2, #4, #4
 8080e82:	5c82      	ldrb	r2, [r0, r2]
 8080e84:	40d3      	lsrs	r3, r2
 8080e86:	600b      	str	r3, [r1, #0]
 8080e88:	4770      	bx	lr
 8080e8a:	6850      	ldr	r0, [r2, #4]
 8080e8c:	6851      	ldr	r1, [r2, #4]
 8080e8e:	6852      	ldr	r2, [r2, #4]
 8080e90:	0243      	lsls	r3, r0, #9
 8080e92:	f3c2 1288 	ubfx	r2, r2, #6, #9
 8080e96:	f001 013f 	and.w	r1, r1, #63	; 0x3f
 8080e9a:	bf4c      	ite	mi
 8080e9c:	4b0c      	ldrmi	r3, [pc, #48]	; (8080ed0 <SystemCoreClockUpdate+0x6c>)
 8080e9e:	4b09      	ldrpl	r3, [pc, #36]	; (8080ec4 <SystemCoreClockUpdate+0x60>)
 8080ea0:	fbb3 f3f1 	udiv	r3, r3, r1
 8080ea4:	fb03 f302 	mul.w	r3, r3, r2
 8080ea8:	4a05      	ldr	r2, [pc, #20]	; (8080ec0 <SystemCoreClockUpdate+0x5c>)
 8080eaa:	6852      	ldr	r2, [r2, #4]
 8080eac:	f3c2 4201 	ubfx	r2, r2, #16, #2
 8080eb0:	3201      	adds	r2, #1
 8080eb2:	0052      	lsls	r2, r2, #1
 8080eb4:	fbb3 f3f2 	udiv	r3, r3, r2
 8080eb8:	e7dd      	b.n	8080e76 <SystemCoreClockUpdate+0x12>
 8080eba:	4b05      	ldr	r3, [pc, #20]	; (8080ed0 <SystemCoreClockUpdate+0x6c>)
 8080ebc:	e7db      	b.n	8080e76 <SystemCoreClockUpdate+0x12>
 8080ebe:	bf00      	nop
 8080ec0:	40023800 	.word	0x40023800
 8080ec4:	00f42400 	.word	0x00f42400
 8080ec8:	08088b18 	.word	0x08088b18
 8080ecc:	20000000 	.word	0x20000000
 8080ed0:	017d7840 	.word	0x017d7840

08080ed4 <MX_TIM5_Init>:
 8080ed4:	b500      	push	{lr}
 8080ed6:	4a19      	ldr	r2, [pc, #100]	; (8080f3c <MX_TIM5_Init+0x68>)
 8080ed8:	4b19      	ldr	r3, [pc, #100]	; (8080f40 <MX_TIM5_Init+0x6c>)
 8080eda:	6013      	str	r3, [r2, #0]
 8080edc:	b087      	sub	sp, #28
 8080ede:	2332      	movs	r3, #50	; 0x32
 8080ee0:	f04f 31ff 	mov.w	r1, #4294967295	; 0xffffffff
 8080ee4:	6053      	str	r3, [r2, #4]
 8080ee6:	4610      	mov	r0, r2
 8080ee8:	2300      	movs	r3, #0
 8080eea:	e9c2 3102 	strd	r3, r1, [r2, #8]
 8080eee:	9302      	str	r3, [sp, #8]
 8080ef0:	9300      	str	r3, [sp, #0]
 8080ef2:	6113      	str	r3, [r2, #16]
 8080ef4:	6193      	str	r3, [r2, #24]
 8080ef6:	e9cd 3303 	strd	r3, r3, [sp, #12]
 8080efa:	9305      	str	r3, [sp, #20]
 8080efc:	9301      	str	r3, [sp, #4]
 8080efe:	f001 fd19 	bl	8082934 <HAL_TIM_Base_Init>
 8080f02:	b9b8      	cbnz	r0, 8080f34 <MX_TIM5_Init+0x60>
 8080f04:	f44f 5380 	mov.w	r3, #4096	; 0x1000
 8080f08:	a902      	add	r1, sp, #8
 8080f0a:	480c      	ldr	r0, [pc, #48]	; (8080f3c <MX_TIM5_Init+0x68>)
 8080f0c:	9302      	str	r3, [sp, #8]
 8080f0e:	f003 ffe1 	bl	8084ed4 <HAL_TIM_ConfigClockSource>
 8080f12:	b960      	cbnz	r0, 8080f2e <MX_TIM5_Init+0x5a>
 8080f14:	2300      	movs	r3, #0
 8080f16:	4669      	mov	r1, sp
 8080f18:	4808      	ldr	r0, [pc, #32]	; (8080f3c <MX_TIM5_Init+0x68>)
 8080f1a:	e9cd 3300 	strd	r3, r3, [sp]
 8080f1e:	f005 f9ed 	bl	80862fc <HAL_TIMEx_MasterConfigSynchronization>
 8080f22:	b108      	cbz	r0, 8080f28 <MX_TIM5_Init+0x54>
 8080f24:	f006 ff4c 	bl	8087dc0 <Error_Handler>
 8080f28:	b007      	add	sp, #28
 8080f2a:	f85d fb04 	ldr.w	pc, [sp], #4
 8080f2e:	f006 ff47 	bl	8087dc0 <Error_Handler>
 8080f32:	e7ef      	b.n	8080f14 <MX_TIM5_Init+0x40>
 8080f34:	f006 ff44 	bl	8087dc0 <Error_Handler>
 8080f38:	e7e4      	b.n	8080f04 <MX_TIM5_Init+0x30>
 8080f3a:	bf00      	nop
 8080f3c:	200190a0 	.word	0x200190a0
 8080f40:	40000c00 	.word	0x40000c00

08080f44 <HAL_TIM_Base_MspInit>:
 8080f44:	6802      	ldr	r2, [r0, #0]
 8080f46:	4b0e      	ldr	r3, [pc, #56]	; (8080f80 <HAL_TIM_Base_MspInit+0x3c>)
 8080f48:	429a      	cmp	r2, r3
 8080f4a:	d000      	beq.n	8080f4e <HAL_TIM_Base_MspInit+0xa>
 8080f4c:	4770      	bx	lr
 8080f4e:	b500      	push	{lr}
 8080f50:	b083      	sub	sp, #12
 8080f52:	2200      	movs	r2, #0
 8080f54:	f503 330b 	add.w	r3, r3, #142336	; 0x22c00
 8080f58:	9201      	str	r2, [sp, #4]
 8080f5a:	6c19      	ldr	r1, [r3, #64]	; 0x40
 8080f5c:	f041 0108 	orr.w	r1, r1, #8
 8080f60:	6419      	str	r1, [r3, #64]	; 0x40
 8080f62:	6c1b      	ldr	r3, [r3, #64]	; 0x40
 8080f64:	f003 0308 	and.w	r3, r3, #8
 8080f68:	9301      	str	r3, [sp, #4]
 8080f6a:	4611      	mov	r1, r2
 8080f6c:	2032      	movs	r0, #50	; 0x32
 8080f6e:	9b01      	ldr	r3, [sp, #4]
 8080f70:	f000 f9dc 	bl	808132c <HAL_NVIC_SetPriority>
 8080f74:	2032      	movs	r0, #50	; 0x32
 8080f76:	b003      	add	sp, #12
 8080f78:	f85d eb04 	ldr.w	lr, [sp], #4
 8080f7c:	f000 ba0c 	b.w	8081398 <HAL_NVIC_EnableIRQ>
 8080f80:	40000c00 	.word	0x40000c00

08080f84 <HAL_TIM_Base_MspDeInit>:
 8080f84:	6802      	ldr	r2, [r0, #0]
 8080f86:	4b06      	ldr	r3, [pc, #24]	; (8080fa0 <HAL_TIM_Base_MspDeInit+0x1c>)
 8080f88:	429a      	cmp	r2, r3
 8080f8a:	d000      	beq.n	8080f8e <HAL_TIM_Base_MspDeInit+0xa>
 8080f8c:	4770      	bx	lr
 8080f8e:	4a05      	ldr	r2, [pc, #20]	; (8080fa4 <HAL_TIM_Base_MspDeInit+0x20>)
 8080f90:	6c13      	ldr	r3, [r2, #64]	; 0x40
 8080f92:	f023 0308 	bic.w	r3, r3, #8
 8080f96:	6413      	str	r3, [r2, #64]	; 0x40
 8080f98:	2032      	movs	r0, #50	; 0x32
 8080f9a:	f000 ba0b 	b.w	80813b4 <HAL_NVIC_DisableIRQ>
 8080f9e:	bf00      	nop
 8080fa0:	40000c00 	.word	0x40000c00
 8080fa4:	40023800 	.word	0x40023800

08080fa8 <MX_USART1_UART_Init>:
 8080fa8:	4b0b      	ldr	r3, [pc, #44]	; (8080fd8 <MX_USART1_UART_Init+0x30>)
 8080faa:	4a0c      	ldr	r2, [pc, #48]	; (8080fdc <MX_USART1_UART_Init+0x34>)
 8080fac:	b510      	push	{r4, lr}
 8080fae:	210c      	movs	r1, #12
 8080fb0:	601a      	str	r2, [r3, #0]
 8080fb2:	f44f 34e1 	mov.w	r4, #115200	; 0x1c200
 8080fb6:	2200      	movs	r2, #0
 8080fb8:	4618      	mov	r0, r3
 8080fba:	605c      	str	r4, [r3, #4]
 8080fbc:	6159      	str	r1, [r3, #20]
 8080fbe:	e9c3 2202 	strd	r2, r2, [r3, #8]
 8080fc2:	611a      	str	r2, [r3, #16]
 8080fc4:	e9c3 2206 	strd	r2, r2, [r3, #24]
 8080fc8:	f005 fa0e 	bl	80863e8 <HAL_UART_Init>
 8080fcc:	b900      	cbnz	r0, 8080fd0 <MX_USART1_UART_Init+0x28>
 8080fce:	bd10      	pop	{r4, pc}
 8080fd0:	e8bd 4010 	ldmia.w	sp!, {r4, lr}
 8080fd4:	f006 bef4 	b.w	8087dc0 <Error_Handler>
 8080fd8:	200190e0 	.word	0x200190e0
 8080fdc:	40011000 	.word	0x40011000

08080fe0 <HAL_UART_MspInit>:
 8080fe0:	e92d 41f0 	stmdb	sp!, {r4, r5, r6, r7, r8, lr}
 8080fe4:	6802      	ldr	r2, [r0, #0]
 8080fe6:	4b29      	ldr	r3, [pc, #164]	; (808108c <HAL_UART_MspInit+0xac>)
 8080fe8:	b088      	sub	sp, #32
 8080fea:	2400      	movs	r4, #0
 8080fec:	429a      	cmp	r2, r3
 8080fee:	e9cd 4403 	strd	r4, r4, [sp, #12]
 8080ff2:	e9cd 4405 	strd	r4, r4, [sp, #20]
 8080ff6:	9407      	str	r4, [sp, #28]
 8080ff8:	d002      	beq.n	8081000 <HAL_UART_MspInit+0x20>
 8080ffa:	b008      	add	sp, #32
 8080ffc:	e8bd 81f0 	ldmia.w	sp!, {r4, r5, r6, r7, r8, pc}
 8081000:	f503 3394 	add.w	r3, r3, #75776	; 0x12800
 8081004:	9400      	str	r4, [sp, #0]
 8081006:	6c5a      	ldr	r2, [r3, #68]	; 0x44
 8081008:	4821      	ldr	r0, [pc, #132]	; (8081090 <HAL_UART_MspInit+0xb0>)
 808100a:	f042 0210 	orr.w	r2, r2, #16
 808100e:	645a      	str	r2, [r3, #68]	; 0x44
 8081010:	6c5a      	ldr	r2, [r3, #68]	; 0x44
 8081012:	f002 0210 	and.w	r2, r2, #16
 8081016:	9200      	str	r2, [sp, #0]
 8081018:	9a00      	ldr	r2, [sp, #0]
 808101a:	9401      	str	r4, [sp, #4]
 808101c:	6b1a      	ldr	r2, [r3, #48]	; 0x30
 808101e:	f042 0202 	orr.w	r2, r2, #2
 8081022:	631a      	str	r2, [r3, #48]	; 0x30
 8081024:	6b1a      	ldr	r2, [r3, #48]	; 0x30
 8081026:	f002 0202 	and.w	r2, r2, #2
 808102a:	9201      	str	r2, [sp, #4]
 808102c:	9a01      	ldr	r2, [sp, #4]
 808102e:	9402      	str	r4, [sp, #8]
 8081030:	6b1a      	ldr	r2, [r3, #48]	; 0x30
 8081032:	f042 0201 	orr.w	r2, r2, #1
 8081036:	631a      	str	r2, [r3, #48]	; 0x30
 8081038:	6b1b      	ldr	r3, [r3, #48]	; 0x30
 808103a:	f003 0301 	and.w	r3, r3, #1
 808103e:	9302      	str	r3, [sp, #8]
 8081040:	f04f 0802 	mov.w	r8, #2
 8081044:	2340      	movs	r3, #64	; 0x40
 8081046:	2701      	movs	r7, #1
 8081048:	2603      	movs	r6, #3
 808104a:	2507      	movs	r5, #7
 808104c:	a903      	add	r1, sp, #12
 808104e:	9a02      	ldr	r2, [sp, #8]
 8081050:	9507      	str	r5, [sp, #28]
 8081052:	e9cd 3803 	strd	r3, r8, [sp, #12]
 8081056:	e9cd 7605 	strd	r7, r6, [sp, #20]
 808105a:	f000 fead 	bl	8081db8 <HAL_GPIO_Init>
 808105e:	f44f 6380 	mov.w	r3, #1024	; 0x400
 8081062:	a903      	add	r1, sp, #12
 8081064:	480b      	ldr	r0, [pc, #44]	; (8081094 <HAL_UART_MspInit+0xb4>)
 8081066:	9303      	str	r3, [sp, #12]
 8081068:	e9cd 8704 	strd	r8, r7, [sp, #16]
 808106c:	e9cd 6506 	strd	r6, r5, [sp, #24]
 8081070:	f000 fea2 	bl	8081db8 <HAL_GPIO_Init>
 8081074:	4622      	mov	r2, r4
 8081076:	4621      	mov	r1, r4
 8081078:	2025      	movs	r0, #37	; 0x25
 808107a:	f000 f957 	bl	808132c <HAL_NVIC_SetPriority>
 808107e:	2025      	movs	r0, #37	; 0x25
 8081080:	f000 f98a 	bl	8081398 <HAL_NVIC_EnableIRQ>
 8081084:	b008      	add	sp, #32
 8081086:	e8bd 81f0 	ldmia.w	sp!, {r4, r5, r6, r7, r8, pc}
 808108a:	bf00      	nop
 808108c:	40011000 	.word	0x40011000
 8081090:	40020400 	.word	0x40020400
 8081094:	40020000 	.word	0x40020000

08081098 <HAL_UART_MspDeInit>:
 8081098:	b508      	push	{r3, lr}
 808109a:	6802      	ldr	r2, [r0, #0]
 808109c:	4b0b      	ldr	r3, [pc, #44]	; (80810cc <HAL_UART_MspDeInit+0x34>)
 808109e:	429a      	cmp	r2, r3
 80810a0:	d000      	beq.n	80810a4 <HAL_UART_MspDeInit+0xc>
 80810a2:	bd08      	pop	{r3, pc}
 80810a4:	4a0a      	ldr	r2, [pc, #40]	; (80810d0 <HAL_UART_MspDeInit+0x38>)
 80810a6:	480b      	ldr	r0, [pc, #44]	; (80810d4 <HAL_UART_MspDeInit+0x3c>)
 80810a8:	6c53      	ldr	r3, [r2, #68]	; 0x44
 80810aa:	f023 0310 	bic.w	r3, r3, #16
 80810ae:	6453      	str	r3, [r2, #68]	; 0x44
 80810b0:	2140      	movs	r1, #64	; 0x40
 80810b2:	f000 ffbf 	bl	8082034 <HAL_GPIO_DeInit>
 80810b6:	4808      	ldr	r0, [pc, #32]	; (80810d8 <HAL_UART_MspDeInit+0x40>)
 80810b8:	f44f 6180 	mov.w	r1, #1024	; 0x400
 80810bc:	f000 ffba 	bl	8082034 <HAL_GPIO_DeInit>
 80810c0:	2025      	movs	r0, #37	; 0x25
 80810c2:	e8bd 4008 	ldmia.w	sp!, {r3, lr}
 80810c6:	f000 b975 	b.w	80813b4 <HAL_NVIC_DisableIRQ>
 80810ca:	bf00      	nop
 80810cc:	40011000 	.word	0x40011000
 80810d0:	40023800 	.word	0x40023800
 80810d4:	40020400 	.word	0x40020400
 80810d8:	40020000 	.word	0x40020000
 80810dc:	4770      	bx	lr
 80810de:	bf00      	nop

080810e0 <HAL_MspDeInit>:
 80810e0:	4770      	bx	lr
 80810e2:	bf00      	nop

080810e4 <HAL_DeInit>:
 80810e4:	b510      	push	{r4, lr}
 80810e6:	4b09      	ldr	r3, [pc, #36]	; (808110c <HAL_DeInit+0x28>)
 80810e8:	f04f 32ff 	mov.w	r2, #4294967295	; 0xffffffff
 80810ec:	2400      	movs	r4, #0
 80810ee:	621a      	str	r2, [r3, #32]
 80810f0:	621c      	str	r4, [r3, #32]
 80810f2:	625a      	str	r2, [r3, #36]	; 0x24
 80810f4:	625c      	str	r4, [r3, #36]	; 0x24
 80810f6:	611a      	str	r2, [r3, #16]
 80810f8:	611c      	str	r4, [r3, #16]
 80810fa:	615a      	str	r2, [r3, #20]
 80810fc:	615c      	str	r4, [r3, #20]
 80810fe:	619a      	str	r2, [r3, #24]
 8081100:	619c      	str	r4, [r3, #24]
 8081102:	f7ff ffed 	bl	80810e0 <HAL_MspDeInit>
 8081106:	4620      	mov	r0, r4
 8081108:	bd10      	pop	{r4, pc}
 808110a:	bf00      	nop
 808110c:	40023800 	.word	0x40023800

08081110 <HAL_InitTick>:
 8081110:	b538      	push	{r3, r4, r5, lr}
 8081112:	4a0e      	ldr	r2, [pc, #56]	; (808114c <HAL_InitTick+0x3c>)
 8081114:	4b0e      	ldr	r3, [pc, #56]	; (8081150 <HAL_InitTick+0x40>)
 8081116:	7812      	ldrb	r2, [r2, #0]
 8081118:	681b      	ldr	r3, [r3, #0]
 808111a:	4605      	mov	r5, r0
 808111c:	f44f 707a 	mov.w	r0, #1000	; 0x3e8
 8081120:	fbb0 f0f2 	udiv	r0, r0, r2
 8081124:	fbb3 f0f0 	udiv	r0, r3, r0
 8081128:	f000 f96a 	bl	8081400 <HAL_SYSTICK_Config>
 808112c:	b908      	cbnz	r0, 8081132 <HAL_InitTick+0x22>
 808112e:	2d0f      	cmp	r5, #15
 8081130:	d901      	bls.n	8081136 <HAL_InitTick+0x26>
 8081132:	2001      	movs	r0, #1
 8081134:	bd38      	pop	{r3, r4, r5, pc}
 8081136:	4604      	mov	r4, r0
 8081138:	4602      	mov	r2, r0
 808113a:	4629      	mov	r1, r5
 808113c:	f04f 30ff 	mov.w	r0, #4294967295	; 0xffffffff
 8081140:	f000 f8f4 	bl	808132c <HAL_NVIC_SetPriority>
 8081144:	4b03      	ldr	r3, [pc, #12]	; (8081154 <HAL_InitTick+0x44>)
 8081146:	4620      	mov	r0, r4
 8081148:	601d      	str	r5, [r3, #0]
 808114a:	bd38      	pop	{r3, r4, r5, pc}
 808114c:	20000004 	.word	0x20000004
 8081150:	20000000 	.word	0x20000000
 8081154:	20000008 	.word	0x20000008

08081158 <HAL_Init>:
 8081158:	b508      	push	{r3, lr}
 808115a:	4b0b      	ldr	r3, [pc, #44]	; (8081188 <HAL_Init+0x30>)
 808115c:	681a      	ldr	r2, [r3, #0]
 808115e:	f442 7200 	orr.w	r2, r2, #512	; 0x200
 8081162:	601a      	str	r2, [r3, #0]
 8081164:	681a      	ldr	r2, [r3, #0]
 8081166:	f442 6280 	orr.w	r2, r2, #1024	; 0x400
 808116a:	601a      	str	r2, [r3, #0]
 808116c:	681a      	ldr	r2, [r3, #0]
 808116e:	f442 7280 	orr.w	r2, r2, #256	; 0x100
 8081172:	601a      	str	r2, [r3, #0]
 8081174:	2003      	movs	r0, #3
 8081176:	f000 f8c7 	bl	8081308 <HAL_NVIC_SetPriorityGrouping>
 808117a:	2000      	movs	r0, #0
 808117c:	f7ff ffc8 	bl	8081110 <HAL_InitTick>
 8081180:	f7ff fe0e 	bl	8080da0 <HAL_MspInit>
 8081184:	2000      	movs	r0, #0
 8081186:	bd08      	pop	{r3, pc}
 8081188:	40023c00 	.word	0x40023c00

0808118c <HAL_IncTick>:
 808118c:	4a03      	ldr	r2, [pc, #12]	; (808119c <HAL_IncTick+0x10>)
 808118e:	4b04      	ldr	r3, [pc, #16]	; (80811a0 <HAL_IncTick+0x14>)
 8081190:	6811      	ldr	r1, [r2, #0]
 8081192:	781b      	ldrb	r3, [r3, #0]
 8081194:	440b      	add	r3, r1
 8081196:	6013      	str	r3, [r2, #0]
 8081198:	4770      	bx	lr
 808119a:	bf00      	nop
 808119c:	20019120 	.word	0x20019120
 80811a0:	20000004 	.word	0x20000004

080811a4 <HAL_GetTick>:
 80811a4:	4b01      	ldr	r3, [pc, #4]	; (80811ac <HAL_GetTick+0x8>)
 80811a6:	6818      	ldr	r0, [r3, #0]
 80811a8:	4770      	bx	lr
 80811aa:	bf00      	nop
 80811ac:	20019120 	.word	0x20019120

080811b0 <HAL_GetTickPrio>:
 80811b0:	4b01      	ldr	r3, [pc, #4]	; (80811b8 <HAL_GetTickPrio+0x8>)
 80811b2:	6818      	ldr	r0, [r3, #0]
 80811b4:	4770      	bx	lr
 80811b6:	bf00      	nop
 80811b8:	20000008 	.word	0x20000008

080811bc <HAL_SetTickFreq>:
 80811bc:	b508      	push	{r3, lr}
 80811be:	4b06      	ldr	r3, [pc, #24]	; (80811d8 <HAL_SetTickFreq+0x1c>)
 80811c0:	781a      	ldrb	r2, [r3, #0]
 80811c2:	4282      	cmp	r2, r0
 80811c4:	d005      	beq.n	80811d2 <HAL_SetTickFreq+0x16>
 80811c6:	4a05      	ldr	r2, [pc, #20]	; (80811dc <HAL_SetTickFreq+0x20>)
 80811c8:	7018      	strb	r0, [r3, #0]
 80811ca:	6810      	ldr	r0, [r2, #0]
 80811cc:	f7ff ffa0 	bl	8081110 <HAL_InitTick>
 80811d0:	bd08      	pop	{r3, pc}
 80811d2:	2000      	movs	r0, #0
 80811d4:	bd08      	pop	{r3, pc}
 80811d6:	bf00      	nop
 80811d8:	20000004 	.word	0x20000004
 80811dc:	20000008 	.word	0x20000008

080811e0 <HAL_GetTickFreq>:
 80811e0:	4b01      	ldr	r3, [pc, #4]	; (80811e8 <HAL_GetTickFreq+0x8>)
 80811e2:	7818      	ldrb	r0, [r3, #0]
 80811e4:	4770      	bx	lr
 80811e6:	bf00      	nop
 80811e8:	20000004 	.word	0x20000004

080811ec <HAL_Delay>:
 80811ec:	b538      	push	{r3, r4, r5, lr}
 80811ee:	4604      	mov	r4, r0
 80811f0:	f7ff ffd8 	bl	80811a4 <HAL_GetTick>
 80811f4:	1c63      	adds	r3, r4, #1
 80811f6:	4605      	mov	r5, r0
 80811f8:	d002      	beq.n	8081200 <HAL_Delay+0x14>
 80811fa:	4b04      	ldr	r3, [pc, #16]	; (808120c <HAL_Delay+0x20>)
 80811fc:	781b      	ldrb	r3, [r3, #0]
 80811fe:	441c      	add	r4, r3
 8081200:	f7ff ffd0 	bl	80811a4 <HAL_GetTick>
 8081204:	1b40      	subs	r0, r0, r5
 8081206:	42a0      	cmp	r0, r4
 8081208:	d3fa      	bcc.n	8081200 <HAL_Delay+0x14>
 808120a:	bd38      	pop	{r3, r4, r5, pc}
 808120c:	20000004 	.word	0x20000004

08081210 <HAL_SuspendTick>:
 8081210:	4a02      	ldr	r2, [pc, #8]	; (808121c <HAL_SuspendTick+0xc>)
 8081212:	6813      	ldr	r3, [r2, #0]
 8081214:	f023 0302 	bic.w	r3, r3, #2
 8081218:	6013      	str	r3, [r2, #0]
 808121a:	4770      	bx	lr
 808121c:	e000e010 	.word	0xe000e010

08081220 <HAL_ResumeTick>:
 8081220:	4a02      	ldr	r2, [pc, #8]	; (808122c <HAL_ResumeTick+0xc>)
 8081222:	6813      	ldr	r3, [r2, #0]
 8081224:	f043 0302 	orr.w	r3, r3, #2
 8081228:	6013      	str	r3, [r2, #0]
 808122a:	4770      	bx	lr
 808122c:	e000e010 	.word	0xe000e010

08081230 <HAL_GetHalVersion>:
 8081230:	4800      	ldr	r0, [pc, #0]	; (8081234 <HAL_GetHalVersion+0x4>)
 8081232:	4770      	bx	lr
 8081234:	01070600 	.word	0x01070600

08081238 <HAL_GetREVID>:
 8081238:	4b01      	ldr	r3, [pc, #4]	; (8081240 <HAL_GetREVID+0x8>)
 808123a:	6818      	ldr	r0, [r3, #0]
 808123c:	0c00      	lsrs	r0, r0, #16
 808123e:	4770      	bx	lr
 8081240:	e0042000 	.word	0xe0042000

08081244 <HAL_GetDEVID>:
 8081244:	4b02      	ldr	r3, [pc, #8]	; (8081250 <HAL_GetDEVID+0xc>)
 8081246:	6818      	ldr	r0, [r3, #0]
 8081248:	f3c0 000b 	ubfx	r0, r0, #0, #12
 808124c:	4770      	bx	lr
 808124e:	bf00      	nop
 8081250:	e0042000 	.word	0xe0042000

08081254 <HAL_DBGMCU_EnableDBGSleepMode>:
 8081254:	4a02      	ldr	r2, [pc, #8]	; (8081260 <HAL_DBGMCU_EnableDBGSleepMode+0xc>)
 8081256:	6853      	ldr	r3, [r2, #4]
 8081258:	f043 0301 	orr.w	r3, r3, #1
 808125c:	6053      	str	r3, [r2, #4]
 808125e:	4770      	bx	lr
 8081260:	e0042000 	.word	0xe0042000

08081264 <HAL_DBGMCU_DisableDBGSleepMode>:
 8081264:	4a02      	ldr	r2, [pc, #8]	; (8081270 <HAL_DBGMCU_DisableDBGSleepMode+0xc>)
 8081266:	6853      	ldr	r3, [r2, #4]
 8081268:	f023 0301 	bic.w	r3, r3, #1
 808126c:	6053      	str	r3, [r2, #4]
 808126e:	4770      	bx	lr
 8081270:	e0042000 	.word	0xe0042000

08081274 <HAL_DBGMCU_EnableDBGStopMode>:
 8081274:	4a02      	ldr	r2, [pc, #8]	; (8081280 <HAL_DBGMCU_EnableDBGStopMode+0xc>)
 8081276:	6853      	ldr	r3, [r2, #4]
 8081278:	f043 0302 	orr.w	r3, r3, #2
 808127c:	6053      	str	r3, [r2, #4]
 808127e:	4770      	bx	lr
 8081280:	e0042000 	.word	0xe0042000

08081284 <HAL_DBGMCU_DisableDBGStopMode>:
 8081284:	4a02      	ldr	r2, [pc, #8]	; (8081290 <HAL_DBGMCU_DisableDBGStopMode+0xc>)
 8081286:	6853      	ldr	r3, [r2, #4]
 8081288:	f023 0302 	bic.w	r3, r3, #2
 808128c:	6053      	str	r3, [r2, #4]
 808128e:	4770      	bx	lr
 8081290:	e0042000 	.word	0xe0042000

08081294 <HAL_DBGMCU_EnableDBGStandbyMode>:
 8081294:	4a02      	ldr	r2, [pc, #8]	; (80812a0 <HAL_DBGMCU_EnableDBGStandbyMode+0xc>)
 8081296:	6853      	ldr	r3, [r2, #4]
 8081298:	f043 0304 	orr.w	r3, r3, #4
 808129c:	6053      	str	r3, [r2, #4]
 808129e:	4770      	bx	lr
 80812a0:	e0042000 	.word	0xe0042000

080812a4 <HAL_DBGMCU_DisableDBGStandbyMode>:
 80812a4:	4a02      	ldr	r2, [pc, #8]	; (80812b0 <HAL_DBGMCU_DisableDBGStandbyMode+0xc>)
 80812a6:	6853      	ldr	r3, [r2, #4]
 80812a8:	f023 0304 	bic.w	r3, r3, #4
 80812ac:	6053      	str	r3, [r2, #4]
 80812ae:	4770      	bx	lr
 80812b0:	e0042000 	.word	0xe0042000

080812b4 <HAL_EnableCompensationCell>:
 80812b4:	4b01      	ldr	r3, [pc, #4]	; (80812bc <HAL_EnableCompensationCell+0x8>)
 80812b6:	2201      	movs	r2, #1
 80812b8:	601a      	str	r2, [r3, #0]
 80812ba:	4770      	bx	lr
 80812bc:	42270400 	.word	0x42270400

080812c0 <HAL_DisableCompensationCell>:
 80812c0:	4b01      	ldr	r3, [pc, #4]	; (80812c8 <HAL_DisableCompensationCell+0x8>)
 80812c2:	2200      	movs	r2, #0
 80812c4:	601a      	str	r2, [r3, #0]
 80812c6:	4770      	bx	lr
 80812c8:	42270400 	.word	0x42270400

080812cc <HAL_GetUIDw0>:
 80812cc:	4b01      	ldr	r3, [pc, #4]	; (80812d4 <HAL_GetUIDw0+0x8>)
 80812ce:	6818      	ldr	r0, [r3, #0]
 80812d0:	4770      	bx	lr
 80812d2:	bf00      	nop
 80812d4:	1fff7a10 	.word	0x1fff7a10

080812d8 <HAL_GetUIDw1>:
 80812d8:	4b01      	ldr	r3, [pc, #4]	; (80812e0 <HAL_GetUIDw1+0x8>)
 80812da:	6818      	ldr	r0, [r3, #0]
 80812dc:	4770      	bx	lr
 80812de:	bf00      	nop
 80812e0:	1fff7a14 	.word	0x1fff7a14

080812e4 <HAL_GetUIDw2>:
 80812e4:	4b01      	ldr	r3, [pc, #4]	; (80812ec <HAL_GetUIDw2+0x8>)
 80812e6:	6818      	ldr	r0, [r3, #0]
 80812e8:	4770      	bx	lr
 80812ea:	bf00      	nop
 80812ec:	1fff7a18 	.word	0x1fff7a18

080812f0 <HAL_EnableMemorySwappingBank>:
 80812f0:	4b01      	ldr	r3, [pc, #4]	; (80812f8 <HAL_EnableMemorySwappingBank+0x8>)
 80812f2:	2201      	movs	r2, #1
 80812f4:	601a      	str	r2, [r3, #0]
 80812f6:	4770      	bx	lr
 80812f8:	42270020 	.word	0x42270020

080812fc <HAL_DisableMemorySwappingBank>:
 80812fc:	4b01      	ldr	r3, [pc, #4]	; (8081304 <HAL_DisableMemorySwappingBank+0x8>)
 80812fe:	2200      	movs	r2, #0
 8081300:	601a      	str	r2, [r3, #0]
 8081302:	4770      	bx	lr
 8081304:	42270020 	.word	0x42270020

08081308 <HAL_NVIC_SetPriorityGrouping>:
 8081308:	4a07      	ldr	r2, [pc, #28]	; (8081328 <HAL_NVIC_SetPriorityGrouping+0x20>)
 808130a:	68d3      	ldr	r3, [r2, #12]
 808130c:	f64f 01ff 	movw	r1, #63743	; 0xf8ff
 8081310:	400b      	ands	r3, r1
 8081312:	0200      	lsls	r0, r0, #8
 8081314:	f043 63bf 	orr.w	r3, r3, #100139008	; 0x5f80000
 8081318:	f400 60e0 	and.w	r0, r0, #1792	; 0x700
 808131c:	f443 3300 	orr.w	r3, r3, #131072	; 0x20000
 8081320:	4303      	orrs	r3, r0
 8081322:	60d3      	str	r3, [r2, #12]
 8081324:	4770      	bx	lr
 8081326:	bf00      	nop
 8081328:	e000ed00 	.word	0xe000ed00

0808132c <HAL_NVIC_SetPriority>:
 808132c:	4b18      	ldr	r3, [pc, #96]	; (8081390 <HAL_NVIC_SetPriority+0x64>)
 808132e:	68db      	ldr	r3, [r3, #12]
 8081330:	f3c3 2302 	ubfx	r3, r3, #8, #3
 8081334:	b430      	push	{r4, r5}
 8081336:	f1c3 0507 	rsb	r5, r3, #7
 808133a:	2d04      	cmp	r5, #4
 808133c:	f103 0404 	add.w	r4, r3, #4
 8081340:	bf28      	it	cs
 8081342:	2504      	movcs	r5, #4
 8081344:	2c06      	cmp	r4, #6
 8081346:	d919      	bls.n	808137c <HAL_NVIC_SetPriority+0x50>
 8081348:	3b03      	subs	r3, #3
 808134a:	f04f 34ff 	mov.w	r4, #4294967295	; 0xffffffff
 808134e:	409c      	lsls	r4, r3
 8081350:	ea22 0404 	bic.w	r4, r2, r4
 8081354:	f04f 32ff 	mov.w	r2, #4294967295	; 0xffffffff
 8081358:	40aa      	lsls	r2, r5
 808135a:	ea21 0102 	bic.w	r1, r1, r2
 808135e:	fa01 f203 	lsl.w	r2, r1, r3
 8081362:	4322      	orrs	r2, r4
 8081364:	0112      	lsls	r2, r2, #4
 8081366:	2800      	cmp	r0, #0
 8081368:	b2d2      	uxtb	r2, r2
 808136a:	db0a      	blt.n	8081382 <HAL_NVIC_SetPriority+0x56>
 808136c:	f100 4060 	add.w	r0, r0, #3758096384	; 0xe0000000
 8081370:	f500 4061 	add.w	r0, r0, #57600	; 0xe100
 8081374:	f880 2300 	strb.w	r2, [r0, #768]	; 0x300
 8081378:	bc30      	pop	{r4, r5}
 808137a:	4770      	bx	lr
 808137c:	2400      	movs	r4, #0
 808137e:	4623      	mov	r3, r4
 8081380:	e7e8      	b.n	8081354 <HAL_NVIC_SetPriority+0x28>
 8081382:	4b04      	ldr	r3, [pc, #16]	; (8081394 <HAL_NVIC_SetPriority+0x68>)
 8081384:	f000 000f 	and.w	r0, r0, #15
 8081388:	4403      	add	r3, r0
 808138a:	761a      	strb	r2, [r3, #24]
 808138c:	bc30      	pop	{r4, r5}
 808138e:	4770      	bx	lr
 8081390:	e000ed00 	.word	0xe000ed00
 8081394:	e000ecfc 	.word	0xe000ecfc

08081398 <HAL_NVIC_EnableIRQ>:
 8081398:	2800      	cmp	r0, #0
 808139a:	db07      	blt.n	80813ac <HAL_NVIC_EnableIRQ+0x14>
 808139c:	f000 011f 	and.w	r1, r0, #31
 80813a0:	2301      	movs	r3, #1
 80813a2:	0940      	lsrs	r0, r0, #5
 80813a4:	4a02      	ldr	r2, [pc, #8]	; (80813b0 <HAL_NVIC_EnableIRQ+0x18>)
 80813a6:	408b      	lsls	r3, r1
 80813a8:	f842 3020 	str.w	r3, [r2, r0, lsl #2]
 80813ac:	4770      	bx	lr
 80813ae:	bf00      	nop
 80813b0:	e000e100 	.word	0xe000e100

080813b4 <HAL_NVIC_DisableIRQ>:
 80813b4:	2800      	cmp	r0, #0
 80813b6:	db0d      	blt.n	80813d4 <HAL_NVIC_DisableIRQ+0x20>
 80813b8:	0943      	lsrs	r3, r0, #5
 80813ba:	3320      	adds	r3, #32
 80813bc:	2201      	movs	r2, #1
 80813be:	4906      	ldr	r1, [pc, #24]	; (80813d8 <HAL_NVIC_DisableIRQ+0x24>)
 80813c0:	f000 001f 	and.w	r0, r0, #31
 80813c4:	fa02 f000 	lsl.w	r0, r2, r0
 80813c8:	f841 0023 	str.w	r0, [r1, r3, lsl #2]
 80813cc:	f3bf 8f4f 	dsb	sy
 80813d0:	f3bf 8f6f 	isb	sy
 80813d4:	4770      	bx	lr
 80813d6:	bf00      	nop
 80813d8:	e000e100 	.word	0xe000e100

080813dc <HAL_NVIC_SystemReset>:
 80813dc:	f3bf 8f4f 	dsb	sy
 80813e0:	4905      	ldr	r1, [pc, #20]	; (80813f8 <HAL_NVIC_SystemReset+0x1c>)
 80813e2:	4b06      	ldr	r3, [pc, #24]	; (80813fc <HAL_NVIC_SystemReset+0x20>)
 80813e4:	68ca      	ldr	r2, [r1, #12]
 80813e6:	f402 62e0 	and.w	r2, r2, #1792	; 0x700
 80813ea:	4313      	orrs	r3, r2
 80813ec:	60cb      	str	r3, [r1, #12]
 80813ee:	f3bf 8f4f 	dsb	sy
 80813f2:	bf00      	nop
 80813f4:	e7fd      	b.n	80813f2 <HAL_NVIC_SystemReset+0x16>
 80813f6:	bf00      	nop
 80813f8:	e000ed00 	.word	0xe000ed00
 80813fc:	05fa0004 	.word	0x05fa0004

08081400 <HAL_SYSTICK_Config>:
 8081400:	3801      	subs	r0, #1
 8081402:	f1b0 7f80 	cmp.w	r0, #16777216	; 0x1000000
 8081406:	d20e      	bcs.n	8081426 <HAL_SYSTICK_Config+0x26>
 8081408:	4b08      	ldr	r3, [pc, #32]	; (808142c <HAL_SYSTICK_Config+0x2c>)
 808140a:	b410      	push	{r4}
 808140c:	4c08      	ldr	r4, [pc, #32]	; (8081430 <HAL_SYSTICK_Config+0x30>)
 808140e:	6058      	str	r0, [r3, #4]
 8081410:	20f0      	movs	r0, #240	; 0xf0
 8081412:	f884 0023 	strb.w	r0, [r4, #35]	; 0x23
 8081416:	2200      	movs	r2, #0
 8081418:	2107      	movs	r1, #7
 808141a:	4610      	mov	r0, r2
 808141c:	609a      	str	r2, [r3, #8]
 808141e:	6019      	str	r1, [r3, #0]
 8081420:	f85d 4b04 	ldr.w	r4, [sp], #4
 8081424:	4770      	bx	lr
 8081426:	2001      	movs	r0, #1
 8081428:	4770      	bx	lr
 808142a:	bf00      	nop
 808142c:	e000e010 	.word	0xe000e010
 8081430:	e000ed00 	.word	0xe000ed00

08081434 <HAL_MPU_Disable>:
 8081434:	f3bf 8f5f 	dmb	sy
 8081438:	4a04      	ldr	r2, [pc, #16]	; (808144c <HAL_MPU_Disable+0x18>)
 808143a:	4905      	ldr	r1, [pc, #20]	; (8081450 <HAL_MPU_Disable+0x1c>)
 808143c:	6a53      	ldr	r3, [r2, #36]	; 0x24
 808143e:	2000      	movs	r0, #0
 8081440:	f423 3380 	bic.w	r3, r3, #65536	; 0x10000
 8081444:	6253      	str	r3, [r2, #36]	; 0x24
 8081446:	6048      	str	r0, [r1, #4]
 8081448:	4770      	bx	lr
 808144a:	bf00      	nop
 808144c:	e000ed00 	.word	0xe000ed00
 8081450:	e000ed90 	.word	0xe000ed90

08081454 <HAL_MPU_Enable>:
 8081454:	4b06      	ldr	r3, [pc, #24]	; (8081470 <HAL_MPU_Enable+0x1c>)
 8081456:	4a07      	ldr	r2, [pc, #28]	; (8081474 <HAL_MPU_Enable+0x20>)
 8081458:	f040 0001 	orr.w	r0, r0, #1
 808145c:	6058      	str	r0, [r3, #4]
 808145e:	6a53      	ldr	r3, [r2, #36]	; 0x24
 8081460:	f443 3380 	orr.w	r3, r3, #65536	; 0x10000
 8081464:	6253      	str	r3, [r2, #36]	; 0x24
 8081466:	f3bf 8f4f 	dsb	sy
 808146a:	f3bf 8f6f 	isb	sy
 808146e:	4770      	bx	lr
 8081470:	e000ed90 	.word	0xe000ed90
 8081474:	e000ed00 	.word	0xe000ed00

08081478 <HAL_MPU_ConfigRegion>:
 8081478:	4a12      	ldr	r2, [pc, #72]	; (80814c4 <HAL_MPU_ConfigRegion+0x4c>)
 808147a:	7843      	ldrb	r3, [r0, #1]
 808147c:	6093      	str	r3, [r2, #8]
 808147e:	7801      	ldrb	r1, [r0, #0]
 8081480:	b911      	cbnz	r1, 8081488 <HAL_MPU_ConfigRegion+0x10>
 8081482:	60d1      	str	r1, [r2, #12]
 8081484:	6111      	str	r1, [r2, #16]
 8081486:	4770      	bx	lr
 8081488:	6843      	ldr	r3, [r0, #4]
 808148a:	b470      	push	{r4, r5, r6}
 808148c:	60d3      	str	r3, [r2, #12]
 808148e:	7ac3      	ldrb	r3, [r0, #11]
 8081490:	7b05      	ldrb	r5, [r0, #12]
 8081492:	7a84      	ldrb	r4, [r0, #10]
 8081494:	7b86      	ldrb	r6, [r0, #14]
 8081496:	061b      	lsls	r3, r3, #24
 8081498:	ea43 7305 	orr.w	r3, r3, r5, lsl #28
 808149c:	430b      	orrs	r3, r1
 808149e:	7b41      	ldrb	r1, [r0, #13]
 80814a0:	7bc5      	ldrb	r5, [r0, #15]
 80814a2:	ea43 43c4 	orr.w	r3, r3, r4, lsl #19
 80814a6:	ea43 4381 	orr.w	r3, r3, r1, lsl #18
 80814aa:	7a44      	ldrb	r4, [r0, #9]
 80814ac:	7a01      	ldrb	r1, [r0, #8]
 80814ae:	ea43 4346 	orr.w	r3, r3, r6, lsl #17
 80814b2:	ea43 4305 	orr.w	r3, r3, r5, lsl #16
 80814b6:	ea43 2304 	orr.w	r3, r3, r4, lsl #8
 80814ba:	ea43 0341 	orr.w	r3, r3, r1, lsl #1
 80814be:	6113      	str	r3, [r2, #16]
 80814c0:	bc70      	pop	{r4, r5, r6}
 80814c2:	4770      	bx	lr
 80814c4:	e000ed90 	.word	0xe000ed90

080814c8 <HAL_NVIC_GetPriorityGrouping>:
 80814c8:	4b02      	ldr	r3, [pc, #8]	; (80814d4 <HAL_NVIC_GetPriorityGrouping+0xc>)
 80814ca:	68d8      	ldr	r0, [r3, #12]
 80814cc:	f3c0 2002 	ubfx	r0, r0, #8, #3
 80814d0:	4770      	bx	lr
 80814d2:	bf00      	nop
 80814d4:	e000ed00 	.word	0xe000ed00

080814d8 <HAL_NVIC_GetPriority>:
 80814d8:	2800      	cmp	r0, #0
 80814da:	b430      	push	{r4, r5}
 80814dc:	db23      	blt.n	8081526 <HAL_NVIC_GetPriority+0x4e>
 80814de:	f100 4060 	add.w	r0, r0, #3758096384	; 0xe0000000
 80814e2:	f500 4061 	add.w	r0, r0, #57600	; 0xe100
 80814e6:	f890 0300 	ldrb.w	r0, [r0, #768]	; 0x300
 80814ea:	0900      	lsrs	r0, r0, #4
 80814ec:	f001 0107 	and.w	r1, r1, #7
 80814f0:	f1c1 0507 	rsb	r5, r1, #7
 80814f4:	2d04      	cmp	r5, #4
 80814f6:	f101 0404 	add.w	r4, r1, #4
 80814fa:	bf28      	it	cs
 80814fc:	2504      	movcs	r5, #4
 80814fe:	2c06      	cmp	r4, #6
 8081500:	d90f      	bls.n	8081522 <HAL_NVIC_GetPriority+0x4a>
 8081502:	3903      	subs	r1, #3
 8081504:	f04f 34ff 	mov.w	r4, #4294967295	; 0xffffffff
 8081508:	408c      	lsls	r4, r1
 808150a:	ea20 0404 	bic.w	r4, r0, r4
 808150e:	40c8      	lsrs	r0, r1
 8081510:	f04f 31ff 	mov.w	r1, #4294967295	; 0xffffffff
 8081514:	40a9      	lsls	r1, r5
 8081516:	ea20 0001 	bic.w	r0, r0, r1
 808151a:	6010      	str	r0, [r2, #0]
 808151c:	601c      	str	r4, [r3, #0]
 808151e:	bc30      	pop	{r4, r5}
 8081520:	4770      	bx	lr
 8081522:	2400      	movs	r4, #0
 8081524:	e7f4      	b.n	8081510 <HAL_NVIC_GetPriority+0x38>
 8081526:	4c03      	ldr	r4, [pc, #12]	; (8081534 <HAL_NVIC_GetPriority+0x5c>)
 8081528:	f000 000f 	and.w	r0, r0, #15
 808152c:	4404      	add	r4, r0
 808152e:	7e20      	ldrb	r0, [r4, #24]
 8081530:	0900      	lsrs	r0, r0, #4
 8081532:	e7db      	b.n	80814ec <HAL_NVIC_GetPriority+0x14>
 8081534:	e000ecfc 	.word	0xe000ecfc

08081538 <HAL_NVIC_SetPendingIRQ>:
 8081538:	2800      	cmp	r0, #0
 808153a:	db09      	blt.n	8081550 <HAL_NVIC_SetPendingIRQ+0x18>
 808153c:	0943      	lsrs	r3, r0, #5
 808153e:	3340      	adds	r3, #64	; 0x40
 8081540:	f000 001f 	and.w	r0, r0, #31
 8081544:	2201      	movs	r2, #1
 8081546:	4903      	ldr	r1, [pc, #12]	; (8081554 <HAL_NVIC_SetPendingIRQ+0x1c>)
 8081548:	fa02 f000 	lsl.w	r0, r2, r0
 808154c:	f841 0023 	str.w	r0, [r1, r3, lsl #2]
 8081550:	4770      	bx	lr
 8081552:	bf00      	nop
 8081554:	e000e100 	.word	0xe000e100

08081558 <HAL_NVIC_GetPendingIRQ>:
 8081558:	2800      	cmp	r0, #0
 808155a:	db0b      	blt.n	8081574 <HAL_NVIC_GetPendingIRQ+0x1c>
 808155c:	0943      	lsrs	r3, r0, #5
 808155e:	4a06      	ldr	r2, [pc, #24]	; (8081578 <HAL_NVIC_GetPendingIRQ+0x20>)
 8081560:	3340      	adds	r3, #64	; 0x40
 8081562:	f000 001f 	and.w	r0, r0, #31
 8081566:	f852 3023 	ldr.w	r3, [r2, r3, lsl #2]
 808156a:	fa23 f000 	lsr.w	r0, r3, r0
 808156e:	f000 0001 	and.w	r0, r0, #1
 8081572:	4770      	bx	lr
 8081574:	2000      	movs	r0, #0
 8081576:	4770      	bx	lr
 8081578:	e000e100 	.word	0xe000e100

0808157c <HAL_NVIC_ClearPendingIRQ>:
 808157c:	2800      	cmp	r0, #0
 808157e:	db09      	blt.n	8081594 <HAL_NVIC_ClearPendingIRQ+0x18>
 8081580:	0943      	lsrs	r3, r0, #5
 8081582:	3360      	adds	r3, #96	; 0x60
 8081584:	f000 001f 	and.w	r0, r0, #31
 8081588:	2201      	movs	r2, #1
 808158a:	4903      	ldr	r1, [pc, #12]	; (8081598 <HAL_NVIC_ClearPendingIRQ+0x1c>)
 808158c:	fa02 f000 	lsl.w	r0, r2, r0
 8081590:	f841 0023 	str.w	r0, [r1, r3, lsl #2]
 8081594:	4770      	bx	lr
 8081596:	bf00      	nop
 8081598:	e000e100 	.word	0xe000e100

0808159c <HAL_NVIC_GetActive>:
 808159c:	2800      	cmp	r0, #0
 808159e:	db0b      	blt.n	80815b8 <HAL_NVIC_GetActive+0x1c>
 80815a0:	0943      	lsrs	r3, r0, #5
 80815a2:	4a06      	ldr	r2, [pc, #24]	; (80815bc <HAL_NVIC_GetActive+0x20>)
 80815a4:	3380      	adds	r3, #128	; 0x80
 80815a6:	f000 001f 	and.w	r0, r0, #31
 80815aa:	f852 3023 	ldr.w	r3, [r2, r3, lsl #2]
 80815ae:	fa23 f000 	lsr.w	r0, r3, r0
 80815b2:	f000 0001 	and.w	r0, r0, #1
 80815b6:	4770      	bx	lr
 80815b8:	2000      	movs	r0, #0
 80815ba:	4770      	bx	lr
 80815bc:	e000e100 	.word	0xe000e100

080815c0 <HAL_SYSTICK_CLKSourceConfig>:
 80815c0:	4a04      	ldr	r2, [pc, #16]	; (80815d4 <HAL_SYSTICK_CLKSourceConfig+0x14>)
 80815c2:	6813      	ldr	r3, [r2, #0]
 80815c4:	2804      	cmp	r0, #4
 80815c6:	bf0c      	ite	eq
 80815c8:	f043 0304 	orreq.w	r3, r3, #4
 80815cc:	f023 0304 	bicne.w	r3, r3, #4
 80815d0:	6013      	str	r3, [r2, #0]
 80815d2:	4770      	bx	lr
 80815d4:	e000e010 	.word	0xe000e010

080815d8 <HAL_SYSTICK_Callback>:
 80815d8:	4770      	bx	lr
 80815da:	bf00      	nop

080815dc <HAL_SYSTICK_IRQHandler>:
 80815dc:	b508      	push	{r3, lr}
 80815de:	f7ff fffb 	bl	80815d8 <HAL_SYSTICK_Callback>
 80815e2:	bd08      	pop	{r3, pc}

080815e4 <HAL_DMA_Init>:
 80815e4:	b5f8      	push	{r3, r4, r5, r6, r7, lr}
 80815e6:	4604      	mov	r4, r0
 80815e8:	f7ff fddc 	bl	80811a4 <HAL_GetTick>
 80815ec:	2c00      	cmp	r4, #0
 80815ee:	d054      	beq.n	808169a <HAL_DMA_Init+0xb6>
 80815f0:	2202      	movs	r2, #2
 80815f2:	6823      	ldr	r3, [r4, #0]
 80815f4:	f884 2035 	strb.w	r2, [r4, #53]	; 0x35
 80815f8:	681a      	ldr	r2, [r3, #0]
 80815fa:	2100      	movs	r1, #0
 80815fc:	f022 0201 	bic.w	r2, r2, #1
 8081600:	f884 1034 	strb.w	r1, [r4, #52]	; 0x34
 8081604:	4605      	mov	r5, r0
 8081606:	601a      	str	r2, [r3, #0]
 8081608:	e005      	b.n	8081616 <HAL_DMA_Init+0x32>
 808160a:	f7ff fdcb 	bl	80811a4 <HAL_GetTick>
 808160e:	1b40      	subs	r0, r0, r5
 8081610:	2805      	cmp	r0, #5
 8081612:	d83b      	bhi.n	808168c <HAL_DMA_Init+0xa8>
 8081614:	6823      	ldr	r3, [r4, #0]
 8081616:	681a      	ldr	r2, [r3, #0]
 8081618:	07d1      	lsls	r1, r2, #31
 808161a:	d4f6      	bmi.n	808160a <HAL_DMA_Init+0x26>
 808161c:	e9d4 2601 	ldrd	r2, r6, [r4, #4]
 8081620:	e9d4 5103 	ldrd	r5, r1, [r4, #12]
 8081624:	4332      	orrs	r2, r6
 8081626:	6960      	ldr	r0, [r4, #20]
 8081628:	681f      	ldr	r7, [r3, #0]
 808162a:	432a      	orrs	r2, r5
 808162c:	e9d4 6506 	ldrd	r6, r5, [r4, #24]
 8081630:	430a      	orrs	r2, r1
 8081632:	4302      	orrs	r2, r0
 8081634:	6a21      	ldr	r1, [r4, #32]
 8081636:	4835      	ldr	r0, [pc, #212]	; (808170c <HAL_DMA_Init+0x128>)
 8081638:	4332      	orrs	r2, r6
 808163a:	432a      	orrs	r2, r5
 808163c:	430a      	orrs	r2, r1
 808163e:	6a61      	ldr	r1, [r4, #36]	; 0x24
 8081640:	4038      	ands	r0, r7
 8081642:	2904      	cmp	r1, #4
 8081644:	ea42 0200 	orr.w	r2, r2, r0
 8081648:	d029      	beq.n	808169e <HAL_DMA_Init+0xba>
 808164a:	601a      	str	r2, [r3, #0]
 808164c:	695a      	ldr	r2, [r3, #20]
 808164e:	f022 0207 	bic.w	r2, r2, #7
 8081652:	4311      	orrs	r1, r2
 8081654:	b2da      	uxtb	r2, r3
 8081656:	482e      	ldr	r0, [pc, #184]	; (8081710 <HAL_DMA_Init+0x12c>)
 8081658:	6159      	str	r1, [r3, #20]
 808165a:	3a10      	subs	r2, #16
 808165c:	fba0 1202 	umull	r1, r2, r0, r2
 8081660:	0912      	lsrs	r2, r2, #4
 8081662:	492c      	ldr	r1, [pc, #176]	; (8081714 <HAL_DMA_Init+0x130>)
 8081664:	f423 737f 	bic.w	r3, r3, #1020	; 0x3fc
 8081668:	5c89      	ldrb	r1, [r1, r2]
 808166a:	65e1      	str	r1, [r4, #92]	; 0x5c
 808166c:	f023 0303 	bic.w	r3, r3, #3
 8081670:	2a03      	cmp	r2, #3
 8081672:	bf88      	it	hi
 8081674:	3304      	addhi	r3, #4
 8081676:	223f      	movs	r2, #63	; 0x3f
 8081678:	408a      	lsls	r2, r1
 808167a:	2501      	movs	r5, #1
 808167c:	2100      	movs	r1, #0
 808167e:	65a3      	str	r3, [r4, #88]	; 0x58
 8081680:	4608      	mov	r0, r1
 8081682:	609a      	str	r2, [r3, #8]
 8081684:	6561      	str	r1, [r4, #84]	; 0x54
 8081686:	f884 5035 	strb.w	r5, [r4, #53]	; 0x35
 808168a:	bdf8      	pop	{r3, r4, r5, r6, r7, pc}
 808168c:	2303      	movs	r3, #3
 808168e:	2220      	movs	r2, #32
 8081690:	6562      	str	r2, [r4, #84]	; 0x54
 8081692:	4618      	mov	r0, r3
 8081694:	f884 3035 	strb.w	r3, [r4, #53]	; 0x35
 8081698:	bdf8      	pop	{r3, r4, r5, r6, r7, pc}
 808169a:	2001      	movs	r0, #1
 808169c:	bdf8      	pop	{r3, r4, r5, r6, r7, pc}
 808169e:	e9d4 010b 	ldrd	r0, r1, [r4, #44]	; 0x2c
 80816a2:	4301      	orrs	r1, r0
 80816a4:	430a      	orrs	r2, r1
 80816a6:	6aa5      	ldr	r5, [r4, #40]	; 0x28
 80816a8:	601a      	str	r2, [r3, #0]
 80816aa:	695a      	ldr	r2, [r3, #20]
 80816ac:	f045 0104 	orr.w	r1, r5, #4
 80816b0:	f022 0207 	bic.w	r2, r2, #7
 80816b4:	4311      	orrs	r1, r2
 80816b6:	2800      	cmp	r0, #0
 80816b8:	d0cc      	beq.n	8081654 <HAL_DMA_Init+0x70>
 80816ba:	b17e      	cbz	r6, 80816dc <HAL_DMA_Init+0xf8>
 80816bc:	f5b6 5f00 	cmp.w	r6, #8192	; 0x2000
 80816c0:	d016      	beq.n	80816f0 <HAL_DMA_Init+0x10c>
 80816c2:	2d02      	cmp	r5, #2
 80816c4:	d903      	bls.n	80816ce <HAL_DMA_Init+0xea>
 80816c6:	2d03      	cmp	r5, #3
 80816c8:	d1c4      	bne.n	8081654 <HAL_DMA_Init+0x70>
 80816ca:	01c2      	lsls	r2, r0, #7
 80816cc:	d5c2      	bpl.n	8081654 <HAL_DMA_Init+0x70>
 80816ce:	2301      	movs	r3, #1
 80816d0:	2240      	movs	r2, #64	; 0x40
 80816d2:	6562      	str	r2, [r4, #84]	; 0x54
 80816d4:	4618      	mov	r0, r3
 80816d6:	f884 3035 	strb.w	r3, [r4, #53]	; 0x35
 80816da:	bdf8      	pop	{r3, r4, r5, r6, r7, pc}
 80816dc:	2d01      	cmp	r5, #1
 80816de:	d003      	beq.n	80816e8 <HAL_DMA_Init+0x104>
 80816e0:	d3f3      	bcc.n	80816ca <HAL_DMA_Init+0xe6>
 80816e2:	2d02      	cmp	r5, #2
 80816e4:	d1b6      	bne.n	8081654 <HAL_DMA_Init+0x70>
 80816e6:	e7f0      	b.n	80816ca <HAL_DMA_Init+0xe6>
 80816e8:	f1b0 7fc0 	cmp.w	r0, #25165824	; 0x1800000
 80816ec:	d1b2      	bne.n	8081654 <HAL_DMA_Init+0x70>
 80816ee:	e7ee      	b.n	80816ce <HAL_DMA_Init+0xea>
 80816f0:	2d03      	cmp	r5, #3
 80816f2:	d8af      	bhi.n	8081654 <HAL_DMA_Init+0x70>
 80816f4:	a201      	add	r2, pc, #4	; (adr r2, 80816fc <HAL_DMA_Init+0x118>)
 80816f6:	f852 f025 	ldr.w	pc, [r2, r5, lsl #2]
 80816fa:	bf00      	nop
 80816fc:	080816cf 	.word	0x080816cf
 8081700:	080816cb 	.word	0x080816cb
 8081704:	080816cf 	.word	0x080816cf
 8081708:	080816e9 	.word	0x080816e9
 808170c:	f010803f 	.word	0xf010803f
 8081710:	aaaaaaab 	.word	0xaaaaaaab
 8081714:	08088b30 	.word	0x08088b30

08081718 <HAL_DMA_DeInit>:
 8081718:	2800      	cmp	r0, #0
 808171a:	d037      	beq.n	808178c <HAL_DMA_DeInit+0x74>
 808171c:	4603      	mov	r3, r0
 808171e:	f890 0035 	ldrb.w	r0, [r0, #53]	; 0x35
 8081722:	b2c0      	uxtb	r0, r0
 8081724:	2802      	cmp	r0, #2
 8081726:	d033      	beq.n	8081790 <HAL_DMA_DeInit+0x78>
 8081728:	681a      	ldr	r2, [r3, #0]
 808172a:	b470      	push	{r4, r5, r6}
 808172c:	b2d1      	uxtb	r1, r2
 808172e:	4d19      	ldr	r5, [pc, #100]	; (8081794 <HAL_DMA_DeInit+0x7c>)
 8081730:	4c19      	ldr	r4, [pc, #100]	; (8081798 <HAL_DMA_DeInit+0x80>)
 8081732:	6810      	ldr	r0, [r2, #0]
 8081734:	3910      	subs	r1, #16
 8081736:	fba5 5101 	umull	r5, r1, r5, r1
 808173a:	0909      	lsrs	r1, r1, #4
 808173c:	f020 0001 	bic.w	r0, r0, #1
 8081740:	5c65      	ldrb	r5, [r4, r1]
 8081742:	6010      	str	r0, [r2, #0]
 8081744:	f422 747f 	bic.w	r4, r2, #1020	; 0x3fc
 8081748:	f024 0403 	bic.w	r4, r4, #3
 808174c:	2903      	cmp	r1, #3
 808174e:	f04f 0000 	mov.w	r0, #0
 8081752:	bf88      	it	hi
 8081754:	3404      	addhi	r4, #4
 8081756:	2621      	movs	r6, #33	; 0x21
 8081758:	213f      	movs	r1, #63	; 0x3f
 808175a:	6010      	str	r0, [r2, #0]
 808175c:	40a9      	lsls	r1, r5
 808175e:	6050      	str	r0, [r2, #4]
 8081760:	6090      	str	r0, [r2, #8]
 8081762:	60d0      	str	r0, [r2, #12]
 8081764:	6110      	str	r0, [r2, #16]
 8081766:	6156      	str	r6, [r2, #20]
 8081768:	2200      	movs	r2, #0
 808176a:	65dd      	str	r5, [r3, #92]	; 0x5c
 808176c:	659c      	str	r4, [r3, #88]	; 0x58
 808176e:	e9c3 220f 	strd	r2, r2, [r3, #60]	; 0x3c
 8081772:	e9c3 2211 	strd	r2, r2, [r3, #68]	; 0x44
 8081776:	e9c3 2213 	strd	r2, r2, [r3, #76]	; 0x4c
 808177a:	4610      	mov	r0, r2
 808177c:	60a1      	str	r1, [r4, #8]
 808177e:	655a      	str	r2, [r3, #84]	; 0x54
 8081780:	f883 2034 	strb.w	r2, [r3, #52]	; 0x34
 8081784:	f883 2035 	strb.w	r2, [r3, #53]	; 0x35
 8081788:	bc70      	pop	{r4, r5, r6}
 808178a:	4770      	bx	lr
 808178c:	2001      	movs	r0, #1
 808178e:	4770      	bx	lr
 8081790:	4770      	bx	lr
 8081792:	bf00      	nop
 8081794:	aaaaaaab 	.word	0xaaaaaaab
 8081798:	08088b30 	.word	0x08088b30

0808179c <HAL_DMA_Start>:
 808179c:	b470      	push	{r4, r5, r6}
 808179e:	f890 4034 	ldrb.w	r4, [r0, #52]	; 0x34
 80817a2:	2c01      	cmp	r4, #1
 80817a4:	d025      	beq.n	80817f2 <HAL_DMA_Start+0x56>
 80817a6:	f890 4035 	ldrb.w	r4, [r0, #53]	; 0x35
 80817aa:	2501      	movs	r5, #1
 80817ac:	42ac      	cmp	r4, r5
 80817ae:	f880 5034 	strb.w	r5, [r0, #52]	; 0x34
 80817b2:	d118      	bne.n	80817e6 <HAL_DMA_Start+0x4a>
 80817b4:	6804      	ldr	r4, [r0, #0]
 80817b6:	2602      	movs	r6, #2
 80817b8:	2500      	movs	r5, #0
 80817ba:	f880 6035 	strb.w	r6, [r0, #53]	; 0x35
 80817be:	6545      	str	r5, [r0, #84]	; 0x54
 80817c0:	6825      	ldr	r5, [r4, #0]
 80817c2:	6886      	ldr	r6, [r0, #8]
 80817c4:	f425 2580 	bic.w	r5, r5, #262144	; 0x40000
 80817c8:	2e40      	cmp	r6, #64	; 0x40
 80817ca:	6025      	str	r5, [r4, #0]
 80817cc:	6063      	str	r3, [r4, #4]
 80817ce:	bf0b      	itete	eq
 80817d0:	60a2      	streq	r2, [r4, #8]
 80817d2:	60a1      	strne	r1, [r4, #8]
 80817d4:	60e1      	streq	r1, [r4, #12]
 80817d6:	60e2      	strne	r2, [r4, #12]
 80817d8:	6823      	ldr	r3, [r4, #0]
 80817da:	f043 0301 	orr.w	r3, r3, #1
 80817de:	6023      	str	r3, [r4, #0]
 80817e0:	2000      	movs	r0, #0
 80817e2:	bc70      	pop	{r4, r5, r6}
 80817e4:	4770      	bx	lr
 80817e6:	2300      	movs	r3, #0
 80817e8:	f880 3034 	strb.w	r3, [r0, #52]	; 0x34
 80817ec:	bc70      	pop	{r4, r5, r6}
 80817ee:	2002      	movs	r0, #2
 80817f0:	4770      	bx	lr
 80817f2:	2002      	movs	r0, #2
 80817f4:	bc70      	pop	{r4, r5, r6}
 80817f6:	4770      	bx	lr

080817f8 <HAL_DMA_Start_IT>:
 80817f8:	b4f0      	push	{r4, r5, r6, r7}
 80817fa:	f890 4034 	ldrb.w	r4, [r0, #52]	; 0x34
 80817fe:	2c01      	cmp	r4, #1
 8081800:	d039      	beq.n	8081876 <HAL_DMA_Start_IT+0x7e>
 8081802:	f890 4035 	ldrb.w	r4, [r0, #53]	; 0x35
 8081806:	6d86      	ldr	r6, [r0, #88]	; 0x58
 8081808:	2501      	movs	r5, #1
 808180a:	42ac      	cmp	r4, r5
 808180c:	f880 5034 	strb.w	r5, [r0, #52]	; 0x34
 8081810:	d12b      	bne.n	808186a <HAL_DMA_Start_IT+0x72>
 8081812:	6804      	ldr	r4, [r0, #0]
 8081814:	2702      	movs	r7, #2
 8081816:	2500      	movs	r5, #0
 8081818:	f880 7035 	strb.w	r7, [r0, #53]	; 0x35
 808181c:	6545      	str	r5, [r0, #84]	; 0x54
 808181e:	6825      	ldr	r5, [r4, #0]
 8081820:	6887      	ldr	r7, [r0, #8]
 8081822:	f425 2580 	bic.w	r5, r5, #262144	; 0x40000
 8081826:	2f40      	cmp	r7, #64	; 0x40
 8081828:	6025      	str	r5, [r4, #0]
 808182a:	6063      	str	r3, [r4, #4]
 808182c:	bf0a      	itet	eq
 808182e:	60a2      	streq	r2, [r4, #8]
 8081830:	60a1      	strne	r1, [r4, #8]
 8081832:	60e1      	streq	r1, [r4, #12]
 8081834:	6dc1      	ldr	r1, [r0, #92]	; 0x5c
 8081836:	bf18      	it	ne
 8081838:	60e2      	strne	r2, [r4, #12]
 808183a:	233f      	movs	r3, #63	; 0x3f
 808183c:	408b      	lsls	r3, r1
 808183e:	6c02      	ldr	r2, [r0, #64]	; 0x40
 8081840:	60b3      	str	r3, [r6, #8]
 8081842:	6823      	ldr	r3, [r4, #0]
 8081844:	f043 0316 	orr.w	r3, r3, #22
 8081848:	6023      	str	r3, [r4, #0]
 808184a:	6963      	ldr	r3, [r4, #20]
 808184c:	f043 0380 	orr.w	r3, r3, #128	; 0x80
 8081850:	6163      	str	r3, [r4, #20]
 8081852:	b11a      	cbz	r2, 808185c <HAL_DMA_Start_IT+0x64>
 8081854:	6823      	ldr	r3, [r4, #0]
 8081856:	f043 0308 	orr.w	r3, r3, #8
 808185a:	6023      	str	r3, [r4, #0]
 808185c:	6823      	ldr	r3, [r4, #0]
 808185e:	f043 0301 	orr.w	r3, r3, #1
 8081862:	6023      	str	r3, [r4, #0]
 8081864:	2000      	movs	r0, #0
 8081866:	bcf0      	pop	{r4, r5, r6, r7}
 8081868:	4770      	bx	lr
 808186a:	2300      	movs	r3, #0
 808186c:	f880 3034 	strb.w	r3, [r0, #52]	; 0x34
 8081870:	bcf0      	pop	{r4, r5, r6, r7}
 8081872:	2002      	movs	r0, #2
 8081874:	4770      	bx	lr
 8081876:	2002      	movs	r0, #2
 8081878:	bcf0      	pop	{r4, r5, r6, r7}
 808187a:	4770      	bx	lr

0808187c <HAL_DMA_Abort>:
 808187c:	b570      	push	{r4, r5, r6, lr}
 808187e:	4604      	mov	r4, r0
 8081880:	6d86      	ldr	r6, [r0, #88]	; 0x58
 8081882:	f7ff fc8f 	bl	80811a4 <HAL_GetTick>
 8081886:	f894 3035 	ldrb.w	r3, [r4, #53]	; 0x35
 808188a:	2b02      	cmp	r3, #2
 808188c:	d006      	beq.n	808189c <HAL_DMA_Abort+0x20>
 808188e:	2280      	movs	r2, #128	; 0x80
 8081890:	2300      	movs	r3, #0
 8081892:	6562      	str	r2, [r4, #84]	; 0x54
 8081894:	f884 3034 	strb.w	r3, [r4, #52]	; 0x34
 8081898:	2001      	movs	r0, #1
 808189a:	bd70      	pop	{r4, r5, r6, pc}
 808189c:	6823      	ldr	r3, [r4, #0]
 808189e:	6c21      	ldr	r1, [r4, #64]	; 0x40
 80818a0:	681a      	ldr	r2, [r3, #0]
 80818a2:	f022 0216 	bic.w	r2, r2, #22
 80818a6:	601a      	str	r2, [r3, #0]
 80818a8:	695a      	ldr	r2, [r3, #20]
 80818aa:	f022 0280 	bic.w	r2, r2, #128	; 0x80
 80818ae:	4605      	mov	r5, r0
 80818b0:	615a      	str	r2, [r3, #20]
 80818b2:	b331      	cbz	r1, 8081902 <HAL_DMA_Abort+0x86>
 80818b4:	681a      	ldr	r2, [r3, #0]
 80818b6:	f022 0208 	bic.w	r2, r2, #8
 80818ba:	601a      	str	r2, [r3, #0]
 80818bc:	681a      	ldr	r2, [r3, #0]
 80818be:	f022 0201 	bic.w	r2, r2, #1
 80818c2:	601a      	str	r2, [r3, #0]
 80818c4:	e005      	b.n	80818d2 <HAL_DMA_Abort+0x56>
 80818c6:	f7ff fc6d 	bl	80811a4 <HAL_GetTick>
 80818ca:	1b40      	subs	r0, r0, r5
 80818cc:	2805      	cmp	r0, #5
 80818ce:	d80f      	bhi.n	80818f0 <HAL_DMA_Abort+0x74>
 80818d0:	6823      	ldr	r3, [r4, #0]
 80818d2:	681b      	ldr	r3, [r3, #0]
 80818d4:	f013 0301 	ands.w	r3, r3, #1
 80818d8:	d1f5      	bne.n	80818c6 <HAL_DMA_Abort+0x4a>
 80818da:	6de1      	ldr	r1, [r4, #92]	; 0x5c
 80818dc:	223f      	movs	r2, #63	; 0x3f
 80818de:	408a      	lsls	r2, r1
 80818e0:	2101      	movs	r1, #1
 80818e2:	60b2      	str	r2, [r6, #8]
 80818e4:	4618      	mov	r0, r3
 80818e6:	f884 3034 	strb.w	r3, [r4, #52]	; 0x34
 80818ea:	f884 1035 	strb.w	r1, [r4, #53]	; 0x35
 80818ee:	bd70      	pop	{r4, r5, r6, pc}
 80818f0:	2220      	movs	r2, #32
 80818f2:	2300      	movs	r3, #0
 80818f4:	2003      	movs	r0, #3
 80818f6:	6562      	str	r2, [r4, #84]	; 0x54
 80818f8:	f884 3034 	strb.w	r3, [r4, #52]	; 0x34
 80818fc:	f884 0035 	strb.w	r0, [r4, #53]	; 0x35
 8081900:	bd70      	pop	{r4, r5, r6, pc}
 8081902:	6ca2      	ldr	r2, [r4, #72]	; 0x48
 8081904:	2a00      	cmp	r2, #0
 8081906:	d1d5      	bne.n	80818b4 <HAL_DMA_Abort+0x38>
 8081908:	e7d8      	b.n	80818bc <HAL_DMA_Abort+0x40>
 808190a:	bf00      	nop

0808190c <HAL_DMA_Abort_IT>:
 808190c:	f890 3035 	ldrb.w	r3, [r0, #53]	; 0x35
 8081910:	2b02      	cmp	r3, #2
 8081912:	d003      	beq.n	808191c <HAL_DMA_Abort_IT+0x10>
 8081914:	2380      	movs	r3, #128	; 0x80
 8081916:	6543      	str	r3, [r0, #84]	; 0x54
 8081918:	2001      	movs	r0, #1
 808191a:	4770      	bx	lr
 808191c:	6802      	ldr	r2, [r0, #0]
 808191e:	2305      	movs	r3, #5
 8081920:	f880 3035 	strb.w	r3, [r0, #53]	; 0x35
 8081924:	6813      	ldr	r3, [r2, #0]
 8081926:	f023 0301 	bic.w	r3, r3, #1
 808192a:	6013      	str	r3, [r2, #0]
 808192c:	2000      	movs	r0, #0
 808192e:	4770      	bx	lr

08081930 <HAL_DMA_PollForTransfer>:
 8081930:	e92d 4ff8 	stmdb	sp!, {r3, r4, r5, r6, r7, r8, r9, sl, fp, lr}
 8081934:	4604      	mov	r4, r0
 8081936:	460f      	mov	r7, r1
 8081938:	4616      	mov	r6, r2
 808193a:	f7ff fc33 	bl	80811a4 <HAL_GetTick>
 808193e:	f894 3035 	ldrb.w	r3, [r4, #53]	; 0x35
 8081942:	2b02      	cmp	r3, #2
 8081944:	d007      	beq.n	8081956 <HAL_DMA_PollForTransfer+0x26>
 8081946:	2280      	movs	r2, #128	; 0x80
 8081948:	2300      	movs	r3, #0
 808194a:	6562      	str	r2, [r4, #84]	; 0x54
 808194c:	f884 3034 	strb.w	r3, [r4, #52]	; 0x34
 8081950:	2001      	movs	r0, #1
 8081952:	e8bd 8ff8 	ldmia.w	sp!, {r3, r4, r5, r6, r7, r8, r9, sl, fp, pc}
 8081956:	6823      	ldr	r3, [r4, #0]
 8081958:	681b      	ldr	r3, [r3, #0]
 808195a:	05dd      	lsls	r5, r3, #23
 808195c:	d456      	bmi.n	8081a0c <HAL_DMA_PollForTransfer+0xdc>
 808195e:	4683      	mov	fp, r0
 8081960:	6de2      	ldr	r2, [r4, #92]	; 0x5c
 8081962:	2f00      	cmp	r7, #0
 8081964:	d04d      	beq.n	8081a02 <HAL_DMA_PollForTransfer+0xd2>
 8081966:	f04f 0a10 	mov.w	sl, #16
 808196a:	fa0a fa02 	lsl.w	sl, sl, r2
 808196e:	6da5      	ldr	r5, [r4, #88]	; 0x58
 8081970:	682b      	ldr	r3, [r5, #0]
 8081972:	2e00      	cmp	r6, #0
 8081974:	d050      	beq.n	8081a18 <HAL_DMA_PollForTransfer+0xe8>
 8081976:	1c70      	adds	r0, r6, #1
 8081978:	d05e      	beq.n	8081a38 <HAL_DMA_PollForTransfer+0x108>
 808197a:	f04f 0908 	mov.w	r9, #8
 808197e:	f04f 0801 	mov.w	r8, #1
 8081982:	ea1a 0f03 	tst.w	sl, r3
 8081986:	d12f      	bne.n	80819e8 <HAL_DMA_PollForTransfer+0xb8>
 8081988:	6d63      	ldr	r3, [r4, #84]	; 0x54
 808198a:	07db      	lsls	r3, r3, #31
 808198c:	d42c      	bmi.n	80819e8 <HAL_DMA_PollForTransfer+0xb8>
 808198e:	f7ff fc09 	bl	80811a4 <HAL_GetTick>
 8081992:	eba0 000b 	sub.w	r0, r0, fp
 8081996:	42b0      	cmp	r0, r6
 8081998:	d844      	bhi.n	8081a24 <HAL_DMA_PollForTransfer+0xf4>
 808199a:	6de2      	ldr	r2, [r4, #92]	; 0x5c
 808199c:	682b      	ldr	r3, [r5, #0]
 808199e:	fa09 fc02 	lsl.w	ip, r9, r2
 80819a2:	2104      	movs	r1, #4
 80819a4:	ea13 0f0c 	tst.w	r3, ip
 80819a8:	fa08 f002 	lsl.w	r0, r8, r2
 80819ac:	fa01 f102 	lsl.w	r1, r1, r2
 80819b0:	d007      	beq.n	80819c2 <HAL_DMA_PollForTransfer+0x92>
 80819b2:	f8d4 e054 	ldr.w	lr, [r4, #84]	; 0x54
 80819b6:	f04e 0e01 	orr.w	lr, lr, #1
 80819ba:	f8c4 e054 	str.w	lr, [r4, #84]	; 0x54
 80819be:	f8c5 c008 	str.w	ip, [r5, #8]
 80819c2:	4203      	tst	r3, r0
 80819c4:	d006      	beq.n	80819d4 <HAL_DMA_PollForTransfer+0xa4>
 80819c6:	f8d4 c054 	ldr.w	ip, [r4, #84]	; 0x54
 80819ca:	f04c 0c02 	orr.w	ip, ip, #2
 80819ce:	f8c4 c054 	str.w	ip, [r4, #84]	; 0x54
 80819d2:	60a8      	str	r0, [r5, #8]
 80819d4:	420b      	tst	r3, r1
 80819d6:	d0d4      	beq.n	8081982 <HAL_DMA_PollForTransfer+0x52>
 80819d8:	6d60      	ldr	r0, [r4, #84]	; 0x54
 80819da:	ea1a 0f03 	tst.w	sl, r3
 80819de:	f040 0004 	orr.w	r0, r0, #4
 80819e2:	6560      	str	r0, [r4, #84]	; 0x54
 80819e4:	60a9      	str	r1, [r5, #8]
 80819e6:	d0cf      	beq.n	8081988 <HAL_DMA_PollForTransfer+0x58>
 80819e8:	6d63      	ldr	r3, [r4, #84]	; 0x54
 80819ea:	b113      	cbz	r3, 80819f2 <HAL_DMA_PollForTransfer+0xc2>
 80819ec:	6d63      	ldr	r3, [r4, #84]	; 0x54
 80819ee:	07d9      	lsls	r1, r3, #31
 80819f0:	d44c      	bmi.n	8081a8c <HAL_DMA_PollForTransfer+0x15c>
 80819f2:	2f00      	cmp	r7, #0
 80819f4:	d060      	beq.n	8081ab8 <HAL_DMA_PollForTransfer+0x188>
 80819f6:	2310      	movs	r3, #16
 80819f8:	fa03 f202 	lsl.w	r2, r3, r2
 80819fc:	60aa      	str	r2, [r5, #8]
 80819fe:	2000      	movs	r0, #0
 8081a00:	e7a7      	b.n	8081952 <HAL_DMA_PollForTransfer+0x22>
 8081a02:	f04f 0a20 	mov.w	sl, #32
 8081a06:	fa0a fa02 	lsl.w	sl, sl, r2
 8081a0a:	e7b0      	b.n	808196e <HAL_DMA_PollForTransfer+0x3e>
 8081a0c:	f44f 7380 	mov.w	r3, #256	; 0x100
 8081a10:	6563      	str	r3, [r4, #84]	; 0x54
 8081a12:	2001      	movs	r0, #1
 8081a14:	e8bd 8ff8 	ldmia.w	sp!, {r3, r4, r5, r6, r7, r8, r9, sl, fp, pc}
 8081a18:	ea1a 0f03 	tst.w	sl, r3
 8081a1c:	d1e4      	bne.n	80819e8 <HAL_DMA_PollForTransfer+0xb8>
 8081a1e:	6d63      	ldr	r3, [r4, #84]	; 0x54
 8081a20:	07d8      	lsls	r0, r3, #31
 8081a22:	d4e1      	bmi.n	80819e8 <HAL_DMA_PollForTransfer+0xb8>
 8081a24:	2120      	movs	r1, #32
 8081a26:	2200      	movs	r2, #0
 8081a28:	2301      	movs	r3, #1
 8081a2a:	6561      	str	r1, [r4, #84]	; 0x54
 8081a2c:	f884 2034 	strb.w	r2, [r4, #52]	; 0x34
 8081a30:	f884 3035 	strb.w	r3, [r4, #53]	; 0x35
 8081a34:	2003      	movs	r0, #3
 8081a36:	e78c      	b.n	8081952 <HAL_DMA_PollForTransfer+0x22>
 8081a38:	f04f 0c08 	mov.w	ip, #8
 8081a3c:	2601      	movs	r6, #1
 8081a3e:	2004      	movs	r0, #4
 8081a40:	fa0c fc02 	lsl.w	ip, ip, r2
 8081a44:	4096      	lsls	r6, r2
 8081a46:	4090      	lsls	r0, r2
 8081a48:	ea1a 0f03 	tst.w	sl, r3
 8081a4c:	d1cc      	bne.n	80819e8 <HAL_DMA_PollForTransfer+0xb8>
 8081a4e:	6d63      	ldr	r3, [r4, #84]	; 0x54
 8081a50:	07d9      	lsls	r1, r3, #31
 8081a52:	d4c9      	bmi.n	80819e8 <HAL_DMA_PollForTransfer+0xb8>
 8081a54:	682b      	ldr	r3, [r5, #0]
 8081a56:	ea13 0f0c 	tst.w	r3, ip
 8081a5a:	d005      	beq.n	8081a68 <HAL_DMA_PollForTransfer+0x138>
 8081a5c:	6d61      	ldr	r1, [r4, #84]	; 0x54
 8081a5e:	f041 0101 	orr.w	r1, r1, #1
 8081a62:	6561      	str	r1, [r4, #84]	; 0x54
 8081a64:	f8c5 c008 	str.w	ip, [r5, #8]
 8081a68:	4233      	tst	r3, r6
 8081a6a:	d004      	beq.n	8081a76 <HAL_DMA_PollForTransfer+0x146>
 8081a6c:	6d61      	ldr	r1, [r4, #84]	; 0x54
 8081a6e:	f041 0102 	orr.w	r1, r1, #2
 8081a72:	6561      	str	r1, [r4, #84]	; 0x54
 8081a74:	60ae      	str	r6, [r5, #8]
 8081a76:	4203      	tst	r3, r0
 8081a78:	d0e6      	beq.n	8081a48 <HAL_DMA_PollForTransfer+0x118>
 8081a7a:	6d61      	ldr	r1, [r4, #84]	; 0x54
 8081a7c:	ea1a 0f03 	tst.w	sl, r3
 8081a80:	f041 0104 	orr.w	r1, r1, #4
 8081a84:	6561      	str	r1, [r4, #84]	; 0x54
 8081a86:	60a8      	str	r0, [r5, #8]
 8081a88:	d0e1      	beq.n	8081a4e <HAL_DMA_PollForTransfer+0x11e>
 8081a8a:	e7ad      	b.n	80819e8 <HAL_DMA_PollForTransfer+0xb8>
 8081a8c:	6da7      	ldr	r7, [r4, #88]	; 0x58
 8081a8e:	f7ff fb89 	bl	80811a4 <HAL_GetTick>
 8081a92:	f894 3035 	ldrb.w	r3, [r4, #53]	; 0x35
 8081a96:	2b02      	cmp	r3, #2
 8081a98:	4606      	mov	r6, r0
 8081a9a:	d018      	beq.n	8081ace <HAL_DMA_PollForTransfer+0x19e>
 8081a9c:	2380      	movs	r3, #128	; 0x80
 8081a9e:	6de2      	ldr	r2, [r4, #92]	; 0x5c
 8081aa0:	6563      	str	r3, [r4, #84]	; 0x54
 8081aa2:	2330      	movs	r3, #48	; 0x30
 8081aa4:	4093      	lsls	r3, r2
 8081aa6:	2100      	movs	r1, #0
 8081aa8:	2201      	movs	r2, #1
 8081aaa:	60ab      	str	r3, [r5, #8]
 8081aac:	4610      	mov	r0, r2
 8081aae:	f884 1034 	strb.w	r1, [r4, #52]	; 0x34
 8081ab2:	f884 2035 	strb.w	r2, [r4, #53]	; 0x35
 8081ab6:	e74c      	b.n	8081952 <HAL_DMA_PollForTransfer+0x22>
 8081ab8:	2330      	movs	r3, #48	; 0x30
 8081aba:	fa03 f202 	lsl.w	r2, r3, r2
 8081abe:	2301      	movs	r3, #1
 8081ac0:	60aa      	str	r2, [r5, #8]
 8081ac2:	4638      	mov	r0, r7
 8081ac4:	f884 7034 	strb.w	r7, [r4, #52]	; 0x34
 8081ac8:	f884 3035 	strb.w	r3, [r4, #53]	; 0x35
 8081acc:	e741      	b.n	8081952 <HAL_DMA_PollForTransfer+0x22>
 8081ace:	6823      	ldr	r3, [r4, #0]
 8081ad0:	6c21      	ldr	r1, [r4, #64]	; 0x40
 8081ad2:	681a      	ldr	r2, [r3, #0]
 8081ad4:	f022 0216 	bic.w	r2, r2, #22
 8081ad8:	601a      	str	r2, [r3, #0]
 8081ada:	695a      	ldr	r2, [r3, #20]
 8081adc:	f022 0280 	bic.w	r2, r2, #128	; 0x80
 8081ae0:	615a      	str	r2, [r3, #20]
 8081ae2:	b301      	cbz	r1, 8081b26 <HAL_DMA_PollForTransfer+0x1f6>
 8081ae4:	681a      	ldr	r2, [r3, #0]
 8081ae6:	f022 0208 	bic.w	r2, r2, #8
 8081aea:	601a      	str	r2, [r3, #0]
 8081aec:	681a      	ldr	r2, [r3, #0]
 8081aee:	f022 0201 	bic.w	r2, r2, #1
 8081af2:	601a      	str	r2, [r3, #0]
 8081af4:	e005      	b.n	8081b02 <HAL_DMA_PollForTransfer+0x1d2>
 8081af6:	f7ff fb55 	bl	80811a4 <HAL_GetTick>
 8081afa:	1b80      	subs	r0, r0, r6
 8081afc:	2805      	cmp	r0, #5
 8081afe:	d80b      	bhi.n	8081b18 <HAL_DMA_PollForTransfer+0x1e8>
 8081b00:	6823      	ldr	r3, [r4, #0]
 8081b02:	681b      	ldr	r3, [r3, #0]
 8081b04:	07db      	lsls	r3, r3, #31
 8081b06:	d4f6      	bmi.n	8081af6 <HAL_DMA_PollForTransfer+0x1c6>
 8081b08:	6de2      	ldr	r2, [r4, #92]	; 0x5c
 8081b0a:	233f      	movs	r3, #63	; 0x3f
 8081b0c:	4093      	lsls	r3, r2
 8081b0e:	2101      	movs	r1, #1
 8081b10:	60bb      	str	r3, [r7, #8]
 8081b12:	f884 1035 	strb.w	r1, [r4, #53]	; 0x35
 8081b16:	e7c4      	b.n	8081aa2 <HAL_DMA_PollForTransfer+0x172>
 8081b18:	2220      	movs	r2, #32
 8081b1a:	2303      	movs	r3, #3
 8081b1c:	6562      	str	r2, [r4, #84]	; 0x54
 8081b1e:	6de2      	ldr	r2, [r4, #92]	; 0x5c
 8081b20:	f884 3035 	strb.w	r3, [r4, #53]	; 0x35
 8081b24:	e7bd      	b.n	8081aa2 <HAL_DMA_PollForTransfer+0x172>
 8081b26:	6ca2      	ldr	r2, [r4, #72]	; 0x48
 8081b28:	2a00      	cmp	r2, #0
 8081b2a:	d1db      	bne.n	8081ae4 <HAL_DMA_PollForTransfer+0x1b4>
 8081b2c:	e7de      	b.n	8081aec <HAL_DMA_PollForTransfer+0x1bc>
 8081b2e:	bf00      	nop

08081b30 <HAL_DMA_IRQHandler>:
 8081b30:	b5f0      	push	{r4, r5, r6, r7, lr}
 8081b32:	b083      	sub	sp, #12
 8081b34:	2300      	movs	r3, #0
 8081b36:	6d87      	ldr	r7, [r0, #88]	; 0x58
 8081b38:	9301      	str	r3, [sp, #4]
 8081b3a:	6dc3      	ldr	r3, [r0, #92]	; 0x5c
 8081b3c:	683d      	ldr	r5, [r7, #0]
 8081b3e:	4965      	ldr	r1, [pc, #404]	; (8081cd4 <HAL_DMA_IRQHandler+0x1a4>)
 8081b40:	2208      	movs	r2, #8
 8081b42:	409a      	lsls	r2, r3
 8081b44:	422a      	tst	r2, r5
 8081b46:	4604      	mov	r4, r0
 8081b48:	680e      	ldr	r6, [r1, #0]
 8081b4a:	d003      	beq.n	8081b54 <HAL_DMA_IRQHandler+0x24>
 8081b4c:	6801      	ldr	r1, [r0, #0]
 8081b4e:	6808      	ldr	r0, [r1, #0]
 8081b50:	0740      	lsls	r0, r0, #29
 8081b52:	d459      	bmi.n	8081c08 <HAL_DMA_IRQHandler+0xd8>
 8081b54:	2201      	movs	r2, #1
 8081b56:	409a      	lsls	r2, r3
 8081b58:	422a      	tst	r2, r5
 8081b5a:	d003      	beq.n	8081b64 <HAL_DMA_IRQHandler+0x34>
 8081b5c:	6821      	ldr	r1, [r4, #0]
 8081b5e:	6949      	ldr	r1, [r1, #20]
 8081b60:	0608      	lsls	r0, r1, #24
 8081b62:	d474      	bmi.n	8081c4e <HAL_DMA_IRQHandler+0x11e>
 8081b64:	2204      	movs	r2, #4
 8081b66:	409a      	lsls	r2, r3
 8081b68:	422a      	tst	r2, r5
 8081b6a:	d003      	beq.n	8081b74 <HAL_DMA_IRQHandler+0x44>
 8081b6c:	6821      	ldr	r1, [r4, #0]
 8081b6e:	6809      	ldr	r1, [r1, #0]
 8081b70:	0789      	lsls	r1, r1, #30
 8081b72:	d466      	bmi.n	8081c42 <HAL_DMA_IRQHandler+0x112>
 8081b74:	2210      	movs	r2, #16
 8081b76:	409a      	lsls	r2, r3
 8081b78:	422a      	tst	r2, r5
 8081b7a:	d003      	beq.n	8081b84 <HAL_DMA_IRQHandler+0x54>
 8081b7c:	6821      	ldr	r1, [r4, #0]
 8081b7e:	6808      	ldr	r0, [r1, #0]
 8081b80:	0700      	lsls	r0, r0, #28
 8081b82:	d44b      	bmi.n	8081c1c <HAL_DMA_IRQHandler+0xec>
 8081b84:	2220      	movs	r2, #32
 8081b86:	409a      	lsls	r2, r3
 8081b88:	422a      	tst	r2, r5
 8081b8a:	d014      	beq.n	8081bb6 <HAL_DMA_IRQHandler+0x86>
 8081b8c:	6821      	ldr	r1, [r4, #0]
 8081b8e:	6808      	ldr	r0, [r1, #0]
 8081b90:	06c0      	lsls	r0, r0, #27
 8081b92:	d510      	bpl.n	8081bb6 <HAL_DMA_IRQHandler+0x86>
 8081b94:	60ba      	str	r2, [r7, #8]
 8081b96:	f894 2035 	ldrb.w	r2, [r4, #53]	; 0x35
 8081b9a:	2a05      	cmp	r2, #5
 8081b9c:	d063      	beq.n	8081c66 <HAL_DMA_IRQHandler+0x136>
 8081b9e:	680b      	ldr	r3, [r1, #0]
 8081ba0:	f413 2f80 	tst.w	r3, #262144	; 0x40000
 8081ba4:	680b      	ldr	r3, [r1, #0]
 8081ba6:	d07e      	beq.n	8081ca6 <HAL_DMA_IRQHandler+0x176>
 8081ba8:	0319      	lsls	r1, r3, #12
 8081baa:	f140 8089 	bpl.w	8081cc0 <HAL_DMA_IRQHandler+0x190>
 8081bae:	6be3      	ldr	r3, [r4, #60]	; 0x3c
 8081bb0:	b10b      	cbz	r3, 8081bb6 <HAL_DMA_IRQHandler+0x86>
 8081bb2:	4620      	mov	r0, r4
 8081bb4:	4798      	blx	r3
 8081bb6:	6d63      	ldr	r3, [r4, #84]	; 0x54
 8081bb8:	b323      	cbz	r3, 8081c04 <HAL_DMA_IRQHandler+0xd4>
 8081bba:	6d63      	ldr	r3, [r4, #84]	; 0x54
 8081bbc:	07da      	lsls	r2, r3, #31
 8081bbe:	d51a      	bpl.n	8081bf6 <HAL_DMA_IRQHandler+0xc6>
 8081bc0:	2305      	movs	r3, #5
 8081bc2:	6822      	ldr	r2, [r4, #0]
 8081bc4:	f884 3035 	strb.w	r3, [r4, #53]	; 0x35
 8081bc8:	6813      	ldr	r3, [r2, #0]
 8081bca:	4943      	ldr	r1, [pc, #268]	; (8081cd8 <HAL_DMA_IRQHandler+0x1a8>)
 8081bcc:	f023 0301 	bic.w	r3, r3, #1
 8081bd0:	fba1 1606 	umull	r1, r6, r1, r6
 8081bd4:	6013      	str	r3, [r2, #0]
 8081bd6:	0ab6      	lsrs	r6, r6, #10
 8081bd8:	e002      	b.n	8081be0 <HAL_DMA_IRQHandler+0xb0>
 8081bda:	6813      	ldr	r3, [r2, #0]
 8081bdc:	07db      	lsls	r3, r3, #31
 8081bde:	d504      	bpl.n	8081bea <HAL_DMA_IRQHandler+0xba>
 8081be0:	9b01      	ldr	r3, [sp, #4]
 8081be2:	3301      	adds	r3, #1
 8081be4:	42b3      	cmp	r3, r6
 8081be6:	9301      	str	r3, [sp, #4]
 8081be8:	d9f7      	bls.n	8081bda <HAL_DMA_IRQHandler+0xaa>
 8081bea:	2200      	movs	r2, #0
 8081bec:	2301      	movs	r3, #1
 8081bee:	f884 2034 	strb.w	r2, [r4, #52]	; 0x34
 8081bf2:	f884 3035 	strb.w	r3, [r4, #53]	; 0x35
 8081bf6:	6ce3      	ldr	r3, [r4, #76]	; 0x4c
 8081bf8:	b123      	cbz	r3, 8081c04 <HAL_DMA_IRQHandler+0xd4>
 8081bfa:	4620      	mov	r0, r4
 8081bfc:	b003      	add	sp, #12
 8081bfe:	e8bd 40f0 	ldmia.w	sp!, {r4, r5, r6, r7, lr}
 8081c02:	4718      	bx	r3
 8081c04:	b003      	add	sp, #12
 8081c06:	bdf0      	pop	{r4, r5, r6, r7, pc}
 8081c08:	6808      	ldr	r0, [r1, #0]
 8081c0a:	f020 0004 	bic.w	r0, r0, #4
 8081c0e:	6008      	str	r0, [r1, #0]
 8081c10:	60ba      	str	r2, [r7, #8]
 8081c12:	6d62      	ldr	r2, [r4, #84]	; 0x54
 8081c14:	f042 0201 	orr.w	r2, r2, #1
 8081c18:	6562      	str	r2, [r4, #84]	; 0x54
 8081c1a:	e79b      	b.n	8081b54 <HAL_DMA_IRQHandler+0x24>
 8081c1c:	60ba      	str	r2, [r7, #8]
 8081c1e:	680a      	ldr	r2, [r1, #0]
 8081c20:	f412 2f80 	tst.w	r2, #262144	; 0x40000
 8081c24:	680a      	ldr	r2, [r1, #0]
 8081c26:	d118      	bne.n	8081c5a <HAL_DMA_IRQHandler+0x12a>
 8081c28:	05d2      	lsls	r2, r2, #23
 8081c2a:	d403      	bmi.n	8081c34 <HAL_DMA_IRQHandler+0x104>
 8081c2c:	680a      	ldr	r2, [r1, #0]
 8081c2e:	f022 0208 	bic.w	r2, r2, #8
 8081c32:	600a      	str	r2, [r1, #0]
 8081c34:	6c22      	ldr	r2, [r4, #64]	; 0x40
 8081c36:	2a00      	cmp	r2, #0
 8081c38:	d0a4      	beq.n	8081b84 <HAL_DMA_IRQHandler+0x54>
 8081c3a:	4620      	mov	r0, r4
 8081c3c:	4790      	blx	r2
 8081c3e:	6de3      	ldr	r3, [r4, #92]	; 0x5c
 8081c40:	e7a0      	b.n	8081b84 <HAL_DMA_IRQHandler+0x54>
 8081c42:	60ba      	str	r2, [r7, #8]
 8081c44:	6d62      	ldr	r2, [r4, #84]	; 0x54
 8081c46:	f042 0204 	orr.w	r2, r2, #4
 8081c4a:	6562      	str	r2, [r4, #84]	; 0x54
 8081c4c:	e792      	b.n	8081b74 <HAL_DMA_IRQHandler+0x44>
 8081c4e:	60ba      	str	r2, [r7, #8]
 8081c50:	6d62      	ldr	r2, [r4, #84]	; 0x54
 8081c52:	f042 0202 	orr.w	r2, r2, #2
 8081c56:	6562      	str	r2, [r4, #84]	; 0x54
 8081c58:	e784      	b.n	8081b64 <HAL_DMA_IRQHandler+0x34>
 8081c5a:	0311      	lsls	r1, r2, #12
 8081c5c:	d5ea      	bpl.n	8081c34 <HAL_DMA_IRQHandler+0x104>
 8081c5e:	6ca2      	ldr	r2, [r4, #72]	; 0x48
 8081c60:	2a00      	cmp	r2, #0
 8081c62:	d1ea      	bne.n	8081c3a <HAL_DMA_IRQHandler+0x10a>
 8081c64:	e78e      	b.n	8081b84 <HAL_DMA_IRQHandler+0x54>
 8081c66:	680a      	ldr	r2, [r1, #0]
 8081c68:	6c20      	ldr	r0, [r4, #64]	; 0x40
 8081c6a:	f022 0216 	bic.w	r2, r2, #22
 8081c6e:	600a      	str	r2, [r1, #0]
 8081c70:	694a      	ldr	r2, [r1, #20]
 8081c72:	f022 0280 	bic.w	r2, r2, #128	; 0x80
 8081c76:	614a      	str	r2, [r1, #20]
 8081c78:	b338      	cbz	r0, 8081cca <HAL_DMA_IRQHandler+0x19a>
 8081c7a:	680a      	ldr	r2, [r1, #0]
 8081c7c:	f022 0208 	bic.w	r2, r2, #8
 8081c80:	600a      	str	r2, [r1, #0]
 8081c82:	223f      	movs	r2, #63	; 0x3f
 8081c84:	6d21      	ldr	r1, [r4, #80]	; 0x50
 8081c86:	fa02 f303 	lsl.w	r3, r2, r3
 8081c8a:	2000      	movs	r0, #0
 8081c8c:	2201      	movs	r2, #1
 8081c8e:	60bb      	str	r3, [r7, #8]
 8081c90:	f884 0034 	strb.w	r0, [r4, #52]	; 0x34
 8081c94:	f884 2035 	strb.w	r2, [r4, #53]	; 0x35
 8081c98:	2900      	cmp	r1, #0
 8081c9a:	d0b3      	beq.n	8081c04 <HAL_DMA_IRQHandler+0xd4>
 8081c9c:	4620      	mov	r0, r4
 8081c9e:	b003      	add	sp, #12
 8081ca0:	e8bd 40f0 	ldmia.w	sp!, {r4, r5, r6, r7, lr}
 8081ca4:	4708      	bx	r1
 8081ca6:	f413 7380 	ands.w	r3, r3, #256	; 0x100
 8081caa:	d180      	bne.n	8081bae <HAL_DMA_IRQHandler+0x7e>
 8081cac:	680a      	ldr	r2, [r1, #0]
 8081cae:	2001      	movs	r0, #1
 8081cb0:	f022 0210 	bic.w	r2, r2, #16
 8081cb4:	600a      	str	r2, [r1, #0]
 8081cb6:	f884 3034 	strb.w	r3, [r4, #52]	; 0x34
 8081cba:	f884 0035 	strb.w	r0, [r4, #53]	; 0x35
 8081cbe:	e776      	b.n	8081bae <HAL_DMA_IRQHandler+0x7e>
 8081cc0:	6c63      	ldr	r3, [r4, #68]	; 0x44
 8081cc2:	2b00      	cmp	r3, #0
 8081cc4:	f47f af75 	bne.w	8081bb2 <HAL_DMA_IRQHandler+0x82>
 8081cc8:	e775      	b.n	8081bb6 <HAL_DMA_IRQHandler+0x86>
 8081cca:	6ca2      	ldr	r2, [r4, #72]	; 0x48
 8081ccc:	2a00      	cmp	r2, #0
 8081cce:	d1d4      	bne.n	8081c7a <HAL_DMA_IRQHandler+0x14a>
 8081cd0:	e7d7      	b.n	8081c82 <HAL_DMA_IRQHandler+0x152>
 8081cd2:	bf00      	nop
 8081cd4:	20000000 	.word	0x20000000
 8081cd8:	1b4e81b5 	.word	0x1b4e81b5

08081cdc <HAL_DMA_RegisterCallback>:
 8081cdc:	4603      	mov	r3, r0
 8081cde:	f890 0034 	ldrb.w	r0, [r0, #52]	; 0x34
 8081ce2:	2801      	cmp	r0, #1
 8081ce4:	d014      	beq.n	8081d10 <HAL_DMA_RegisterCallback+0x34>
 8081ce6:	b410      	push	{r4}
 8081ce8:	f893 4035 	ldrb.w	r4, [r3, #53]	; 0x35
 8081cec:	2001      	movs	r0, #1
 8081cee:	4284      	cmp	r4, r0
 8081cf0:	f883 0034 	strb.w	r0, [r3, #52]	; 0x34
 8081cf4:	d005      	beq.n	8081d02 <HAL_DMA_RegisterCallback+0x26>
 8081cf6:	2200      	movs	r2, #0
 8081cf8:	f883 2034 	strb.w	r2, [r3, #52]	; 0x34
 8081cfc:	f85d 4b04 	ldr.w	r4, [sp], #4
 8081d00:	4770      	bx	lr
 8081d02:	2905      	cmp	r1, #5
 8081d04:	d818      	bhi.n	8081d38 <HAL_DMA_RegisterCallback+0x5c>
 8081d06:	e8df f001 	tbb	[pc, r1]
 8081d0a:	0b08      	.short	0x0b08
 8081d0c:	0514110e 	.word	0x0514110e
 8081d10:	2002      	movs	r0, #2
 8081d12:	4770      	bx	lr
 8081d14:	651a      	str	r2, [r3, #80]	; 0x50
 8081d16:	2000      	movs	r0, #0
 8081d18:	e7ed      	b.n	8081cf6 <HAL_DMA_RegisterCallback+0x1a>
 8081d1a:	63da      	str	r2, [r3, #60]	; 0x3c
 8081d1c:	2000      	movs	r0, #0
 8081d1e:	e7ea      	b.n	8081cf6 <HAL_DMA_RegisterCallback+0x1a>
 8081d20:	641a      	str	r2, [r3, #64]	; 0x40
 8081d22:	2000      	movs	r0, #0
 8081d24:	e7e7      	b.n	8081cf6 <HAL_DMA_RegisterCallback+0x1a>
 8081d26:	645a      	str	r2, [r3, #68]	; 0x44
 8081d28:	2000      	movs	r0, #0
 8081d2a:	e7e4      	b.n	8081cf6 <HAL_DMA_RegisterCallback+0x1a>
 8081d2c:	649a      	str	r2, [r3, #72]	; 0x48
 8081d2e:	2000      	movs	r0, #0
 8081d30:	e7e1      	b.n	8081cf6 <HAL_DMA_RegisterCallback+0x1a>
 8081d32:	64da      	str	r2, [r3, #76]	; 0x4c
 8081d34:	2000      	movs	r0, #0
 8081d36:	e7de      	b.n	8081cf6 <HAL_DMA_RegisterCallback+0x1a>
 8081d38:	2000      	movs	r0, #0
 8081d3a:	e7dc      	b.n	8081cf6 <HAL_DMA_RegisterCallback+0x1a>

08081d3c <HAL_DMA_UnRegisterCallback>:
 8081d3c:	f890 3034 	ldrb.w	r3, [r0, #52]	; 0x34
 8081d40:	2b01      	cmp	r3, #1
 8081d42:	d013      	beq.n	8081d6c <HAL_DMA_UnRegisterCallback+0x30>
 8081d44:	f890 2035 	ldrb.w	r2, [r0, #53]	; 0x35
 8081d48:	2301      	movs	r3, #1
 8081d4a:	429a      	cmp	r2, r3
 8081d4c:	f880 3034 	strb.w	r3, [r0, #52]	; 0x34
 8081d50:	d004      	beq.n	8081d5c <HAL_DMA_UnRegisterCallback+0x20>
 8081d52:	2200      	movs	r2, #0
 8081d54:	f880 2034 	strb.w	r2, [r0, #52]	; 0x34
 8081d58:	4618      	mov	r0, r3
 8081d5a:	4770      	bx	lr
 8081d5c:	2906      	cmp	r1, #6
 8081d5e:	d822      	bhi.n	8081da6 <HAL_DMA_UnRegisterCallback+0x6a>
 8081d60:	e8df f001 	tbb	[pc, r1]
 8081d64:	1815120f 	.word	0x1815120f
 8081d68:	1e1b      	.short	0x1e1b
 8081d6a:	07          	.byte	0x07
 8081d6b:	00          	.byte	0x00
 8081d6c:	2302      	movs	r3, #2
 8081d6e:	4618      	mov	r0, r3
 8081d70:	4770      	bx	lr
 8081d72:	2300      	movs	r3, #0
 8081d74:	e9c0 330f 	strd	r3, r3, [r0, #60]	; 0x3c
 8081d78:	e9c0 3311 	strd	r3, r3, [r0, #68]	; 0x44
 8081d7c:	e9c0 3313 	strd	r3, r3, [r0, #76]	; 0x4c
 8081d80:	e7e7      	b.n	8081d52 <HAL_DMA_UnRegisterCallback+0x16>
 8081d82:	2300      	movs	r3, #0
 8081d84:	63c3      	str	r3, [r0, #60]	; 0x3c
 8081d86:	e7e4      	b.n	8081d52 <HAL_DMA_UnRegisterCallback+0x16>
 8081d88:	2300      	movs	r3, #0
 8081d8a:	6403      	str	r3, [r0, #64]	; 0x40
 8081d8c:	e7e1      	b.n	8081d52 <HAL_DMA_UnRegisterCallback+0x16>
 8081d8e:	2300      	movs	r3, #0
 8081d90:	6443      	str	r3, [r0, #68]	; 0x44
 8081d92:	e7de      	b.n	8081d52 <HAL_DMA_UnRegisterCallback+0x16>
 8081d94:	2300      	movs	r3, #0
 8081d96:	6483      	str	r3, [r0, #72]	; 0x48
 8081d98:	e7db      	b.n	8081d52 <HAL_DMA_UnRegisterCallback+0x16>
 8081d9a:	2300      	movs	r3, #0
 8081d9c:	64c3      	str	r3, [r0, #76]	; 0x4c
 8081d9e:	e7d8      	b.n	8081d52 <HAL_DMA_UnRegisterCallback+0x16>
 8081da0:	2300      	movs	r3, #0
 8081da2:	6503      	str	r3, [r0, #80]	; 0x50
 8081da4:	e7d5      	b.n	8081d52 <HAL_DMA_UnRegisterCallback+0x16>
 8081da6:	2301      	movs	r3, #1
 8081da8:	e7d3      	b.n	8081d52 <HAL_DMA_UnRegisterCallback+0x16>
 8081daa:	bf00      	nop

08081dac <HAL_DMA_GetState>:
 8081dac:	f890 0035 	ldrb.w	r0, [r0, #53]	; 0x35
 8081db0:	4770      	bx	lr
 8081db2:	bf00      	nop

08081db4 <HAL_DMA_GetError>:
 8081db4:	6d40      	ldr	r0, [r0, #84]	; 0x54
 8081db6:	4770      	bx	lr

08081db8 <HAL_GPIO_Init>:
 8081db8:	e92d 4ff0 	stmdb	sp!, {r4, r5, r6, r7, r8, r9, sl, fp, lr}
 8081dbc:	f8df c260 	ldr.w	ip, [pc, #608]	; 8082020 <HAL_GPIO_Init+0x268>
 8081dc0:	f8df 8260 	ldr.w	r8, [pc, #608]	; 8082024 <HAL_GPIO_Init+0x26c>
 8081dc4:	f8d1 e000 	ldr.w	lr, [r1]
 8081dc8:	b083      	sub	sp, #12
 8081dca:	2500      	movs	r5, #0
 8081dcc:	e003      	b.n	8081dd6 <HAL_GPIO_Init+0x1e>
 8081dce:	3501      	adds	r5, #1
 8081dd0:	2d10      	cmp	r5, #16
 8081dd2:	f000 80a4 	beq.w	8081f1e <HAL_GPIO_Init+0x166>
 8081dd6:	2301      	movs	r3, #1
 8081dd8:	40ab      	lsls	r3, r5
 8081dda:	ea0e 0403 	and.w	r4, lr, r3
 8081dde:	42a3      	cmp	r3, r4
 8081de0:	d1f5      	bne.n	8081dce <HAL_GPIO_Init+0x16>
 8081de2:	684e      	ldr	r6, [r1, #4]
 8081de4:	f026 0a10 	bic.w	sl, r6, #16
 8081de8:	f1ba 0f02 	cmp.w	sl, #2
 8081dec:	f000 809a 	beq.w	8081f24 <HAL_GPIO_Init+0x16c>
 8081df0:	ea4f 0945 	mov.w	r9, r5, lsl #1
 8081df4:	2203      	movs	r2, #3
 8081df6:	f8d0 b000 	ldr.w	fp, [r0]
 8081dfa:	fa02 f209 	lsl.w	r2, r2, r9
 8081dfe:	43d2      	mvns	r2, r2
 8081e00:	f006 0703 	and.w	r7, r6, #3
 8081e04:	ea02 0b0b 	and.w	fp, r2, fp
 8081e08:	fa07 f709 	lsl.w	r7, r7, r9
 8081e0c:	f10a 3aff 	add.w	sl, sl, #4294967295	; 0xffffffff
 8081e10:	ea47 070b 	orr.w	r7, r7, fp
 8081e14:	f1ba 0f01 	cmp.w	sl, #1
 8081e18:	6007      	str	r7, [r0, #0]
 8081e1a:	f240 80a9 	bls.w	8081f70 <HAL_GPIO_Init+0x1b8>
 8081e1e:	68c7      	ldr	r7, [r0, #12]
 8081e20:	688b      	ldr	r3, [r1, #8]
 8081e22:	403a      	ands	r2, r7
 8081e24:	fa03 f309 	lsl.w	r3, r3, r9
 8081e28:	4313      	orrs	r3, r2
 8081e2a:	60c3      	str	r3, [r0, #12]
 8081e2c:	00f3      	lsls	r3, r6, #3
 8081e2e:	d5ce      	bpl.n	8081dce <HAL_GPIO_Init+0x16>
 8081e30:	2300      	movs	r3, #0
 8081e32:	9301      	str	r3, [sp, #4]
 8081e34:	f8d8 3044 	ldr.w	r3, [r8, #68]	; 0x44
 8081e38:	f443 4380 	orr.w	r3, r3, #16384	; 0x4000
 8081e3c:	f8c8 3044 	str.w	r3, [r8, #68]	; 0x44
 8081e40:	f8d8 3044 	ldr.w	r3, [r8, #68]	; 0x44
 8081e44:	f025 0203 	bic.w	r2, r5, #3
 8081e48:	f102 4280 	add.w	r2, r2, #1073741824	; 0x40000000
 8081e4c:	f403 4380 	and.w	r3, r3, #16384	; 0x4000
 8081e50:	f502 329c 	add.w	r2, r2, #79872	; 0x13800
 8081e54:	9301      	str	r3, [sp, #4]
 8081e56:	f005 0703 	and.w	r7, r5, #3
 8081e5a:	9b01      	ldr	r3, [sp, #4]
 8081e5c:	f8d2 9008 	ldr.w	r9, [r2, #8]
 8081e60:	00bf      	lsls	r7, r7, #2
 8081e62:	230f      	movs	r3, #15
 8081e64:	40bb      	lsls	r3, r7
 8081e66:	ea29 0a03 	bic.w	sl, r9, r3
 8081e6a:	4b67      	ldr	r3, [pc, #412]	; (8082008 <HAL_GPIO_Init+0x250>)
 8081e6c:	4298      	cmp	r0, r3
 8081e6e:	d02e      	beq.n	8081ece <HAL_GPIO_Init+0x116>
 8081e70:	f503 6380 	add.w	r3, r3, #1024	; 0x400
 8081e74:	4298      	cmp	r0, r3
 8081e76:	f000 808e 	beq.w	8081f96 <HAL_GPIO_Init+0x1de>
 8081e7a:	4b64      	ldr	r3, [pc, #400]	; (808200c <HAL_GPIO_Init+0x254>)
 8081e7c:	4298      	cmp	r0, r3
 8081e7e:	f000 8091 	beq.w	8081fa4 <HAL_GPIO_Init+0x1ec>
 8081e82:	4b63      	ldr	r3, [pc, #396]	; (8082010 <HAL_GPIO_Init+0x258>)
 8081e84:	4298      	cmp	r0, r3
 8081e86:	f000 8094 	beq.w	8081fb2 <HAL_GPIO_Init+0x1fa>
 8081e8a:	4b62      	ldr	r3, [pc, #392]	; (8082014 <HAL_GPIO_Init+0x25c>)
 8081e8c:	4298      	cmp	r0, r3
 8081e8e:	f000 8097 	beq.w	8081fc0 <HAL_GPIO_Init+0x208>
 8081e92:	4b61      	ldr	r3, [pc, #388]	; (8082018 <HAL_GPIO_Init+0x260>)
 8081e94:	4298      	cmp	r0, r3
 8081e96:	f000 80a1 	beq.w	8081fdc <HAL_GPIO_Init+0x224>
 8081e9a:	4b60      	ldr	r3, [pc, #384]	; (808201c <HAL_GPIO_Init+0x264>)
 8081e9c:	4298      	cmp	r0, r3
 8081e9e:	f000 80a4 	beq.w	8081fea <HAL_GPIO_Init+0x232>
 8081ea2:	f8df 9184 	ldr.w	r9, [pc, #388]	; 8082028 <HAL_GPIO_Init+0x270>
 8081ea6:	4548      	cmp	r0, r9
 8081ea8:	f000 8091 	beq.w	8081fce <HAL_GPIO_Init+0x216>
 8081eac:	f8df 917c 	ldr.w	r9, [pc, #380]	; 808202c <HAL_GPIO_Init+0x274>
 8081eb0:	4548      	cmp	r0, r9
 8081eb2:	f000 80a1 	beq.w	8081ff8 <HAL_GPIO_Init+0x240>
 8081eb6:	f8df 9178 	ldr.w	r9, [pc, #376]	; 8082030 <HAL_GPIO_Init+0x278>
 8081eba:	4548      	cmp	r0, r9
 8081ebc:	bf0c      	ite	eq
 8081ebe:	f04f 0909 	moveq.w	r9, #9
 8081ec2:	f04f 090a 	movne.w	r9, #10
 8081ec6:	fa09 f707 	lsl.w	r7, r9, r7
 8081eca:	ea4a 0a07 	orr.w	sl, sl, r7
 8081ece:	f8c2 a008 	str.w	sl, [r2, #8]
 8081ed2:	f8dc 3000 	ldr.w	r3, [ip]
 8081ed6:	43e2      	mvns	r2, r4
 8081ed8:	03f7      	lsls	r7, r6, #15
 8081eda:	bf54      	ite	pl
 8081edc:	4013      	andpl	r3, r2
 8081ede:	4323      	orrmi	r3, r4
 8081ee0:	f8cc 3000 	str.w	r3, [ip]
 8081ee4:	f8dc 3004 	ldr.w	r3, [ip, #4]
 8081ee8:	03b7      	lsls	r7, r6, #14
 8081eea:	bf54      	ite	pl
 8081eec:	4013      	andpl	r3, r2
 8081eee:	4323      	orrmi	r3, r4
 8081ef0:	f8cc 3004 	str.w	r3, [ip, #4]
 8081ef4:	f8dc 3008 	ldr.w	r3, [ip, #8]
 8081ef8:	02f7      	lsls	r7, r6, #11
 8081efa:	bf54      	ite	pl
 8081efc:	4013      	andpl	r3, r2
 8081efe:	4323      	orrmi	r3, r4
 8081f00:	f8cc 3008 	str.w	r3, [ip, #8]
 8081f04:	f8dc 300c 	ldr.w	r3, [ip, #12]
 8081f08:	02b6      	lsls	r6, r6, #10
 8081f0a:	f105 0501 	add.w	r5, r5, #1
 8081f0e:	bf54      	ite	pl
 8081f10:	4013      	andpl	r3, r2
 8081f12:	4323      	orrmi	r3, r4
 8081f14:	2d10      	cmp	r5, #16
 8081f16:	f8cc 300c 	str.w	r3, [ip, #12]
 8081f1a:	f47f af5c 	bne.w	8081dd6 <HAL_GPIO_Init+0x1e>
 8081f1e:	b003      	add	sp, #12
 8081f20:	e8bd 8ff0 	ldmia.w	sp!, {r4, r5, r6, r7, r8, r9, sl, fp, pc}
 8081f24:	ea4f 09d5 	mov.w	r9, r5, lsr #3
 8081f28:	eb00 0989 	add.w	r9, r0, r9, lsl #2
 8081f2c:	f005 0707 	and.w	r7, r5, #7
 8081f30:	f8d9 2020 	ldr.w	r2, [r9, #32]
 8081f34:	00bf      	lsls	r7, r7, #2
 8081f36:	f04f 0b0f 	mov.w	fp, #15
 8081f3a:	fa0b fb07 	lsl.w	fp, fp, r7
 8081f3e:	ea22 0a0b 	bic.w	sl, r2, fp
 8081f42:	690a      	ldr	r2, [r1, #16]
 8081f44:	40ba      	lsls	r2, r7
 8081f46:	ea42 020a 	orr.w	r2, r2, sl
 8081f4a:	f8c9 2020 	str.w	r2, [r9, #32]
 8081f4e:	ea4f 0945 	mov.w	r9, r5, lsl #1
 8081f52:	2203      	movs	r2, #3
 8081f54:	f8d0 a000 	ldr.w	sl, [r0]
 8081f58:	fa02 f209 	lsl.w	r2, r2, r9
 8081f5c:	43d2      	mvns	r2, r2
 8081f5e:	f006 0703 	and.w	r7, r6, #3
 8081f62:	ea02 0a0a 	and.w	sl, r2, sl
 8081f66:	fa07 f709 	lsl.w	r7, r7, r9
 8081f6a:	ea47 070a 	orr.w	r7, r7, sl
 8081f6e:	6007      	str	r7, [r0, #0]
 8081f70:	6887      	ldr	r7, [r0, #8]
 8081f72:	ea07 0a02 	and.w	sl, r7, r2
 8081f76:	68cf      	ldr	r7, [r1, #12]
 8081f78:	fa07 f709 	lsl.w	r7, r7, r9
 8081f7c:	ea47 070a 	orr.w	r7, r7, sl
 8081f80:	6087      	str	r7, [r0, #8]
 8081f82:	f8d0 a004 	ldr.w	sl, [r0, #4]
 8081f86:	f3c6 1700 	ubfx	r7, r6, #4, #1
 8081f8a:	ea2a 0303 	bic.w	r3, sl, r3
 8081f8e:	40af      	lsls	r7, r5
 8081f90:	431f      	orrs	r7, r3
 8081f92:	6047      	str	r7, [r0, #4]
 8081f94:	e743      	b.n	8081e1e <HAL_GPIO_Init+0x66>
 8081f96:	f04f 0901 	mov.w	r9, #1
 8081f9a:	fa09 f707 	lsl.w	r7, r9, r7
 8081f9e:	ea4a 0a07 	orr.w	sl, sl, r7
 8081fa2:	e794      	b.n	8081ece <HAL_GPIO_Init+0x116>
 8081fa4:	f04f 0902 	mov.w	r9, #2
 8081fa8:	fa09 f707 	lsl.w	r7, r9, r7
 8081fac:	ea4a 0a07 	orr.w	sl, sl, r7
 8081fb0:	e78d      	b.n	8081ece <HAL_GPIO_Init+0x116>
 8081fb2:	f04f 0903 	mov.w	r9, #3
 8081fb6:	fa09 f707 	lsl.w	r7, r9, r7
 8081fba:	ea4a 0a07 	orr.w	sl, sl, r7
 8081fbe:	e786      	b.n	8081ece <HAL_GPIO_Init+0x116>
 8081fc0:	f04f 0904 	mov.w	r9, #4
 8081fc4:	fa09 f707 	lsl.w	r7, r9, r7
 8081fc8:	ea4a 0a07 	orr.w	sl, sl, r7
 8081fcc:	e77f      	b.n	8081ece <HAL_GPIO_Init+0x116>
 8081fce:	f04f 0907 	mov.w	r9, #7
 8081fd2:	fa09 f707 	lsl.w	r7, r9, r7
 8081fd6:	ea4a 0a07 	orr.w	sl, sl, r7
 8081fda:	e778      	b.n	8081ece <HAL_GPIO_Init+0x116>
 8081fdc:	f04f 0905 	mov.w	r9, #5
 8081fe0:	fa09 f707 	lsl.w	r7, r9, r7
 8081fe4:	ea4a 0a07 	orr.w	sl, sl, r7
 8081fe8:	e771      	b.n	8081ece <HAL_GPIO_Init+0x116>
 8081fea:	f04f 0906 	mov.w	r9, #6
 8081fee:	fa09 f707 	lsl.w	r7, r9, r7
 8081ff2:	ea4a 0a07 	orr.w	sl, sl, r7
 8081ff6:	e76a      	b.n	8081ece <HAL_GPIO_Init+0x116>
 8081ff8:	f04f 0908 	mov.w	r9, #8
 8081ffc:	fa09 f707 	lsl.w	r7, r9, r7
 8082000:	ea4a 0a07 	orr.w	sl, sl, r7
 8082004:	e763      	b.n	8081ece <HAL_GPIO_Init+0x116>
 8082006:	bf00      	nop
 8082008:	40020000 	.word	0x40020000
 808200c:	40020800 	.word	0x40020800
 8082010:	40020c00 	.word	0x40020c00
 8082014:	40021000 	.word	0x40021000
 8082018:	40021400 	.word	0x40021400
 808201c:	40021800 	.word	0x40021800
 8082020:	40013c00 	.word	0x40013c00
 8082024:	40023800 	.word	0x40023800
 8082028:	40021c00 	.word	0x40021c00
 808202c:	40022000 	.word	0x40022000
 8082030:	40022400 	.word	0x40022400

08082034 <HAL_GPIO_DeInit>:
 8082034:	e92d 4ff0 	stmdb	sp!, {r4, r5, r6, r7, r8, r9, sl, fp, lr}
 8082038:	2300      	movs	r3, #0
 808203a:	f8df 8160 	ldr.w	r8, [pc, #352]	; 808219c <HAL_GPIO_DeInit+0x168>
 808203e:	f8df e160 	ldr.w	lr, [pc, #352]	; 80821a0 <HAL_GPIO_DeInit+0x16c>
 8082042:	f8df 9160 	ldr.w	r9, [pc, #352]	; 80821a4 <HAL_GPIO_DeInit+0x170>
 8082046:	f8df a160 	ldr.w	sl, [pc, #352]	; 80821a8 <HAL_GPIO_DeInit+0x174>
 808204a:	e002      	b.n	8082052 <HAL_GPIO_DeInit+0x1e>
 808204c:	3301      	adds	r3, #1
 808204e:	2b10      	cmp	r3, #16
 8082050:	d074      	beq.n	808213c <HAL_GPIO_DeInit+0x108>
 8082052:	2401      	movs	r4, #1
 8082054:	fa04 f503 	lsl.w	r5, r4, r3
 8082058:	ea05 0601 	and.w	r6, r5, r1
 808205c:	42b5      	cmp	r5, r6
 808205e:	d1f5      	bne.n	808204c <HAL_GPIO_DeInit+0x18>
 8082060:	f023 0703 	bic.w	r7, r3, #3
 8082064:	f107 4780 	add.w	r7, r7, #1073741824	; 0x40000000
 8082068:	f507 379c 	add.w	r7, r7, #79872	; 0x13800
 808206c:	f003 0203 	and.w	r2, r3, #3
 8082070:	f8d7 b008 	ldr.w	fp, [r7, #8]
 8082074:	0092      	lsls	r2, r2, #2
 8082076:	f04f 0c0f 	mov.w	ip, #15
 808207a:	fa0c fc02 	lsl.w	ip, ip, r2
 808207e:	4540      	cmp	r0, r8
 8082080:	ea0c 0b0b 	and.w	fp, ip, fp
 8082084:	d01c      	beq.n	80820c0 <HAL_GPIO_DeInit+0x8c>
 8082086:	4548      	cmp	r0, r9
 8082088:	d017      	beq.n	80820ba <HAL_GPIO_DeInit+0x86>
 808208a:	4550      	cmp	r0, sl
 808208c:	d058      	beq.n	8082140 <HAL_GPIO_DeInit+0x10c>
 808208e:	4c3c      	ldr	r4, [pc, #240]	; (8082180 <HAL_GPIO_DeInit+0x14c>)
 8082090:	42a0      	cmp	r0, r4
 8082092:	d059      	beq.n	8082148 <HAL_GPIO_DeInit+0x114>
 8082094:	4c3b      	ldr	r4, [pc, #236]	; (8082184 <HAL_GPIO_DeInit+0x150>)
 8082096:	42a0      	cmp	r0, r4
 8082098:	d05a      	beq.n	8082150 <HAL_GPIO_DeInit+0x11c>
 808209a:	4c3b      	ldr	r4, [pc, #236]	; (8082188 <HAL_GPIO_DeInit+0x154>)
 808209c:	42a0      	cmp	r0, r4
 808209e:	d05b      	beq.n	8082158 <HAL_GPIO_DeInit+0x124>
 80820a0:	4c3a      	ldr	r4, [pc, #232]	; (808218c <HAL_GPIO_DeInit+0x158>)
 80820a2:	42a0      	cmp	r0, r4
 80820a4:	d05c      	beq.n	8082160 <HAL_GPIO_DeInit+0x12c>
 80820a6:	4c3a      	ldr	r4, [pc, #232]	; (8082190 <HAL_GPIO_DeInit+0x15c>)
 80820a8:	42a0      	cmp	r0, r4
 80820aa:	d061      	beq.n	8082170 <HAL_GPIO_DeInit+0x13c>
 80820ac:	4c39      	ldr	r4, [pc, #228]	; (8082194 <HAL_GPIO_DeInit+0x160>)
 80820ae:	42a0      	cmp	r0, r4
 80820b0:	d062      	beq.n	8082178 <HAL_GPIO_DeInit+0x144>
 80820b2:	4c39      	ldr	r4, [pc, #228]	; (8082198 <HAL_GPIO_DeInit+0x164>)
 80820b4:	42a0      	cmp	r0, r4
 80820b6:	d057      	beq.n	8082168 <HAL_GPIO_DeInit+0x134>
 80820b8:	240a      	movs	r4, #10
 80820ba:	fa04 f202 	lsl.w	r2, r4, r2
 80820be:	e000      	b.n	80820c2 <HAL_GPIO_DeInit+0x8e>
 80820c0:	2200      	movs	r2, #0
 80820c2:	4593      	cmp	fp, r2
 80820c4:	d118      	bne.n	80820f8 <HAL_GPIO_DeInit+0xc4>
 80820c6:	68ba      	ldr	r2, [r7, #8]
 80820c8:	ea22 020c 	bic.w	r2, r2, ip
 80820cc:	60ba      	str	r2, [r7, #8]
 80820ce:	f8de 2000 	ldr.w	r2, [lr]
 80820d2:	43f6      	mvns	r6, r6
 80820d4:	4032      	ands	r2, r6
 80820d6:	f8ce 2000 	str.w	r2, [lr]
 80820da:	f8de 2004 	ldr.w	r2, [lr, #4]
 80820de:	4032      	ands	r2, r6
 80820e0:	f8ce 2004 	str.w	r2, [lr, #4]
 80820e4:	f8de 2008 	ldr.w	r2, [lr, #8]
 80820e8:	4032      	ands	r2, r6
 80820ea:	f8ce 2008 	str.w	r2, [lr, #8]
 80820ee:	f8de 200c 	ldr.w	r2, [lr, #12]
 80820f2:	4016      	ands	r6, r2
 80820f4:	f8ce 600c 	str.w	r6, [lr, #12]
 80820f8:	005c      	lsls	r4, r3, #1
 80820fa:	2203      	movs	r2, #3
 80820fc:	40a2      	lsls	r2, r4
 80820fe:	6804      	ldr	r4, [r0, #0]
 8082100:	43d2      	mvns	r2, r2
 8082102:	08de      	lsrs	r6, r3, #3
 8082104:	4014      	ands	r4, r2
 8082106:	eb00 0686 	add.w	r6, r0, r6, lsl #2
 808210a:	6004      	str	r4, [r0, #0]
 808210c:	f003 0407 	and.w	r4, r3, #7
 8082110:	6a37      	ldr	r7, [r6, #32]
 8082112:	00a4      	lsls	r4, r4, #2
 8082114:	f04f 0c0f 	mov.w	ip, #15
 8082118:	fa0c f404 	lsl.w	r4, ip, r4
 808211c:	ea27 0404 	bic.w	r4, r7, r4
 8082120:	6234      	str	r4, [r6, #32]
 8082122:	6884      	ldr	r4, [r0, #8]
 8082124:	4014      	ands	r4, r2
 8082126:	6084      	str	r4, [r0, #8]
 8082128:	6844      	ldr	r4, [r0, #4]
 808212a:	ea24 0505 	bic.w	r5, r4, r5
 808212e:	6045      	str	r5, [r0, #4]
 8082130:	68c4      	ldr	r4, [r0, #12]
 8082132:	3301      	adds	r3, #1
 8082134:	4022      	ands	r2, r4
 8082136:	2b10      	cmp	r3, #16
 8082138:	60c2      	str	r2, [r0, #12]
 808213a:	d18a      	bne.n	8082052 <HAL_GPIO_DeInit+0x1e>
 808213c:	e8bd 8ff0 	ldmia.w	sp!, {r4, r5, r6, r7, r8, r9, sl, fp, pc}
 8082140:	2402      	movs	r4, #2
 8082142:	fa04 f202 	lsl.w	r2, r4, r2
 8082146:	e7bc      	b.n	80820c2 <HAL_GPIO_DeInit+0x8e>
 8082148:	2403      	movs	r4, #3
 808214a:	fa04 f202 	lsl.w	r2, r4, r2
 808214e:	e7b8      	b.n	80820c2 <HAL_GPIO_DeInit+0x8e>
 8082150:	2404      	movs	r4, #4
 8082152:	fa04 f202 	lsl.w	r2, r4, r2
 8082156:	e7b4      	b.n	80820c2 <HAL_GPIO_DeInit+0x8e>
 8082158:	2405      	movs	r4, #5
 808215a:	fa04 f202 	lsl.w	r2, r4, r2
 808215e:	e7b0      	b.n	80820c2 <HAL_GPIO_DeInit+0x8e>
 8082160:	2406      	movs	r4, #6
 8082162:	fa04 f202 	lsl.w	r2, r4, r2
 8082166:	e7ac      	b.n	80820c2 <HAL_GPIO_DeInit+0x8e>
 8082168:	2409      	movs	r4, #9
 808216a:	fa04 f202 	lsl.w	r2, r4, r2
 808216e:	e7a8      	b.n	80820c2 <HAL_GPIO_DeInit+0x8e>
 8082170:	2407      	movs	r4, #7
 8082172:	fa04 f202 	lsl.w	r2, r4, r2
 8082176:	e7a4      	b.n	80820c2 <HAL_GPIO_DeInit+0x8e>
 8082178:	2408      	movs	r4, #8
 808217a:	fa04 f202 	lsl.w	r2, r4, r2
 808217e:	e7a0      	b.n	80820c2 <HAL_GPIO_DeInit+0x8e>
 8082180:	40020c00 	.word	0x40020c00
 8082184:	40021000 	.word	0x40021000
 8082188:	40021400 	.word	0x40021400
 808218c:	40021800 	.word	0x40021800
 8082190:	40021c00 	.word	0x40021c00
 8082194:	40022000 	.word	0x40022000
 8082198:	40022400 	.word	0x40022400
 808219c:	40020000 	.word	0x40020000
 80821a0:	40013c00 	.word	0x40013c00
 80821a4:	40020400 	.word	0x40020400
 80821a8:	40020800 	.word	0x40020800

080821ac <HAL_GPIO_ReadPin>:
 80821ac:	6903      	ldr	r3, [r0, #16]
 80821ae:	4219      	tst	r1, r3
 80821b0:	bf14      	ite	ne
 80821b2:	2001      	movne	r0, #1
 80821b4:	2000      	moveq	r0, #0
 80821b6:	4770      	bx	lr

080821b8 <HAL_GPIO_WritePin>:
 80821b8:	b902      	cbnz	r2, 80821bc <HAL_GPIO_WritePin+0x4>
 80821ba:	0409      	lsls	r1, r1, #16
 80821bc:	6181      	str	r1, [r0, #24]
 80821be:	4770      	bx	lr

080821c0 <HAL_GPIO_TogglePin>:
 80821c0:	6943      	ldr	r3, [r0, #20]
 80821c2:	ea31 0303 	bics.w	r3, r1, r3
 80821c6:	bf08      	it	eq
 80821c8:	0409      	lsleq	r1, r1, #16
 80821ca:	6181      	str	r1, [r0, #24]
 80821cc:	4770      	bx	lr
 80821ce:	bf00      	nop

080821d0 <HAL_GPIO_LockPin>:
 80821d0:	b082      	sub	sp, #8
 80821d2:	f44f 3380 	mov.w	r3, #65536	; 0x10000
 80821d6:	9301      	str	r3, [sp, #4]
 80821d8:	9b01      	ldr	r3, [sp, #4]
 80821da:	430b      	orrs	r3, r1
 80821dc:	9301      	str	r3, [sp, #4]
 80821de:	9b01      	ldr	r3, [sp, #4]
 80821e0:	61c3      	str	r3, [r0, #28]
 80821e2:	61c1      	str	r1, [r0, #28]
 80821e4:	9b01      	ldr	r3, [sp, #4]
 80821e6:	61c3      	str	r3, [r0, #28]
 80821e8:	69c3      	ldr	r3, [r0, #28]
 80821ea:	9301      	str	r3, [sp, #4]
 80821ec:	69c0      	ldr	r0, [r0, #28]
 80821ee:	f480 3080 	eor.w	r0, r0, #65536	; 0x10000
 80821f2:	f3c0 4000 	ubfx	r0, r0, #16, #1
 80821f6:	b002      	add	sp, #8
 80821f8:	4770      	bx	lr
 80821fa:	bf00      	nop

080821fc <HAL_GPIO_EXTI_Callback>:
 80821fc:	4770      	bx	lr
 80821fe:	bf00      	nop

08082200 <HAL_GPIO_EXTI_IRQHandler>:
 8082200:	4a04      	ldr	r2, [pc, #16]	; (8082214 <HAL_GPIO_EXTI_IRQHandler+0x14>)
 8082202:	6951      	ldr	r1, [r2, #20]
 8082204:	4201      	tst	r1, r0
 8082206:	d100      	bne.n	808220a <HAL_GPIO_EXTI_IRQHandler+0xa>
 8082208:	4770      	bx	lr
 808220a:	b508      	push	{r3, lr}
 808220c:	6150      	str	r0, [r2, #20]
 808220e:	f7ff fff5 	bl	80821fc <HAL_GPIO_EXTI_Callback>
 8082212:	bd08      	pop	{r3, pc}
 8082214:	40013c00 	.word	0x40013c00
 8082218:	2000      	movs	r0, #0
 808221a:	4770      	bx	lr

0808221c <HAL_RCC_OscConfig>:
 808221c:	2800      	cmp	r0, #0
 808221e:	f000 8132 	beq.w	8082486 <HAL_RCC_OscConfig+0x26a>
 8082222:	e92d 41f0 	stmdb	sp!, {r4, r5, r6, r7, r8, lr}
 8082226:	6803      	ldr	r3, [r0, #0]
 8082228:	07dd      	lsls	r5, r3, #31
 808222a:	b082      	sub	sp, #8
 808222c:	4604      	mov	r4, r0
 808222e:	d52f      	bpl.n	8082290 <HAL_RCC_OscConfig+0x74>
 8082230:	49ac      	ldr	r1, [pc, #688]	; (80824e4 <HAL_RCC_OscConfig+0x2c8>)
 8082232:	688a      	ldr	r2, [r1, #8]
 8082234:	f002 020c 	and.w	r2, r2, #12
 8082238:	2a04      	cmp	r2, #4
 808223a:	f000 80ea 	beq.w	8082412 <HAL_RCC_OscConfig+0x1f6>
 808223e:	688a      	ldr	r2, [r1, #8]
 8082240:	f002 020c 	and.w	r2, r2, #12
 8082244:	2a08      	cmp	r2, #8
 8082246:	f000 80e0 	beq.w	808240a <HAL_RCC_OscConfig+0x1ee>
 808224a:	6863      	ldr	r3, [r4, #4]
 808224c:	f5b3 3f80 	cmp.w	r3, #65536	; 0x10000
 8082250:	f000 80e9 	beq.w	8082426 <HAL_RCC_OscConfig+0x20a>
 8082254:	f5b3 2fa0 	cmp.w	r3, #327680	; 0x50000
 8082258:	f000 8154 	beq.w	8082504 <HAL_RCC_OscConfig+0x2e8>
 808225c:	4da1      	ldr	r5, [pc, #644]	; (80824e4 <HAL_RCC_OscConfig+0x2c8>)
 808225e:	682a      	ldr	r2, [r5, #0]
 8082260:	f422 3280 	bic.w	r2, r2, #65536	; 0x10000
 8082264:	602a      	str	r2, [r5, #0]
 8082266:	682a      	ldr	r2, [r5, #0]
 8082268:	f422 2280 	bic.w	r2, r2, #262144	; 0x40000
 808226c:	602a      	str	r2, [r5, #0]
 808226e:	2b00      	cmp	r3, #0
 8082270:	f040 80de 	bne.w	8082430 <HAL_RCC_OscConfig+0x214>
 8082274:	f7fe ff96 	bl	80811a4 <HAL_GetTick>
 8082278:	4606      	mov	r6, r0
 808227a:	e005      	b.n	8082288 <HAL_RCC_OscConfig+0x6c>
 808227c:	f7fe ff92 	bl	80811a4 <HAL_GetTick>
 8082280:	1b80      	subs	r0, r0, r6
 8082282:	2864      	cmp	r0, #100	; 0x64
 8082284:	f200 80f2 	bhi.w	808246c <HAL_RCC_OscConfig+0x250>
 8082288:	682b      	ldr	r3, [r5, #0]
 808228a:	039b      	lsls	r3, r3, #14
 808228c:	d4f6      	bmi.n	808227c <HAL_RCC_OscConfig+0x60>
 808228e:	6823      	ldr	r3, [r4, #0]
 8082290:	079f      	lsls	r7, r3, #30
 8082292:	d475      	bmi.n	8082380 <HAL_RCC_OscConfig+0x164>
 8082294:	071a      	lsls	r2, r3, #28
 8082296:	d515      	bpl.n	80822c4 <HAL_RCC_OscConfig+0xa8>
 8082298:	6963      	ldr	r3, [r4, #20]
 808229a:	2b00      	cmp	r3, #0
 808229c:	f000 80a5 	beq.w	80823ea <HAL_RCC_OscConfig+0x1ce>
 80822a0:	4b91      	ldr	r3, [pc, #580]	; (80824e8 <HAL_RCC_OscConfig+0x2cc>)
 80822a2:	4d90      	ldr	r5, [pc, #576]	; (80824e4 <HAL_RCC_OscConfig+0x2c8>)
 80822a4:	2201      	movs	r2, #1
 80822a6:	601a      	str	r2, [r3, #0]
 80822a8:	f7fe ff7c 	bl	80811a4 <HAL_GetTick>
 80822ac:	4606      	mov	r6, r0
 80822ae:	e005      	b.n	80822bc <HAL_RCC_OscConfig+0xa0>
 80822b0:	f7fe ff78 	bl	80811a4 <HAL_GetTick>
 80822b4:	1b80      	subs	r0, r0, r6
 80822b6:	2802      	cmp	r0, #2
 80822b8:	f200 80d8 	bhi.w	808246c <HAL_RCC_OscConfig+0x250>
 80822bc:	6f6b      	ldr	r3, [r5, #116]	; 0x74
 80822be:	079b      	lsls	r3, r3, #30
 80822c0:	d5f6      	bpl.n	80822b0 <HAL_RCC_OscConfig+0x94>
 80822c2:	6823      	ldr	r3, [r4, #0]
 80822c4:	0758      	lsls	r0, r3, #29
 80822c6:	d53b      	bpl.n	8082340 <HAL_RCC_OscConfig+0x124>
 80822c8:	4a86      	ldr	r2, [pc, #536]	; (80824e4 <HAL_RCC_OscConfig+0x2c8>)
 80822ca:	6c13      	ldr	r3, [r2, #64]	; 0x40
 80822cc:	f013 5380 	ands.w	r3, r3, #268435456	; 0x10000000
 80822d0:	f040 80db 	bne.w	808248a <HAL_RCC_OscConfig+0x26e>
 80822d4:	9301      	str	r3, [sp, #4]
 80822d6:	6c13      	ldr	r3, [r2, #64]	; 0x40
 80822d8:	f043 5380 	orr.w	r3, r3, #268435456	; 0x10000000
 80822dc:	6413      	str	r3, [r2, #64]	; 0x40
 80822de:	6c13      	ldr	r3, [r2, #64]	; 0x40
 80822e0:	f003 5380 	and.w	r3, r3, #268435456	; 0x10000000
 80822e4:	9301      	str	r3, [sp, #4]
 80822e6:	9b01      	ldr	r3, [sp, #4]
 80822e8:	2601      	movs	r6, #1
 80822ea:	4d80      	ldr	r5, [pc, #512]	; (80824ec <HAL_RCC_OscConfig+0x2d0>)
 80822ec:	682a      	ldr	r2, [r5, #0]
 80822ee:	05d1      	lsls	r1, r2, #23
 80822f0:	f140 80ac 	bpl.w	808244c <HAL_RCC_OscConfig+0x230>
 80822f4:	68a3      	ldr	r3, [r4, #8]
 80822f6:	2b01      	cmp	r3, #1
 80822f8:	f000 80c9 	beq.w	808248e <HAL_RCC_OscConfig+0x272>
 80822fc:	2b05      	cmp	r3, #5
 80822fe:	f000 810b 	beq.w	8082518 <HAL_RCC_OscConfig+0x2fc>
 8082302:	4d78      	ldr	r5, [pc, #480]	; (80824e4 <HAL_RCC_OscConfig+0x2c8>)
 8082304:	6f2a      	ldr	r2, [r5, #112]	; 0x70
 8082306:	f022 0201 	bic.w	r2, r2, #1
 808230a:	672a      	str	r2, [r5, #112]	; 0x70
 808230c:	6f2a      	ldr	r2, [r5, #112]	; 0x70
 808230e:	f022 0204 	bic.w	r2, r2, #4
 8082312:	672a      	str	r2, [r5, #112]	; 0x70
 8082314:	2b00      	cmp	r3, #0
 8082316:	f040 80bf 	bne.w	8082498 <HAL_RCC_OscConfig+0x27c>
 808231a:	f7fe ff43 	bl	80811a4 <HAL_GetTick>
 808231e:	f241 3788 	movw	r7, #5000	; 0x1388
 8082322:	4680      	mov	r8, r0
 8082324:	e006      	b.n	8082334 <HAL_RCC_OscConfig+0x118>
 8082326:	f7fe ff3d 	bl	80811a4 <HAL_GetTick>
 808232a:	eba0 0008 	sub.w	r0, r0, r8
 808232e:	42b8      	cmp	r0, r7
 8082330:	f200 809c 	bhi.w	808246c <HAL_RCC_OscConfig+0x250>
 8082334:	6f2b      	ldr	r3, [r5, #112]	; 0x70
 8082336:	0798      	lsls	r0, r3, #30
 8082338:	d4f5      	bmi.n	8082326 <HAL_RCC_OscConfig+0x10a>
 808233a:	2e00      	cmp	r6, #0
 808233c:	f040 80dc 	bne.w	80824f8 <HAL_RCC_OscConfig+0x2dc>
 8082340:	69a2      	ldr	r2, [r4, #24]
 8082342:	b1ca      	cbz	r2, 8082378 <HAL_RCC_OscConfig+0x15c>
 8082344:	4d67      	ldr	r5, [pc, #412]	; (80824e4 <HAL_RCC_OscConfig+0x2c8>)
 8082346:	68a9      	ldr	r1, [r5, #8]
 8082348:	f001 010c 	and.w	r1, r1, #12
 808234c:	2908      	cmp	r1, #8
 808234e:	d048      	beq.n	80823e2 <HAL_RCC_OscConfig+0x1c6>
 8082350:	2a02      	cmp	r2, #2
 8082352:	4a67      	ldr	r2, [pc, #412]	; (80824f0 <HAL_RCC_OscConfig+0x2d4>)
 8082354:	f04f 0100 	mov.w	r1, #0
 8082358:	6011      	str	r1, [r2, #0]
 808235a:	f000 80e7 	beq.w	808252c <HAL_RCC_OscConfig+0x310>
 808235e:	f7fe ff21 	bl	80811a4 <HAL_GetTick>
 8082362:	462c      	mov	r4, r5
 8082364:	4605      	mov	r5, r0
 8082366:	e004      	b.n	8082372 <HAL_RCC_OscConfig+0x156>
 8082368:	f7fe ff1c 	bl	80811a4 <HAL_GetTick>
 808236c:	1b40      	subs	r0, r0, r5
 808236e:	2802      	cmp	r0, #2
 8082370:	d87c      	bhi.n	808246c <HAL_RCC_OscConfig+0x250>
 8082372:	6823      	ldr	r3, [r4, #0]
 8082374:	019b      	lsls	r3, r3, #6
 8082376:	d4f7      	bmi.n	8082368 <HAL_RCC_OscConfig+0x14c>
 8082378:	2000      	movs	r0, #0
 808237a:	b002      	add	sp, #8
 808237c:	e8bd 81f0 	ldmia.w	sp!, {r4, r5, r6, r7, r8, pc}
 8082380:	4a58      	ldr	r2, [pc, #352]	; (80824e4 <HAL_RCC_OscConfig+0x2c8>)
 8082382:	6891      	ldr	r1, [r2, #8]
 8082384:	f011 0f0c 	tst.w	r1, #12
 8082388:	d024      	beq.n	80823d4 <HAL_RCC_OscConfig+0x1b8>
 808238a:	6891      	ldr	r1, [r2, #8]
 808238c:	f001 010c 	and.w	r1, r1, #12
 8082390:	2908      	cmp	r1, #8
 8082392:	d01c      	beq.n	80823ce <HAL_RCC_OscConfig+0x1b2>
 8082394:	68e3      	ldr	r3, [r4, #12]
 8082396:	2b00      	cmp	r3, #0
 8082398:	f000 8092 	beq.w	80824c0 <HAL_RCC_OscConfig+0x2a4>
 808239c:	4b55      	ldr	r3, [pc, #340]	; (80824f4 <HAL_RCC_OscConfig+0x2d8>)
 808239e:	4d51      	ldr	r5, [pc, #324]	; (80824e4 <HAL_RCC_OscConfig+0x2c8>)
 80823a0:	2201      	movs	r2, #1
 80823a2:	601a      	str	r2, [r3, #0]
 80823a4:	f7fe fefe 	bl	80811a4 <HAL_GetTick>
 80823a8:	4606      	mov	r6, r0
 80823aa:	e004      	b.n	80823b6 <HAL_RCC_OscConfig+0x19a>
 80823ac:	f7fe fefa 	bl	80811a4 <HAL_GetTick>
 80823b0:	1b80      	subs	r0, r0, r6
 80823b2:	2802      	cmp	r0, #2
 80823b4:	d85a      	bhi.n	808246c <HAL_RCC_OscConfig+0x250>
 80823b6:	682b      	ldr	r3, [r5, #0]
 80823b8:	0798      	lsls	r0, r3, #30
 80823ba:	d5f7      	bpl.n	80823ac <HAL_RCC_OscConfig+0x190>
 80823bc:	682b      	ldr	r3, [r5, #0]
 80823be:	6922      	ldr	r2, [r4, #16]
 80823c0:	f023 03f8 	bic.w	r3, r3, #248	; 0xf8
 80823c4:	ea43 03c2 	orr.w	r3, r3, r2, lsl #3
 80823c8:	602b      	str	r3, [r5, #0]
 80823ca:	6823      	ldr	r3, [r4, #0]
 80823cc:	e762      	b.n	8082294 <HAL_RCC_OscConfig+0x78>
 80823ce:	6852      	ldr	r2, [r2, #4]
 80823d0:	0256      	lsls	r6, r2, #9
 80823d2:	d4df      	bmi.n	8082394 <HAL_RCC_OscConfig+0x178>
 80823d4:	4a43      	ldr	r2, [pc, #268]	; (80824e4 <HAL_RCC_OscConfig+0x2c8>)
 80823d6:	6812      	ldr	r2, [r2, #0]
 80823d8:	0795      	lsls	r5, r2, #30
 80823da:	d54b      	bpl.n	8082474 <HAL_RCC_OscConfig+0x258>
 80823dc:	68e2      	ldr	r2, [r4, #12]
 80823de:	2a01      	cmp	r2, #1
 80823e0:	d048      	beq.n	8082474 <HAL_RCC_OscConfig+0x258>
 80823e2:	2001      	movs	r0, #1
 80823e4:	b002      	add	sp, #8
 80823e6:	e8bd 81f0 	ldmia.w	sp!, {r4, r5, r6, r7, r8, pc}
 80823ea:	4a3f      	ldr	r2, [pc, #252]	; (80824e8 <HAL_RCC_OscConfig+0x2cc>)
 80823ec:	4d3d      	ldr	r5, [pc, #244]	; (80824e4 <HAL_RCC_OscConfig+0x2c8>)
 80823ee:	6013      	str	r3, [r2, #0]
 80823f0:	f7fe fed8 	bl	80811a4 <HAL_GetTick>
 80823f4:	4606      	mov	r6, r0
 80823f6:	e004      	b.n	8082402 <HAL_RCC_OscConfig+0x1e6>
 80823f8:	f7fe fed4 	bl	80811a4 <HAL_GetTick>
 80823fc:	1b80      	subs	r0, r0, r6
 80823fe:	2802      	cmp	r0, #2
 8082400:	d834      	bhi.n	808246c <HAL_RCC_OscConfig+0x250>
 8082402:	6f6b      	ldr	r3, [r5, #116]	; 0x74
 8082404:	079f      	lsls	r7, r3, #30
 8082406:	d4f7      	bmi.n	80823f8 <HAL_RCC_OscConfig+0x1dc>
 8082408:	e75b      	b.n	80822c2 <HAL_RCC_OscConfig+0xa6>
 808240a:	684a      	ldr	r2, [r1, #4]
 808240c:	0250      	lsls	r0, r2, #9
 808240e:	f57f af1c 	bpl.w	808224a <HAL_RCC_OscConfig+0x2e>
 8082412:	4a34      	ldr	r2, [pc, #208]	; (80824e4 <HAL_RCC_OscConfig+0x2c8>)
 8082414:	6812      	ldr	r2, [r2, #0]
 8082416:	0391      	lsls	r1, r2, #14
 8082418:	f57f af3a 	bpl.w	8082290 <HAL_RCC_OscConfig+0x74>
 808241c:	6862      	ldr	r2, [r4, #4]
 808241e:	2a00      	cmp	r2, #0
 8082420:	f47f af36 	bne.w	8082290 <HAL_RCC_OscConfig+0x74>
 8082424:	e7dd      	b.n	80823e2 <HAL_RCC_OscConfig+0x1c6>
 8082426:	4a2f      	ldr	r2, [pc, #188]	; (80824e4 <HAL_RCC_OscConfig+0x2c8>)
 8082428:	6813      	ldr	r3, [r2, #0]
 808242a:	f443 3380 	orr.w	r3, r3, #65536	; 0x10000
 808242e:	6013      	str	r3, [r2, #0]
 8082430:	f7fe feb8 	bl	80811a4 <HAL_GetTick>
 8082434:	4d2b      	ldr	r5, [pc, #172]	; (80824e4 <HAL_RCC_OscConfig+0x2c8>)
 8082436:	4606      	mov	r6, r0
 8082438:	e004      	b.n	8082444 <HAL_RCC_OscConfig+0x228>
 808243a:	f7fe feb3 	bl	80811a4 <HAL_GetTick>
 808243e:	1b80      	subs	r0, r0, r6
 8082440:	2864      	cmp	r0, #100	; 0x64
 8082442:	d813      	bhi.n	808246c <HAL_RCC_OscConfig+0x250>
 8082444:	682b      	ldr	r3, [r5, #0]
 8082446:	039a      	lsls	r2, r3, #14
 8082448:	d5f7      	bpl.n	808243a <HAL_RCC_OscConfig+0x21e>
 808244a:	e720      	b.n	808228e <HAL_RCC_OscConfig+0x72>
 808244c:	682a      	ldr	r2, [r5, #0]
 808244e:	f442 7280 	orr.w	r2, r2, #256	; 0x100
 8082452:	602a      	str	r2, [r5, #0]
 8082454:	f7fe fea6 	bl	80811a4 <HAL_GetTick>
 8082458:	4607      	mov	r7, r0
 808245a:	682b      	ldr	r3, [r5, #0]
 808245c:	05da      	lsls	r2, r3, #23
 808245e:	f53f af49 	bmi.w	80822f4 <HAL_RCC_OscConfig+0xd8>
 8082462:	f7fe fe9f 	bl	80811a4 <HAL_GetTick>
 8082466:	1bc0      	subs	r0, r0, r7
 8082468:	2802      	cmp	r0, #2
 808246a:	d9f6      	bls.n	808245a <HAL_RCC_OscConfig+0x23e>
 808246c:	2003      	movs	r0, #3
 808246e:	b002      	add	sp, #8
 8082470:	e8bd 81f0 	ldmia.w	sp!, {r4, r5, r6, r7, r8, pc}
 8082474:	491b      	ldr	r1, [pc, #108]	; (80824e4 <HAL_RCC_OscConfig+0x2c8>)
 8082476:	6920      	ldr	r0, [r4, #16]
 8082478:	680a      	ldr	r2, [r1, #0]
 808247a:	f022 02f8 	bic.w	r2, r2, #248	; 0xf8
 808247e:	ea42 02c0 	orr.w	r2, r2, r0, lsl #3
 8082482:	600a      	str	r2, [r1, #0]
 8082484:	e706      	b.n	8082294 <HAL_RCC_OscConfig+0x78>
 8082486:	2001      	movs	r0, #1
 8082488:	4770      	bx	lr
 808248a:	2600      	movs	r6, #0
 808248c:	e72d      	b.n	80822ea <HAL_RCC_OscConfig+0xce>
 808248e:	4a15      	ldr	r2, [pc, #84]	; (80824e4 <HAL_RCC_OscConfig+0x2c8>)
 8082490:	6f13      	ldr	r3, [r2, #112]	; 0x70
 8082492:	f043 0301 	orr.w	r3, r3, #1
 8082496:	6713      	str	r3, [r2, #112]	; 0x70
 8082498:	f7fe fe84 	bl	80811a4 <HAL_GetTick>
 808249c:	4d11      	ldr	r5, [pc, #68]	; (80824e4 <HAL_RCC_OscConfig+0x2c8>)
 808249e:	4680      	mov	r8, r0
 80824a0:	f241 3788 	movw	r7, #5000	; 0x1388
 80824a4:	e005      	b.n	80824b2 <HAL_RCC_OscConfig+0x296>
 80824a6:	f7fe fe7d 	bl	80811a4 <HAL_GetTick>
 80824aa:	eba0 0008 	sub.w	r0, r0, r8
 80824ae:	42b8      	cmp	r0, r7
 80824b0:	d8dc      	bhi.n	808246c <HAL_RCC_OscConfig+0x250>
 80824b2:	6f2b      	ldr	r3, [r5, #112]	; 0x70
 80824b4:	079b      	lsls	r3, r3, #30
 80824b6:	d5f6      	bpl.n	80824a6 <HAL_RCC_OscConfig+0x28a>
 80824b8:	2e00      	cmp	r6, #0
 80824ba:	f43f af41 	beq.w	8082340 <HAL_RCC_OscConfig+0x124>
 80824be:	e01b      	b.n	80824f8 <HAL_RCC_OscConfig+0x2dc>
 80824c0:	4a0c      	ldr	r2, [pc, #48]	; (80824f4 <HAL_RCC_OscConfig+0x2d8>)
 80824c2:	4d08      	ldr	r5, [pc, #32]	; (80824e4 <HAL_RCC_OscConfig+0x2c8>)
 80824c4:	6013      	str	r3, [r2, #0]
 80824c6:	f7fe fe6d 	bl	80811a4 <HAL_GetTick>
 80824ca:	4606      	mov	r6, r0
 80824cc:	e004      	b.n	80824d8 <HAL_RCC_OscConfig+0x2bc>
 80824ce:	f7fe fe69 	bl	80811a4 <HAL_GetTick>
 80824d2:	1b80      	subs	r0, r0, r6
 80824d4:	2802      	cmp	r0, #2
 80824d6:	d8c9      	bhi.n	808246c <HAL_RCC_OscConfig+0x250>
 80824d8:	682b      	ldr	r3, [r5, #0]
 80824da:	0799      	lsls	r1, r3, #30
 80824dc:	d4f7      	bmi.n	80824ce <HAL_RCC_OscConfig+0x2b2>
 80824de:	6823      	ldr	r3, [r4, #0]
 80824e0:	e6d8      	b.n	8082294 <HAL_RCC_OscConfig+0x78>
 80824e2:	bf00      	nop
 80824e4:	40023800 	.word	0x40023800
 80824e8:	42470e80 	.word	0x42470e80
 80824ec:	40007000 	.word	0x40007000
 80824f0:	42470060 	.word	0x42470060
 80824f4:	42470000 	.word	0x42470000
 80824f8:	4a23      	ldr	r2, [pc, #140]	; (8082588 <HAL_RCC_OscConfig+0x36c>)
 80824fa:	6c13      	ldr	r3, [r2, #64]	; 0x40
 80824fc:	f023 5380 	bic.w	r3, r3, #268435456	; 0x10000000
 8082500:	6413      	str	r3, [r2, #64]	; 0x40
 8082502:	e71d      	b.n	8082340 <HAL_RCC_OscConfig+0x124>
 8082504:	4b20      	ldr	r3, [pc, #128]	; (8082588 <HAL_RCC_OscConfig+0x36c>)
 8082506:	681a      	ldr	r2, [r3, #0]
 8082508:	f442 2280 	orr.w	r2, r2, #262144	; 0x40000
 808250c:	601a      	str	r2, [r3, #0]
 808250e:	681a      	ldr	r2, [r3, #0]
 8082510:	f442 3280 	orr.w	r2, r2, #65536	; 0x10000
 8082514:	601a      	str	r2, [r3, #0]
 8082516:	e78b      	b.n	8082430 <HAL_RCC_OscConfig+0x214>
 8082518:	4b1b      	ldr	r3, [pc, #108]	; (8082588 <HAL_RCC_OscConfig+0x36c>)
 808251a:	6f1a      	ldr	r2, [r3, #112]	; 0x70
 808251c:	f042 0204 	orr.w	r2, r2, #4
 8082520:	671a      	str	r2, [r3, #112]	; 0x70
 8082522:	6f1a      	ldr	r2, [r3, #112]	; 0x70
 8082524:	f042 0201 	orr.w	r2, r2, #1
 8082528:	671a      	str	r2, [r3, #112]	; 0x70
 808252a:	e7b5      	b.n	8082498 <HAL_RCC_OscConfig+0x27c>
 808252c:	f7fe fe3a 	bl	80811a4 <HAL_GetTick>
 8082530:	4606      	mov	r6, r0
 8082532:	e004      	b.n	808253e <HAL_RCC_OscConfig+0x322>
 8082534:	f7fe fe36 	bl	80811a4 <HAL_GetTick>
 8082538:	1b80      	subs	r0, r0, r6
 808253a:	2802      	cmp	r0, #2
 808253c:	d896      	bhi.n	808246c <HAL_RCC_OscConfig+0x250>
 808253e:	682b      	ldr	r3, [r5, #0]
 8082540:	0199      	lsls	r1, r3, #6
 8082542:	d4f7      	bmi.n	8082534 <HAL_RCC_OscConfig+0x318>
 8082544:	e9d4 3607 	ldrd	r3, r6, [r4, #28]
 8082548:	e9d4 0209 	ldrd	r0, r2, [r4, #36]	; 0x24
 808254c:	6ae1      	ldr	r1, [r4, #44]	; 0x2c
 808254e:	4c0e      	ldr	r4, [pc, #56]	; (8082588 <HAL_RCC_OscConfig+0x36c>)
 8082550:	4333      	orrs	r3, r6
 8082552:	ea43 1380 	orr.w	r3, r3, r0, lsl #6
 8082556:	0852      	lsrs	r2, r2, #1
 8082558:	ea43 6301 	orr.w	r3, r3, r1, lsl #24
 808255c:	3a01      	subs	r2, #1
 808255e:	490b      	ldr	r1, [pc, #44]	; (808258c <HAL_RCC_OscConfig+0x370>)
 8082560:	ea43 4302 	orr.w	r3, r3, r2, lsl #16
 8082564:	2201      	movs	r2, #1
 8082566:	606b      	str	r3, [r5, #4]
 8082568:	600a      	str	r2, [r1, #0]
 808256a:	f7fe fe1b 	bl	80811a4 <HAL_GetTick>
 808256e:	4605      	mov	r5, r0
 8082570:	e005      	b.n	808257e <HAL_RCC_OscConfig+0x362>
 8082572:	f7fe fe17 	bl	80811a4 <HAL_GetTick>
 8082576:	1b40      	subs	r0, r0, r5
 8082578:	2802      	cmp	r0, #2
 808257a:	f63f af77 	bhi.w	808246c <HAL_RCC_OscConfig+0x250>
 808257e:	6823      	ldr	r3, [r4, #0]
 8082580:	019a      	lsls	r2, r3, #6
 8082582:	d5f6      	bpl.n	8082572 <HAL_RCC_OscConfig+0x356>
 8082584:	e6f8      	b.n	8082378 <HAL_RCC_OscConfig+0x15c>
 8082586:	bf00      	nop
 8082588:	40023800 	.word	0x40023800
 808258c:	42470060 	.word	0x42470060

08082590 <HAL_RCC_MCOConfig>:
 8082590:	b570      	push	{r4, r5, r6, lr}
 8082592:	460e      	mov	r6, r1
 8082594:	b088      	sub	sp, #32
 8082596:	4615      	mov	r5, r2
 8082598:	b308      	cbz	r0, 80825de <HAL_RCC_MCOConfig+0x4e>
 808259a:	4c21      	ldr	r4, [pc, #132]	; (8082620 <HAL_RCC_MCOConfig+0x90>)
 808259c:	4821      	ldr	r0, [pc, #132]	; (8082624 <HAL_RCC_MCOConfig+0x94>)
 808259e:	2300      	movs	r3, #0
 80825a0:	9302      	str	r3, [sp, #8]
 80825a2:	6b22      	ldr	r2, [r4, #48]	; 0x30
 80825a4:	f042 0204 	orr.w	r2, r2, #4
 80825a8:	6322      	str	r2, [r4, #48]	; 0x30
 80825aa:	6b22      	ldr	r2, [r4, #48]	; 0x30
 80825ac:	9305      	str	r3, [sp, #20]
 80825ae:	f002 0204 	and.w	r2, r2, #4
 80825b2:	9202      	str	r2, [sp, #8]
 80825b4:	f44f 7100 	mov.w	r1, #512	; 0x200
 80825b8:	9a02      	ldr	r2, [sp, #8]
 80825ba:	9307      	str	r3, [sp, #28]
 80825bc:	2202      	movs	r2, #2
 80825be:	9103      	str	r1, [sp, #12]
 80825c0:	2303      	movs	r3, #3
 80825c2:	a903      	add	r1, sp, #12
 80825c4:	9204      	str	r2, [sp, #16]
 80825c6:	9306      	str	r3, [sp, #24]
 80825c8:	f7ff fbf6 	bl	8081db8 <HAL_GPIO_Init>
 80825cc:	68a1      	ldr	r1, [r4, #8]
 80825ce:	f021 4178 	bic.w	r1, r1, #4160749568	; 0xf8000000
 80825d2:	4331      	orrs	r1, r6
 80825d4:	ea41 01c5 	orr.w	r1, r1, r5, lsl #3
 80825d8:	60a1      	str	r1, [r4, #8]
 80825da:	b008      	add	sp, #32
 80825dc:	bd70      	pop	{r4, r5, r6, pc}
 80825de:	4c10      	ldr	r4, [pc, #64]	; (8082620 <HAL_RCC_MCOConfig+0x90>)
 80825e0:	9001      	str	r0, [sp, #4]
 80825e2:	6b22      	ldr	r2, [r4, #48]	; 0x30
 80825e4:	f042 0201 	orr.w	r2, r2, #1
 80825e8:	6322      	str	r2, [r4, #48]	; 0x30
 80825ea:	6b22      	ldr	r2, [r4, #48]	; 0x30
 80825ec:	f002 0201 	and.w	r2, r2, #1
 80825f0:	4603      	mov	r3, r0
 80825f2:	9201      	str	r2, [sp, #4]
 80825f4:	f44f 7180 	mov.w	r1, #256	; 0x100
 80825f8:	9305      	str	r3, [sp, #20]
 80825fa:	9a01      	ldr	r2, [sp, #4]
 80825fc:	9307      	str	r3, [sp, #28]
 80825fe:	2202      	movs	r2, #2
 8082600:	9103      	str	r1, [sp, #12]
 8082602:	2303      	movs	r3, #3
 8082604:	a903      	add	r1, sp, #12
 8082606:	4808      	ldr	r0, [pc, #32]	; (8082628 <HAL_RCC_MCOConfig+0x98>)
 8082608:	9204      	str	r2, [sp, #16]
 808260a:	9306      	str	r3, [sp, #24]
 808260c:	f7ff fbd4 	bl	8081db8 <HAL_GPIO_Init>
 8082610:	68a1      	ldr	r1, [r4, #8]
 8082612:	f021 61ec 	bic.w	r1, r1, #123731968	; 0x7600000
 8082616:	4331      	orrs	r1, r6
 8082618:	4329      	orrs	r1, r5
 808261a:	60a1      	str	r1, [r4, #8]
 808261c:	b008      	add	sp, #32
 808261e:	bd70      	pop	{r4, r5, r6, pc}
 8082620:	40023800 	.word	0x40023800
 8082624:	40020800 	.word	0x40020800
 8082628:	40020000 	.word	0x40020000

0808262c <HAL_RCC_EnableCSS>:
 808262c:	4b01      	ldr	r3, [pc, #4]	; (8082634 <HAL_RCC_EnableCSS+0x8>)
 808262e:	2201      	movs	r2, #1
 8082630:	601a      	str	r2, [r3, #0]
 8082632:	4770      	bx	lr
 8082634:	4247004c 	.word	0x4247004c

08082638 <HAL_RCC_DisableCSS>:
 8082638:	4b01      	ldr	r3, [pc, #4]	; (8082640 <HAL_RCC_DisableCSS+0x8>)
 808263a:	2200      	movs	r2, #0
 808263c:	601a      	str	r2, [r3, #0]
 808263e:	4770      	bx	lr
 8082640:	4247004c 	.word	0x4247004c

08082644 <HAL_RCC_GetSysClockFreq>:
 8082644:	4917      	ldr	r1, [pc, #92]	; (80826a4 <HAL_RCC_GetSysClockFreq+0x60>)
 8082646:	b508      	push	{r3, lr}
 8082648:	688b      	ldr	r3, [r1, #8]
 808264a:	f003 030c 	and.w	r3, r3, #12
 808264e:	2b04      	cmp	r3, #4
 8082650:	d01b      	beq.n	808268a <HAL_RCC_GetSysClockFreq+0x46>
 8082652:	2b08      	cmp	r3, #8
 8082654:	d117      	bne.n	8082686 <HAL_RCC_GetSysClockFreq+0x42>
 8082656:	684a      	ldr	r2, [r1, #4]
 8082658:	684b      	ldr	r3, [r1, #4]
 808265a:	f413 0380 	ands.w	r3, r3, #4194304	; 0x400000
 808265e:	f002 023f 	and.w	r2, r2, #63	; 0x3f
 8082662:	d114      	bne.n	808268e <HAL_RCC_GetSysClockFreq+0x4a>
 8082664:	6849      	ldr	r1, [r1, #4]
 8082666:	4810      	ldr	r0, [pc, #64]	; (80826a8 <HAL_RCC_GetSysClockFreq+0x64>)
 8082668:	f3c1 1188 	ubfx	r1, r1, #6, #9
 808266c:	fba1 0100 	umull	r0, r1, r1, r0
 8082670:	f005 fbfe 	bl	8087e70 <__aeabi_uldivmod>
 8082674:	4b0b      	ldr	r3, [pc, #44]	; (80826a4 <HAL_RCC_GetSysClockFreq+0x60>)
 8082676:	685b      	ldr	r3, [r3, #4]
 8082678:	f3c3 4301 	ubfx	r3, r3, #16, #2
 808267c:	3301      	adds	r3, #1
 808267e:	005b      	lsls	r3, r3, #1
 8082680:	fbb0 f0f3 	udiv	r0, r0, r3
 8082684:	bd08      	pop	{r3, pc}
 8082686:	4808      	ldr	r0, [pc, #32]	; (80826a8 <HAL_RCC_GetSysClockFreq+0x64>)
 8082688:	bd08      	pop	{r3, pc}
 808268a:	4808      	ldr	r0, [pc, #32]	; (80826ac <HAL_RCC_GetSysClockFreq+0x68>)
 808268c:	bd08      	pop	{r3, pc}
 808268e:	684b      	ldr	r3, [r1, #4]
 8082690:	4806      	ldr	r0, [pc, #24]	; (80826ac <HAL_RCC_GetSysClockFreq+0x68>)
 8082692:	f3c3 1388 	ubfx	r3, r3, #6, #9
 8082696:	fba3 0100 	umull	r0, r1, r3, r0
 808269a:	2300      	movs	r3, #0
 808269c:	f005 fbe8 	bl	8087e70 <__aeabi_uldivmod>
 80826a0:	e7e8      	b.n	8082674 <HAL_RCC_GetSysClockFreq+0x30>
 80826a2:	bf00      	nop
 80826a4:	40023800 	.word	0x40023800
 80826a8:	00f42400 	.word	0x00f42400
 80826ac:	017d7840 	.word	0x017d7840

080826b0 <HAL_RCC_ClockConfig>:
 80826b0:	b160      	cbz	r0, 80826cc <HAL_RCC_ClockConfig+0x1c>
 80826b2:	4a48      	ldr	r2, [pc, #288]	; (80827d4 <HAL_RCC_ClockConfig+0x124>)
 80826b4:	6813      	ldr	r3, [r2, #0]
 80826b6:	f003 030f 	and.w	r3, r3, #15
 80826ba:	428b      	cmp	r3, r1
 80826bc:	d208      	bcs.n	80826d0 <HAL_RCC_ClockConfig+0x20>
 80826be:	b2cb      	uxtb	r3, r1
 80826c0:	7013      	strb	r3, [r2, #0]
 80826c2:	6813      	ldr	r3, [r2, #0]
 80826c4:	f003 030f 	and.w	r3, r3, #15
 80826c8:	428b      	cmp	r3, r1
 80826ca:	d001      	beq.n	80826d0 <HAL_RCC_ClockConfig+0x20>
 80826cc:	2001      	movs	r0, #1
 80826ce:	4770      	bx	lr
 80826d0:	6803      	ldr	r3, [r0, #0]
 80826d2:	e92d 41f0 	stmdb	sp!, {r4, r5, r6, r7, r8, lr}
 80826d6:	079d      	lsls	r5, r3, #30
 80826d8:	d514      	bpl.n	8082704 <HAL_RCC_ClockConfig+0x54>
 80826da:	075c      	lsls	r4, r3, #29
 80826dc:	d504      	bpl.n	80826e8 <HAL_RCC_ClockConfig+0x38>
 80826de:	4c3e      	ldr	r4, [pc, #248]	; (80827d8 <HAL_RCC_ClockConfig+0x128>)
 80826e0:	68a2      	ldr	r2, [r4, #8]
 80826e2:	f442 52e0 	orr.w	r2, r2, #7168	; 0x1c00
 80826e6:	60a2      	str	r2, [r4, #8]
 80826e8:	071a      	lsls	r2, r3, #28
 80826ea:	d504      	bpl.n	80826f6 <HAL_RCC_ClockConfig+0x46>
 80826ec:	4c3a      	ldr	r4, [pc, #232]	; (80827d8 <HAL_RCC_ClockConfig+0x128>)
 80826ee:	68a2      	ldr	r2, [r4, #8]
 80826f0:	f442 4260 	orr.w	r2, r2, #57344	; 0xe000
 80826f4:	60a2      	str	r2, [r4, #8]
 80826f6:	4c38      	ldr	r4, [pc, #224]	; (80827d8 <HAL_RCC_ClockConfig+0x128>)
 80826f8:	6885      	ldr	r5, [r0, #8]
 80826fa:	68a2      	ldr	r2, [r4, #8]
 80826fc:	f022 02f0 	bic.w	r2, r2, #240	; 0xf0
 8082700:	432a      	orrs	r2, r5
 8082702:	60a2      	str	r2, [r4, #8]
 8082704:	07df      	lsls	r7, r3, #31
 8082706:	4604      	mov	r4, r0
 8082708:	460d      	mov	r5, r1
 808270a:	d522      	bpl.n	8082752 <HAL_RCC_ClockConfig+0xa2>
 808270c:	6842      	ldr	r2, [r0, #4]
 808270e:	2a01      	cmp	r2, #1
 8082710:	d056      	beq.n	80827c0 <HAL_RCC_ClockConfig+0x110>
 8082712:	1e93      	subs	r3, r2, #2
 8082714:	2b01      	cmp	r3, #1
 8082716:	4b30      	ldr	r3, [pc, #192]	; (80827d8 <HAL_RCC_ClockConfig+0x128>)
 8082718:	681b      	ldr	r3, [r3, #0]
 808271a:	d958      	bls.n	80827ce <HAL_RCC_ClockConfig+0x11e>
 808271c:	0799      	lsls	r1, r3, #30
 808271e:	d525      	bpl.n	808276c <HAL_RCC_ClockConfig+0xbc>
 8082720:	4e2d      	ldr	r6, [pc, #180]	; (80827d8 <HAL_RCC_ClockConfig+0x128>)
 8082722:	68b3      	ldr	r3, [r6, #8]
 8082724:	f023 0303 	bic.w	r3, r3, #3
 8082728:	4313      	orrs	r3, r2
 808272a:	60b3      	str	r3, [r6, #8]
 808272c:	f7fe fd3a 	bl	80811a4 <HAL_GetTick>
 8082730:	f241 3788 	movw	r7, #5000	; 0x1388
 8082734:	4680      	mov	r8, r0
 8082736:	e005      	b.n	8082744 <HAL_RCC_ClockConfig+0x94>
 8082738:	f7fe fd34 	bl	80811a4 <HAL_GetTick>
 808273c:	eba0 0008 	sub.w	r0, r0, r8
 8082740:	42b8      	cmp	r0, r7
 8082742:	d842      	bhi.n	80827ca <HAL_RCC_ClockConfig+0x11a>
 8082744:	68b3      	ldr	r3, [r6, #8]
 8082746:	6862      	ldr	r2, [r4, #4]
 8082748:	f003 030c 	and.w	r3, r3, #12
 808274c:	ebb3 0f82 	cmp.w	r3, r2, lsl #2
 8082750:	d1f2      	bne.n	8082738 <HAL_RCC_ClockConfig+0x88>
 8082752:	4a20      	ldr	r2, [pc, #128]	; (80827d4 <HAL_RCC_ClockConfig+0x124>)
 8082754:	6813      	ldr	r3, [r2, #0]
 8082756:	f003 030f 	and.w	r3, r3, #15
 808275a:	42ab      	cmp	r3, r5
 808275c:	d909      	bls.n	8082772 <HAL_RCC_ClockConfig+0xc2>
 808275e:	b2eb      	uxtb	r3, r5
 8082760:	7013      	strb	r3, [r2, #0]
 8082762:	6813      	ldr	r3, [r2, #0]
 8082764:	f003 030f 	and.w	r3, r3, #15
 8082768:	42ab      	cmp	r3, r5
 808276a:	d002      	beq.n	8082772 <HAL_RCC_ClockConfig+0xc2>
 808276c:	2001      	movs	r0, #1
 808276e:	e8bd 81f0 	ldmia.w	sp!, {r4, r5, r6, r7, r8, pc}
 8082772:	6823      	ldr	r3, [r4, #0]
 8082774:	075a      	lsls	r2, r3, #29
 8082776:	d506      	bpl.n	8082786 <HAL_RCC_ClockConfig+0xd6>
 8082778:	4917      	ldr	r1, [pc, #92]	; (80827d8 <HAL_RCC_ClockConfig+0x128>)
 808277a:	68e0      	ldr	r0, [r4, #12]
 808277c:	688a      	ldr	r2, [r1, #8]
 808277e:	f422 52e0 	bic.w	r2, r2, #7168	; 0x1c00
 8082782:	4302      	orrs	r2, r0
 8082784:	608a      	str	r2, [r1, #8]
 8082786:	071b      	lsls	r3, r3, #28
 8082788:	d411      	bmi.n	80827ae <HAL_RCC_ClockConfig+0xfe>
 808278a:	f7ff ff5b 	bl	8082644 <HAL_RCC_GetSysClockFreq>
 808278e:	4b12      	ldr	r3, [pc, #72]	; (80827d8 <HAL_RCC_ClockConfig+0x128>)
 8082790:	4912      	ldr	r1, [pc, #72]	; (80827dc <HAL_RCC_ClockConfig+0x12c>)
 8082792:	689b      	ldr	r3, [r3, #8]
 8082794:	4a12      	ldr	r2, [pc, #72]	; (80827e0 <HAL_RCC_ClockConfig+0x130>)
 8082796:	f3c3 1303 	ubfx	r3, r3, #4, #4
 808279a:	5ccb      	ldrb	r3, [r1, r3]
 808279c:	fa20 f303 	lsr.w	r3, r0, r3
 80827a0:	2000      	movs	r0, #0
 80827a2:	6013      	str	r3, [r2, #0]
 80827a4:	f7fe fcb4 	bl	8081110 <HAL_InitTick>
 80827a8:	2000      	movs	r0, #0
 80827aa:	e8bd 81f0 	ldmia.w	sp!, {r4, r5, r6, r7, r8, pc}
 80827ae:	4a0a      	ldr	r2, [pc, #40]	; (80827d8 <HAL_RCC_ClockConfig+0x128>)
 80827b0:	6921      	ldr	r1, [r4, #16]
 80827b2:	6893      	ldr	r3, [r2, #8]
 80827b4:	f423 4360 	bic.w	r3, r3, #57344	; 0xe000
 80827b8:	ea43 03c1 	orr.w	r3, r3, r1, lsl #3
 80827bc:	6093      	str	r3, [r2, #8]
 80827be:	e7e4      	b.n	808278a <HAL_RCC_ClockConfig+0xda>
 80827c0:	4b05      	ldr	r3, [pc, #20]	; (80827d8 <HAL_RCC_ClockConfig+0x128>)
 80827c2:	681b      	ldr	r3, [r3, #0]
 80827c4:	039e      	lsls	r6, r3, #14
 80827c6:	d4ab      	bmi.n	8082720 <HAL_RCC_ClockConfig+0x70>
 80827c8:	e7d0      	b.n	808276c <HAL_RCC_ClockConfig+0xbc>
 80827ca:	2003      	movs	r0, #3
 80827cc:	e7ed      	b.n	80827aa <HAL_RCC_ClockConfig+0xfa>
 80827ce:	0198      	lsls	r0, r3, #6
 80827d0:	d4a6      	bmi.n	8082720 <HAL_RCC_ClockConfig+0x70>
 80827d2:	e7cb      	b.n	808276c <HAL_RCC_ClockConfig+0xbc>
 80827d4:	40023c00 	.word	0x40023c00
 80827d8:	40023800 	.word	0x40023800
 80827dc:	08088b18 	.word	0x08088b18
 80827e0:	20000000 	.word	0x20000000

080827e4 <HAL_RCC_GetHCLKFreq>:
 80827e4:	4b01      	ldr	r3, [pc, #4]	; (80827ec <HAL_RCC_GetHCLKFreq+0x8>)
 80827e6:	6818      	ldr	r0, [r3, #0]
 80827e8:	4770      	bx	lr
 80827ea:	bf00      	nop
 80827ec:	20000000 	.word	0x20000000

080827f0 <HAL_RCC_GetPCLK1Freq>:
 80827f0:	4b04      	ldr	r3, [pc, #16]	; (8082804 <HAL_RCC_GetPCLK1Freq+0x14>)
 80827f2:	4a05      	ldr	r2, [pc, #20]	; (8082808 <HAL_RCC_GetPCLK1Freq+0x18>)
 80827f4:	689b      	ldr	r3, [r3, #8]
 80827f6:	4905      	ldr	r1, [pc, #20]	; (808280c <HAL_RCC_GetPCLK1Freq+0x1c>)
 80827f8:	f3c3 2382 	ubfx	r3, r3, #10, #3
 80827fc:	6808      	ldr	r0, [r1, #0]
 80827fe:	5cd3      	ldrb	r3, [r2, r3]
 8082800:	40d8      	lsrs	r0, r3
 8082802:	4770      	bx	lr
 8082804:	40023800 	.word	0x40023800
 8082808:	08088b28 	.word	0x08088b28
 808280c:	20000000 	.word	0x20000000

08082810 <HAL_RCC_GetPCLK2Freq>:
 8082810:	4b04      	ldr	r3, [pc, #16]	; (8082824 <HAL_RCC_GetPCLK2Freq+0x14>)
 8082812:	4a05      	ldr	r2, [pc, #20]	; (8082828 <HAL_RCC_GetPCLK2Freq+0x18>)
 8082814:	689b      	ldr	r3, [r3, #8]
 8082816:	4905      	ldr	r1, [pc, #20]	; (808282c <HAL_RCC_GetPCLK2Freq+0x1c>)
 8082818:	f3c3 3342 	ubfx	r3, r3, #13, #3
 808281c:	6808      	ldr	r0, [r1, #0]
 808281e:	5cd3      	ldrb	r3, [r2, r3]
 8082820:	40d8      	lsrs	r0, r3
 8082822:	4770      	bx	lr
 8082824:	40023800 	.word	0x40023800
 8082828:	08088b28 	.word	0x08088b28
 808282c:	20000000 	.word	0x20000000

08082830 <HAL_RCC_GetOscConfig>:
 8082830:	220f      	movs	r2, #15
 8082832:	4b24      	ldr	r3, [pc, #144]	; (80828c4 <HAL_RCC_GetOscConfig+0x94>)
 8082834:	6002      	str	r2, [r0, #0]
 8082836:	681a      	ldr	r2, [r3, #0]
 8082838:	0351      	lsls	r1, r2, #13
 808283a:	d534      	bpl.n	80828a6 <HAL_RCC_GetOscConfig+0x76>
 808283c:	f44f 23a0 	mov.w	r3, #327680	; 0x50000
 8082840:	6043      	str	r3, [r0, #4]
 8082842:	4b20      	ldr	r3, [pc, #128]	; (80828c4 <HAL_RCC_GetOscConfig+0x94>)
 8082844:	681a      	ldr	r2, [r3, #0]
 8082846:	f002 0201 	and.w	r2, r2, #1
 808284a:	60c2      	str	r2, [r0, #12]
 808284c:	681a      	ldr	r2, [r3, #0]
 808284e:	f3c2 02c4 	ubfx	r2, r2, #3, #5
 8082852:	6102      	str	r2, [r0, #16]
 8082854:	6f1a      	ldr	r2, [r3, #112]	; 0x70
 8082856:	0752      	lsls	r2, r2, #29
 8082858:	d52d      	bpl.n	80828b6 <HAL_RCC_GetOscConfig+0x86>
 808285a:	2305      	movs	r3, #5
 808285c:	6083      	str	r3, [r0, #8]
 808285e:	4b19      	ldr	r3, [pc, #100]	; (80828c4 <HAL_RCC_GetOscConfig+0x94>)
 8082860:	6f5a      	ldr	r2, [r3, #116]	; 0x74
 8082862:	f002 0201 	and.w	r2, r2, #1
 8082866:	6142      	str	r2, [r0, #20]
 8082868:	681a      	ldr	r2, [r3, #0]
 808286a:	f012 7f80 	tst.w	r2, #16777216	; 0x1000000
 808286e:	bf14      	ite	ne
 8082870:	2202      	movne	r2, #2
 8082872:	2201      	moveq	r2, #1
 8082874:	6182      	str	r2, [r0, #24]
 8082876:	685a      	ldr	r2, [r3, #4]
 8082878:	f402 0280 	and.w	r2, r2, #4194304	; 0x400000
 808287c:	61c2      	str	r2, [r0, #28]
 808287e:	685a      	ldr	r2, [r3, #4]
 8082880:	f002 023f 	and.w	r2, r2, #63	; 0x3f
 8082884:	6202      	str	r2, [r0, #32]
 8082886:	685a      	ldr	r2, [r3, #4]
 8082888:	f3c2 1288 	ubfx	r2, r2, #6, #9
 808288c:	6242      	str	r2, [r0, #36]	; 0x24
 808288e:	685a      	ldr	r2, [r3, #4]
 8082890:	f402 3240 	and.w	r2, r2, #196608	; 0x30000
 8082894:	f502 3280 	add.w	r2, r2, #65536	; 0x10000
 8082898:	0bd2      	lsrs	r2, r2, #15
 808289a:	6282      	str	r2, [r0, #40]	; 0x28
 808289c:	685b      	ldr	r3, [r3, #4]
 808289e:	f3c3 6303 	ubfx	r3, r3, #24, #4
 80828a2:	62c3      	str	r3, [r0, #44]	; 0x2c
 80828a4:	4770      	bx	lr
 80828a6:	681b      	ldr	r3, [r3, #0]
 80828a8:	f413 3380 	ands.w	r3, r3, #65536	; 0x10000
 80828ac:	bf18      	it	ne
 80828ae:	f44f 3380 	movne.w	r3, #65536	; 0x10000
 80828b2:	6043      	str	r3, [r0, #4]
 80828b4:	e7c5      	b.n	8082842 <HAL_RCC_GetOscConfig+0x12>
 80828b6:	6f1b      	ldr	r3, [r3, #112]	; 0x70
 80828b8:	f013 0301 	ands.w	r3, r3, #1
 80828bc:	bf18      	it	ne
 80828be:	2301      	movne	r3, #1
 80828c0:	6083      	str	r3, [r0, #8]
 80828c2:	e7cc      	b.n	808285e <HAL_RCC_GetOscConfig+0x2e>
 80828c4:	40023800 	.word	0x40023800

080828c8 <HAL_RCC_GetClockConfig>:
 80828c8:	4b0e      	ldr	r3, [pc, #56]	; (8082904 <HAL_RCC_GetClockConfig+0x3c>)
 80828ca:	220f      	movs	r2, #15
 80828cc:	6002      	str	r2, [r0, #0]
 80828ce:	689a      	ldr	r2, [r3, #8]
 80828d0:	f002 0203 	and.w	r2, r2, #3
 80828d4:	6042      	str	r2, [r0, #4]
 80828d6:	689a      	ldr	r2, [r3, #8]
 80828d8:	f002 02f0 	and.w	r2, r2, #240	; 0xf0
 80828dc:	6082      	str	r2, [r0, #8]
 80828de:	689a      	ldr	r2, [r3, #8]
 80828e0:	f402 52e0 	and.w	r2, r2, #7168	; 0x1c00
 80828e4:	60c2      	str	r2, [r0, #12]
 80828e6:	689b      	ldr	r3, [r3, #8]
 80828e8:	08db      	lsrs	r3, r3, #3
 80828ea:	b410      	push	{r4}
 80828ec:	f403 53e0 	and.w	r3, r3, #7168	; 0x1c00
 80828f0:	4c05      	ldr	r4, [pc, #20]	; (8082908 <HAL_RCC_GetClockConfig+0x40>)
 80828f2:	6103      	str	r3, [r0, #16]
 80828f4:	6823      	ldr	r3, [r4, #0]
 80828f6:	f85d 4b04 	ldr.w	r4, [sp], #4
 80828fa:	f003 030f 	and.w	r3, r3, #15
 80828fe:	600b      	str	r3, [r1, #0]
 8082900:	4770      	bx	lr
 8082902:	bf00      	nop
 8082904:	40023800 	.word	0x40023800
 8082908:	40023c00 	.word	0x40023c00

0808290c <HAL_RCC_CSSCallback>:
 808290c:	4770      	bx	lr
 808290e:	bf00      	nop

08082910 <HAL_RCC_NMI_IRQHandler>:
 8082910:	b508      	push	{r3, lr}
 8082912:	4b05      	ldr	r3, [pc, #20]	; (8082928 <HAL_RCC_NMI_IRQHandler+0x18>)
 8082914:	68db      	ldr	r3, [r3, #12]
 8082916:	061b      	lsls	r3, r3, #24
 8082918:	d400      	bmi.n	808291c <HAL_RCC_NMI_IRQHandler+0xc>
 808291a:	bd08      	pop	{r3, pc}
 808291c:	f7ff fff6 	bl	808290c <HAL_RCC_CSSCallback>
 8082920:	4b02      	ldr	r3, [pc, #8]	; (808292c <HAL_RCC_NMI_IRQHandler+0x1c>)
 8082922:	2280      	movs	r2, #128	; 0x80
 8082924:	701a      	strb	r2, [r3, #0]
 8082926:	bd08      	pop	{r3, pc}
 8082928:	40023800 	.word	0x40023800
 808292c:	4002380e 	.word	0x4002380e
 8082930:	4770      	bx	lr
 8082932:	bf00      	nop

08082934 <HAL_TIM_Base_Init>:
 8082934:	2800      	cmp	r0, #0
 8082936:	d05c      	beq.n	80829f2 <HAL_TIM_Base_Init+0xbe>
 8082938:	b5f8      	push	{r3, r4, r5, r6, r7, lr}
 808293a:	f890 303d 	ldrb.w	r3, [r0, #61]	; 0x3d
 808293e:	4604      	mov	r4, r0
 8082940:	f003 02ff 	and.w	r2, r3, #255	; 0xff
 8082944:	b3bb      	cbz	r3, 80829b6 <HAL_TIM_Base_Init+0x82>
 8082946:	6822      	ldr	r2, [r4, #0]
 8082948:	4e3a      	ldr	r6, [pc, #232]	; (8082a34 <HAL_TIM_Base_Init+0x100>)
 808294a:	69a5      	ldr	r5, [r4, #24]
 808294c:	68e0      	ldr	r0, [r4, #12]
 808294e:	6861      	ldr	r1, [r4, #4]
 8082950:	2302      	movs	r3, #2
 8082952:	f884 303d 	strb.w	r3, [r4, #61]	; 0x3d
 8082956:	42b2      	cmp	r2, r6
 8082958:	6813      	ldr	r3, [r2, #0]
 808295a:	d04c      	beq.n	80829f6 <HAL_TIM_Base_Init+0xc2>
 808295c:	f1b2 4f80 	cmp.w	r2, #1073741824	; 0x40000000
 8082960:	d058      	beq.n	8082a14 <HAL_TIM_Base_Init+0xe0>
 8082962:	f5a6 467c 	sub.w	r6, r6, #64512	; 0xfc00
 8082966:	42b2      	cmp	r2, r6
 8082968:	d02a      	beq.n	80829c0 <HAL_TIM_Base_Init+0x8c>
 808296a:	f506 6680 	add.w	r6, r6, #1024	; 0x400
 808296e:	42b2      	cmp	r2, r6
 8082970:	d026      	beq.n	80829c0 <HAL_TIM_Base_Init+0x8c>
 8082972:	f506 6680 	add.w	r6, r6, #1024	; 0x400
 8082976:	42b2      	cmp	r2, r6
 8082978:	d022      	beq.n	80829c0 <HAL_TIM_Base_Init+0x8c>
 808297a:	f506 4678 	add.w	r6, r6, #63488	; 0xf800
 808297e:	42b2      	cmp	r2, r6
 8082980:	d01e      	beq.n	80829c0 <HAL_TIM_Base_Init+0x8c>
 8082982:	f506 5670 	add.w	r6, r6, #15360	; 0x3c00
 8082986:	42b2      	cmp	r2, r6
 8082988:	d013      	beq.n	80829b2 <HAL_TIM_Base_Init+0x7e>
 808298a:	f506 6680 	add.w	r6, r6, #1024	; 0x400
 808298e:	42b2      	cmp	r2, r6
 8082990:	d00f      	beq.n	80829b2 <HAL_TIM_Base_Init+0x7e>
 8082992:	f506 6680 	add.w	r6, r6, #1024	; 0x400
 8082996:	42b2      	cmp	r2, r6
 8082998:	d00b      	beq.n	80829b2 <HAL_TIM_Base_Init+0x7e>
 808299a:	f5a6 3698 	sub.w	r6, r6, #77824	; 0x13000
 808299e:	42b2      	cmp	r2, r6
 80829a0:	d007      	beq.n	80829b2 <HAL_TIM_Base_Init+0x7e>
 80829a2:	f506 6680 	add.w	r6, r6, #1024	; 0x400
 80829a6:	42b2      	cmp	r2, r6
 80829a8:	d003      	beq.n	80829b2 <HAL_TIM_Base_Init+0x7e>
 80829aa:	f506 6680 	add.w	r6, r6, #1024	; 0x400
 80829ae:	42b2      	cmp	r2, r6
 80829b0:	d138      	bne.n	8082a24 <HAL_TIM_Base_Init+0xf0>
 80829b2:	6926      	ldr	r6, [r4, #16]
 80829b4:	e033      	b.n	8082a1e <HAL_TIM_Base_Init+0xea>
 80829b6:	f880 203c 	strb.w	r2, [r0, #60]	; 0x3c
 80829ba:	f7fe fac3 	bl	8080f44 <HAL_TIM_Base_MspInit>
 80829be:	e7c2      	b.n	8082946 <HAL_TIM_Base_Init+0x12>
 80829c0:	68a6      	ldr	r6, [r4, #8]
 80829c2:	4f1d      	ldr	r7, [pc, #116]	; (8082a38 <HAL_TIM_Base_Init+0x104>)
 80829c4:	f023 0370 	bic.w	r3, r3, #112	; 0x70
 80829c8:	4333      	orrs	r3, r6
 80829ca:	6926      	ldr	r6, [r4, #16]
 80829cc:	f423 7340 	bic.w	r3, r3, #768	; 0x300
 80829d0:	4333      	orrs	r3, r6
 80829d2:	f023 0380 	bic.w	r3, r3, #128	; 0x80
 80829d6:	432b      	orrs	r3, r5
 80829d8:	42ba      	cmp	r2, r7
 80829da:	6013      	str	r3, [r2, #0]
 80829dc:	62d0      	str	r0, [r2, #44]	; 0x2c
 80829de:	6291      	str	r1, [r2, #40]	; 0x28
 80829e0:	d101      	bne.n	80829e6 <HAL_TIM_Base_Init+0xb2>
 80829e2:	6963      	ldr	r3, [r4, #20]
 80829e4:	6313      	str	r3, [r2, #48]	; 0x30
 80829e6:	2301      	movs	r3, #1
 80829e8:	6153      	str	r3, [r2, #20]
 80829ea:	2000      	movs	r0, #0
 80829ec:	f884 303d 	strb.w	r3, [r4, #61]	; 0x3d
 80829f0:	bdf8      	pop	{r3, r4, r5, r6, r7, pc}
 80829f2:	2001      	movs	r0, #1
 80829f4:	4770      	bx	lr
 80829f6:	68a7      	ldr	r7, [r4, #8]
 80829f8:	6926      	ldr	r6, [r4, #16]
 80829fa:	f023 0370 	bic.w	r3, r3, #112	; 0x70
 80829fe:	433b      	orrs	r3, r7
 8082a00:	f423 7340 	bic.w	r3, r3, #768	; 0x300
 8082a04:	4333      	orrs	r3, r6
 8082a06:	f023 0380 	bic.w	r3, r3, #128	; 0x80
 8082a0a:	432b      	orrs	r3, r5
 8082a0c:	6013      	str	r3, [r2, #0]
 8082a0e:	62d0      	str	r0, [r2, #44]	; 0x2c
 8082a10:	6291      	str	r1, [r2, #40]	; 0x28
 8082a12:	e7e6      	b.n	80829e2 <HAL_TIM_Base_Init+0xae>
 8082a14:	68a7      	ldr	r7, [r4, #8]
 8082a16:	6926      	ldr	r6, [r4, #16]
 8082a18:	f023 0370 	bic.w	r3, r3, #112	; 0x70
 8082a1c:	433b      	orrs	r3, r7
 8082a1e:	f423 7340 	bic.w	r3, r3, #768	; 0x300
 8082a22:	4333      	orrs	r3, r6
 8082a24:	f023 0380 	bic.w	r3, r3, #128	; 0x80
 8082a28:	432b      	orrs	r3, r5
 8082a2a:	6013      	str	r3, [r2, #0]
 8082a2c:	62d0      	str	r0, [r2, #44]	; 0x2c
 8082a2e:	6291      	str	r1, [r2, #40]	; 0x28
 8082a30:	e7d9      	b.n	80829e6 <HAL_TIM_Base_Init+0xb2>
 8082a32:	bf00      	nop
 8082a34:	40010000 	.word	0x40010000
 8082a38:	40010400 	.word	0x40010400
 8082a3c:	4770      	bx	lr
 8082a3e:	bf00      	nop

08082a40 <HAL_TIM_Base_DeInit>:
 8082a40:	2202      	movs	r2, #2
 8082a42:	6803      	ldr	r3, [r0, #0]
 8082a44:	b510      	push	{r4, lr}
 8082a46:	f880 203d 	strb.w	r2, [r0, #61]	; 0x3d
 8082a4a:	6a19      	ldr	r1, [r3, #32]
 8082a4c:	f241 1211 	movw	r2, #4369	; 0x1111
 8082a50:	4211      	tst	r1, r2
 8082a52:	4604      	mov	r4, r0
 8082a54:	d108      	bne.n	8082a68 <HAL_TIM_Base_DeInit+0x28>
 8082a56:	6a19      	ldr	r1, [r3, #32]
 8082a58:	f240 4244 	movw	r2, #1092	; 0x444
 8082a5c:	4211      	tst	r1, r2
 8082a5e:	d103      	bne.n	8082a68 <HAL_TIM_Base_DeInit+0x28>
 8082a60:	681a      	ldr	r2, [r3, #0]
 8082a62:	f022 0201 	bic.w	r2, r2, #1
 8082a66:	601a      	str	r2, [r3, #0]
 8082a68:	4620      	mov	r0, r4
 8082a6a:	f7fe fa8b 	bl	8080f84 <HAL_TIM_Base_MspDeInit>
 8082a6e:	2000      	movs	r0, #0
 8082a70:	f884 003d 	strb.w	r0, [r4, #61]	; 0x3d
 8082a74:	f884 003c 	strb.w	r0, [r4, #60]	; 0x3c
 8082a78:	bd10      	pop	{r4, pc}
 8082a7a:	bf00      	nop

08082a7c <HAL_TIM_Base_Start>:
 8082a7c:	2302      	movs	r3, #2
 8082a7e:	6802      	ldr	r2, [r0, #0]
 8082a80:	f880 303d 	strb.w	r3, [r0, #61]	; 0x3d
 8082a84:	6893      	ldr	r3, [r2, #8]
 8082a86:	f003 0307 	and.w	r3, r3, #7
 8082a8a:	2b06      	cmp	r3, #6
 8082a8c:	d003      	beq.n	8082a96 <HAL_TIM_Base_Start+0x1a>
 8082a8e:	6813      	ldr	r3, [r2, #0]
 8082a90:	f043 0301 	orr.w	r3, r3, #1
 8082a94:	6013      	str	r3, [r2, #0]
 8082a96:	2301      	movs	r3, #1
 8082a98:	f880 303d 	strb.w	r3, [r0, #61]	; 0x3d
 8082a9c:	2000      	movs	r0, #0
 8082a9e:	4770      	bx	lr

08082aa0 <HAL_TIM_Base_Stop>:
 8082aa0:	2202      	movs	r2, #2
 8082aa2:	6803      	ldr	r3, [r0, #0]
 8082aa4:	f880 203d 	strb.w	r2, [r0, #61]	; 0x3d
 8082aa8:	6a19      	ldr	r1, [r3, #32]
 8082aaa:	f241 1211 	movw	r2, #4369	; 0x1111
 8082aae:	4211      	tst	r1, r2
 8082ab0:	d108      	bne.n	8082ac4 <HAL_TIM_Base_Stop+0x24>
 8082ab2:	6a19      	ldr	r1, [r3, #32]
 8082ab4:	f240 4244 	movw	r2, #1092	; 0x444
 8082ab8:	4211      	tst	r1, r2
 8082aba:	d103      	bne.n	8082ac4 <HAL_TIM_Base_Stop+0x24>
 8082abc:	681a      	ldr	r2, [r3, #0]
 8082abe:	f022 0201 	bic.w	r2, r2, #1
 8082ac2:	601a      	str	r2, [r3, #0]
 8082ac4:	2301      	movs	r3, #1
 8082ac6:	f880 303d 	strb.w	r3, [r0, #61]	; 0x3d
 8082aca:	2000      	movs	r0, #0
 8082acc:	4770      	bx	lr
 8082ace:	bf00      	nop

08082ad0 <HAL_TIM_Base_Start_IT>:
 8082ad0:	6803      	ldr	r3, [r0, #0]
 8082ad2:	68da      	ldr	r2, [r3, #12]
 8082ad4:	f042 0201 	orr.w	r2, r2, #1
 8082ad8:	60da      	str	r2, [r3, #12]
 8082ada:	689a      	ldr	r2, [r3, #8]
 8082adc:	f002 0207 	and.w	r2, r2, #7
 8082ae0:	2a06      	cmp	r2, #6
 8082ae2:	d003      	beq.n	8082aec <HAL_TIM_Base_Start_IT+0x1c>
 8082ae4:	681a      	ldr	r2, [r3, #0]
 8082ae6:	f042 0201 	orr.w	r2, r2, #1
 8082aea:	601a      	str	r2, [r3, #0]
 8082aec:	2000      	movs	r0, #0
 8082aee:	4770      	bx	lr

08082af0 <HAL_TIM_Base_Stop_IT>:
 8082af0:	6803      	ldr	r3, [r0, #0]
 8082af2:	68da      	ldr	r2, [r3, #12]
 8082af4:	f022 0201 	bic.w	r2, r2, #1
 8082af8:	60da      	str	r2, [r3, #12]
 8082afa:	6a19      	ldr	r1, [r3, #32]
 8082afc:	f241 1211 	movw	r2, #4369	; 0x1111
 8082b00:	4211      	tst	r1, r2
 8082b02:	d108      	bne.n	8082b16 <HAL_TIM_Base_Stop_IT+0x26>
 8082b04:	6a19      	ldr	r1, [r3, #32]
 8082b06:	f240 4244 	movw	r2, #1092	; 0x444
 8082b0a:	4211      	tst	r1, r2
 8082b0c:	d103      	bne.n	8082b16 <HAL_TIM_Base_Stop_IT+0x26>
 8082b0e:	681a      	ldr	r2, [r3, #0]
 8082b10:	f022 0201 	bic.w	r2, r2, #1
 8082b14:	601a      	str	r2, [r3, #0]
 8082b16:	2000      	movs	r0, #0
 8082b18:	4770      	bx	lr
 8082b1a:	bf00      	nop

08082b1c <HAL_TIM_Base_Start_DMA>:
 8082b1c:	b538      	push	{r3, r4, r5, lr}
 8082b1e:	f890 403d 	ldrb.w	r4, [r0, #61]	; 0x3d
 8082b22:	b2e4      	uxtb	r4, r4
 8082b24:	2c02      	cmp	r4, #2
 8082b26:	d028      	beq.n	8082b7a <HAL_TIM_Base_Start_DMA+0x5e>
 8082b28:	f890 303d 	ldrb.w	r3, [r0, #61]	; 0x3d
 8082b2c:	2b01      	cmp	r3, #1
 8082b2e:	d103      	bne.n	8082b38 <HAL_TIM_Base_Start_DMA+0x1c>
 8082b30:	b1f9      	cbz	r1, 8082b72 <HAL_TIM_Base_Start_DMA+0x56>
 8082b32:	2302      	movs	r3, #2
 8082b34:	f880 303d 	strb.w	r3, [r0, #61]	; 0x3d
 8082b38:	4604      	mov	r4, r0
 8082b3a:	6a00      	ldr	r0, [r0, #32]
 8082b3c:	4d10      	ldr	r5, [pc, #64]	; (8082b80 <HAL_TIM_Base_Start_DMA+0x64>)
 8082b3e:	4613      	mov	r3, r2
 8082b40:	6822      	ldr	r2, [r4, #0]
 8082b42:	63c5      	str	r5, [r0, #60]	; 0x3c
 8082b44:	4d0f      	ldr	r5, [pc, #60]	; (8082b84 <HAL_TIM_Base_Start_DMA+0x68>)
 8082b46:	6405      	str	r5, [r0, #64]	; 0x40
 8082b48:	4d0f      	ldr	r5, [pc, #60]	; (8082b88 <HAL_TIM_Base_Start_DMA+0x6c>)
 8082b4a:	64c5      	str	r5, [r0, #76]	; 0x4c
 8082b4c:	322c      	adds	r2, #44	; 0x2c
 8082b4e:	f7fe fe53 	bl	80817f8 <HAL_DMA_Start_IT>
 8082b52:	b980      	cbnz	r0, 8082b76 <HAL_TIM_Base_Start_DMA+0x5a>
 8082b54:	6823      	ldr	r3, [r4, #0]
 8082b56:	68da      	ldr	r2, [r3, #12]
 8082b58:	f442 7280 	orr.w	r2, r2, #256	; 0x100
 8082b5c:	60da      	str	r2, [r3, #12]
 8082b5e:	689a      	ldr	r2, [r3, #8]
 8082b60:	f002 0207 	and.w	r2, r2, #7
 8082b64:	2a06      	cmp	r2, #6
 8082b66:	d003      	beq.n	8082b70 <HAL_TIM_Base_Start_DMA+0x54>
 8082b68:	681a      	ldr	r2, [r3, #0]
 8082b6a:	f042 0201 	orr.w	r2, r2, #1
 8082b6e:	601a      	str	r2, [r3, #0]
 8082b70:	bd38      	pop	{r3, r4, r5, pc}
 8082b72:	2a00      	cmp	r2, #0
 8082b74:	d0dd      	beq.n	8082b32 <HAL_TIM_Base_Start_DMA+0x16>
 8082b76:	2001      	movs	r0, #1
 8082b78:	bd38      	pop	{r3, r4, r5, pc}
 8082b7a:	4620      	mov	r0, r4
 8082b7c:	bd38      	pop	{r3, r4, r5, pc}
 8082b7e:	bf00      	nop
 8082b80:	08085251 	.word	0x08085251
 8082b84:	08085265 	.word	0x08085265
 8082b88:	08085589 	.word	0x08085589

08082b8c <HAL_TIM_Base_Stop_DMA>:
 8082b8c:	6802      	ldr	r2, [r0, #0]
 8082b8e:	68d3      	ldr	r3, [r2, #12]
 8082b90:	b510      	push	{r4, lr}
 8082b92:	f423 7380 	bic.w	r3, r3, #256	; 0x100
 8082b96:	4604      	mov	r4, r0
 8082b98:	6a00      	ldr	r0, [r0, #32]
 8082b9a:	60d3      	str	r3, [r2, #12]
 8082b9c:	f7fe feb6 	bl	808190c <HAL_DMA_Abort_IT>
 8082ba0:	6823      	ldr	r3, [r4, #0]
 8082ba2:	6a19      	ldr	r1, [r3, #32]
 8082ba4:	f241 1211 	movw	r2, #4369	; 0x1111
 8082ba8:	4211      	tst	r1, r2
 8082baa:	d108      	bne.n	8082bbe <HAL_TIM_Base_Stop_DMA+0x32>
 8082bac:	6a19      	ldr	r1, [r3, #32]
 8082bae:	f240 4244 	movw	r2, #1092	; 0x444
 8082bb2:	4211      	tst	r1, r2
 8082bb4:	d103      	bne.n	8082bbe <HAL_TIM_Base_Stop_DMA+0x32>
 8082bb6:	681a      	ldr	r2, [r3, #0]
 8082bb8:	f022 0201 	bic.w	r2, r2, #1
 8082bbc:	601a      	str	r2, [r3, #0]
 8082bbe:	2301      	movs	r3, #1
 8082bc0:	f884 303d 	strb.w	r3, [r4, #61]	; 0x3d
 8082bc4:	2000      	movs	r0, #0
 8082bc6:	bd10      	pop	{r4, pc}

08082bc8 <HAL_TIM_OC_MspInit>:
 8082bc8:	4770      	bx	lr
 8082bca:	bf00      	nop

08082bcc <HAL_TIM_OC_Init>:
 8082bcc:	2800      	cmp	r0, #0
 8082bce:	d05c      	beq.n	8082c8a <HAL_TIM_OC_Init+0xbe>
 8082bd0:	b5f8      	push	{r3, r4, r5, r6, r7, lr}
 8082bd2:	f890 303d 	ldrb.w	r3, [r0, #61]	; 0x3d
 8082bd6:	4604      	mov	r4, r0
 8082bd8:	f003 02ff 	and.w	r2, r3, #255	; 0xff
 8082bdc:	b3bb      	cbz	r3, 8082c4e <HAL_TIM_OC_Init+0x82>
 8082bde:	6822      	ldr	r2, [r4, #0]
 8082be0:	4e3a      	ldr	r6, [pc, #232]	; (8082ccc <HAL_TIM_OC_Init+0x100>)
 8082be2:	69a5      	ldr	r5, [r4, #24]
 8082be4:	68e0      	ldr	r0, [r4, #12]
 8082be6:	6861      	ldr	r1, [r4, #4]
 8082be8:	2302      	movs	r3, #2
 8082bea:	f884 303d 	strb.w	r3, [r4, #61]	; 0x3d
 8082bee:	42b2      	cmp	r2, r6
 8082bf0:	6813      	ldr	r3, [r2, #0]
 8082bf2:	d04c      	beq.n	8082c8e <HAL_TIM_OC_Init+0xc2>
 8082bf4:	f1b2 4f80 	cmp.w	r2, #1073741824	; 0x40000000
 8082bf8:	d058      	beq.n	8082cac <HAL_TIM_OC_Init+0xe0>
 8082bfa:	f5a6 467c 	sub.w	r6, r6, #64512	; 0xfc00
 8082bfe:	42b2      	cmp	r2, r6
 8082c00:	d02a      	beq.n	8082c58 <HAL_TIM_OC_Init+0x8c>
 8082c02:	f506 6680 	add.w	r6, r6, #1024	; 0x400
 8082c06:	42b2      	cmp	r2, r6
 8082c08:	d026      	beq.n	8082c58 <HAL_TIM_OC_Init+0x8c>
 8082c0a:	f506 6680 	add.w	r6, r6, #1024	; 0x400
 8082c0e:	42b2      	cmp	r2, r6
 8082c10:	d022      	beq.n	8082c58 <HAL_TIM_OC_Init+0x8c>
 8082c12:	f506 4678 	add.w	r6, r6, #63488	; 0xf800
 8082c16:	42b2      	cmp	r2, r6
 8082c18:	d01e      	beq.n	8082c58 <HAL_TIM_OC_Init+0x8c>
 8082c1a:	f506 5670 	add.w	r6, r6, #15360	; 0x3c00
 8082c1e:	42b2      	cmp	r2, r6
 8082c20:	d013      	beq.n	8082c4a <HAL_TIM_OC_Init+0x7e>
 8082c22:	f506 6680 	add.w	r6, r6, #1024	; 0x400
 8082c26:	42b2      	cmp	r2, r6
 8082c28:	d00f      	beq.n	8082c4a <HAL_TIM_OC_Init+0x7e>
 8082c2a:	f506 6680 	add.w	r6, r6, #1024	; 0x400
 8082c2e:	42b2      	cmp	r2, r6
 8082c30:	d00b      	beq.n	8082c4a <HAL_TIM_OC_Init+0x7e>
 8082c32:	f5a6 3698 	sub.w	r6, r6, #77824	; 0x13000
 8082c36:	42b2      	cmp	r2, r6
 8082c38:	d007      	beq.n	8082c4a <HAL_TIM_OC_Init+0x7e>
 8082c3a:	f506 6680 	add.w	r6, r6, #1024	; 0x400
 8082c3e:	42b2      	cmp	r2, r6
 8082c40:	d003      	beq.n	8082c4a <HAL_TIM_OC_Init+0x7e>
 8082c42:	f506 6680 	add.w	r6, r6, #1024	; 0x400
 8082c46:	42b2      	cmp	r2, r6
 8082c48:	d138      	bne.n	8082cbc <HAL_TIM_OC_Init+0xf0>
 8082c4a:	6926      	ldr	r6, [r4, #16]
 8082c4c:	e033      	b.n	8082cb6 <HAL_TIM_OC_Init+0xea>
 8082c4e:	f880 203c 	strb.w	r2, [r0, #60]	; 0x3c
 8082c52:	f7ff ffb9 	bl	8082bc8 <HAL_TIM_OC_MspInit>
 8082c56:	e7c2      	b.n	8082bde <HAL_TIM_OC_Init+0x12>
 8082c58:	68a6      	ldr	r6, [r4, #8]
 8082c5a:	4f1d      	ldr	r7, [pc, #116]	; (8082cd0 <HAL_TIM_OC_Init+0x104>)
 8082c5c:	f023 0370 	bic.w	r3, r3, #112	; 0x70
 8082c60:	4333      	orrs	r3, r6
 8082c62:	6926      	ldr	r6, [r4, #16]
 8082c64:	f423 7340 	bic.w	r3, r3, #768	; 0x300
 8082c68:	4333      	orrs	r3, r6
 8082c6a:	f023 0380 	bic.w	r3, r3, #128	; 0x80
 8082c6e:	432b      	orrs	r3, r5
 8082c70:	42ba      	cmp	r2, r7
 8082c72:	6013      	str	r3, [r2, #0]
 8082c74:	62d0      	str	r0, [r2, #44]	; 0x2c
 8082c76:	6291      	str	r1, [r2, #40]	; 0x28
 8082c78:	d101      	bne.n	8082c7e <HAL_TIM_OC_Init+0xb2>
 8082c7a:	6963      	ldr	r3, [r4, #20]
 8082c7c:	6313      	str	r3, [r2, #48]	; 0x30
 8082c7e:	2301      	movs	r3, #1
 8082c80:	6153      	str	r3, [r2, #20]
 8082c82:	2000      	movs	r0, #0
 8082c84:	f884 303d 	strb.w	r3, [r4, #61]	; 0x3d
 8082c88:	bdf8      	pop	{r3, r4, r5, r6, r7, pc}
 8082c8a:	2001      	movs	r0, #1
 8082c8c:	4770      	bx	lr
 8082c8e:	68a7      	ldr	r7, [r4, #8]
 8082c90:	6926      	ldr	r6, [r4, #16]
 8082c92:	f023 0370 	bic.w	r3, r3, #112	; 0x70
 8082c96:	433b      	orrs	r3, r7
 8082c98:	f423 7340 	bic.w	r3, r3, #768	; 0x300
 8082c9c:	4333      	orrs	r3, r6
 8082c9e:	f023 0380 	bic.w	r3, r3, #128	; 0x80
 8082ca2:	432b      	orrs	r3, r5
 8082ca4:	6013      	str	r3, [r2, #0]
 8082ca6:	62d0      	str	r0, [r2, #44]	; 0x2c
 8082ca8:	6291      	str	r1, [r2, #40]	; 0x28
 8082caa:	e7e6      	b.n	8082c7a <HAL_TIM_OC_Init+0xae>
 8082cac:	68a7      	ldr	r7, [r4, #8]
 8082cae:	6926      	ldr	r6, [r4, #16]
 8082cb0:	f023 0370 	bic.w	r3, r3, #112	; 0x70
 8082cb4:	433b      	orrs	r3, r7
 8082cb6:	f423 7340 	bic.w	r3, r3, #768	; 0x300
 8082cba:	4333      	orrs	r3, r6
 8082cbc:	f023 0380 	bic.w	r3, r3, #128	; 0x80
 8082cc0:	432b      	orrs	r3, r5
 8082cc2:	6013      	str	r3, [r2, #0]
 8082cc4:	62d0      	str	r0, [r2, #44]	; 0x2c
 8082cc6:	6291      	str	r1, [r2, #40]	; 0x28
 8082cc8:	e7d9      	b.n	8082c7e <HAL_TIM_OC_Init+0xb2>
 8082cca:	bf00      	nop
 8082ccc:	40010000 	.word	0x40010000
 8082cd0:	40010400 	.word	0x40010400

08082cd4 <HAL_TIM_OC_MspDeInit>:
 8082cd4:	4770      	bx	lr
 8082cd6:	bf00      	nop

08082cd8 <HAL_TIM_OC_DeInit>:
 8082cd8:	2202      	movs	r2, #2
 8082cda:	6803      	ldr	r3, [r0, #0]
 8082cdc:	b510      	push	{r4, lr}
 8082cde:	f880 203d 	strb.w	r2, [r0, #61]	; 0x3d
 8082ce2:	6a19      	ldr	r1, [r3, #32]
 8082ce4:	f241 1211 	movw	r2, #4369	; 0x1111
 8082ce8:	4211      	tst	r1, r2
 8082cea:	4604      	mov	r4, r0
 8082cec:	d108      	bne.n	8082d00 <HAL_TIM_OC_DeInit+0x28>
 8082cee:	6a19      	ldr	r1, [r3, #32]
 8082cf0:	f240 4244 	movw	r2, #1092	; 0x444
 8082cf4:	4211      	tst	r1, r2
 8082cf6:	d103      	bne.n	8082d00 <HAL_TIM_OC_DeInit+0x28>
 8082cf8:	681a      	ldr	r2, [r3, #0]
 8082cfa:	f022 0201 	bic.w	r2, r2, #1
 8082cfe:	601a      	str	r2, [r3, #0]
 8082d00:	4620      	mov	r0, r4
 8082d02:	f7ff ffe7 	bl	8082cd4 <HAL_TIM_OC_MspDeInit>
 8082d06:	2000      	movs	r0, #0
 8082d08:	f884 003d 	strb.w	r0, [r4, #61]	; 0x3d
 8082d0c:	f884 003c 	strb.w	r0, [r4, #60]	; 0x3c
 8082d10:	bd10      	pop	{r4, pc}
 8082d12:	bf00      	nop

08082d14 <HAL_TIM_OC_Start>:
 8082d14:	6803      	ldr	r3, [r0, #0]
 8082d16:	2201      	movs	r2, #1
 8082d18:	6a18      	ldr	r0, [r3, #32]
 8082d1a:	f001 011f 	and.w	r1, r1, #31
 8082d1e:	fa02 f101 	lsl.w	r1, r2, r1
 8082d22:	ea20 0001 	bic.w	r0, r0, r1
 8082d26:	b410      	push	{r4}
 8082d28:	6218      	str	r0, [r3, #32]
 8082d2a:	6a1a      	ldr	r2, [r3, #32]
 8082d2c:	4c0c      	ldr	r4, [pc, #48]	; (8082d60 <HAL_TIM_OC_Start+0x4c>)
 8082d2e:	4311      	orrs	r1, r2
 8082d30:	42a3      	cmp	r3, r4
 8082d32:	6219      	str	r1, [r3, #32]
 8082d34:	d00f      	beq.n	8082d56 <HAL_TIM_OC_Start+0x42>
 8082d36:	4a0b      	ldr	r2, [pc, #44]	; (8082d64 <HAL_TIM_OC_Start+0x50>)
 8082d38:	4293      	cmp	r3, r2
 8082d3a:	d00c      	beq.n	8082d56 <HAL_TIM_OC_Start+0x42>
 8082d3c:	689a      	ldr	r2, [r3, #8]
 8082d3e:	f002 0207 	and.w	r2, r2, #7
 8082d42:	2a06      	cmp	r2, #6
 8082d44:	d003      	beq.n	8082d4e <HAL_TIM_OC_Start+0x3a>
 8082d46:	681a      	ldr	r2, [r3, #0]
 8082d48:	f042 0201 	orr.w	r2, r2, #1
 8082d4c:	601a      	str	r2, [r3, #0]
 8082d4e:	2000      	movs	r0, #0
 8082d50:	f85d 4b04 	ldr.w	r4, [sp], #4
 8082d54:	4770      	bx	lr
 8082d56:	6c5a      	ldr	r2, [r3, #68]	; 0x44
 8082d58:	f442 4200 	orr.w	r2, r2, #32768	; 0x8000
 8082d5c:	645a      	str	r2, [r3, #68]	; 0x44
 8082d5e:	e7ed      	b.n	8082d3c <HAL_TIM_OC_Start+0x28>
 8082d60:	40010000 	.word	0x40010000
 8082d64:	40010400 	.word	0x40010400

08082d68 <HAL_TIM_OC_Stop>:
 8082d68:	6803      	ldr	r3, [r0, #0]
 8082d6a:	4819      	ldr	r0, [pc, #100]	; (8082dd0 <HAL_TIM_OC_Stop+0x68>)
 8082d6c:	6a1a      	ldr	r2, [r3, #32]
 8082d6e:	b410      	push	{r4}
 8082d70:	f001 041f 	and.w	r4, r1, #31
 8082d74:	2101      	movs	r1, #1
 8082d76:	40a1      	lsls	r1, r4
 8082d78:	ea22 0201 	bic.w	r2, r2, r1
 8082d7c:	621a      	str	r2, [r3, #32]
 8082d7e:	6a1a      	ldr	r2, [r3, #32]
 8082d80:	621a      	str	r2, [r3, #32]
 8082d82:	4283      	cmp	r3, r0
 8082d84:	d014      	beq.n	8082db0 <HAL_TIM_OC_Stop+0x48>
 8082d86:	4a13      	ldr	r2, [pc, #76]	; (8082dd4 <HAL_TIM_OC_Stop+0x6c>)
 8082d88:	4293      	cmp	r3, r2
 8082d8a:	d011      	beq.n	8082db0 <HAL_TIM_OC_Stop+0x48>
 8082d8c:	6a19      	ldr	r1, [r3, #32]
 8082d8e:	f241 1211 	movw	r2, #4369	; 0x1111
 8082d92:	4211      	tst	r1, r2
 8082d94:	d108      	bne.n	8082da8 <HAL_TIM_OC_Stop+0x40>
 8082d96:	6a19      	ldr	r1, [r3, #32]
 8082d98:	f240 4244 	movw	r2, #1092	; 0x444
 8082d9c:	4211      	tst	r1, r2
 8082d9e:	d103      	bne.n	8082da8 <HAL_TIM_OC_Stop+0x40>
 8082da0:	681a      	ldr	r2, [r3, #0]
 8082da2:	f022 0201 	bic.w	r2, r2, #1
 8082da6:	601a      	str	r2, [r3, #0]
 8082da8:	2000      	movs	r0, #0
 8082daa:	f85d 4b04 	ldr.w	r4, [sp], #4
 8082dae:	4770      	bx	lr
 8082db0:	6a19      	ldr	r1, [r3, #32]
 8082db2:	f241 1211 	movw	r2, #4369	; 0x1111
 8082db6:	4211      	tst	r1, r2
 8082db8:	d1e8      	bne.n	8082d8c <HAL_TIM_OC_Stop+0x24>
 8082dba:	6a19      	ldr	r1, [r3, #32]
 8082dbc:	f240 4244 	movw	r2, #1092	; 0x444
 8082dc0:	4211      	tst	r1, r2
 8082dc2:	d1e3      	bne.n	8082d8c <HAL_TIM_OC_Stop+0x24>
 8082dc4:	6c5a      	ldr	r2, [r3, #68]	; 0x44
 8082dc6:	f422 4200 	bic.w	r2, r2, #32768	; 0x8000
 8082dca:	645a      	str	r2, [r3, #68]	; 0x44
 8082dcc:	e7de      	b.n	8082d8c <HAL_TIM_OC_Stop+0x24>
 8082dce:	bf00      	nop
 8082dd0:	40010000 	.word	0x40010000
 8082dd4:	40010400 	.word	0x40010400

08082dd8 <HAL_TIM_OC_Start_IT>:
 8082dd8:	b410      	push	{r4}
 8082dda:	6803      	ldr	r3, [r0, #0]
 8082ddc:	290c      	cmp	r1, #12
 8082dde:	d80c      	bhi.n	8082dfa <HAL_TIM_OC_Start_IT+0x22>
 8082de0:	e8df f001 	tbb	[pc, r1]
 8082de4:	0b0b0b07 	.word	0x0b0b0b07
 8082de8:	0b0b0b39 	.word	0x0b0b0b39
 8082dec:	0b0b0b34 	.word	0x0b0b0b34
 8082df0:	2f          	.byte	0x2f
 8082df1:	00          	.byte	0x00
 8082df2:	68da      	ldr	r2, [r3, #12]
 8082df4:	f042 0202 	orr.w	r2, r2, #2
 8082df8:	60da      	str	r2, [r3, #12]
 8082dfa:	6a18      	ldr	r0, [r3, #32]
 8082dfc:	4c18      	ldr	r4, [pc, #96]	; (8082e60 <HAL_TIM_OC_Start_IT+0x88>)
 8082dfe:	f001 021f 	and.w	r2, r1, #31
 8082e02:	2101      	movs	r1, #1
 8082e04:	4091      	lsls	r1, r2
 8082e06:	ea20 0001 	bic.w	r0, r0, r1
 8082e0a:	6218      	str	r0, [r3, #32]
 8082e0c:	6a1a      	ldr	r2, [r3, #32]
 8082e0e:	42a3      	cmp	r3, r4
 8082e10:	ea41 0102 	orr.w	r1, r1, r2
 8082e14:	6219      	str	r1, [r3, #32]
 8082e16:	d00f      	beq.n	8082e38 <HAL_TIM_OC_Start_IT+0x60>
 8082e18:	4a12      	ldr	r2, [pc, #72]	; (8082e64 <HAL_TIM_OC_Start_IT+0x8c>)
 8082e1a:	4293      	cmp	r3, r2
 8082e1c:	d00c      	beq.n	8082e38 <HAL_TIM_OC_Start_IT+0x60>
 8082e1e:	689a      	ldr	r2, [r3, #8]
 8082e20:	f002 0207 	and.w	r2, r2, #7
 8082e24:	2a06      	cmp	r2, #6
 8082e26:	d003      	beq.n	8082e30 <HAL_TIM_OC_Start_IT+0x58>
 8082e28:	681a      	ldr	r2, [r3, #0]
 8082e2a:	f042 0201 	orr.w	r2, r2, #1
 8082e2e:	601a      	str	r2, [r3, #0]
 8082e30:	2000      	movs	r0, #0
 8082e32:	f85d 4b04 	ldr.w	r4, [sp], #4
 8082e36:	4770      	bx	lr
 8082e38:	6c5a      	ldr	r2, [r3, #68]	; 0x44
 8082e3a:	f442 4200 	orr.w	r2, r2, #32768	; 0x8000
 8082e3e:	645a      	str	r2, [r3, #68]	; 0x44
 8082e40:	e7ed      	b.n	8082e1e <HAL_TIM_OC_Start_IT+0x46>
 8082e42:	68da      	ldr	r2, [r3, #12]
 8082e44:	f042 0210 	orr.w	r2, r2, #16
 8082e48:	60da      	str	r2, [r3, #12]
 8082e4a:	e7d6      	b.n	8082dfa <HAL_TIM_OC_Start_IT+0x22>
 8082e4c:	68da      	ldr	r2, [r3, #12]
 8082e4e:	f042 0208 	orr.w	r2, r2, #8
 8082e52:	60da      	str	r2, [r3, #12]
 8082e54:	e7d1      	b.n	8082dfa <HAL_TIM_OC_Start_IT+0x22>
 8082e56:	68da      	ldr	r2, [r3, #12]
 8082e58:	f042 0204 	orr.w	r2, r2, #4
 8082e5c:	60da      	str	r2, [r3, #12]
 8082e5e:	e7cc      	b.n	8082dfa <HAL_TIM_OC_Start_IT+0x22>
 8082e60:	40010000 	.word	0x40010000
 8082e64:	40010400 	.word	0x40010400

08082e68 <HAL_TIM_OC_Stop_IT>:
 8082e68:	b410      	push	{r4}
 8082e6a:	6803      	ldr	r3, [r0, #0]
 8082e6c:	290c      	cmp	r1, #12
 8082e6e:	d80c      	bhi.n	8082e8a <HAL_TIM_OC_Stop_IT+0x22>
 8082e70:	e8df f001 	tbb	[pc, r1]
 8082e74:	0b0b0b07 	.word	0x0b0b0b07
 8082e78:	0b0b0b47 	.word	0x0b0b0b47
 8082e7c:	0b0b0b42 	.word	0x0b0b0b42
 8082e80:	3d          	.byte	0x3d
 8082e81:	00          	.byte	0x00
 8082e82:	68da      	ldr	r2, [r3, #12]
 8082e84:	f022 0202 	bic.w	r2, r2, #2
 8082e88:	60da      	str	r2, [r3, #12]
 8082e8a:	6a1a      	ldr	r2, [r3, #32]
 8082e8c:	4c1f      	ldr	r4, [pc, #124]	; (8082f0c <HAL_TIM_OC_Stop_IT+0xa4>)
 8082e8e:	f001 011f 	and.w	r1, r1, #31
 8082e92:	2001      	movs	r0, #1
 8082e94:	fa00 f101 	lsl.w	r1, r0, r1
 8082e98:	ea22 0101 	bic.w	r1, r2, r1
 8082e9c:	6219      	str	r1, [r3, #32]
 8082e9e:	6a1a      	ldr	r2, [r3, #32]
 8082ea0:	621a      	str	r2, [r3, #32]
 8082ea2:	42a3      	cmp	r3, r4
 8082ea4:	d014      	beq.n	8082ed0 <HAL_TIM_OC_Stop_IT+0x68>
 8082ea6:	4a1a      	ldr	r2, [pc, #104]	; (8082f10 <HAL_TIM_OC_Stop_IT+0xa8>)
 8082ea8:	4293      	cmp	r3, r2
 8082eaa:	d011      	beq.n	8082ed0 <HAL_TIM_OC_Stop_IT+0x68>
 8082eac:	6a19      	ldr	r1, [r3, #32]
 8082eae:	f241 1211 	movw	r2, #4369	; 0x1111
 8082eb2:	4211      	tst	r1, r2
 8082eb4:	d108      	bne.n	8082ec8 <HAL_TIM_OC_Stop_IT+0x60>
 8082eb6:	6a19      	ldr	r1, [r3, #32]
 8082eb8:	f240 4244 	movw	r2, #1092	; 0x444
 8082ebc:	4211      	tst	r1, r2
 8082ebe:	d103      	bne.n	8082ec8 <HAL_TIM_OC_Stop_IT+0x60>
 8082ec0:	681a      	ldr	r2, [r3, #0]
 8082ec2:	f022 0201 	bic.w	r2, r2, #1
 8082ec6:	601a      	str	r2, [r3, #0]
 8082ec8:	2000      	movs	r0, #0
 8082eca:	f85d 4b04 	ldr.w	r4, [sp], #4
 8082ece:	4770      	bx	lr
 8082ed0:	6a19      	ldr	r1, [r3, #32]
 8082ed2:	f241 1211 	movw	r2, #4369	; 0x1111
 8082ed6:	4211      	tst	r1, r2
 8082ed8:	d1e8      	bne.n	8082eac <HAL_TIM_OC_Stop_IT+0x44>
 8082eda:	6a19      	ldr	r1, [r3, #32]
 8082edc:	f240 4244 	movw	r2, #1092	; 0x444
 8082ee0:	4211      	tst	r1, r2
 8082ee2:	d1e3      	bne.n	8082eac <HAL_TIM_OC_Stop_IT+0x44>
 8082ee4:	6c5a      	ldr	r2, [r3, #68]	; 0x44
 8082ee6:	f422 4200 	bic.w	r2, r2, #32768	; 0x8000
 8082eea:	645a      	str	r2, [r3, #68]	; 0x44
 8082eec:	e7de      	b.n	8082eac <HAL_TIM_OC_Stop_IT+0x44>
 8082eee:	68da      	ldr	r2, [r3, #12]
 8082ef0:	f022 0210 	bic.w	r2, r2, #16
 8082ef4:	60da      	str	r2, [r3, #12]
 8082ef6:	e7c8      	b.n	8082e8a <HAL_TIM_OC_Stop_IT+0x22>
 8082ef8:	68da      	ldr	r2, [r3, #12]
 8082efa:	f022 0208 	bic.w	r2, r2, #8
 8082efe:	60da      	str	r2, [r3, #12]
 8082f00:	e7c3      	b.n	8082e8a <HAL_TIM_OC_Stop_IT+0x22>
 8082f02:	68da      	ldr	r2, [r3, #12]
 8082f04:	f022 0204 	bic.w	r2, r2, #4
 8082f08:	60da      	str	r2, [r3, #12]
 8082f0a:	e7be      	b.n	8082e8a <HAL_TIM_OC_Stop_IT+0x22>
 8082f0c:	40010000 	.word	0x40010000
 8082f10:	40010400 	.word	0x40010400

08082f14 <HAL_TIM_OC_Start_DMA>:
 8082f14:	b5f8      	push	{r3, r4, r5, r6, r7, lr}
 8082f16:	f890 403d 	ldrb.w	r4, [r0, #61]	; 0x3d
 8082f1a:	b2e4      	uxtb	r4, r4
 8082f1c:	2c02      	cmp	r4, #2
 8082f1e:	f000 809b 	beq.w	8083058 <HAL_TIM_OC_Start_DMA+0x144>
 8082f22:	f890 403d 	ldrb.w	r4, [r0, #61]	; 0x3d
 8082f26:	2c01      	cmp	r4, #1
 8082f28:	d041      	beq.n	8082fae <HAL_TIM_OC_Start_DMA+0x9a>
 8082f2a:	4617      	mov	r7, r2
 8082f2c:	460e      	mov	r6, r1
 8082f2e:	4605      	mov	r5, r0
 8082f30:	6804      	ldr	r4, [r0, #0]
 8082f32:	290c      	cmp	r1, #12
 8082f34:	d81d      	bhi.n	8082f72 <HAL_TIM_OC_Start_DMA+0x5e>
 8082f36:	e8df f001 	tbb	[pc, r1]
 8082f3a:	1c07      	.short	0x1c07
 8082f3c:	1c611c1c 	.word	0x1c611c1c
 8082f40:	1c761c1c 	.word	0x1c761c1c
 8082f44:	1c1c      	.short	0x1c1c
 8082f46:	4b          	.byte	0x4b
 8082f47:	00          	.byte	0x00
 8082f48:	6a40      	ldr	r0, [r0, #36]	; 0x24
 8082f4a:	4944      	ldr	r1, [pc, #272]	; (808305c <HAL_TIM_OC_Start_DMA+0x148>)
 8082f4c:	4a44      	ldr	r2, [pc, #272]	; (8083060 <HAL_TIM_OC_Start_DMA+0x14c>)
 8082f4e:	f8df c11c 	ldr.w	ip, [pc, #284]	; 808306c <HAL_TIM_OC_Start_DMA+0x158>
 8082f52:	63c1      	str	r1, [r0, #60]	; 0x3c
 8082f54:	6402      	str	r2, [r0, #64]	; 0x40
 8082f56:	4639      	mov	r1, r7
 8082f58:	f104 0234 	add.w	r2, r4, #52	; 0x34
 8082f5c:	f8c0 c04c 	str.w	ip, [r0, #76]	; 0x4c
 8082f60:	f7fe fc4a 	bl	80817f8 <HAL_DMA_Start_IT>
 8082f64:	2800      	cmp	r0, #0
 8082f66:	d175      	bne.n	8083054 <HAL_TIM_OC_Start_DMA+0x140>
 8082f68:	682c      	ldr	r4, [r5, #0]
 8082f6a:	68e3      	ldr	r3, [r4, #12]
 8082f6c:	f443 7300 	orr.w	r3, r3, #512	; 0x200
 8082f70:	60e3      	str	r3, [r4, #12]
 8082f72:	6a23      	ldr	r3, [r4, #32]
 8082f74:	4a3b      	ldr	r2, [pc, #236]	; (8083064 <HAL_TIM_OC_Start_DMA+0x150>)
 8082f76:	f006 061f 	and.w	r6, r6, #31
 8082f7a:	2101      	movs	r1, #1
 8082f7c:	fa01 f606 	lsl.w	r6, r1, r6
 8082f80:	ea23 0306 	bic.w	r3, r3, r6
 8082f84:	6223      	str	r3, [r4, #32]
 8082f86:	6a23      	ldr	r3, [r4, #32]
 8082f88:	4294      	cmp	r4, r2
 8082f8a:	ea46 0603 	orr.w	r6, r6, r3
 8082f8e:	6226      	str	r6, [r4, #32]
 8082f90:	d013      	beq.n	8082fba <HAL_TIM_OC_Start_DMA+0xa6>
 8082f92:	4b35      	ldr	r3, [pc, #212]	; (8083068 <HAL_TIM_OC_Start_DMA+0x154>)
 8082f94:	429c      	cmp	r4, r3
 8082f96:	d010      	beq.n	8082fba <HAL_TIM_OC_Start_DMA+0xa6>
 8082f98:	68a3      	ldr	r3, [r4, #8]
 8082f9a:	f003 0307 	and.w	r3, r3, #7
 8082f9e:	2b06      	cmp	r3, #6
 8082fa0:	d014      	beq.n	8082fcc <HAL_TIM_OC_Start_DMA+0xb8>
 8082fa2:	6823      	ldr	r3, [r4, #0]
 8082fa4:	f043 0301 	orr.w	r3, r3, #1
 8082fa8:	6023      	str	r3, [r4, #0]
 8082faa:	2000      	movs	r0, #0
 8082fac:	bdf8      	pop	{r3, r4, r5, r6, r7, pc}
 8082fae:	2a00      	cmp	r2, #0
 8082fb0:	d04e      	beq.n	8083050 <HAL_TIM_OC_Start_DMA+0x13c>
 8082fb2:	2402      	movs	r4, #2
 8082fb4:	f880 403d 	strb.w	r4, [r0, #61]	; 0x3d
 8082fb8:	e7b7      	b.n	8082f2a <HAL_TIM_OC_Start_DMA+0x16>
 8082fba:	6c63      	ldr	r3, [r4, #68]	; 0x44
 8082fbc:	f443 4300 	orr.w	r3, r3, #32768	; 0x8000
 8082fc0:	6463      	str	r3, [r4, #68]	; 0x44
 8082fc2:	68a3      	ldr	r3, [r4, #8]
 8082fc4:	f003 0307 	and.w	r3, r3, #7
 8082fc8:	2b06      	cmp	r3, #6
 8082fca:	d1ea      	bne.n	8082fa2 <HAL_TIM_OC_Start_DMA+0x8e>
 8082fcc:	2000      	movs	r0, #0
 8082fce:	bdf8      	pop	{r3, r4, r5, r6, r7, pc}
 8082fd0:	6b00      	ldr	r0, [r0, #48]	; 0x30
 8082fd2:	4922      	ldr	r1, [pc, #136]	; (808305c <HAL_TIM_OC_Start_DMA+0x148>)
 8082fd4:	4a22      	ldr	r2, [pc, #136]	; (8083060 <HAL_TIM_OC_Start_DMA+0x14c>)
 8082fd6:	f8df c094 	ldr.w	ip, [pc, #148]	; 808306c <HAL_TIM_OC_Start_DMA+0x158>
 8082fda:	63c1      	str	r1, [r0, #60]	; 0x3c
 8082fdc:	6402      	str	r2, [r0, #64]	; 0x40
 8082fde:	4639      	mov	r1, r7
 8082fe0:	f104 0240 	add.w	r2, r4, #64	; 0x40
 8082fe4:	f8c0 c04c 	str.w	ip, [r0, #76]	; 0x4c
 8082fe8:	f7fe fc06 	bl	80817f8 <HAL_DMA_Start_IT>
 8082fec:	2800      	cmp	r0, #0
 8082fee:	d131      	bne.n	8083054 <HAL_TIM_OC_Start_DMA+0x140>
 8082ff0:	682c      	ldr	r4, [r5, #0]
 8082ff2:	68e3      	ldr	r3, [r4, #12]
 8082ff4:	f443 5380 	orr.w	r3, r3, #4096	; 0x1000
 8082ff8:	60e3      	str	r3, [r4, #12]
 8082ffa:	e7ba      	b.n	8082f72 <HAL_TIM_OC_Start_DMA+0x5e>
 8082ffc:	6a80      	ldr	r0, [r0, #40]	; 0x28
 8082ffe:	4917      	ldr	r1, [pc, #92]	; (808305c <HAL_TIM_OC_Start_DMA+0x148>)
 8083000:	4a17      	ldr	r2, [pc, #92]	; (8083060 <HAL_TIM_OC_Start_DMA+0x14c>)
 8083002:	f8df c068 	ldr.w	ip, [pc, #104]	; 808306c <HAL_TIM_OC_Start_DMA+0x158>
 8083006:	63c1      	str	r1, [r0, #60]	; 0x3c
 8083008:	6402      	str	r2, [r0, #64]	; 0x40
 808300a:	4639      	mov	r1, r7
 808300c:	f104 0238 	add.w	r2, r4, #56	; 0x38
 8083010:	f8c0 c04c 	str.w	ip, [r0, #76]	; 0x4c
 8083014:	f7fe fbf0 	bl	80817f8 <HAL_DMA_Start_IT>
 8083018:	b9e0      	cbnz	r0, 8083054 <HAL_TIM_OC_Start_DMA+0x140>
 808301a:	682c      	ldr	r4, [r5, #0]
 808301c:	68e3      	ldr	r3, [r4, #12]
 808301e:	f443 6380 	orr.w	r3, r3, #1024	; 0x400
 8083022:	60e3      	str	r3, [r4, #12]
 8083024:	e7a5      	b.n	8082f72 <HAL_TIM_OC_Start_DMA+0x5e>
 8083026:	6ac0      	ldr	r0, [r0, #44]	; 0x2c
 8083028:	490c      	ldr	r1, [pc, #48]	; (808305c <HAL_TIM_OC_Start_DMA+0x148>)
 808302a:	4a0d      	ldr	r2, [pc, #52]	; (8083060 <HAL_TIM_OC_Start_DMA+0x14c>)
 808302c:	f8df c03c 	ldr.w	ip, [pc, #60]	; 808306c <HAL_TIM_OC_Start_DMA+0x158>
 8083030:	63c1      	str	r1, [r0, #60]	; 0x3c
 8083032:	6402      	str	r2, [r0, #64]	; 0x40
 8083034:	4639      	mov	r1, r7
 8083036:	f104 023c 	add.w	r2, r4, #60	; 0x3c
 808303a:	f8c0 c04c 	str.w	ip, [r0, #76]	; 0x4c
 808303e:	f7fe fbdb 	bl	80817f8 <HAL_DMA_Start_IT>
 8083042:	b938      	cbnz	r0, 8083054 <HAL_TIM_OC_Start_DMA+0x140>
 8083044:	682c      	ldr	r4, [r5, #0]
 8083046:	68e3      	ldr	r3, [r4, #12]
 8083048:	f443 6300 	orr.w	r3, r3, #2048	; 0x800
 808304c:	60e3      	str	r3, [r4, #12]
 808304e:	e790      	b.n	8082f72 <HAL_TIM_OC_Start_DMA+0x5e>
 8083050:	2b00      	cmp	r3, #0
 8083052:	d0ae      	beq.n	8082fb2 <HAL_TIM_OC_Start_DMA+0x9e>
 8083054:	2001      	movs	r0, #1
 8083056:	bdf8      	pop	{r3, r4, r5, r6, r7, pc}
 8083058:	4620      	mov	r0, r4
 808305a:	bdf8      	pop	{r3, r4, r5, r6, r7, pc}
 808305c:	08085345 	.word	0x08085345
 8083060:	080853a9 	.word	0x080853a9
 8083064:	40010000 	.word	0x40010000
 8083068:	40010400 	.word	0x40010400
 808306c:	08085589 	.word	0x08085589

08083070 <HAL_TIM_OC_Stop_DMA>:
 8083070:	b538      	push	{r3, r4, r5, lr}
 8083072:	4605      	mov	r5, r0
 8083074:	460c      	mov	r4, r1
 8083076:	6803      	ldr	r3, [r0, #0]
 8083078:	290c      	cmp	r1, #12
 808307a:	d810      	bhi.n	808309e <HAL_TIM_OC_Stop_DMA+0x2e>
 808307c:	e8df f001 	tbb	[pc, r1]
 8083080:	0f0f0f07 	.word	0x0f0f0f07
 8083084:	0f0f0f54 	.word	0x0f0f0f54
 8083088:	0f0f0f4b 	.word	0x0f0f0f4b
 808308c:	42          	.byte	0x42
 808308d:	00          	.byte	0x00
 808308e:	68da      	ldr	r2, [r3, #12]
 8083090:	6a40      	ldr	r0, [r0, #36]	; 0x24
 8083092:	f422 7200 	bic.w	r2, r2, #512	; 0x200
 8083096:	60da      	str	r2, [r3, #12]
 8083098:	f7fe fc38 	bl	808190c <HAL_DMA_Abort_IT>
 808309c:	682b      	ldr	r3, [r5, #0]
 808309e:	6a1a      	ldr	r2, [r3, #32]
 80830a0:	4826      	ldr	r0, [pc, #152]	; (808313c <HAL_TIM_OC_Stop_DMA+0xcc>)
 80830a2:	f004 041f 	and.w	r4, r4, #31
 80830a6:	2101      	movs	r1, #1
 80830a8:	fa01 f404 	lsl.w	r4, r1, r4
 80830ac:	ea22 0404 	bic.w	r4, r2, r4
 80830b0:	621c      	str	r4, [r3, #32]
 80830b2:	6a1a      	ldr	r2, [r3, #32]
 80830b4:	621a      	str	r2, [r3, #32]
 80830b6:	4283      	cmp	r3, r0
 80830b8:	d015      	beq.n	80830e6 <HAL_TIM_OC_Stop_DMA+0x76>
 80830ba:	4a21      	ldr	r2, [pc, #132]	; (8083140 <HAL_TIM_OC_Stop_DMA+0xd0>)
 80830bc:	4293      	cmp	r3, r2
 80830be:	d012      	beq.n	80830e6 <HAL_TIM_OC_Stop_DMA+0x76>
 80830c0:	6a19      	ldr	r1, [r3, #32]
 80830c2:	f241 1211 	movw	r2, #4369	; 0x1111
 80830c6:	4211      	tst	r1, r2
 80830c8:	d108      	bne.n	80830dc <HAL_TIM_OC_Stop_DMA+0x6c>
 80830ca:	6a19      	ldr	r1, [r3, #32]
 80830cc:	f240 4244 	movw	r2, #1092	; 0x444
 80830d0:	4211      	tst	r1, r2
 80830d2:	d103      	bne.n	80830dc <HAL_TIM_OC_Stop_DMA+0x6c>
 80830d4:	681a      	ldr	r2, [r3, #0]
 80830d6:	f022 0201 	bic.w	r2, r2, #1
 80830da:	601a      	str	r2, [r3, #0]
 80830dc:	2301      	movs	r3, #1
 80830de:	f885 303d 	strb.w	r3, [r5, #61]	; 0x3d
 80830e2:	2000      	movs	r0, #0
 80830e4:	bd38      	pop	{r3, r4, r5, pc}
 80830e6:	6a19      	ldr	r1, [r3, #32]
 80830e8:	f241 1211 	movw	r2, #4369	; 0x1111
 80830ec:	4211      	tst	r1, r2
 80830ee:	d1e7      	bne.n	80830c0 <HAL_TIM_OC_Stop_DMA+0x50>
 80830f0:	6a19      	ldr	r1, [r3, #32]
 80830f2:	f240 4244 	movw	r2, #1092	; 0x444
 80830f6:	4211      	tst	r1, r2
 80830f8:	d1e2      	bne.n	80830c0 <HAL_TIM_OC_Stop_DMA+0x50>
 80830fa:	6c5a      	ldr	r2, [r3, #68]	; 0x44
 80830fc:	f422 4200 	bic.w	r2, r2, #32768	; 0x8000
 8083100:	645a      	str	r2, [r3, #68]	; 0x44
 8083102:	e7dd      	b.n	80830c0 <HAL_TIM_OC_Stop_DMA+0x50>
 8083104:	68da      	ldr	r2, [r3, #12]
 8083106:	6b00      	ldr	r0, [r0, #48]	; 0x30
 8083108:	f422 5280 	bic.w	r2, r2, #4096	; 0x1000
 808310c:	60da      	str	r2, [r3, #12]
 808310e:	f7fe fbfd 	bl	808190c <HAL_DMA_Abort_IT>
 8083112:	682b      	ldr	r3, [r5, #0]
 8083114:	e7c3      	b.n	808309e <HAL_TIM_OC_Stop_DMA+0x2e>
 8083116:	68da      	ldr	r2, [r3, #12]
 8083118:	6ac0      	ldr	r0, [r0, #44]	; 0x2c
 808311a:	f422 6200 	bic.w	r2, r2, #2048	; 0x800
 808311e:	60da      	str	r2, [r3, #12]
 8083120:	f7fe fbf4 	bl	808190c <HAL_DMA_Abort_IT>
 8083124:	682b      	ldr	r3, [r5, #0]
 8083126:	e7ba      	b.n	808309e <HAL_TIM_OC_Stop_DMA+0x2e>
 8083128:	68da      	ldr	r2, [r3, #12]
 808312a:	6a80      	ldr	r0, [r0, #40]	; 0x28
 808312c:	f422 6280 	bic.w	r2, r2, #1024	; 0x400
 8083130:	60da      	str	r2, [r3, #12]
 8083132:	f7fe fbeb 	bl	808190c <HAL_DMA_Abort_IT>
 8083136:	682b      	ldr	r3, [r5, #0]
 8083138:	e7b1      	b.n	808309e <HAL_TIM_OC_Stop_DMA+0x2e>
 808313a:	bf00      	nop
 808313c:	40010000 	.word	0x40010000
 8083140:	40010400 	.word	0x40010400

08083144 <HAL_TIM_PWM_MspInit>:
 8083144:	4770      	bx	lr
 8083146:	bf00      	nop

08083148 <HAL_TIM_PWM_Init>:
 8083148:	2800      	cmp	r0, #0
 808314a:	d05c      	beq.n	8083206 <HAL_TIM_PWM_Init+0xbe>
 808314c:	b5f8      	push	{r3, r4, r5, r6, r7, lr}
 808314e:	f890 303d 	ldrb.w	r3, [r0, #61]	; 0x3d
 8083152:	4604      	mov	r4, r0
 8083154:	f003 02ff 	and.w	r2, r3, #255	; 0xff
 8083158:	b3bb      	cbz	r3, 80831ca <HAL_TIM_PWM_Init+0x82>
 808315a:	6822      	ldr	r2, [r4, #0]
 808315c:	4e3a      	ldr	r6, [pc, #232]	; (8083248 <HAL_TIM_PWM_Init+0x100>)
 808315e:	69a5      	ldr	r5, [r4, #24]
 8083160:	68e0      	ldr	r0, [r4, #12]
 8083162:	6861      	ldr	r1, [r4, #4]
 8083164:	2302      	movs	r3, #2
 8083166:	f884 303d 	strb.w	r3, [r4, #61]	; 0x3d
 808316a:	42b2      	cmp	r2, r6
 808316c:	6813      	ldr	r3, [r2, #0]
 808316e:	d04c      	beq.n	808320a <HAL_TIM_PWM_Init+0xc2>
 8083170:	f1b2 4f80 	cmp.w	r2, #1073741824	; 0x40000000
 8083174:	d058      	beq.n	8083228 <HAL_TIM_PWM_Init+0xe0>
 8083176:	f5a6 467c 	sub.w	r6, r6, #64512	; 0xfc00
 808317a:	42b2      	cmp	r2, r6
 808317c:	d02a      	beq.n	80831d4 <HAL_TIM_PWM_Init+0x8c>
 808317e:	f506 6680 	add.w	r6, r6, #1024	; 0x400
 8083182:	42b2      	cmp	r2, r6
 8083184:	d026      	beq.n	80831d4 <HAL_TIM_PWM_Init+0x8c>
 8083186:	f506 6680 	add.w	r6, r6, #1024	; 0x400
 808318a:	42b2      	cmp	r2, r6
 808318c:	d022      	beq.n	80831d4 <HAL_TIM_PWM_Init+0x8c>
 808318e:	f506 4678 	add.w	r6, r6, #63488	; 0xf800
 8083192:	42b2      	cmp	r2, r6
 8083194:	d01e      	beq.n	80831d4 <HAL_TIM_PWM_Init+0x8c>
 8083196:	f506 5670 	add.w	r6, r6, #15360	; 0x3c00
 808319a:	42b2      	cmp	r2, r6
 808319c:	d013      	beq.n	80831c6 <HAL_TIM_PWM_Init+0x7e>
 808319e:	f506 6680 	add.w	r6, r6, #1024	; 0x400
 80831a2:	42b2      	cmp	r2, r6
 80831a4:	d00f      	beq.n	80831c6 <HAL_TIM_PWM_Init+0x7e>
 80831a6:	f506 6680 	add.w	r6, r6, #1024	; 0x400
 80831aa:	42b2      	cmp	r2, r6
 80831ac:	d00b      	beq.n	80831c6 <HAL_TIM_PWM_Init+0x7e>
 80831ae:	f5a6 3698 	sub.w	r6, r6, #77824	; 0x13000
 80831b2:	42b2      	cmp	r2, r6
 80831b4:	d007      	beq.n	80831c6 <HAL_TIM_PWM_Init+0x7e>
 80831b6:	f506 6680 	add.w	r6, r6, #1024	; 0x400
 80831ba:	42b2      	cmp	r2, r6
 80831bc:	d003      	beq.n	80831c6 <HAL_TIM_PWM_Init+0x7e>
 80831be:	f506 6680 	add.w	r6, r6, #1024	; 0x400
 80831c2:	42b2      	cmp	r2, r6
 80831c4:	d138      	bne.n	8083238 <HAL_TIM_PWM_Init+0xf0>
 80831c6:	6926      	ldr	r6, [r4, #16]
 80831c8:	e033      	b.n	8083232 <HAL_TIM_PWM_Init+0xea>
 80831ca:	f880 203c 	strb.w	r2, [r0, #60]	; 0x3c
 80831ce:	f7ff ffb9 	bl	8083144 <HAL_TIM_PWM_MspInit>
 80831d2:	e7c2      	b.n	808315a <HAL_TIM_PWM_Init+0x12>
 80831d4:	68a6      	ldr	r6, [r4, #8]
 80831d6:	4f1d      	ldr	r7, [pc, #116]	; (808324c <HAL_TIM_PWM_Init+0x104>)
 80831d8:	f023 0370 	bic.w	r3, r3, #112	; 0x70
 80831dc:	4333      	orrs	r3, r6
 80831de:	6926      	ldr	r6, [r4, #16]
 80831e0:	f423 7340 	bic.w	r3, r3, #768	; 0x300
 80831e4:	4333      	orrs	r3, r6
 80831e6:	f023 0380 	bic.w	r3, r3, #128	; 0x80
 80831ea:	432b      	orrs	r3, r5
 80831ec:	42ba      	cmp	r2, r7
 80831ee:	6013      	str	r3, [r2, #0]
 80831f0:	62d0      	str	r0, [r2, #44]	; 0x2c
 80831f2:	6291      	str	r1, [r2, #40]	; 0x28
 80831f4:	d101      	bne.n	80831fa <HAL_TIM_PWM_Init+0xb2>
 80831f6:	6963      	ldr	r3, [r4, #20]
 80831f8:	6313      	str	r3, [r2, #48]	; 0x30
 80831fa:	2301      	movs	r3, #1
 80831fc:	6153      	str	r3, [r2, #20]
 80831fe:	2000      	movs	r0, #0
 8083200:	f884 303d 	strb.w	r3, [r4, #61]	; 0x3d
 8083204:	bdf8      	pop	{r3, r4, r5, r6, r7, pc}
 8083206:	2001      	movs	r0, #1
 8083208:	4770      	bx	lr
 808320a:	68a7      	ldr	r7, [r4, #8]
 808320c:	6926      	ldr	r6, [r4, #16]
 808320e:	f023 0370 	bic.w	r3, r3, #112	; 0x70
 8083212:	433b      	orrs	r3, r7
 8083214:	f423 7340 	bic.w	r3, r3, #768	; 0x300
 8083218:	4333      	orrs	r3, r6
 808321a:	f023 0380 	bic.w	r3, r3, #128	; 0x80
 808321e:	432b      	orrs	r3, r5
 8083220:	6013      	str	r3, [r2, #0]
 8083222:	62d0      	str	r0, [r2, #44]	; 0x2c
 8083224:	6291      	str	r1, [r2, #40]	; 0x28
 8083226:	e7e6      	b.n	80831f6 <HAL_TIM_PWM_Init+0xae>
 8083228:	68a7      	ldr	r7, [r4, #8]
 808322a:	6926      	ldr	r6, [r4, #16]
 808322c:	f023 0370 	bic.w	r3, r3, #112	; 0x70
 8083230:	433b      	orrs	r3, r7
 8083232:	f423 7340 	bic.w	r3, r3, #768	; 0x300
 8083236:	4333      	orrs	r3, r6
 8083238:	f023 0380 	bic.w	r3, r3, #128	; 0x80
 808323c:	432b      	orrs	r3, r5
 808323e:	6013      	str	r3, [r2, #0]
 8083240:	62d0      	str	r0, [r2, #44]	; 0x2c
 8083242:	6291      	str	r1, [r2, #40]	; 0x28
 8083244:	e7d9      	b.n	80831fa <HAL_TIM_PWM_Init+0xb2>
 8083246:	bf00      	nop
 8083248:	40010000 	.word	0x40010000
 808324c:	40010400 	.word	0x40010400

08083250 <HAL_TIM_PWM_MspDeInit>:
 8083250:	4770      	bx	lr
 8083252:	bf00      	nop

08083254 <HAL_TIM_PWM_DeInit>:
 8083254:	2202      	movs	r2, #2
 8083256:	6803      	ldr	r3, [r0, #0]
 8083258:	b510      	push	{r4, lr}
 808325a:	f880 203d 	strb.w	r2, [r0, #61]	; 0x3d
 808325e:	6a19      	ldr	r1, [r3, #32]
 8083260:	f241 1211 	movw	r2, #4369	; 0x1111
 8083264:	4211      	tst	r1, r2
 8083266:	4604      	mov	r4, r0
 8083268:	d108      	bne.n	808327c <HAL_TIM_PWM_DeInit+0x28>
 808326a:	6a19      	ldr	r1, [r3, #32]
 808326c:	f240 4244 	movw	r2, #1092	; 0x444
 8083270:	4211      	tst	r1, r2
 8083272:	d103      	bne.n	808327c <HAL_TIM_PWM_DeInit+0x28>
 8083274:	681a      	ldr	r2, [r3, #0]
 8083276:	f022 0201 	bic.w	r2, r2, #1
 808327a:	601a      	str	r2, [r3, #0]
 808327c:	4620      	mov	r0, r4
 808327e:	f7ff ffe7 	bl	8083250 <HAL_TIM_PWM_MspDeInit>
 8083282:	2000      	movs	r0, #0
 8083284:	f884 003d 	strb.w	r0, [r4, #61]	; 0x3d
 8083288:	f884 003c 	strb.w	r0, [r4, #60]	; 0x3c
 808328c:	bd10      	pop	{r4, pc}
 808328e:	bf00      	nop

08083290 <HAL_TIM_PWM_Start>:
 8083290:	6803      	ldr	r3, [r0, #0]
 8083292:	2201      	movs	r2, #1
 8083294:	6a18      	ldr	r0, [r3, #32]
 8083296:	f001 011f 	and.w	r1, r1, #31
 808329a:	fa02 f101 	lsl.w	r1, r2, r1
 808329e:	ea20 0001 	bic.w	r0, r0, r1
 80832a2:	b410      	push	{r4}
 80832a4:	6218      	str	r0, [r3, #32]
 80832a6:	6a1a      	ldr	r2, [r3, #32]
 80832a8:	4c0c      	ldr	r4, [pc, #48]	; (80832dc <HAL_TIM_PWM_Start+0x4c>)
 80832aa:	4311      	orrs	r1, r2
 80832ac:	42a3      	cmp	r3, r4
 80832ae:	6219      	str	r1, [r3, #32]
 80832b0:	d00f      	beq.n	80832d2 <HAL_TIM_PWM_Start+0x42>
 80832b2:	4a0b      	ldr	r2, [pc, #44]	; (80832e0 <HAL_TIM_PWM_Start+0x50>)
 80832b4:	4293      	cmp	r3, r2
 80832b6:	d00c      	beq.n	80832d2 <HAL_TIM_PWM_Start+0x42>
 80832b8:	689a      	ldr	r2, [r3, #8]
 80832ba:	f002 0207 	and.w	r2, r2, #7
 80832be:	2a06      	cmp	r2, #6
 80832c0:	d003      	beq.n	80832ca <HAL_TIM_PWM_Start+0x3a>
 80832c2:	681a      	ldr	r2, [r3, #0]
 80832c4:	f042 0201 	orr.w	r2, r2, #1
 80832c8:	601a      	str	r2, [r3, #0]
 80832ca:	2000      	movs	r0, #0
 80832cc:	f85d 4b04 	ldr.w	r4, [sp], #4
 80832d0:	4770      	bx	lr
 80832d2:	6c5a      	ldr	r2, [r3, #68]	; 0x44
 80832d4:	f442 4200 	orr.w	r2, r2, #32768	; 0x8000
 80832d8:	645a      	str	r2, [r3, #68]	; 0x44
 80832da:	e7ed      	b.n	80832b8 <HAL_TIM_PWM_Start+0x28>
 80832dc:	40010000 	.word	0x40010000
 80832e0:	40010400 	.word	0x40010400

080832e4 <HAL_TIM_PWM_Stop>:
 80832e4:	6803      	ldr	r3, [r0, #0]
 80832e6:	b430      	push	{r4, r5}
 80832e8:	6a1a      	ldr	r2, [r3, #32]
 80832ea:	4c19      	ldr	r4, [pc, #100]	; (8083350 <HAL_TIM_PWM_Stop+0x6c>)
 80832ec:	f001 051f 	and.w	r5, r1, #31
 80832f0:	2101      	movs	r1, #1
 80832f2:	40a9      	lsls	r1, r5
 80832f4:	ea22 0101 	bic.w	r1, r2, r1
 80832f8:	6219      	str	r1, [r3, #32]
 80832fa:	6a1a      	ldr	r2, [r3, #32]
 80832fc:	621a      	str	r2, [r3, #32]
 80832fe:	42a3      	cmp	r3, r4
 8083300:	d016      	beq.n	8083330 <HAL_TIM_PWM_Stop+0x4c>
 8083302:	4a14      	ldr	r2, [pc, #80]	; (8083354 <HAL_TIM_PWM_Stop+0x70>)
 8083304:	4293      	cmp	r3, r2
 8083306:	d013      	beq.n	8083330 <HAL_TIM_PWM_Stop+0x4c>
 8083308:	6a19      	ldr	r1, [r3, #32]
 808330a:	f241 1211 	movw	r2, #4369	; 0x1111
 808330e:	4211      	tst	r1, r2
 8083310:	d108      	bne.n	8083324 <HAL_TIM_PWM_Stop+0x40>
 8083312:	6a19      	ldr	r1, [r3, #32]
 8083314:	f240 4244 	movw	r2, #1092	; 0x444
 8083318:	4211      	tst	r1, r2
 808331a:	d103      	bne.n	8083324 <HAL_TIM_PWM_Stop+0x40>
 808331c:	681a      	ldr	r2, [r3, #0]
 808331e:	f022 0201 	bic.w	r2, r2, #1
 8083322:	601a      	str	r2, [r3, #0]
 8083324:	2301      	movs	r3, #1
 8083326:	f880 303d 	strb.w	r3, [r0, #61]	; 0x3d
 808332a:	bc30      	pop	{r4, r5}
 808332c:	2000      	movs	r0, #0
 808332e:	4770      	bx	lr
 8083330:	6a19      	ldr	r1, [r3, #32]
 8083332:	f241 1211 	movw	r2, #4369	; 0x1111
 8083336:	4211      	tst	r1, r2
 8083338:	d1e6      	bne.n	8083308 <HAL_TIM_PWM_Stop+0x24>
 808333a:	6a19      	ldr	r1, [r3, #32]
 808333c:	f240 4244 	movw	r2, #1092	; 0x444
 8083340:	4211      	tst	r1, r2
 8083342:	d1e1      	bne.n	8083308 <HAL_TIM_PWM_Stop+0x24>
 8083344:	6c5a      	ldr	r2, [r3, #68]	; 0x44
 8083346:	f422 4200 	bic.w	r2, r2, #32768	; 0x8000
 808334a:	645a      	str	r2, [r3, #68]	; 0x44
 808334c:	e7dc      	b.n	8083308 <HAL_TIM_PWM_Stop+0x24>
 808334e:	bf00      	nop
 8083350:	40010000 	.word	0x40010000
 8083354:	40010400 	.word	0x40010400

08083358 <HAL_TIM_PWM_Start_IT>:
 8083358:	b410      	push	{r4}
 808335a:	6803      	ldr	r3, [r0, #0]
 808335c:	290c      	cmp	r1, #12
 808335e:	d80c      	bhi.n	808337a <HAL_TIM_PWM_Start_IT+0x22>
 8083360:	e8df f001 	tbb	[pc, r1]
 8083364:	0b0b0b39 	.word	0x0b0b0b39
 8083368:	0b0b0b34 	.word	0x0b0b0b34
 808336c:	0b0b0b2f 	.word	0x0b0b0b2f
 8083370:	07          	.byte	0x07
 8083371:	00          	.byte	0x00
 8083372:	68da      	ldr	r2, [r3, #12]
 8083374:	f042 0210 	orr.w	r2, r2, #16
 8083378:	60da      	str	r2, [r3, #12]
 808337a:	6a18      	ldr	r0, [r3, #32]
 808337c:	4c18      	ldr	r4, [pc, #96]	; (80833e0 <HAL_TIM_PWM_Start_IT+0x88>)
 808337e:	f001 021f 	and.w	r2, r1, #31
 8083382:	2101      	movs	r1, #1
 8083384:	4091      	lsls	r1, r2
 8083386:	ea20 0001 	bic.w	r0, r0, r1
 808338a:	6218      	str	r0, [r3, #32]
 808338c:	6a1a      	ldr	r2, [r3, #32]
 808338e:	42a3      	cmp	r3, r4
 8083390:	ea41 0102 	orr.w	r1, r1, r2
 8083394:	6219      	str	r1, [r3, #32]
 8083396:	d00f      	beq.n	80833b8 <HAL_TIM_PWM_Start_IT+0x60>
 8083398:	4a12      	ldr	r2, [pc, #72]	; (80833e4 <HAL_TIM_PWM_Start_IT+0x8c>)
 808339a:	4293      	cmp	r3, r2
 808339c:	d00c      	beq.n	80833b8 <HAL_TIM_PWM_Start_IT+0x60>
 808339e:	689a      	ldr	r2, [r3, #8]
 80833a0:	f002 0207 	and.w	r2, r2, #7
 80833a4:	2a06      	cmp	r2, #6
 80833a6:	d003      	beq.n	80833b0 <HAL_TIM_PWM_Start_IT+0x58>
 80833a8:	681a      	ldr	r2, [r3, #0]
 80833aa:	f042 0201 	orr.w	r2, r2, #1
 80833ae:	601a      	str	r2, [r3, #0]
 80833b0:	2000      	movs	r0, #0
 80833b2:	f85d 4b04 	ldr.w	r4, [sp], #4
 80833b6:	4770      	bx	lr
 80833b8:	6c5a      	ldr	r2, [r3, #68]	; 0x44
 80833ba:	f442 4200 	orr.w	r2, r2, #32768	; 0x8000
 80833be:	645a      	str	r2, [r3, #68]	; 0x44
 80833c0:	e7ed      	b.n	808339e <HAL_TIM_PWM_Start_IT+0x46>
 80833c2:	68da      	ldr	r2, [r3, #12]
 80833c4:	f042 0208 	orr.w	r2, r2, #8
 80833c8:	60da      	str	r2, [r3, #12]
 80833ca:	e7d6      	b.n	808337a <HAL_TIM_PWM_Start_IT+0x22>
 80833cc:	68da      	ldr	r2, [r3, #12]
 80833ce:	f042 0204 	orr.w	r2, r2, #4
 80833d2:	60da      	str	r2, [r3, #12]
 80833d4:	e7d1      	b.n	808337a <HAL_TIM_PWM_Start_IT+0x22>
 80833d6:	68da      	ldr	r2, [r3, #12]
 80833d8:	f042 0202 	orr.w	r2, r2, #2
 80833dc:	60da      	str	r2, [r3, #12]
 80833de:	e7cc      	b.n	808337a <HAL_TIM_PWM_Start_IT+0x22>
 80833e0:	40010000 	.word	0x40010000
 80833e4:	40010400 	.word	0x40010400

080833e8 <HAL_TIM_PWM_Stop_IT>:
 80833e8:	b410      	push	{r4}
 80833ea:	6803      	ldr	r3, [r0, #0]
 80833ec:	290c      	cmp	r1, #12
 80833ee:	d80c      	bhi.n	808340a <HAL_TIM_PWM_Stop_IT+0x22>
 80833f0:	e8df f001 	tbb	[pc, r1]
 80833f4:	0b0b0b3d 	.word	0x0b0b0b3d
 80833f8:	0b0b0b47 	.word	0x0b0b0b47
 80833fc:	0b0b0b42 	.word	0x0b0b0b42
 8083400:	07          	.byte	0x07
 8083401:	00          	.byte	0x00
 8083402:	68da      	ldr	r2, [r3, #12]
 8083404:	f022 0210 	bic.w	r2, r2, #16
 8083408:	60da      	str	r2, [r3, #12]
 808340a:	6a1a      	ldr	r2, [r3, #32]
 808340c:	4c1f      	ldr	r4, [pc, #124]	; (808348c <HAL_TIM_PWM_Stop_IT+0xa4>)
 808340e:	f001 011f 	and.w	r1, r1, #31
 8083412:	2001      	movs	r0, #1
 8083414:	fa00 f101 	lsl.w	r1, r0, r1
 8083418:	ea22 0101 	bic.w	r1, r2, r1
 808341c:	6219      	str	r1, [r3, #32]
 808341e:	6a1a      	ldr	r2, [r3, #32]
 8083420:	621a      	str	r2, [r3, #32]
 8083422:	42a3      	cmp	r3, r4
 8083424:	d014      	beq.n	8083450 <HAL_TIM_PWM_Stop_IT+0x68>
 8083426:	4a1a      	ldr	r2, [pc, #104]	; (8083490 <HAL_TIM_PWM_Stop_IT+0xa8>)
 8083428:	4293      	cmp	r3, r2
 808342a:	d011      	beq.n	8083450 <HAL_TIM_PWM_Stop_IT+0x68>
 808342c:	6a19      	ldr	r1, [r3, #32]
 808342e:	f241 1211 	movw	r2, #4369	; 0x1111
 8083432:	4211      	tst	r1, r2
 8083434:	d108      	bne.n	8083448 <HAL_TIM_PWM_Stop_IT+0x60>
 8083436:	6a19      	ldr	r1, [r3, #32]
 8083438:	f240 4244 	movw	r2, #1092	; 0x444
 808343c:	4211      	tst	r1, r2
 808343e:	d103      	bne.n	8083448 <HAL_TIM_PWM_Stop_IT+0x60>
 8083440:	681a      	ldr	r2, [r3, #0]
 8083442:	f022 0201 	bic.w	r2, r2, #1
 8083446:	601a      	str	r2, [r3, #0]
 8083448:	2000      	movs	r0, #0
 808344a:	f85d 4b04 	ldr.w	r4, [sp], #4
 808344e:	4770      	bx	lr
 8083450:	6a19      	ldr	r1, [r3, #32]
 8083452:	f241 1211 	movw	r2, #4369	; 0x1111
 8083456:	4211      	tst	r1, r2
 8083458:	d1e8      	bne.n	808342c <HAL_TIM_PWM_Stop_IT+0x44>
 808345a:	6a19      	ldr	r1, [r3, #32]
 808345c:	f240 4244 	movw	r2, #1092	; 0x444
 8083460:	4211      	tst	r1, r2
 8083462:	d1e3      	bne.n	808342c <HAL_TIM_PWM_Stop_IT+0x44>
 8083464:	6c5a      	ldr	r2, [r3, #68]	; 0x44
 8083466:	f422 4200 	bic.w	r2, r2, #32768	; 0x8000
 808346a:	645a      	str	r2, [r3, #68]	; 0x44
 808346c:	e7de      	b.n	808342c <HAL_TIM_PWM_Stop_IT+0x44>
 808346e:	68da      	ldr	r2, [r3, #12]
 8083470:	f022 0202 	bic.w	r2, r2, #2
 8083474:	60da      	str	r2, [r3, #12]
 8083476:	e7c8      	b.n	808340a <HAL_TIM_PWM_Stop_IT+0x22>
 8083478:	68da      	ldr	r2, [r3, #12]
 808347a:	f022 0208 	bic.w	r2, r2, #8
 808347e:	60da      	str	r2, [r3, #12]
 8083480:	e7c3      	b.n	808340a <HAL_TIM_PWM_Stop_IT+0x22>
 8083482:	68da      	ldr	r2, [r3, #12]
 8083484:	f022 0204 	bic.w	r2, r2, #4
 8083488:	60da      	str	r2, [r3, #12]
 808348a:	e7be      	b.n	808340a <HAL_TIM_PWM_Stop_IT+0x22>
 808348c:	40010000 	.word	0x40010000
 8083490:	40010400 	.word	0x40010400

08083494 <HAL_TIM_PWM_Start_DMA>:
 8083494:	b5f8      	push	{r3, r4, r5, r6, r7, lr}
 8083496:	f890 403d 	ldrb.w	r4, [r0, #61]	; 0x3d
 808349a:	b2e4      	uxtb	r4, r4
 808349c:	2c02      	cmp	r4, #2
 808349e:	f000 809b 	beq.w	80835d8 <HAL_TIM_PWM_Start_DMA+0x144>
 80834a2:	f890 403d 	ldrb.w	r4, [r0, #61]	; 0x3d
 80834a6:	2c01      	cmp	r4, #1
 80834a8:	d041      	beq.n	808352e <HAL_TIM_PWM_Start_DMA+0x9a>
 80834aa:	4617      	mov	r7, r2
 80834ac:	460e      	mov	r6, r1
 80834ae:	4605      	mov	r5, r0
 80834b0:	6804      	ldr	r4, [r0, #0]
 80834b2:	290c      	cmp	r1, #12
 80834b4:	d81d      	bhi.n	80834f2 <HAL_TIM_PWM_Start_DMA+0x5e>
 80834b6:	e8df f001 	tbb	[pc, r1]
 80834ba:	1c4b      	.short	0x1c4b
 80834bc:	1c611c1c 	.word	0x1c611c1c
 80834c0:	1c761c1c 	.word	0x1c761c1c
 80834c4:	1c1c      	.short	0x1c1c
 80834c6:	07          	.byte	0x07
 80834c7:	00          	.byte	0x00
 80834c8:	6b00      	ldr	r0, [r0, #48]	; 0x30
 80834ca:	4944      	ldr	r1, [pc, #272]	; (80835dc <HAL_TIM_PWM_Start_DMA+0x148>)
 80834cc:	4a44      	ldr	r2, [pc, #272]	; (80835e0 <HAL_TIM_PWM_Start_DMA+0x14c>)
 80834ce:	f8df c11c 	ldr.w	ip, [pc, #284]	; 80835ec <HAL_TIM_PWM_Start_DMA+0x158>
 80834d2:	63c1      	str	r1, [r0, #60]	; 0x3c
 80834d4:	6402      	str	r2, [r0, #64]	; 0x40
 80834d6:	4639      	mov	r1, r7
 80834d8:	f104 0240 	add.w	r2, r4, #64	; 0x40
 80834dc:	f8c0 c04c 	str.w	ip, [r0, #76]	; 0x4c
 80834e0:	f7fe f98a 	bl	80817f8 <HAL_DMA_Start_IT>
 80834e4:	2800      	cmp	r0, #0
 80834e6:	d175      	bne.n	80835d4 <HAL_TIM_PWM_Start_DMA+0x140>
 80834e8:	682c      	ldr	r4, [r5, #0]
 80834ea:	68e3      	ldr	r3, [r4, #12]
 80834ec:	f443 5380 	orr.w	r3, r3, #4096	; 0x1000
 80834f0:	60e3      	str	r3, [r4, #12]
 80834f2:	6a23      	ldr	r3, [r4, #32]
 80834f4:	4a3b      	ldr	r2, [pc, #236]	; (80835e4 <HAL_TIM_PWM_Start_DMA+0x150>)
 80834f6:	f006 061f 	and.w	r6, r6, #31
 80834fa:	2101      	movs	r1, #1
 80834fc:	fa01 f606 	lsl.w	r6, r1, r6
 8083500:	ea23 0306 	bic.w	r3, r3, r6
 8083504:	6223      	str	r3, [r4, #32]
 8083506:	6a23      	ldr	r3, [r4, #32]
 8083508:	4294      	cmp	r4, r2
 808350a:	ea46 0603 	orr.w	r6, r6, r3
 808350e:	6226      	str	r6, [r4, #32]
 8083510:	d013      	beq.n	808353a <HAL_TIM_PWM_Start_DMA+0xa6>
 8083512:	4b35      	ldr	r3, [pc, #212]	; (80835e8 <HAL_TIM_PWM_Start_DMA+0x154>)
 8083514:	429c      	cmp	r4, r3
 8083516:	d010      	beq.n	808353a <HAL_TIM_PWM_Start_DMA+0xa6>
 8083518:	68a3      	ldr	r3, [r4, #8]
 808351a:	f003 0307 	and.w	r3, r3, #7
 808351e:	2b06      	cmp	r3, #6
 8083520:	d014      	beq.n	808354c <HAL_TIM_PWM_Start_DMA+0xb8>
 8083522:	6823      	ldr	r3, [r4, #0]
 8083524:	f043 0301 	orr.w	r3, r3, #1
 8083528:	6023      	str	r3, [r4, #0]
 808352a:	2000      	movs	r0, #0
 808352c:	bdf8      	pop	{r3, r4, r5, r6, r7, pc}
 808352e:	2a00      	cmp	r2, #0
 8083530:	d04e      	beq.n	80835d0 <HAL_TIM_PWM_Start_DMA+0x13c>
 8083532:	2402      	movs	r4, #2
 8083534:	f880 403d 	strb.w	r4, [r0, #61]	; 0x3d
 8083538:	e7b7      	b.n	80834aa <HAL_TIM_PWM_Start_DMA+0x16>
 808353a:	6c63      	ldr	r3, [r4, #68]	; 0x44
 808353c:	f443 4300 	orr.w	r3, r3, #32768	; 0x8000
 8083540:	6463      	str	r3, [r4, #68]	; 0x44
 8083542:	68a3      	ldr	r3, [r4, #8]
 8083544:	f003 0307 	and.w	r3, r3, #7
 8083548:	2b06      	cmp	r3, #6
 808354a:	d1ea      	bne.n	8083522 <HAL_TIM_PWM_Start_DMA+0x8e>
 808354c:	2000      	movs	r0, #0
 808354e:	bdf8      	pop	{r3, r4, r5, r6, r7, pc}
 8083550:	6a40      	ldr	r0, [r0, #36]	; 0x24
 8083552:	4922      	ldr	r1, [pc, #136]	; (80835dc <HAL_TIM_PWM_Start_DMA+0x148>)
 8083554:	4a22      	ldr	r2, [pc, #136]	; (80835e0 <HAL_TIM_PWM_Start_DMA+0x14c>)
 8083556:	f8df c094 	ldr.w	ip, [pc, #148]	; 80835ec <HAL_TIM_PWM_Start_DMA+0x158>
 808355a:	63c1      	str	r1, [r0, #60]	; 0x3c
 808355c:	6402      	str	r2, [r0, #64]	; 0x40
 808355e:	4639      	mov	r1, r7
 8083560:	f104 0234 	add.w	r2, r4, #52	; 0x34
 8083564:	f8c0 c04c 	str.w	ip, [r0, #76]	; 0x4c
 8083568:	f7fe f946 	bl	80817f8 <HAL_DMA_Start_IT>
 808356c:	2800      	cmp	r0, #0
 808356e:	d131      	bne.n	80835d4 <HAL_TIM_PWM_Start_DMA+0x140>
 8083570:	682c      	ldr	r4, [r5, #0]
 8083572:	68e3      	ldr	r3, [r4, #12]
 8083574:	f443 7300 	orr.w	r3, r3, #512	; 0x200
 8083578:	60e3      	str	r3, [r4, #12]
 808357a:	e7ba      	b.n	80834f2 <HAL_TIM_PWM_Start_DMA+0x5e>
 808357c:	6a80      	ldr	r0, [r0, #40]	; 0x28
 808357e:	4917      	ldr	r1, [pc, #92]	; (80835dc <HAL_TIM_PWM_Start_DMA+0x148>)
 8083580:	4a17      	ldr	r2, [pc, #92]	; (80835e0 <HAL_TIM_PWM_Start_DMA+0x14c>)
 8083582:	f8df c068 	ldr.w	ip, [pc, #104]	; 80835ec <HAL_TIM_PWM_Start_DMA+0x158>
 8083586:	63c1      	str	r1, [r0, #60]	; 0x3c
 8083588:	6402      	str	r2, [r0, #64]	; 0x40
 808358a:	4639      	mov	r1, r7
 808358c:	f104 0238 	add.w	r2, r4, #56	; 0x38
 8083590:	f8c0 c04c 	str.w	ip, [r0, #76]	; 0x4c
 8083594:	f7fe f930 	bl	80817f8 <HAL_DMA_Start_IT>
 8083598:	b9e0      	cbnz	r0, 80835d4 <HAL_TIM_PWM_Start_DMA+0x140>
 808359a:	682c      	ldr	r4, [r5, #0]
 808359c:	68e3      	ldr	r3, [r4, #12]
 808359e:	f443 6380 	orr.w	r3, r3, #1024	; 0x400
 80835a2:	60e3      	str	r3, [r4, #12]
 80835a4:	e7a5      	b.n	80834f2 <HAL_TIM_PWM_Start_DMA+0x5e>
 80835a6:	6ac0      	ldr	r0, [r0, #44]	; 0x2c
 80835a8:	490c      	ldr	r1, [pc, #48]	; (80835dc <HAL_TIM_PWM_Start_DMA+0x148>)
 80835aa:	4a0d      	ldr	r2, [pc, #52]	; (80835e0 <HAL_TIM_PWM_Start_DMA+0x14c>)
 80835ac:	f8df c03c 	ldr.w	ip, [pc, #60]	; 80835ec <HAL_TIM_PWM_Start_DMA+0x158>
 80835b0:	63c1      	str	r1, [r0, #60]	; 0x3c
 80835b2:	6402      	str	r2, [r0, #64]	; 0x40
 80835b4:	4639      	mov	r1, r7
 80835b6:	f104 023c 	add.w	r2, r4, #60	; 0x3c
 80835ba:	f8c0 c04c 	str.w	ip, [r0, #76]	; 0x4c
 80835be:	f7fe f91b 	bl	80817f8 <HAL_DMA_Start_IT>
 80835c2:	b938      	cbnz	r0, 80835d4 <HAL_TIM_PWM_Start_DMA+0x140>
 80835c4:	682c      	ldr	r4, [r5, #0]
 80835c6:	68e3      	ldr	r3, [r4, #12]
 80835c8:	f443 6300 	orr.w	r3, r3, #2048	; 0x800
 80835cc:	60e3      	str	r3, [r4, #12]
 80835ce:	e790      	b.n	80834f2 <HAL_TIM_PWM_Start_DMA+0x5e>
 80835d0:	2b00      	cmp	r3, #0
 80835d2:	d0ae      	beq.n	8083532 <HAL_TIM_PWM_Start_DMA+0x9e>
 80835d4:	2001      	movs	r0, #1
 80835d6:	bdf8      	pop	{r3, r4, r5, r6, r7, pc}
 80835d8:	4620      	mov	r0, r4
 80835da:	bdf8      	pop	{r3, r4, r5, r6, r7, pc}
 80835dc:	08085345 	.word	0x08085345
 80835e0:	080853a9 	.word	0x080853a9
 80835e4:	40010000 	.word	0x40010000
 80835e8:	40010400 	.word	0x40010400
 80835ec:	08085589 	.word	0x08085589

080835f0 <HAL_TIM_PWM_Stop_DMA>:
 80835f0:	b538      	push	{r3, r4, r5, lr}
 80835f2:	4605      	mov	r5, r0
 80835f4:	460c      	mov	r4, r1
 80835f6:	6803      	ldr	r3, [r0, #0]
 80835f8:	290c      	cmp	r1, #12
 80835fa:	d810      	bhi.n	808361e <HAL_TIM_PWM_Stop_DMA+0x2e>
 80835fc:	e8df f001 	tbb	[pc, r1]
 8083600:	0f0f0f42 	.word	0x0f0f0f42
 8083604:	0f0f0f54 	.word	0x0f0f0f54
 8083608:	0f0f0f4b 	.word	0x0f0f0f4b
 808360c:	07          	.byte	0x07
 808360d:	00          	.byte	0x00
 808360e:	68da      	ldr	r2, [r3, #12]
 8083610:	6b00      	ldr	r0, [r0, #48]	; 0x30
 8083612:	f422 5280 	bic.w	r2, r2, #4096	; 0x1000
 8083616:	60da      	str	r2, [r3, #12]
 8083618:	f7fe f978 	bl	808190c <HAL_DMA_Abort_IT>
 808361c:	682b      	ldr	r3, [r5, #0]
 808361e:	6a1a      	ldr	r2, [r3, #32]
 8083620:	4826      	ldr	r0, [pc, #152]	; (80836bc <HAL_TIM_PWM_Stop_DMA+0xcc>)
 8083622:	f004 041f 	and.w	r4, r4, #31
 8083626:	2101      	movs	r1, #1
 8083628:	fa01 f404 	lsl.w	r4, r1, r4
 808362c:	ea22 0404 	bic.w	r4, r2, r4
 8083630:	621c      	str	r4, [r3, #32]
 8083632:	6a1a      	ldr	r2, [r3, #32]
 8083634:	621a      	str	r2, [r3, #32]
 8083636:	4283      	cmp	r3, r0
 8083638:	d015      	beq.n	8083666 <HAL_TIM_PWM_Stop_DMA+0x76>
 808363a:	4a21      	ldr	r2, [pc, #132]	; (80836c0 <HAL_TIM_PWM_Stop_DMA+0xd0>)
 808363c:	4293      	cmp	r3, r2
 808363e:	d012      	beq.n	8083666 <HAL_TIM_PWM_Stop_DMA+0x76>
 8083640:	6a19      	ldr	r1, [r3, #32]
 8083642:	f241 1211 	movw	r2, #4369	; 0x1111
 8083646:	4211      	tst	r1, r2
 8083648:	d108      	bne.n	808365c <HAL_TIM_PWM_Stop_DMA+0x6c>
 808364a:	6a19      	ldr	r1, [r3, #32]
 808364c:	f240 4244 	movw	r2, #1092	; 0x444
 8083650:	4211      	tst	r1, r2
 8083652:	d103      	bne.n	808365c <HAL_TIM_PWM_Stop_DMA+0x6c>
 8083654:	681a      	ldr	r2, [r3, #0]
 8083656:	f022 0201 	bic.w	r2, r2, #1
 808365a:	601a      	str	r2, [r3, #0]
 808365c:	2301      	movs	r3, #1
 808365e:	f885 303d 	strb.w	r3, [r5, #61]	; 0x3d
 8083662:	2000      	movs	r0, #0
 8083664:	bd38      	pop	{r3, r4, r5, pc}
 8083666:	6a19      	ldr	r1, [r3, #32]
 8083668:	f241 1211 	movw	r2, #4369	; 0x1111
 808366c:	4211      	tst	r1, r2
 808366e:	d1e7      	bne.n	8083640 <HAL_TIM_PWM_Stop_DMA+0x50>
 8083670:	6a19      	ldr	r1, [r3, #32]
 8083672:	f240 4244 	movw	r2, #1092	; 0x444
 8083676:	4211      	tst	r1, r2
 8083678:	d1e2      	bne.n	8083640 <HAL_TIM_PWM_Stop_DMA+0x50>
 808367a:	6c5a      	ldr	r2, [r3, #68]	; 0x44
 808367c:	f422 4200 	bic.w	r2, r2, #32768	; 0x8000
 8083680:	645a      	str	r2, [r3, #68]	; 0x44
 8083682:	e7dd      	b.n	8083640 <HAL_TIM_PWM_Stop_DMA+0x50>
 8083684:	68da      	ldr	r2, [r3, #12]
 8083686:	6a40      	ldr	r0, [r0, #36]	; 0x24
 8083688:	f422 7200 	bic.w	r2, r2, #512	; 0x200
 808368c:	60da      	str	r2, [r3, #12]
 808368e:	f7fe f93d 	bl	808190c <HAL_DMA_Abort_IT>
 8083692:	682b      	ldr	r3, [r5, #0]
 8083694:	e7c3      	b.n	808361e <HAL_TIM_PWM_Stop_DMA+0x2e>
 8083696:	68da      	ldr	r2, [r3, #12]
 8083698:	6ac0      	ldr	r0, [r0, #44]	; 0x2c
 808369a:	f422 6200 	bic.w	r2, r2, #2048	; 0x800
 808369e:	60da      	str	r2, [r3, #12]
 80836a0:	f7fe f934 	bl	808190c <HAL_DMA_Abort_IT>
 80836a4:	682b      	ldr	r3, [r5, #0]
 80836a6:	e7ba      	b.n	808361e <HAL_TIM_PWM_Stop_DMA+0x2e>
 80836a8:	68da      	ldr	r2, [r3, #12]
 80836aa:	6a80      	ldr	r0, [r0, #40]	; 0x28
 80836ac:	f422 6280 	bic.w	r2, r2, #1024	; 0x400
 80836b0:	60da      	str	r2, [r3, #12]
 80836b2:	f7fe f92b 	bl	808190c <HAL_DMA_Abort_IT>
 80836b6:	682b      	ldr	r3, [r5, #0]
 80836b8:	e7b1      	b.n	808361e <HAL_TIM_PWM_Stop_DMA+0x2e>
 80836ba:	bf00      	nop
 80836bc:	40010000 	.word	0x40010000
 80836c0:	40010400 	.word	0x40010400

080836c4 <HAL_TIM_IC_MspInit>:
 80836c4:	4770      	bx	lr
 80836c6:	bf00      	nop

080836c8 <HAL_TIM_IC_Init>:
 80836c8:	2800      	cmp	r0, #0
 80836ca:	d05c      	beq.n	8083786 <HAL_TIM_IC_Init+0xbe>
 80836cc:	b5f8      	push	{r3, r4, r5, r6, r7, lr}
 80836ce:	f890 303d 	ldrb.w	r3, [r0, #61]	; 0x3d
 80836d2:	4604      	mov	r4, r0
 80836d4:	f003 02ff 	and.w	r2, r3, #255	; 0xff
 80836d8:	b3bb      	cbz	r3, 808374a <HAL_TIM_IC_Init+0x82>
 80836da:	6822      	ldr	r2, [r4, #0]
 80836dc:	4e3a      	ldr	r6, [pc, #232]	; (80837c8 <HAL_TIM_IC_Init+0x100>)
 80836de:	69a5      	ldr	r5, [r4, #24]
 80836e0:	68e0      	ldr	r0, [r4, #12]
 80836e2:	6861      	ldr	r1, [r4, #4]
 80836e4:	2302      	movs	r3, #2
 80836e6:	f884 303d 	strb.w	r3, [r4, #61]	; 0x3d
 80836ea:	42b2      	cmp	r2, r6
 80836ec:	6813      	ldr	r3, [r2, #0]
 80836ee:	d04c      	beq.n	808378a <HAL_TIM_IC_Init+0xc2>
 80836f0:	f1b2 4f80 	cmp.w	r2, #1073741824	; 0x40000000
 80836f4:	d058      	beq.n	80837a8 <HAL_TIM_IC_Init+0xe0>
 80836f6:	f5a6 467c 	sub.w	r6, r6, #64512	; 0xfc00
 80836fa:	42b2      	cmp	r2, r6
 80836fc:	d02a      	beq.n	8083754 <HAL_TIM_IC_Init+0x8c>
 80836fe:	f506 6680 	add.w	r6, r6, #1024	; 0x400
 8083702:	42b2      	cmp	r2, r6
 8083704:	d026      	beq.n	8083754 <HAL_TIM_IC_Init+0x8c>
 8083706:	f506 6680 	add.w	r6, r6, #1024	; 0x400
 808370a:	42b2      	cmp	r2, r6
 808370c:	d022      	beq.n	8083754 <HAL_TIM_IC_Init+0x8c>
 808370e:	f506 4678 	add.w	r6, r6, #63488	; 0xf800
 8083712:	42b2      	cmp	r2, r6
 8083714:	d01e      	beq.n	8083754 <HAL_TIM_IC_Init+0x8c>
 8083716:	f506 5670 	add.w	r6, r6, #15360	; 0x3c00
 808371a:	42b2      	cmp	r2, r6
 808371c:	d013      	beq.n	8083746 <HAL_TIM_IC_Init+0x7e>
 808371e:	f506 6680 	add.w	r6, r6, #1024	; 0x400
 8083722:	42b2      	cmp	r2, r6
 8083724:	d00f      	beq.n	8083746 <HAL_TIM_IC_Init+0x7e>
 8083726:	f506 6680 	add.w	r6, r6, #1024	; 0x400
 808372a:	42b2      	cmp	r2, r6
 808372c:	d00b      	beq.n	8083746 <HAL_TIM_IC_Init+0x7e>
 808372e:	f5a6 3698 	sub.w	r6, r6, #77824	; 0x13000
 8083732:	42b2      	cmp	r2, r6
 8083734:	d007      	beq.n	8083746 <HAL_TIM_IC_Init+0x7e>
 8083736:	f506 6680 	add.w	r6, r6, #1024	; 0x400
 808373a:	42b2      	cmp	r2, r6
 808373c:	d003      	beq.n	8083746 <HAL_TIM_IC_Init+0x7e>
 808373e:	f506 6680 	add.w	r6, r6, #1024	; 0x400
 8083742:	42b2      	cmp	r2, r6
 8083744:	d138      	bne.n	80837b8 <HAL_TIM_IC_Init+0xf0>
 8083746:	6926      	ldr	r6, [r4, #16]
 8083748:	e033      	b.n	80837b2 <HAL_TIM_IC_Init+0xea>
 808374a:	f880 203c 	strb.w	r2, [r0, #60]	; 0x3c
 808374e:	f7ff ffb9 	bl	80836c4 <HAL_TIM_IC_MspInit>
 8083752:	e7c2      	b.n	80836da <HAL_TIM_IC_Init+0x12>
 8083754:	68a6      	ldr	r6, [r4, #8]
 8083756:	4f1d      	ldr	r7, [pc, #116]	; (80837cc <HAL_TIM_IC_Init+0x104>)
 8083758:	f023 0370 	bic.w	r3, r3, #112	; 0x70
 808375c:	4333      	orrs	r3, r6
 808375e:	6926      	ldr	r6, [r4, #16]
 8083760:	f423 7340 	bic.w	r3, r3, #768	; 0x300
 8083764:	4333      	orrs	r3, r6
 8083766:	f023 0380 	bic.w	r3, r3, #128	; 0x80
 808376a:	432b      	orrs	r3, r5
 808376c:	42ba      	cmp	r2, r7
 808376e:	6013      	str	r3, [r2, #0]
 8083770:	62d0      	str	r0, [r2, #44]	; 0x2c
 8083772:	6291      	str	r1, [r2, #40]	; 0x28
 8083774:	d101      	bne.n	808377a <HAL_TIM_IC_Init+0xb2>
 8083776:	6963      	ldr	r3, [r4, #20]
 8083778:	6313      	str	r3, [r2, #48]	; 0x30
 808377a:	2301      	movs	r3, #1
 808377c:	6153      	str	r3, [r2, #20]
 808377e:	2000      	movs	r0, #0
 8083780:	f884 303d 	strb.w	r3, [r4, #61]	; 0x3d
 8083784:	bdf8      	pop	{r3, r4, r5, r6, r7, pc}
 8083786:	2001      	movs	r0, #1
 8083788:	4770      	bx	lr
 808378a:	68a7      	ldr	r7, [r4, #8]
 808378c:	6926      	ldr	r6, [r4, #16]
 808378e:	f023 0370 	bic.w	r3, r3, #112	; 0x70
 8083792:	433b      	orrs	r3, r7
 8083794:	f423 7340 	bic.w	r3, r3, #768	; 0x300
 8083798:	4333      	orrs	r3, r6
 808379a:	f023 0380 	bic.w	r3, r3, #128	; 0x80
 808379e:	432b      	orrs	r3, r5
 80837a0:	6013      	str	r3, [r2, #0]
 80837a2:	62d0      	str	r0, [r2, #44]	; 0x2c
 80837a4:	6291      	str	r1, [r2, #40]	; 0x28
 80837a6:	e7e6      	b.n	8083776 <HAL_TIM_IC_Init+0xae>
 80837a8:	68a7      	ldr	r7, [r4, #8]
 80837aa:	6926      	ldr	r6, [r4, #16]
 80837ac:	f023 0370 	bic.w	r3, r3, #112	; 0x70
 80837b0:	433b      	orrs	r3, r7
 80837b2:	f423 7340 	bic.w	r3, r3, #768	; 0x300
 80837b6:	4333      	orrs	r3, r6
 80837b8:	f023 0380 	bic.w	r3, r3, #128	; 0x80
 80837bc:	432b      	orrs	r3, r5
 80837be:	6013      	str	r3, [r2, #0]
 80837c0:	62d0      	str	r0, [r2, #44]	; 0x2c
 80837c2:	6291      	str	r1, [r2, #40]	; 0x28
 80837c4:	e7d9      	b.n	808377a <HAL_TIM_IC_Init+0xb2>
 80837c6:	bf00      	nop
 80837c8:	40010000 	.word	0x40010000
 80837cc:	40010400 	.word	0x40010400

080837d0 <HAL_TIM_IC_MspDeInit>:
 80837d0:	4770      	bx	lr
 80837d2:	bf00      	nop

080837d4 <HAL_TIM_IC_DeInit>:
 80837d4:	2202      	movs	r2, #2
 80837d6:	6803      	ldr	r3, [r0, #0]
 80837d8:	b510      	push	{r4, lr}
 80837da:	f880 203d 	strb.w	r2, [r0, #61]	; 0x3d
 80837de:	6a19      	ldr	r1, [r3, #32]
 80837e0:	f241 1211 	movw	r2, #4369	; 0x1111
 80837e4:	4211      	tst	r1, r2
 80837e6:	4604      	mov	r4, r0
 80837e8:	d108      	bne.n	80837fc <HAL_TIM_IC_DeInit+0x28>
 80837ea:	6a19      	ldr	r1, [r3, #32]
 80837ec:	f240 4244 	movw	r2, #1092	; 0x444
 80837f0:	4211      	tst	r1, r2
 80837f2:	d103      	bne.n	80837fc <HAL_TIM_IC_DeInit+0x28>
 80837f4:	681a      	ldr	r2, [r3, #0]
 80837f6:	f022 0201 	bic.w	r2, r2, #1
 80837fa:	601a      	str	r2, [r3, #0]
 80837fc:	4620      	mov	r0, r4
 80837fe:	f7ff ffe7 	bl	80837d0 <HAL_TIM_IC_MspDeInit>
 8083802:	2000      	movs	r0, #0
 8083804:	f884 003d 	strb.w	r0, [r4, #61]	; 0x3d
 8083808:	f884 003c 	strb.w	r0, [r4, #60]	; 0x3c
 808380c:	bd10      	pop	{r4, pc}
 808380e:	bf00      	nop

08083810 <HAL_TIM_IC_Start>:
 8083810:	6803      	ldr	r3, [r0, #0]
 8083812:	2201      	movs	r2, #1
 8083814:	6a18      	ldr	r0, [r3, #32]
 8083816:	f001 011f 	and.w	r1, r1, #31
 808381a:	fa02 f101 	lsl.w	r1, r2, r1
 808381e:	ea20 0001 	bic.w	r0, r0, r1
 8083822:	6218      	str	r0, [r3, #32]
 8083824:	6a1a      	ldr	r2, [r3, #32]
 8083826:	4311      	orrs	r1, r2
 8083828:	6219      	str	r1, [r3, #32]
 808382a:	689a      	ldr	r2, [r3, #8]
 808382c:	f002 0207 	and.w	r2, r2, #7
 8083830:	2a06      	cmp	r2, #6
 8083832:	d003      	beq.n	808383c <HAL_TIM_IC_Start+0x2c>
 8083834:	681a      	ldr	r2, [r3, #0]
 8083836:	f042 0201 	orr.w	r2, r2, #1
 808383a:	601a      	str	r2, [r3, #0]
 808383c:	2000      	movs	r0, #0
 808383e:	4770      	bx	lr

08083840 <HAL_TIM_IC_Stop>:
 8083840:	6803      	ldr	r3, [r0, #0]
 8083842:	f001 001f 	and.w	r0, r1, #31
 8083846:	6a1a      	ldr	r2, [r3, #32]
 8083848:	2101      	movs	r1, #1
 808384a:	4081      	lsls	r1, r0
 808384c:	ea22 0101 	bic.w	r1, r2, r1
 8083850:	6219      	str	r1, [r3, #32]
 8083852:	6a1a      	ldr	r2, [r3, #32]
 8083854:	621a      	str	r2, [r3, #32]
 8083856:	6a19      	ldr	r1, [r3, #32]
 8083858:	f241 1211 	movw	r2, #4369	; 0x1111
 808385c:	4211      	tst	r1, r2
 808385e:	d108      	bne.n	8083872 <HAL_TIM_IC_Stop+0x32>
 8083860:	6a19      	ldr	r1, [r3, #32]
 8083862:	f240 4244 	movw	r2, #1092	; 0x444
 8083866:	4211      	tst	r1, r2
 8083868:	d103      	bne.n	8083872 <HAL_TIM_IC_Stop+0x32>
 808386a:	681a      	ldr	r2, [r3, #0]
 808386c:	f022 0201 	bic.w	r2, r2, #1
 8083870:	601a      	str	r2, [r3, #0]
 8083872:	2000      	movs	r0, #0
 8083874:	4770      	bx	lr
 8083876:	bf00      	nop

08083878 <HAL_TIM_IC_Start_IT>:
 8083878:	6803      	ldr	r3, [r0, #0]
 808387a:	290c      	cmp	r1, #12
 808387c:	d80c      	bhi.n	8083898 <HAL_TIM_IC_Start_IT+0x20>
 808387e:	e8df f001 	tbb	[pc, r1]
 8083882:	0b07      	.short	0x0b07
 8083884:	0b2b0b0b 	.word	0x0b2b0b0b
 8083888:	0b260b0b 	.word	0x0b260b0b
 808388c:	0b0b      	.short	0x0b0b
 808388e:	21          	.byte	0x21
 808388f:	00          	.byte	0x00
 8083890:	68da      	ldr	r2, [r3, #12]
 8083892:	f042 0202 	orr.w	r2, r2, #2
 8083896:	60da      	str	r2, [r3, #12]
 8083898:	6a18      	ldr	r0, [r3, #32]
 808389a:	f001 021f 	and.w	r2, r1, #31
 808389e:	2101      	movs	r1, #1
 80838a0:	4091      	lsls	r1, r2
 80838a2:	ea20 0001 	bic.w	r0, r0, r1
 80838a6:	6218      	str	r0, [r3, #32]
 80838a8:	6a1a      	ldr	r2, [r3, #32]
 80838aa:	4311      	orrs	r1, r2
 80838ac:	6219      	str	r1, [r3, #32]
 80838ae:	689a      	ldr	r2, [r3, #8]
 80838b0:	f002 0207 	and.w	r2, r2, #7
 80838b4:	2a06      	cmp	r2, #6
 80838b6:	d003      	beq.n	80838c0 <HAL_TIM_IC_Start_IT+0x48>
 80838b8:	681a      	ldr	r2, [r3, #0]
 80838ba:	f042 0201 	orr.w	r2, r2, #1
 80838be:	601a      	str	r2, [r3, #0]
 80838c0:	2000      	movs	r0, #0
 80838c2:	4770      	bx	lr
 80838c4:	68da      	ldr	r2, [r3, #12]
 80838c6:	f042 0210 	orr.w	r2, r2, #16
 80838ca:	60da      	str	r2, [r3, #12]
 80838cc:	e7e4      	b.n	8083898 <HAL_TIM_IC_Start_IT+0x20>
 80838ce:	68da      	ldr	r2, [r3, #12]
 80838d0:	f042 0208 	orr.w	r2, r2, #8
 80838d4:	60da      	str	r2, [r3, #12]
 80838d6:	e7df      	b.n	8083898 <HAL_TIM_IC_Start_IT+0x20>
 80838d8:	68da      	ldr	r2, [r3, #12]
 80838da:	f042 0204 	orr.w	r2, r2, #4
 80838de:	60da      	str	r2, [r3, #12]
 80838e0:	e7da      	b.n	8083898 <HAL_TIM_IC_Start_IT+0x20>
 80838e2:	bf00      	nop

080838e4 <HAL_TIM_IC_Stop_IT>:
 80838e4:	6803      	ldr	r3, [r0, #0]
 80838e6:	290c      	cmp	r1, #12
 80838e8:	d80c      	bhi.n	8083904 <HAL_TIM_IC_Stop_IT+0x20>
 80838ea:	e8df f001 	tbb	[pc, r1]
 80838ee:	0b07      	.short	0x0b07
 80838f0:	0b300b0b 	.word	0x0b300b0b
 80838f4:	0b2b0b0b 	.word	0x0b2b0b0b
 80838f8:	0b0b      	.short	0x0b0b
 80838fa:	26          	.byte	0x26
 80838fb:	00          	.byte	0x00
 80838fc:	68da      	ldr	r2, [r3, #12]
 80838fe:	f022 0202 	bic.w	r2, r2, #2
 8083902:	60da      	str	r2, [r3, #12]
 8083904:	6a1a      	ldr	r2, [r3, #32]
 8083906:	f001 011f 	and.w	r1, r1, #31
 808390a:	2001      	movs	r0, #1
 808390c:	fa00 f101 	lsl.w	r1, r0, r1
 8083910:	ea22 0101 	bic.w	r1, r2, r1
 8083914:	6219      	str	r1, [r3, #32]
 8083916:	6a1a      	ldr	r2, [r3, #32]
 8083918:	621a      	str	r2, [r3, #32]
 808391a:	6a19      	ldr	r1, [r3, #32]
 808391c:	f241 1211 	movw	r2, #4369	; 0x1111
 8083920:	4211      	tst	r1, r2
 8083922:	d108      	bne.n	8083936 <HAL_TIM_IC_Stop_IT+0x52>
 8083924:	6a19      	ldr	r1, [r3, #32]
 8083926:	f240 4244 	movw	r2, #1092	; 0x444
 808392a:	4211      	tst	r1, r2
 808392c:	d103      	bne.n	8083936 <HAL_TIM_IC_Stop_IT+0x52>
 808392e:	681a      	ldr	r2, [r3, #0]
 8083930:	f022 0201 	bic.w	r2, r2, #1
 8083934:	601a      	str	r2, [r3, #0]
 8083936:	2000      	movs	r0, #0
 8083938:	4770      	bx	lr
 808393a:	68da      	ldr	r2, [r3, #12]
 808393c:	f022 0210 	bic.w	r2, r2, #16
 8083940:	60da      	str	r2, [r3, #12]
 8083942:	e7df      	b.n	8083904 <HAL_TIM_IC_Stop_IT+0x20>
 8083944:	68da      	ldr	r2, [r3, #12]
 8083946:	f022 0208 	bic.w	r2, r2, #8
 808394a:	60da      	str	r2, [r3, #12]
 808394c:	e7da      	b.n	8083904 <HAL_TIM_IC_Stop_IT+0x20>
 808394e:	68da      	ldr	r2, [r3, #12]
 8083950:	f022 0204 	bic.w	r2, r2, #4
 8083954:	60da      	str	r2, [r3, #12]
 8083956:	e7d5      	b.n	8083904 <HAL_TIM_IC_Stop_IT+0x20>

08083958 <HAL_TIM_IC_Start_DMA>:
 8083958:	b5f8      	push	{r3, r4, r5, r6, r7, lr}
 808395a:	f890 403d 	ldrb.w	r4, [r0, #61]	; 0x3d
 808395e:	b2e4      	uxtb	r4, r4
 8083960:	2c02      	cmp	r4, #2
 8083962:	d077      	beq.n	8083a54 <HAL_TIM_IC_Start_DMA+0xfc>
 8083964:	f890 403d 	ldrb.w	r4, [r0, #61]	; 0x3d
 8083968:	2c01      	cmp	r4, #1
 808396a:	d035      	beq.n	80839d8 <HAL_TIM_IC_Start_DMA+0x80>
 808396c:	460d      	mov	r5, r1
 808396e:	4604      	mov	r4, r0
 8083970:	6801      	ldr	r1, [r0, #0]
 8083972:	2d0c      	cmp	r5, #12
 8083974:	d819      	bhi.n	80839aa <HAL_TIM_IC_Start_DMA+0x52>
 8083976:	e8df f005 	tbb	[pc, r5]
 808397a:	1807      	.short	0x1807
 808397c:	18471818 	.word	0x18471818
 8083980:	18581818 	.word	0x18581818
 8083984:	1818      	.short	0x1818
 8083986:	35          	.byte	0x35
 8083987:	00          	.byte	0x00
 8083988:	6a60      	ldr	r0, [r4, #36]	; 0x24
 808398a:	4e34      	ldr	r6, [pc, #208]	; (8083a5c <HAL_TIM_IC_Start_DMA+0x104>)
 808398c:	4f34      	ldr	r7, [pc, #208]	; (8083a60 <HAL_TIM_IC_Start_DMA+0x108>)
 808398e:	63c6      	str	r6, [r0, #60]	; 0x3c
 8083990:	4e34      	ldr	r6, [pc, #208]	; (8083a64 <HAL_TIM_IC_Start_DMA+0x10c>)
 8083992:	6407      	str	r7, [r0, #64]	; 0x40
 8083994:	3134      	adds	r1, #52	; 0x34
 8083996:	64c6      	str	r6, [r0, #76]	; 0x4c
 8083998:	f7fd ff2e 	bl	80817f8 <HAL_DMA_Start_IT>
 808399c:	2800      	cmp	r0, #0
 808399e:	d157      	bne.n	8083a50 <HAL_TIM_IC_Start_DMA+0xf8>
 80839a0:	6821      	ldr	r1, [r4, #0]
 80839a2:	68cb      	ldr	r3, [r1, #12]
 80839a4:	f443 7300 	orr.w	r3, r3, #512	; 0x200
 80839a8:	60cb      	str	r3, [r1, #12]
 80839aa:	6a0a      	ldr	r2, [r1, #32]
 80839ac:	2301      	movs	r3, #1
 80839ae:	f005 051f 	and.w	r5, r5, #31
 80839b2:	fa03 f505 	lsl.w	r5, r3, r5
 80839b6:	ea22 0205 	bic.w	r2, r2, r5
 80839ba:	620a      	str	r2, [r1, #32]
 80839bc:	6a0b      	ldr	r3, [r1, #32]
 80839be:	431d      	orrs	r5, r3
 80839c0:	620d      	str	r5, [r1, #32]
 80839c2:	688b      	ldr	r3, [r1, #8]
 80839c4:	f003 0307 	and.w	r3, r3, #7
 80839c8:	2b06      	cmp	r3, #6
 80839ca:	d045      	beq.n	8083a58 <HAL_TIM_IC_Start_DMA+0x100>
 80839cc:	680b      	ldr	r3, [r1, #0]
 80839ce:	f043 0301 	orr.w	r3, r3, #1
 80839d2:	600b      	str	r3, [r1, #0]
 80839d4:	2000      	movs	r0, #0
 80839d6:	bdf8      	pop	{r3, r4, r5, r6, r7, pc}
 80839d8:	2a00      	cmp	r2, #0
 80839da:	d037      	beq.n	8083a4c <HAL_TIM_IC_Start_DMA+0xf4>
 80839dc:	2402      	movs	r4, #2
 80839de:	f880 403d 	strb.w	r4, [r0, #61]	; 0x3d
 80839e2:	e7c3      	b.n	808396c <HAL_TIM_IC_Start_DMA+0x14>
 80839e4:	6b20      	ldr	r0, [r4, #48]	; 0x30
 80839e6:	4e1d      	ldr	r6, [pc, #116]	; (8083a5c <HAL_TIM_IC_Start_DMA+0x104>)
 80839e8:	4f1d      	ldr	r7, [pc, #116]	; (8083a60 <HAL_TIM_IC_Start_DMA+0x108>)
 80839ea:	63c6      	str	r6, [r0, #60]	; 0x3c
 80839ec:	4e1d      	ldr	r6, [pc, #116]	; (8083a64 <HAL_TIM_IC_Start_DMA+0x10c>)
 80839ee:	6407      	str	r7, [r0, #64]	; 0x40
 80839f0:	3140      	adds	r1, #64	; 0x40
 80839f2:	64c6      	str	r6, [r0, #76]	; 0x4c
 80839f4:	f7fd ff00 	bl	80817f8 <HAL_DMA_Start_IT>
 80839f8:	2800      	cmp	r0, #0
 80839fa:	d129      	bne.n	8083a50 <HAL_TIM_IC_Start_DMA+0xf8>
 80839fc:	6821      	ldr	r1, [r4, #0]
 80839fe:	68cb      	ldr	r3, [r1, #12]
 8083a00:	f443 5380 	orr.w	r3, r3, #4096	; 0x1000
 8083a04:	60cb      	str	r3, [r1, #12]
 8083a06:	e7d0      	b.n	80839aa <HAL_TIM_IC_Start_DMA+0x52>
 8083a08:	6aa0      	ldr	r0, [r4, #40]	; 0x28
 8083a0a:	4e14      	ldr	r6, [pc, #80]	; (8083a5c <HAL_TIM_IC_Start_DMA+0x104>)
 8083a0c:	4f14      	ldr	r7, [pc, #80]	; (8083a60 <HAL_TIM_IC_Start_DMA+0x108>)
 8083a0e:	63c6      	str	r6, [r0, #60]	; 0x3c
 8083a10:	4e14      	ldr	r6, [pc, #80]	; (8083a64 <HAL_TIM_IC_Start_DMA+0x10c>)
 8083a12:	6407      	str	r7, [r0, #64]	; 0x40
 8083a14:	3138      	adds	r1, #56	; 0x38
 8083a16:	64c6      	str	r6, [r0, #76]	; 0x4c
 8083a18:	f7fd feee 	bl	80817f8 <HAL_DMA_Start_IT>
 8083a1c:	b9c0      	cbnz	r0, 8083a50 <HAL_TIM_IC_Start_DMA+0xf8>
 8083a1e:	6821      	ldr	r1, [r4, #0]
 8083a20:	68cb      	ldr	r3, [r1, #12]
 8083a22:	f443 6380 	orr.w	r3, r3, #1024	; 0x400
 8083a26:	60cb      	str	r3, [r1, #12]
 8083a28:	e7bf      	b.n	80839aa <HAL_TIM_IC_Start_DMA+0x52>
 8083a2a:	6ae0      	ldr	r0, [r4, #44]	; 0x2c
 8083a2c:	4e0b      	ldr	r6, [pc, #44]	; (8083a5c <HAL_TIM_IC_Start_DMA+0x104>)
 8083a2e:	4f0c      	ldr	r7, [pc, #48]	; (8083a60 <HAL_TIM_IC_Start_DMA+0x108>)
 8083a30:	63c6      	str	r6, [r0, #60]	; 0x3c
 8083a32:	4e0c      	ldr	r6, [pc, #48]	; (8083a64 <HAL_TIM_IC_Start_DMA+0x10c>)
 8083a34:	6407      	str	r7, [r0, #64]	; 0x40
 8083a36:	313c      	adds	r1, #60	; 0x3c
 8083a38:	64c6      	str	r6, [r0, #76]	; 0x4c
 8083a3a:	f7fd fedd 	bl	80817f8 <HAL_DMA_Start_IT>
 8083a3e:	b938      	cbnz	r0, 8083a50 <HAL_TIM_IC_Start_DMA+0xf8>
 8083a40:	6821      	ldr	r1, [r4, #0]
 8083a42:	68cb      	ldr	r3, [r1, #12]
 8083a44:	f443 6300 	orr.w	r3, r3, #2048	; 0x800
 8083a48:	60cb      	str	r3, [r1, #12]
 8083a4a:	e7ae      	b.n	80839aa <HAL_TIM_IC_Start_DMA+0x52>
 8083a4c:	2b00      	cmp	r3, #0
 8083a4e:	d0c5      	beq.n	80839dc <HAL_TIM_IC_Start_DMA+0x84>
 8083a50:	2001      	movs	r0, #1
 8083a52:	bdf8      	pop	{r3, r4, r5, r6, r7, pc}
 8083a54:	4620      	mov	r0, r4
 8083a56:	bdf8      	pop	{r3, r4, r5, r6, r7, pc}
 8083a58:	2000      	movs	r0, #0
 8083a5a:	bdf8      	pop	{r3, r4, r5, r6, r7, pc}
 8083a5c:	0808527d 	.word	0x0808527d
 8083a60:	080852e1 	.word	0x080852e1
 8083a64:	08085589 	.word	0x08085589

08083a68 <HAL_TIM_IC_Stop_DMA>:
 8083a68:	b538      	push	{r3, r4, r5, lr}
 8083a6a:	4605      	mov	r5, r0
 8083a6c:	460c      	mov	r4, r1
 8083a6e:	6803      	ldr	r3, [r0, #0]
 8083a70:	290c      	cmp	r1, #12
 8083a72:	d810      	bhi.n	8083a96 <HAL_TIM_IC_Stop_DMA+0x2e>
 8083a74:	e8df f001 	tbb	[pc, r1]
 8083a78:	0f0f0f07 	.word	0x0f0f0f07
 8083a7c:	0f0f0f3f 	.word	0x0f0f0f3f
 8083a80:	0f0f0f36 	.word	0x0f0f0f36
 8083a84:	2d          	.byte	0x2d
 8083a85:	00          	.byte	0x00
 8083a86:	68da      	ldr	r2, [r3, #12]
 8083a88:	6a40      	ldr	r0, [r0, #36]	; 0x24
 8083a8a:	f422 7200 	bic.w	r2, r2, #512	; 0x200
 8083a8e:	60da      	str	r2, [r3, #12]
 8083a90:	f7fd ff3c 	bl	808190c <HAL_DMA_Abort_IT>
 8083a94:	682b      	ldr	r3, [r5, #0]
 8083a96:	6a1a      	ldr	r2, [r3, #32]
 8083a98:	2101      	movs	r1, #1
 8083a9a:	f004 041f 	and.w	r4, r4, #31
 8083a9e:	fa01 f404 	lsl.w	r4, r1, r4
 8083aa2:	ea22 0404 	bic.w	r4, r2, r4
 8083aa6:	621c      	str	r4, [r3, #32]
 8083aa8:	6a1a      	ldr	r2, [r3, #32]
 8083aaa:	621a      	str	r2, [r3, #32]
 8083aac:	6a19      	ldr	r1, [r3, #32]
 8083aae:	f241 1211 	movw	r2, #4369	; 0x1111
 8083ab2:	4211      	tst	r1, r2
 8083ab4:	d108      	bne.n	8083ac8 <HAL_TIM_IC_Stop_DMA+0x60>
 8083ab6:	6a19      	ldr	r1, [r3, #32]
 8083ab8:	f240 4244 	movw	r2, #1092	; 0x444
 8083abc:	4211      	tst	r1, r2
 8083abe:	d103      	bne.n	8083ac8 <HAL_TIM_IC_Stop_DMA+0x60>
 8083ac0:	681a      	ldr	r2, [r3, #0]
 8083ac2:	f022 0201 	bic.w	r2, r2, #1
 8083ac6:	601a      	str	r2, [r3, #0]
 8083ac8:	2301      	movs	r3, #1
 8083aca:	f885 303d 	strb.w	r3, [r5, #61]	; 0x3d
 8083ace:	2000      	movs	r0, #0
 8083ad0:	bd38      	pop	{r3, r4, r5, pc}
 8083ad2:	68da      	ldr	r2, [r3, #12]
 8083ad4:	6b00      	ldr	r0, [r0, #48]	; 0x30
 8083ad6:	f422 5280 	bic.w	r2, r2, #4096	; 0x1000
 8083ada:	60da      	str	r2, [r3, #12]
 8083adc:	f7fd ff16 	bl	808190c <HAL_DMA_Abort_IT>
 8083ae0:	682b      	ldr	r3, [r5, #0]
 8083ae2:	e7d8      	b.n	8083a96 <HAL_TIM_IC_Stop_DMA+0x2e>
 8083ae4:	68da      	ldr	r2, [r3, #12]
 8083ae6:	6ac0      	ldr	r0, [r0, #44]	; 0x2c
 8083ae8:	f422 6200 	bic.w	r2, r2, #2048	; 0x800
 8083aec:	60da      	str	r2, [r3, #12]
 8083aee:	f7fd ff0d 	bl	808190c <HAL_DMA_Abort_IT>
 8083af2:	682b      	ldr	r3, [r5, #0]
 8083af4:	e7cf      	b.n	8083a96 <HAL_TIM_IC_Stop_DMA+0x2e>
 8083af6:	68da      	ldr	r2, [r3, #12]
 8083af8:	6a80      	ldr	r0, [r0, #40]	; 0x28
 8083afa:	f422 6280 	bic.w	r2, r2, #1024	; 0x400
 8083afe:	60da      	str	r2, [r3, #12]
 8083b00:	f7fd ff04 	bl	808190c <HAL_DMA_Abort_IT>
 8083b04:	682b      	ldr	r3, [r5, #0]
 8083b06:	e7c6      	b.n	8083a96 <HAL_TIM_IC_Stop_DMA+0x2e>

08083b08 <HAL_TIM_OnePulse_MspInit>:
 8083b08:	4770      	bx	lr
 8083b0a:	bf00      	nop

08083b0c <HAL_TIM_OnePulse_Init>:
 8083b0c:	2800      	cmp	r0, #0
 8083b0e:	d066      	beq.n	8083bde <HAL_TIM_OnePulse_Init+0xd2>
 8083b10:	b5f8      	push	{r3, r4, r5, r6, r7, lr}
 8083b12:	f890 303d 	ldrb.w	r3, [r0, #61]	; 0x3d
 8083b16:	4604      	mov	r4, r0
 8083b18:	460d      	mov	r5, r1
 8083b1a:	f003 02ff 	and.w	r2, r3, #255	; 0xff
 8083b1e:	b3c3      	cbz	r3, 8083b92 <HAL_TIM_OnePulse_Init+0x86>
 8083b20:	6823      	ldr	r3, [r4, #0]
 8083b22:	4e40      	ldr	r6, [pc, #256]	; (8083c24 <HAL_TIM_OnePulse_Init+0x118>)
 8083b24:	f8d4 c018 	ldr.w	ip, [r4, #24]
 8083b28:	68e0      	ldr	r0, [r4, #12]
 8083b2a:	6861      	ldr	r1, [r4, #4]
 8083b2c:	2202      	movs	r2, #2
 8083b2e:	f884 203d 	strb.w	r2, [r4, #61]	; 0x3d
 8083b32:	42b3      	cmp	r3, r6
 8083b34:	681a      	ldr	r2, [r3, #0]
 8083b36:	d054      	beq.n	8083be2 <HAL_TIM_OnePulse_Init+0xd6>
 8083b38:	f1b3 4f80 	cmp.w	r3, #1073741824	; 0x40000000
 8083b3c:	d061      	beq.n	8083c02 <HAL_TIM_OnePulse_Init+0xf6>
 8083b3e:	f5a6 467c 	sub.w	r6, r6, #64512	; 0xfc00
 8083b42:	42b3      	cmp	r3, r6
 8083b44:	d02a      	beq.n	8083b9c <HAL_TIM_OnePulse_Init+0x90>
 8083b46:	f506 6680 	add.w	r6, r6, #1024	; 0x400
 8083b4a:	42b3      	cmp	r3, r6
 8083b4c:	d026      	beq.n	8083b9c <HAL_TIM_OnePulse_Init+0x90>
 8083b4e:	f506 6680 	add.w	r6, r6, #1024	; 0x400
 8083b52:	42b3      	cmp	r3, r6
 8083b54:	d022      	beq.n	8083b9c <HAL_TIM_OnePulse_Init+0x90>
 8083b56:	f506 4678 	add.w	r6, r6, #63488	; 0xf800
 8083b5a:	42b3      	cmp	r3, r6
 8083b5c:	d01e      	beq.n	8083b9c <HAL_TIM_OnePulse_Init+0x90>
 8083b5e:	f506 5670 	add.w	r6, r6, #15360	; 0x3c00
 8083b62:	42b3      	cmp	r3, r6
 8083b64:	d013      	beq.n	8083b8e <HAL_TIM_OnePulse_Init+0x82>
 8083b66:	f506 6680 	add.w	r6, r6, #1024	; 0x400
 8083b6a:	42b3      	cmp	r3, r6
 8083b6c:	d00f      	beq.n	8083b8e <HAL_TIM_OnePulse_Init+0x82>
 8083b6e:	f506 6680 	add.w	r6, r6, #1024	; 0x400
 8083b72:	42b3      	cmp	r3, r6
 8083b74:	d00b      	beq.n	8083b8e <HAL_TIM_OnePulse_Init+0x82>
 8083b76:	f5a6 3698 	sub.w	r6, r6, #77824	; 0x13000
 8083b7a:	42b3      	cmp	r3, r6
 8083b7c:	d007      	beq.n	8083b8e <HAL_TIM_OnePulse_Init+0x82>
 8083b7e:	f506 6680 	add.w	r6, r6, #1024	; 0x400
 8083b82:	42b3      	cmp	r3, r6
 8083b84:	d003      	beq.n	8083b8e <HAL_TIM_OnePulse_Init+0x82>
 8083b86:	f506 6680 	add.w	r6, r6, #1024	; 0x400
 8083b8a:	42b3      	cmp	r3, r6
 8083b8c:	d141      	bne.n	8083c12 <HAL_TIM_OnePulse_Init+0x106>
 8083b8e:	6926      	ldr	r6, [r4, #16]
 8083b90:	e03c      	b.n	8083c0c <HAL_TIM_OnePulse_Init+0x100>
 8083b92:	f880 203c 	strb.w	r2, [r0, #60]	; 0x3c
 8083b96:	f7ff ffb7 	bl	8083b08 <HAL_TIM_OnePulse_MspInit>
 8083b9a:	e7c1      	b.n	8083b20 <HAL_TIM_OnePulse_Init+0x14>
 8083b9c:	68a6      	ldr	r6, [r4, #8]
 8083b9e:	4f22      	ldr	r7, [pc, #136]	; (8083c28 <HAL_TIM_OnePulse_Init+0x11c>)
 8083ba0:	f022 0270 	bic.w	r2, r2, #112	; 0x70
 8083ba4:	4332      	orrs	r2, r6
 8083ba6:	6926      	ldr	r6, [r4, #16]
 8083ba8:	f422 7240 	bic.w	r2, r2, #768	; 0x300
 8083bac:	4332      	orrs	r2, r6
 8083bae:	f022 0280 	bic.w	r2, r2, #128	; 0x80
 8083bb2:	ea42 020c 	orr.w	r2, r2, ip
 8083bb6:	42bb      	cmp	r3, r7
 8083bb8:	601a      	str	r2, [r3, #0]
 8083bba:	62d8      	str	r0, [r3, #44]	; 0x2c
 8083bbc:	6299      	str	r1, [r3, #40]	; 0x28
 8083bbe:	d101      	bne.n	8083bc4 <HAL_TIM_OnePulse_Init+0xb8>
 8083bc0:	6962      	ldr	r2, [r4, #20]
 8083bc2:	631a      	str	r2, [r3, #48]	; 0x30
 8083bc4:	2601      	movs	r6, #1
 8083bc6:	615e      	str	r6, [r3, #20]
 8083bc8:	681a      	ldr	r2, [r3, #0]
 8083bca:	f022 0208 	bic.w	r2, r2, #8
 8083bce:	601a      	str	r2, [r3, #0]
 8083bd0:	6819      	ldr	r1, [r3, #0]
 8083bd2:	430d      	orrs	r5, r1
 8083bd4:	601d      	str	r5, [r3, #0]
 8083bd6:	2000      	movs	r0, #0
 8083bd8:	f884 603d 	strb.w	r6, [r4, #61]	; 0x3d
 8083bdc:	bdf8      	pop	{r3, r4, r5, r6, r7, pc}
 8083bde:	2001      	movs	r0, #1
 8083be0:	4770      	bx	lr
 8083be2:	68a7      	ldr	r7, [r4, #8]
 8083be4:	6926      	ldr	r6, [r4, #16]
 8083be6:	f022 0270 	bic.w	r2, r2, #112	; 0x70
 8083bea:	433a      	orrs	r2, r7
 8083bec:	f422 7240 	bic.w	r2, r2, #768	; 0x300
 8083bf0:	4332      	orrs	r2, r6
 8083bf2:	f022 0280 	bic.w	r2, r2, #128	; 0x80
 8083bf6:	ea42 020c 	orr.w	r2, r2, ip
 8083bfa:	601a      	str	r2, [r3, #0]
 8083bfc:	62d8      	str	r0, [r3, #44]	; 0x2c
 8083bfe:	6299      	str	r1, [r3, #40]	; 0x28
 8083c00:	e7de      	b.n	8083bc0 <HAL_TIM_OnePulse_Init+0xb4>
 8083c02:	68a7      	ldr	r7, [r4, #8]
 8083c04:	6926      	ldr	r6, [r4, #16]
 8083c06:	f022 0270 	bic.w	r2, r2, #112	; 0x70
 8083c0a:	433a      	orrs	r2, r7
 8083c0c:	f422 7240 	bic.w	r2, r2, #768	; 0x300
 8083c10:	4332      	orrs	r2, r6
 8083c12:	f022 0280 	bic.w	r2, r2, #128	; 0x80
 8083c16:	ea4c 0202 	orr.w	r2, ip, r2
 8083c1a:	601a      	str	r2, [r3, #0]
 8083c1c:	62d8      	str	r0, [r3, #44]	; 0x2c
 8083c1e:	6299      	str	r1, [r3, #40]	; 0x28
 8083c20:	e7d0      	b.n	8083bc4 <HAL_TIM_OnePulse_Init+0xb8>
 8083c22:	bf00      	nop
 8083c24:	40010000 	.word	0x40010000
 8083c28:	40010400 	.word	0x40010400

08083c2c <HAL_TIM_OnePulse_MspDeInit>:
 8083c2c:	4770      	bx	lr
 8083c2e:	bf00      	nop

08083c30 <HAL_TIM_OnePulse_DeInit>:
 8083c30:	2202      	movs	r2, #2
 8083c32:	6803      	ldr	r3, [r0, #0]
 8083c34:	b510      	push	{r4, lr}
 8083c36:	f880 203d 	strb.w	r2, [r0, #61]	; 0x3d
 8083c3a:	6a19      	ldr	r1, [r3, #32]
 8083c3c:	f241 1211 	movw	r2, #4369	; 0x1111
 8083c40:	4211      	tst	r1, r2
 8083c42:	4604      	mov	r4, r0
 8083c44:	d108      	bne.n	8083c58 <HAL_TIM_OnePulse_DeInit+0x28>
 8083c46:	6a19      	ldr	r1, [r3, #32]
 8083c48:	f240 4244 	movw	r2, #1092	; 0x444
 8083c4c:	4211      	tst	r1, r2
 8083c4e:	d103      	bne.n	8083c58 <HAL_TIM_OnePulse_DeInit+0x28>
 8083c50:	681a      	ldr	r2, [r3, #0]
 8083c52:	f022 0201 	bic.w	r2, r2, #1
 8083c56:	601a      	str	r2, [r3, #0]
 8083c58:	4620      	mov	r0, r4
 8083c5a:	f7ff ffe7 	bl	8083c2c <HAL_TIM_OnePulse_MspDeInit>
 8083c5e:	2000      	movs	r0, #0
 8083c60:	f884 003d 	strb.w	r0, [r4, #61]	; 0x3d
 8083c64:	f884 003c 	strb.w	r0, [r4, #60]	; 0x3c
 8083c68:	bd10      	pop	{r4, pc}
 8083c6a:	bf00      	nop

08083c6c <HAL_TIM_OnePulse_Start>:
 8083c6c:	6803      	ldr	r3, [r0, #0]
 8083c6e:	490f      	ldr	r1, [pc, #60]	; (8083cac <HAL_TIM_OnePulse_Start+0x40>)
 8083c70:	6a1a      	ldr	r2, [r3, #32]
 8083c72:	f022 0201 	bic.w	r2, r2, #1
 8083c76:	621a      	str	r2, [r3, #32]
 8083c78:	6a1a      	ldr	r2, [r3, #32]
 8083c7a:	f042 0201 	orr.w	r2, r2, #1
 8083c7e:	621a      	str	r2, [r3, #32]
 8083c80:	6a1a      	ldr	r2, [r3, #32]
 8083c82:	f022 0210 	bic.w	r2, r2, #16
 8083c86:	621a      	str	r2, [r3, #32]
 8083c88:	6a1a      	ldr	r2, [r3, #32]
 8083c8a:	428b      	cmp	r3, r1
 8083c8c:	f042 0210 	orr.w	r2, r2, #16
 8083c90:	621a      	str	r2, [r3, #32]
 8083c92:	d004      	beq.n	8083c9e <HAL_TIM_OnePulse_Start+0x32>
 8083c94:	4a06      	ldr	r2, [pc, #24]	; (8083cb0 <HAL_TIM_OnePulse_Start+0x44>)
 8083c96:	4293      	cmp	r3, r2
 8083c98:	d001      	beq.n	8083c9e <HAL_TIM_OnePulse_Start+0x32>
 8083c9a:	2000      	movs	r0, #0
 8083c9c:	4770      	bx	lr
 8083c9e:	6c5a      	ldr	r2, [r3, #68]	; 0x44
 8083ca0:	f442 4200 	orr.w	r2, r2, #32768	; 0x8000
 8083ca4:	645a      	str	r2, [r3, #68]	; 0x44
 8083ca6:	2000      	movs	r0, #0
 8083ca8:	4770      	bx	lr
 8083caa:	bf00      	nop
 8083cac:	40010000 	.word	0x40010000
 8083cb0:	40010400 	.word	0x40010400

08083cb4 <HAL_TIM_OnePulse_Stop>:
 8083cb4:	6803      	ldr	r3, [r0, #0]
 8083cb6:	4918      	ldr	r1, [pc, #96]	; (8083d18 <HAL_TIM_OnePulse_Stop+0x64>)
 8083cb8:	6a1a      	ldr	r2, [r3, #32]
 8083cba:	f022 0201 	bic.w	r2, r2, #1
 8083cbe:	621a      	str	r2, [r3, #32]
 8083cc0:	6a1a      	ldr	r2, [r3, #32]
 8083cc2:	621a      	str	r2, [r3, #32]
 8083cc4:	6a1a      	ldr	r2, [r3, #32]
 8083cc6:	f022 0210 	bic.w	r2, r2, #16
 8083cca:	621a      	str	r2, [r3, #32]
 8083ccc:	6a1a      	ldr	r2, [r3, #32]
 8083cce:	621a      	str	r2, [r3, #32]
 8083cd0:	428b      	cmp	r3, r1
 8083cd2:	d012      	beq.n	8083cfa <HAL_TIM_OnePulse_Stop+0x46>
 8083cd4:	4a11      	ldr	r2, [pc, #68]	; (8083d1c <HAL_TIM_OnePulse_Stop+0x68>)
 8083cd6:	4293      	cmp	r3, r2
 8083cd8:	d00f      	beq.n	8083cfa <HAL_TIM_OnePulse_Stop+0x46>
 8083cda:	6a19      	ldr	r1, [r3, #32]
 8083cdc:	f241 1211 	movw	r2, #4369	; 0x1111
 8083ce0:	4211      	tst	r1, r2
 8083ce2:	d108      	bne.n	8083cf6 <HAL_TIM_OnePulse_Stop+0x42>
 8083ce4:	6a19      	ldr	r1, [r3, #32]
 8083ce6:	f240 4244 	movw	r2, #1092	; 0x444
 8083cea:	4211      	tst	r1, r2
 8083cec:	d103      	bne.n	8083cf6 <HAL_TIM_OnePulse_Stop+0x42>
 8083cee:	681a      	ldr	r2, [r3, #0]
 8083cf0:	f022 0201 	bic.w	r2, r2, #1
 8083cf4:	601a      	str	r2, [r3, #0]
 8083cf6:	2000      	movs	r0, #0
 8083cf8:	4770      	bx	lr
 8083cfa:	6a19      	ldr	r1, [r3, #32]
 8083cfc:	f241 1211 	movw	r2, #4369	; 0x1111
 8083d00:	4211      	tst	r1, r2
 8083d02:	d1ea      	bne.n	8083cda <HAL_TIM_OnePulse_Stop+0x26>
 8083d04:	6a19      	ldr	r1, [r3, #32]
 8083d06:	f240 4244 	movw	r2, #1092	; 0x444
 8083d0a:	4211      	tst	r1, r2
 8083d0c:	d1e5      	bne.n	8083cda <HAL_TIM_OnePulse_Stop+0x26>
 8083d0e:	6c5a      	ldr	r2, [r3, #68]	; 0x44
 8083d10:	f422 4200 	bic.w	r2, r2, #32768	; 0x8000
 8083d14:	645a      	str	r2, [r3, #68]	; 0x44
 8083d16:	e7e0      	b.n	8083cda <HAL_TIM_OnePulse_Stop+0x26>
 8083d18:	40010000 	.word	0x40010000
 8083d1c:	40010400 	.word	0x40010400

08083d20 <HAL_TIM_OnePulse_Start_IT>:
 8083d20:	6803      	ldr	r3, [r0, #0]
 8083d22:	4913      	ldr	r1, [pc, #76]	; (8083d70 <HAL_TIM_OnePulse_Start_IT+0x50>)
 8083d24:	68da      	ldr	r2, [r3, #12]
 8083d26:	f042 0202 	orr.w	r2, r2, #2
 8083d2a:	60da      	str	r2, [r3, #12]
 8083d2c:	68da      	ldr	r2, [r3, #12]
 8083d2e:	f042 0204 	orr.w	r2, r2, #4
 8083d32:	60da      	str	r2, [r3, #12]
 8083d34:	6a1a      	ldr	r2, [r3, #32]
 8083d36:	f022 0201 	bic.w	r2, r2, #1
 8083d3a:	621a      	str	r2, [r3, #32]
 8083d3c:	6a1a      	ldr	r2, [r3, #32]
 8083d3e:	f042 0201 	orr.w	r2, r2, #1
 8083d42:	621a      	str	r2, [r3, #32]
 8083d44:	6a1a      	ldr	r2, [r3, #32]
 8083d46:	f022 0210 	bic.w	r2, r2, #16
 8083d4a:	621a      	str	r2, [r3, #32]
 8083d4c:	6a1a      	ldr	r2, [r3, #32]
 8083d4e:	428b      	cmp	r3, r1
 8083d50:	f042 0210 	orr.w	r2, r2, #16
 8083d54:	621a      	str	r2, [r3, #32]
 8083d56:	d004      	beq.n	8083d62 <HAL_TIM_OnePulse_Start_IT+0x42>
 8083d58:	4a06      	ldr	r2, [pc, #24]	; (8083d74 <HAL_TIM_OnePulse_Start_IT+0x54>)
 8083d5a:	4293      	cmp	r3, r2
 8083d5c:	d001      	beq.n	8083d62 <HAL_TIM_OnePulse_Start_IT+0x42>
 8083d5e:	2000      	movs	r0, #0
 8083d60:	4770      	bx	lr
 8083d62:	6c5a      	ldr	r2, [r3, #68]	; 0x44
 8083d64:	f442 4200 	orr.w	r2, r2, #32768	; 0x8000
 8083d68:	645a      	str	r2, [r3, #68]	; 0x44
 8083d6a:	2000      	movs	r0, #0
 8083d6c:	4770      	bx	lr
 8083d6e:	bf00      	nop
 8083d70:	40010000 	.word	0x40010000
 8083d74:	40010400 	.word	0x40010400

08083d78 <HAL_TIM_OnePulse_Stop_IT>:
 8083d78:	6803      	ldr	r3, [r0, #0]
 8083d7a:	491c      	ldr	r1, [pc, #112]	; (8083dec <HAL_TIM_OnePulse_Stop_IT+0x74>)
 8083d7c:	68da      	ldr	r2, [r3, #12]
 8083d7e:	f022 0202 	bic.w	r2, r2, #2
 8083d82:	60da      	str	r2, [r3, #12]
 8083d84:	68da      	ldr	r2, [r3, #12]
 8083d86:	f022 0204 	bic.w	r2, r2, #4
 8083d8a:	60da      	str	r2, [r3, #12]
 8083d8c:	6a1a      	ldr	r2, [r3, #32]
 8083d8e:	f022 0201 	bic.w	r2, r2, #1
 8083d92:	621a      	str	r2, [r3, #32]
 8083d94:	6a1a      	ldr	r2, [r3, #32]
 8083d96:	621a      	str	r2, [r3, #32]
 8083d98:	6a1a      	ldr	r2, [r3, #32]
 8083d9a:	f022 0210 	bic.w	r2, r2, #16
 8083d9e:	621a      	str	r2, [r3, #32]
 8083da0:	6a1a      	ldr	r2, [r3, #32]
 8083da2:	621a      	str	r2, [r3, #32]
 8083da4:	428b      	cmp	r3, r1
 8083da6:	d012      	beq.n	8083dce <HAL_TIM_OnePulse_Stop_IT+0x56>
 8083da8:	4a11      	ldr	r2, [pc, #68]	; (8083df0 <HAL_TIM_OnePulse_Stop_IT+0x78>)
 8083daa:	4293      	cmp	r3, r2
 8083dac:	d00f      	beq.n	8083dce <HAL_TIM_OnePulse_Stop_IT+0x56>
 8083dae:	6a19      	ldr	r1, [r3, #32]
 8083db0:	f241 1211 	movw	r2, #4369	; 0x1111
 8083db4:	4211      	tst	r1, r2
 8083db6:	d108      	bne.n	8083dca <HAL_TIM_OnePulse_Stop_IT+0x52>
 8083db8:	6a19      	ldr	r1, [r3, #32]
 8083dba:	f240 4244 	movw	r2, #1092	; 0x444
 8083dbe:	4211      	tst	r1, r2
 8083dc0:	d103      	bne.n	8083dca <HAL_TIM_OnePulse_Stop_IT+0x52>
 8083dc2:	681a      	ldr	r2, [r3, #0]
 8083dc4:	f022 0201 	bic.w	r2, r2, #1
 8083dc8:	601a      	str	r2, [r3, #0]
 8083dca:	2000      	movs	r0, #0
 8083dcc:	4770      	bx	lr
 8083dce:	6a19      	ldr	r1, [r3, #32]
 8083dd0:	f241 1211 	movw	r2, #4369	; 0x1111
 8083dd4:	4211      	tst	r1, r2
 8083dd6:	d1ea      	bne.n	8083dae <HAL_TIM_OnePulse_Stop_IT+0x36>
 8083dd8:	6a19      	ldr	r1, [r3, #32]
 8083dda:	f240 4244 	movw	r2, #1092	; 0x444
 8083dde:	4211      	tst	r1, r2
 8083de0:	d1e5      	bne.n	8083dae <HAL_TIM_OnePulse_Stop_IT+0x36>
 8083de2:	6c5a      	ldr	r2, [r3, #68]	; 0x44
 8083de4:	f422 4200 	bic.w	r2, r2, #32768	; 0x8000
 8083de8:	645a      	str	r2, [r3, #68]	; 0x44
 8083dea:	e7e0      	b.n	8083dae <HAL_TIM_OnePulse_Stop_IT+0x36>
 8083dec:	40010000 	.word	0x40010000
 8083df0:	40010400 	.word	0x40010400

08083df4 <HAL_TIM_Encoder_MspInit>:
 8083df4:	4770      	bx	lr
 8083df6:	bf00      	nop

08083df8 <HAL_TIM_Encoder_Init>:
 8083df8:	2800      	cmp	r0, #0
 8083dfa:	f000 8096 	beq.w	8083f2a <HAL_TIM_Encoder_Init+0x132>
 8083dfe:	f890 303d 	ldrb.w	r3, [r0, #61]	; 0x3d
 8083e02:	e92d 41f0 	stmdb	sp!, {r4, r5, r6, r7, r8, lr}
 8083e06:	f003 02ff 	and.w	r2, r3, #255	; 0xff
 8083e0a:	4604      	mov	r4, r0
 8083e0c:	460d      	mov	r5, r1
 8083e0e:	2b00      	cmp	r3, #0
 8083e10:	d03f      	beq.n	8083e92 <HAL_TIM_Encoder_Init+0x9a>
 8083e12:	6823      	ldr	r3, [r4, #0]
 8083e14:	4e56      	ldr	r6, [pc, #344]	; (8083f70 <HAL_TIM_Encoder_Init+0x178>)
 8083e16:	f8d4 c018 	ldr.w	ip, [r4, #24]
 8083e1a:	68e0      	ldr	r0, [r4, #12]
 8083e1c:	6861      	ldr	r1, [r4, #4]
 8083e1e:	2202      	movs	r2, #2
 8083e20:	f884 203d 	strb.w	r2, [r4, #61]	; 0x3d
 8083e24:	689a      	ldr	r2, [r3, #8]
 8083e26:	f422 4280 	bic.w	r2, r2, #16384	; 0x4000
 8083e2a:	f022 0207 	bic.w	r2, r2, #7
 8083e2e:	609a      	str	r2, [r3, #8]
 8083e30:	42b3      	cmp	r3, r6
 8083e32:	681a      	ldr	r2, [r3, #0]
 8083e34:	d07b      	beq.n	8083f2e <HAL_TIM_Encoder_Init+0x136>
 8083e36:	f1b3 4f80 	cmp.w	r3, #1073741824	; 0x40000000
 8083e3a:	f000 8088 	beq.w	8083f4e <HAL_TIM_Encoder_Init+0x156>
 8083e3e:	f5a6 467c 	sub.w	r6, r6, #64512	; 0xfc00
 8083e42:	42b3      	cmp	r3, r6
 8083e44:	d02a      	beq.n	8083e9c <HAL_TIM_Encoder_Init+0xa4>
 8083e46:	f506 6680 	add.w	r6, r6, #1024	; 0x400
 8083e4a:	42b3      	cmp	r3, r6
 8083e4c:	d026      	beq.n	8083e9c <HAL_TIM_Encoder_Init+0xa4>
 8083e4e:	f506 6680 	add.w	r6, r6, #1024	; 0x400
 8083e52:	42b3      	cmp	r3, r6
 8083e54:	d022      	beq.n	8083e9c <HAL_TIM_Encoder_Init+0xa4>
 8083e56:	f506 4678 	add.w	r6, r6, #63488	; 0xf800
 8083e5a:	42b3      	cmp	r3, r6
 8083e5c:	d01e      	beq.n	8083e9c <HAL_TIM_Encoder_Init+0xa4>
 8083e5e:	f506 5670 	add.w	r6, r6, #15360	; 0x3c00
 8083e62:	42b3      	cmp	r3, r6
 8083e64:	d013      	beq.n	8083e8e <HAL_TIM_Encoder_Init+0x96>
 8083e66:	f506 6680 	add.w	r6, r6, #1024	; 0x400
 8083e6a:	42b3      	cmp	r3, r6
 8083e6c:	d00f      	beq.n	8083e8e <HAL_TIM_Encoder_Init+0x96>
 8083e6e:	f506 6680 	add.w	r6, r6, #1024	; 0x400
 8083e72:	42b3      	cmp	r3, r6
 8083e74:	d00b      	beq.n	8083e8e <HAL_TIM_Encoder_Init+0x96>
 8083e76:	f5a6 3698 	sub.w	r6, r6, #77824	; 0x13000
 8083e7a:	42b3      	cmp	r3, r6
 8083e7c:	d007      	beq.n	8083e8e <HAL_TIM_Encoder_Init+0x96>
 8083e7e:	f506 6680 	add.w	r6, r6, #1024	; 0x400
 8083e82:	42b3      	cmp	r3, r6
 8083e84:	d003      	beq.n	8083e8e <HAL_TIM_Encoder_Init+0x96>
 8083e86:	f506 6680 	add.w	r6, r6, #1024	; 0x400
 8083e8a:	42b3      	cmp	r3, r6
 8083e8c:	d167      	bne.n	8083f5e <HAL_TIM_Encoder_Init+0x166>
 8083e8e:	6926      	ldr	r6, [r4, #16]
 8083e90:	e062      	b.n	8083f58 <HAL_TIM_Encoder_Init+0x160>
 8083e92:	f880 203c 	strb.w	r2, [r0, #60]	; 0x3c
 8083e96:	f7ff ffad 	bl	8083df4 <HAL_TIM_Encoder_MspInit>
 8083e9a:	e7ba      	b.n	8083e12 <HAL_TIM_Encoder_Init+0x1a>
 8083e9c:	68a6      	ldr	r6, [r4, #8]
 8083e9e:	4f35      	ldr	r7, [pc, #212]	; (8083f74 <HAL_TIM_Encoder_Init+0x17c>)
 8083ea0:	f022 0270 	bic.w	r2, r2, #112	; 0x70
 8083ea4:	4332      	orrs	r2, r6
 8083ea6:	6926      	ldr	r6, [r4, #16]
 8083ea8:	f422 7240 	bic.w	r2, r2, #768	; 0x300
 8083eac:	4332      	orrs	r2, r6
 8083eae:	f022 0280 	bic.w	r2, r2, #128	; 0x80
 8083eb2:	ea42 020c 	orr.w	r2, r2, ip
 8083eb6:	42bb      	cmp	r3, r7
 8083eb8:	601a      	str	r2, [r3, #0]
 8083eba:	62d8      	str	r0, [r3, #44]	; 0x2c
 8083ebc:	6299      	str	r1, [r3, #40]	; 0x28
 8083ebe:	d101      	bne.n	8083ec4 <HAL_TIM_Encoder_Init+0xcc>
 8083ec0:	6962      	ldr	r2, [r4, #20]
 8083ec2:	631a      	str	r2, [r3, #48]	; 0x30
 8083ec4:	f04f 0c01 	mov.w	ip, #1
 8083ec8:	f8c3 c014 	str.w	ip, [r3, #20]
 8083ecc:	6898      	ldr	r0, [r3, #8]
 8083ece:	699e      	ldr	r6, [r3, #24]
 8083ed0:	69af      	ldr	r7, [r5, #24]
 8083ed2:	68a9      	ldr	r1, [r5, #8]
 8083ed4:	692a      	ldr	r2, [r5, #16]
 8083ed6:	f8d5 e000 	ldr.w	lr, [r5]
 8083eda:	f426 7840 	bic.w	r8, r6, #768	; 0x300
 8083ede:	69ee      	ldr	r6, [r5, #28]
 8083ee0:	ea41 2107 	orr.w	r1, r1, r7, lsl #8
 8083ee4:	0112      	lsls	r2, r2, #4
 8083ee6:	68ef      	ldr	r7, [r5, #12]
 8083ee8:	ea42 2206 	orr.w	r2, r2, r6, lsl #8
 8083eec:	433a      	orrs	r2, r7
 8083eee:	6a2f      	ldr	r7, [r5, #32]
 8083ef0:	6a1e      	ldr	r6, [r3, #32]
 8083ef2:	f028 0803 	bic.w	r8, r8, #3
 8083ef6:	ea41 0108 	orr.w	r1, r1, r8
 8083efa:	ea42 3207 	orr.w	r2, r2, r7, lsl #12
 8083efe:	696f      	ldr	r7, [r5, #20]
 8083f00:	686d      	ldr	r5, [r5, #4]
 8083f02:	f421 417c 	bic.w	r1, r1, #64512	; 0xfc00
 8083f06:	f021 01fc 	bic.w	r1, r1, #252	; 0xfc
 8083f0a:	f026 06aa 	bic.w	r6, r6, #170	; 0xaa
 8083f0e:	ea45 1507 	orr.w	r5, r5, r7, lsl #4
 8083f12:	ea40 000e 	orr.w	r0, r0, lr
 8083f16:	430a      	orrs	r2, r1
 8083f18:	4335      	orrs	r5, r6
 8083f1a:	6098      	str	r0, [r3, #8]
 8083f1c:	619a      	str	r2, [r3, #24]
 8083f1e:	2000      	movs	r0, #0
 8083f20:	621d      	str	r5, [r3, #32]
 8083f22:	f884 c03d 	strb.w	ip, [r4, #61]	; 0x3d
 8083f26:	e8bd 81f0 	ldmia.w	sp!, {r4, r5, r6, r7, r8, pc}
 8083f2a:	2001      	movs	r0, #1
 8083f2c:	4770      	bx	lr
 8083f2e:	68a7      	ldr	r7, [r4, #8]
 8083f30:	6926      	ldr	r6, [r4, #16]
 8083f32:	f022 0270 	bic.w	r2, r2, #112	; 0x70
 8083f36:	433a      	orrs	r2, r7
 8083f38:	f422 7240 	bic.w	r2, r2, #768	; 0x300
 8083f3c:	4332      	orrs	r2, r6
 8083f3e:	f022 0280 	bic.w	r2, r2, #128	; 0x80
 8083f42:	ea42 020c 	orr.w	r2, r2, ip
 8083f46:	601a      	str	r2, [r3, #0]
 8083f48:	62d8      	str	r0, [r3, #44]	; 0x2c
 8083f4a:	6299      	str	r1, [r3, #40]	; 0x28
 8083f4c:	e7b8      	b.n	8083ec0 <HAL_TIM_Encoder_Init+0xc8>
 8083f4e:	68a7      	ldr	r7, [r4, #8]
 8083f50:	6926      	ldr	r6, [r4, #16]
 8083f52:	f022 0270 	bic.w	r2, r2, #112	; 0x70
 8083f56:	433a      	orrs	r2, r7
 8083f58:	f422 7240 	bic.w	r2, r2, #768	; 0x300
 8083f5c:	4332      	orrs	r2, r6
 8083f5e:	f022 0280 	bic.w	r2, r2, #128	; 0x80
 8083f62:	ea42 020c 	orr.w	r2, r2, ip
 8083f66:	601a      	str	r2, [r3, #0]
 8083f68:	62d8      	str	r0, [r3, #44]	; 0x2c
 8083f6a:	6299      	str	r1, [r3, #40]	; 0x28
 8083f6c:	e7aa      	b.n	8083ec4 <HAL_TIM_Encoder_Init+0xcc>
 8083f6e:	bf00      	nop
 8083f70:	40010000 	.word	0x40010000
 8083f74:	40010400 	.word	0x40010400

08083f78 <HAL_TIM_Encoder_MspDeInit>:
 8083f78:	4770      	bx	lr
 8083f7a:	bf00      	nop

08083f7c <HAL_TIM_Encoder_DeInit>:
 8083f7c:	2202      	movs	r2, #2
 8083f7e:	6803      	ldr	r3, [r0, #0]
 8083f80:	b510      	push	{r4, lr}
 8083f82:	f880 203d 	strb.w	r2, [r0, #61]	; 0x3d
 8083f86:	6a19      	ldr	r1, [r3, #32]
 8083f88:	f241 1211 	movw	r2, #4369	; 0x1111
 8083f8c:	4211      	tst	r1, r2
 8083f8e:	4604      	mov	r4, r0
 8083f90:	d108      	bne.n	8083fa4 <HAL_TIM_Encoder_DeInit+0x28>
 8083f92:	6a19      	ldr	r1, [r3, #32]
 8083f94:	f240 4244 	movw	r2, #1092	; 0x444
 8083f98:	4211      	tst	r1, r2
 8083f9a:	d103      	bne.n	8083fa4 <HAL_TIM_Encoder_DeInit+0x28>
 8083f9c:	681a      	ldr	r2, [r3, #0]
 8083f9e:	f022 0201 	bic.w	r2, r2, #1
 8083fa2:	601a      	str	r2, [r3, #0]
 8083fa4:	4620      	mov	r0, r4
 8083fa6:	f7ff ffe7 	bl	8083f78 <HAL_TIM_Encoder_MspDeInit>
 8083faa:	2000      	movs	r0, #0
 8083fac:	f884 003d 	strb.w	r0, [r4, #61]	; 0x3d
 8083fb0:	f884 003c 	strb.w	r0, [r4, #60]	; 0x3c
 8083fb4:	bd10      	pop	{r4, pc}
 8083fb6:	bf00      	nop

08083fb8 <HAL_TIM_Encoder_Start>:
 8083fb8:	6803      	ldr	r3, [r0, #0]
 8083fba:	b1c1      	cbz	r1, 8083fee <HAL_TIM_Encoder_Start+0x36>
 8083fbc:	2904      	cmp	r1, #4
 8083fbe:	d10d      	bne.n	8083fdc <HAL_TIM_Encoder_Start+0x24>
 8083fc0:	6a1a      	ldr	r2, [r3, #32]
 8083fc2:	f022 0210 	bic.w	r2, r2, #16
 8083fc6:	621a      	str	r2, [r3, #32]
 8083fc8:	6a1a      	ldr	r2, [r3, #32]
 8083fca:	f042 0210 	orr.w	r2, r2, #16
 8083fce:	621a      	str	r2, [r3, #32]
 8083fd0:	681a      	ldr	r2, [r3, #0]
 8083fd2:	f042 0201 	orr.w	r2, r2, #1
 8083fd6:	601a      	str	r2, [r3, #0]
 8083fd8:	2000      	movs	r0, #0
 8083fda:	4770      	bx	lr
 8083fdc:	6a1a      	ldr	r2, [r3, #32]
 8083fde:	f022 0201 	bic.w	r2, r2, #1
 8083fe2:	621a      	str	r2, [r3, #32]
 8083fe4:	6a1a      	ldr	r2, [r3, #32]
 8083fe6:	f042 0201 	orr.w	r2, r2, #1
 8083fea:	621a      	str	r2, [r3, #32]
 8083fec:	e7e8      	b.n	8083fc0 <HAL_TIM_Encoder_Start+0x8>
 8083fee:	6a1a      	ldr	r2, [r3, #32]
 8083ff0:	f022 0201 	bic.w	r2, r2, #1
 8083ff4:	621a      	str	r2, [r3, #32]
 8083ff6:	6a1a      	ldr	r2, [r3, #32]
 8083ff8:	f042 0201 	orr.w	r2, r2, #1
 8083ffc:	621a      	str	r2, [r3, #32]
 8083ffe:	e7e7      	b.n	8083fd0 <HAL_TIM_Encoder_Start+0x18>

08084000 <HAL_TIM_Encoder_Stop>:
 8084000:	6803      	ldr	r3, [r0, #0]
 8084002:	b1f1      	cbz	r1, 8084042 <HAL_TIM_Encoder_Stop+0x42>
 8084004:	2904      	cmp	r1, #4
 8084006:	d115      	bne.n	8084034 <HAL_TIM_Encoder_Stop+0x34>
 8084008:	6a1a      	ldr	r2, [r3, #32]
 808400a:	f022 0210 	bic.w	r2, r2, #16
 808400e:	621a      	str	r2, [r3, #32]
 8084010:	6a1a      	ldr	r2, [r3, #32]
 8084012:	621a      	str	r2, [r3, #32]
 8084014:	6a19      	ldr	r1, [r3, #32]
 8084016:	f241 1211 	movw	r2, #4369	; 0x1111
 808401a:	4211      	tst	r1, r2
 808401c:	d108      	bne.n	8084030 <HAL_TIM_Encoder_Stop+0x30>
 808401e:	6a19      	ldr	r1, [r3, #32]
 8084020:	f240 4244 	movw	r2, #1092	; 0x444
 8084024:	4211      	tst	r1, r2
 8084026:	d103      	bne.n	8084030 <HAL_TIM_Encoder_Stop+0x30>
 8084028:	681a      	ldr	r2, [r3, #0]
 808402a:	f022 0201 	bic.w	r2, r2, #1
 808402e:	601a      	str	r2, [r3, #0]
 8084030:	2000      	movs	r0, #0
 8084032:	4770      	bx	lr
 8084034:	6a1a      	ldr	r2, [r3, #32]
 8084036:	f022 0201 	bic.w	r2, r2, #1
 808403a:	621a      	str	r2, [r3, #32]
 808403c:	6a1a      	ldr	r2, [r3, #32]
 808403e:	621a      	str	r2, [r3, #32]
 8084040:	e7e2      	b.n	8084008 <HAL_TIM_Encoder_Stop+0x8>
 8084042:	6a1a      	ldr	r2, [r3, #32]
 8084044:	f022 0201 	bic.w	r2, r2, #1
 8084048:	621a      	str	r2, [r3, #32]
 808404a:	6a1a      	ldr	r2, [r3, #32]
 808404c:	621a      	str	r2, [r3, #32]
 808404e:	e7e1      	b.n	8084014 <HAL_TIM_Encoder_Stop+0x14>

08084050 <HAL_TIM_Encoder_Start_IT>:
 8084050:	6803      	ldr	r3, [r0, #0]
 8084052:	2900      	cmp	r1, #0
 8084054:	d02c      	beq.n	80840b0 <HAL_TIM_Encoder_Start_IT+0x60>
 8084056:	2904      	cmp	r1, #4
 8084058:	d01d      	beq.n	8084096 <HAL_TIM_Encoder_Start_IT+0x46>
 808405a:	6a1a      	ldr	r2, [r3, #32]
 808405c:	f022 0201 	bic.w	r2, r2, #1
 8084060:	621a      	str	r2, [r3, #32]
 8084062:	6a1a      	ldr	r2, [r3, #32]
 8084064:	f042 0201 	orr.w	r2, r2, #1
 8084068:	621a      	str	r2, [r3, #32]
 808406a:	6a1a      	ldr	r2, [r3, #32]
 808406c:	f022 0210 	bic.w	r2, r2, #16
 8084070:	621a      	str	r2, [r3, #32]
 8084072:	6a1a      	ldr	r2, [r3, #32]
 8084074:	f042 0210 	orr.w	r2, r2, #16
 8084078:	621a      	str	r2, [r3, #32]
 808407a:	68da      	ldr	r2, [r3, #12]
 808407c:	f042 0202 	orr.w	r2, r2, #2
 8084080:	60da      	str	r2, [r3, #12]
 8084082:	68da      	ldr	r2, [r3, #12]
 8084084:	f042 0204 	orr.w	r2, r2, #4
 8084088:	60da      	str	r2, [r3, #12]
 808408a:	681a      	ldr	r2, [r3, #0]
 808408c:	f042 0201 	orr.w	r2, r2, #1
 8084090:	601a      	str	r2, [r3, #0]
 8084092:	2000      	movs	r0, #0
 8084094:	4770      	bx	lr
 8084096:	6a1a      	ldr	r2, [r3, #32]
 8084098:	f022 0210 	bic.w	r2, r2, #16
 808409c:	621a      	str	r2, [r3, #32]
 808409e:	6a1a      	ldr	r2, [r3, #32]
 80840a0:	f042 0210 	orr.w	r2, r2, #16
 80840a4:	621a      	str	r2, [r3, #32]
 80840a6:	68da      	ldr	r2, [r3, #12]
 80840a8:	f042 0204 	orr.w	r2, r2, #4
 80840ac:	60da      	str	r2, [r3, #12]
 80840ae:	e7ec      	b.n	808408a <HAL_TIM_Encoder_Start_IT+0x3a>
 80840b0:	6a1a      	ldr	r2, [r3, #32]
 80840b2:	f022 0201 	bic.w	r2, r2, #1
 80840b6:	621a      	str	r2, [r3, #32]
 80840b8:	6a1a      	ldr	r2, [r3, #32]
 80840ba:	f042 0201 	orr.w	r2, r2, #1
 80840be:	621a      	str	r2, [r3, #32]
 80840c0:	68da      	ldr	r2, [r3, #12]
 80840c2:	f042 0202 	orr.w	r2, r2, #2
 80840c6:	60da      	str	r2, [r3, #12]
 80840c8:	e7df      	b.n	808408a <HAL_TIM_Encoder_Start_IT+0x3a>
 80840ca:	bf00      	nop

080840cc <HAL_TIM_Encoder_Stop_IT>:
 80840cc:	6803      	ldr	r3, [r0, #0]
 80840ce:	6a1a      	ldr	r2, [r3, #32]
 80840d0:	b9d9      	cbnz	r1, 808410a <HAL_TIM_Encoder_Stop_IT+0x3e>
 80840d2:	f022 0201 	bic.w	r2, r2, #1
 80840d6:	621a      	str	r2, [r3, #32]
 80840d8:	6a1a      	ldr	r2, [r3, #32]
 80840da:	621a      	str	r2, [r3, #32]
 80840dc:	68da      	ldr	r2, [r3, #12]
 80840de:	f022 0202 	bic.w	r2, r2, #2
 80840e2:	60da      	str	r2, [r3, #12]
 80840e4:	6a19      	ldr	r1, [r3, #32]
 80840e6:	f241 1211 	movw	r2, #4369	; 0x1111
 80840ea:	4211      	tst	r1, r2
 80840ec:	d108      	bne.n	8084100 <HAL_TIM_Encoder_Stop_IT+0x34>
 80840ee:	6a19      	ldr	r1, [r3, #32]
 80840f0:	f240 4244 	movw	r2, #1092	; 0x444
 80840f4:	4211      	tst	r1, r2
 80840f6:	d103      	bne.n	8084100 <HAL_TIM_Encoder_Stop_IT+0x34>
 80840f8:	681a      	ldr	r2, [r3, #0]
 80840fa:	f022 0201 	bic.w	r2, r2, #1
 80840fe:	601a      	str	r2, [r3, #0]
 8084100:	2301      	movs	r3, #1
 8084102:	f880 303d 	strb.w	r3, [r0, #61]	; 0x3d
 8084106:	2000      	movs	r0, #0
 8084108:	4770      	bx	lr
 808410a:	2904      	cmp	r1, #4
 808410c:	d013      	beq.n	8084136 <HAL_TIM_Encoder_Stop_IT+0x6a>
 808410e:	f022 0201 	bic.w	r2, r2, #1
 8084112:	621a      	str	r2, [r3, #32]
 8084114:	6a1a      	ldr	r2, [r3, #32]
 8084116:	621a      	str	r2, [r3, #32]
 8084118:	6a1a      	ldr	r2, [r3, #32]
 808411a:	f022 0210 	bic.w	r2, r2, #16
 808411e:	621a      	str	r2, [r3, #32]
 8084120:	6a1a      	ldr	r2, [r3, #32]
 8084122:	621a      	str	r2, [r3, #32]
 8084124:	68da      	ldr	r2, [r3, #12]
 8084126:	f022 0202 	bic.w	r2, r2, #2
 808412a:	60da      	str	r2, [r3, #12]
 808412c:	68da      	ldr	r2, [r3, #12]
 808412e:	f022 0204 	bic.w	r2, r2, #4
 8084132:	60da      	str	r2, [r3, #12]
 8084134:	e7d6      	b.n	80840e4 <HAL_TIM_Encoder_Stop_IT+0x18>
 8084136:	f022 0210 	bic.w	r2, r2, #16
 808413a:	621a      	str	r2, [r3, #32]
 808413c:	6a1a      	ldr	r2, [r3, #32]
 808413e:	621a      	str	r2, [r3, #32]
 8084140:	68da      	ldr	r2, [r3, #12]
 8084142:	f022 0204 	bic.w	r2, r2, #4
 8084146:	60da      	str	r2, [r3, #12]
 8084148:	e7cc      	b.n	80840e4 <HAL_TIM_Encoder_Stop_IT+0x18>
 808414a:	bf00      	nop

0808414c <HAL_TIM_Encoder_Start_DMA>:
 808414c:	e92d 43f8 	stmdb	sp!, {r3, r4, r5, r6, r7, r8, r9, lr}
 8084150:	f890 403d 	ldrb.w	r4, [r0, #61]	; 0x3d
 8084154:	f8bd 5020 	ldrh.w	r5, [sp, #32]
 8084158:	b2e4      	uxtb	r4, r4
 808415a:	2c02      	cmp	r4, #2
 808415c:	d04e      	beq.n	80841fc <HAL_TIM_Encoder_Start_DMA+0xb0>
 808415e:	f890 403d 	ldrb.w	r4, [r0, #61]	; 0x3d
 8084162:	2c01      	cmp	r4, #1
 8084164:	d00a      	beq.n	808417c <HAL_TIM_Encoder_Start_DMA+0x30>
 8084166:	2904      	cmp	r1, #4
 8084168:	461e      	mov	r6, r3
 808416a:	4604      	mov	r4, r0
 808416c:	d011      	beq.n	8084192 <HAL_TIM_Encoder_Start_DMA+0x46>
 808416e:	293c      	cmp	r1, #60	; 0x3c
 8084170:	d02f      	beq.n	80841d2 <HAL_TIM_Encoder_Start_DMA+0x86>
 8084172:	2900      	cmp	r1, #0
 8084174:	d045      	beq.n	8084202 <HAL_TIM_Encoder_Start_DMA+0xb6>
 8084176:	2000      	movs	r0, #0
 8084178:	e8bd 83f8 	ldmia.w	sp!, {r3, r4, r5, r6, r7, r8, r9, pc}
 808417c:	2a00      	cmp	r2, #0
 808417e:	d03a      	beq.n	80841f6 <HAL_TIM_Encoder_Start_DMA+0xaa>
 8084180:	2b00      	cmp	r3, #0
 8084182:	d038      	beq.n	80841f6 <HAL_TIM_Encoder_Start_DMA+0xaa>
 8084184:	2402      	movs	r4, #2
 8084186:	2904      	cmp	r1, #4
 8084188:	f880 403d 	strb.w	r4, [r0, #61]	; 0x3d
 808418c:	461e      	mov	r6, r3
 808418e:	4604      	mov	r4, r0
 8084190:	d1ed      	bne.n	808416e <HAL_TIM_Encoder_Start_DMA+0x22>
 8084192:	6a80      	ldr	r0, [r0, #40]	; 0x28
 8084194:	4b41      	ldr	r3, [pc, #260]	; (808429c <HAL_TIM_Encoder_Start_DMA+0x150>)
 8084196:	6821      	ldr	r1, [r4, #0]
 8084198:	63c3      	str	r3, [r0, #60]	; 0x3c
 808419a:	4b41      	ldr	r3, [pc, #260]	; (80842a0 <HAL_TIM_Encoder_Start_DMA+0x154>)
 808419c:	6403      	str	r3, [r0, #64]	; 0x40
 808419e:	4b41      	ldr	r3, [pc, #260]	; (80842a4 <HAL_TIM_Encoder_Start_DMA+0x158>)
 80841a0:	64c3      	str	r3, [r0, #76]	; 0x4c
 80841a2:	4632      	mov	r2, r6
 80841a4:	462b      	mov	r3, r5
 80841a6:	3138      	adds	r1, #56	; 0x38
 80841a8:	f7fd fb26 	bl	80817f8 <HAL_DMA_Start_IT>
 80841ac:	bb00      	cbnz	r0, 80841f0 <HAL_TIM_Encoder_Start_DMA+0xa4>
 80841ae:	6823      	ldr	r3, [r4, #0]
 80841b0:	68da      	ldr	r2, [r3, #12]
 80841b2:	f442 6280 	orr.w	r2, r2, #1024	; 0x400
 80841b6:	60da      	str	r2, [r3, #12]
 80841b8:	681a      	ldr	r2, [r3, #0]
 80841ba:	f042 0201 	orr.w	r2, r2, #1
 80841be:	601a      	str	r2, [r3, #0]
 80841c0:	6a1a      	ldr	r2, [r3, #32]
 80841c2:	f022 0210 	bic.w	r2, r2, #16
 80841c6:	621a      	str	r2, [r3, #32]
 80841c8:	6a1a      	ldr	r2, [r3, #32]
 80841ca:	f042 0210 	orr.w	r2, r2, #16
 80841ce:	621a      	str	r2, [r3, #32]
 80841d0:	e7d2      	b.n	8084178 <HAL_TIM_Encoder_Start_DMA+0x2c>
 80841d2:	6821      	ldr	r1, [r4, #0]
 80841d4:	6a40      	ldr	r0, [r0, #36]	; 0x24
 80841d6:	f8df 90c4 	ldr.w	r9, [pc, #196]	; 808429c <HAL_TIM_Encoder_Start_DMA+0x150>
 80841da:	f8df 80c4 	ldr.w	r8, [pc, #196]	; 80842a0 <HAL_TIM_Encoder_Start_DMA+0x154>
 80841de:	4f31      	ldr	r7, [pc, #196]	; (80842a4 <HAL_TIM_Encoder_Start_DMA+0x158>)
 80841e0:	64c7      	str	r7, [r0, #76]	; 0x4c
 80841e2:	e9c0 980f 	strd	r9, r8, [r0, #60]	; 0x3c
 80841e6:	3134      	adds	r1, #52	; 0x34
 80841e8:	462b      	mov	r3, r5
 80841ea:	f7fd fb05 	bl	80817f8 <HAL_DMA_Start_IT>
 80841ee:	b340      	cbz	r0, 8084242 <HAL_TIM_Encoder_Start_DMA+0xf6>
 80841f0:	2001      	movs	r0, #1
 80841f2:	e8bd 83f8 	ldmia.w	sp!, {r3, r4, r5, r6, r7, r8, r9, pc}
 80841f6:	2d00      	cmp	r5, #0
 80841f8:	d0c4      	beq.n	8084184 <HAL_TIM_Encoder_Start_DMA+0x38>
 80841fa:	e7f9      	b.n	80841f0 <HAL_TIM_Encoder_Start_DMA+0xa4>
 80841fc:	4620      	mov	r0, r4
 80841fe:	e8bd 83f8 	ldmia.w	sp!, {r3, r4, r5, r6, r7, r8, r9, pc}
 8084202:	6a40      	ldr	r0, [r0, #36]	; 0x24
 8084204:	4b25      	ldr	r3, [pc, #148]	; (808429c <HAL_TIM_Encoder_Start_DMA+0x150>)
 8084206:	6821      	ldr	r1, [r4, #0]
 8084208:	63c3      	str	r3, [r0, #60]	; 0x3c
 808420a:	4b25      	ldr	r3, [pc, #148]	; (80842a0 <HAL_TIM_Encoder_Start_DMA+0x154>)
 808420c:	6403      	str	r3, [r0, #64]	; 0x40
 808420e:	4b25      	ldr	r3, [pc, #148]	; (80842a4 <HAL_TIM_Encoder_Start_DMA+0x158>)
 8084210:	64c3      	str	r3, [r0, #76]	; 0x4c
 8084212:	3134      	adds	r1, #52	; 0x34
 8084214:	462b      	mov	r3, r5
 8084216:	f7fd faef 	bl	80817f8 <HAL_DMA_Start_IT>
 808421a:	2800      	cmp	r0, #0
 808421c:	d1e8      	bne.n	80841f0 <HAL_TIM_Encoder_Start_DMA+0xa4>
 808421e:	6823      	ldr	r3, [r4, #0]
 8084220:	68da      	ldr	r2, [r3, #12]
 8084222:	f442 7200 	orr.w	r2, r2, #512	; 0x200
 8084226:	60da      	str	r2, [r3, #12]
 8084228:	681a      	ldr	r2, [r3, #0]
 808422a:	f042 0201 	orr.w	r2, r2, #1
 808422e:	601a      	str	r2, [r3, #0]
 8084230:	6a1a      	ldr	r2, [r3, #32]
 8084232:	f022 0201 	bic.w	r2, r2, #1
 8084236:	621a      	str	r2, [r3, #32]
 8084238:	6a1a      	ldr	r2, [r3, #32]
 808423a:	f042 0201 	orr.w	r2, r2, #1
 808423e:	621a      	str	r2, [r3, #32]
 8084240:	e79a      	b.n	8084178 <HAL_TIM_Encoder_Start_DMA+0x2c>
 8084242:	6821      	ldr	r1, [r4, #0]
 8084244:	6aa0      	ldr	r0, [r4, #40]	; 0x28
 8084246:	462b      	mov	r3, r5
 8084248:	f8c0 903c 	str.w	r9, [r0, #60]	; 0x3c
 808424c:	4632      	mov	r2, r6
 808424e:	f8c0 8040 	str.w	r8, [r0, #64]	; 0x40
 8084252:	64c7      	str	r7, [r0, #76]	; 0x4c
 8084254:	3138      	adds	r1, #56	; 0x38
 8084256:	f7fd facf 	bl	80817f8 <HAL_DMA_Start_IT>
 808425a:	2800      	cmp	r0, #0
 808425c:	d1c8      	bne.n	80841f0 <HAL_TIM_Encoder_Start_DMA+0xa4>
 808425e:	6823      	ldr	r3, [r4, #0]
 8084260:	681a      	ldr	r2, [r3, #0]
 8084262:	f042 0201 	orr.w	r2, r2, #1
 8084266:	601a      	str	r2, [r3, #0]
 8084268:	6a1a      	ldr	r2, [r3, #32]
 808426a:	f022 0201 	bic.w	r2, r2, #1
 808426e:	621a      	str	r2, [r3, #32]
 8084270:	6a1a      	ldr	r2, [r3, #32]
 8084272:	f042 0201 	orr.w	r2, r2, #1
 8084276:	621a      	str	r2, [r3, #32]
 8084278:	6a1a      	ldr	r2, [r3, #32]
 808427a:	f022 0210 	bic.w	r2, r2, #16
 808427e:	621a      	str	r2, [r3, #32]
 8084280:	6a1a      	ldr	r2, [r3, #32]
 8084282:	f042 0210 	orr.w	r2, r2, #16
 8084286:	621a      	str	r2, [r3, #32]
 8084288:	68da      	ldr	r2, [r3, #12]
 808428a:	f442 7200 	orr.w	r2, r2, #512	; 0x200
 808428e:	60da      	str	r2, [r3, #12]
 8084290:	68da      	ldr	r2, [r3, #12]
 8084292:	f442 6280 	orr.w	r2, r2, #1024	; 0x400
 8084296:	60da      	str	r2, [r3, #12]
 8084298:	e76e      	b.n	8084178 <HAL_TIM_Encoder_Start_DMA+0x2c>
 808429a:	bf00      	nop
 808429c:	0808527d 	.word	0x0808527d
 80842a0:	080852e1 	.word	0x080852e1
 80842a4:	08085589 	.word	0x08085589

080842a8 <HAL_TIM_Encoder_Stop_DMA>:
 80842a8:	6803      	ldr	r3, [r0, #0]
 80842aa:	b510      	push	{r4, lr}
 80842ac:	6a1a      	ldr	r2, [r3, #32]
 80842ae:	4604      	mov	r4, r0
 80842b0:	2900      	cmp	r1, #0
 80842b2:	d03b      	beq.n	808432c <HAL_TIM_Encoder_Stop_DMA+0x84>
 80842b4:	2904      	cmp	r1, #4
 80842b6:	d02c      	beq.n	8084312 <HAL_TIM_Encoder_Stop_DMA+0x6a>
 80842b8:	f022 0201 	bic.w	r2, r2, #1
 80842bc:	6a40      	ldr	r0, [r0, #36]	; 0x24
 80842be:	621a      	str	r2, [r3, #32]
 80842c0:	6a1a      	ldr	r2, [r3, #32]
 80842c2:	621a      	str	r2, [r3, #32]
 80842c4:	6a1a      	ldr	r2, [r3, #32]
 80842c6:	f022 0210 	bic.w	r2, r2, #16
 80842ca:	621a      	str	r2, [r3, #32]
 80842cc:	6a1a      	ldr	r2, [r3, #32]
 80842ce:	621a      	str	r2, [r3, #32]
 80842d0:	68da      	ldr	r2, [r3, #12]
 80842d2:	f422 7200 	bic.w	r2, r2, #512	; 0x200
 80842d6:	60da      	str	r2, [r3, #12]
 80842d8:	68da      	ldr	r2, [r3, #12]
 80842da:	f422 6280 	bic.w	r2, r2, #1024	; 0x400
 80842de:	60da      	str	r2, [r3, #12]
 80842e0:	f7fd fb14 	bl	808190c <HAL_DMA_Abort_IT>
 80842e4:	6aa0      	ldr	r0, [r4, #40]	; 0x28
 80842e6:	f7fd fb11 	bl	808190c <HAL_DMA_Abort_IT>
 80842ea:	6823      	ldr	r3, [r4, #0]
 80842ec:	6a19      	ldr	r1, [r3, #32]
 80842ee:	f241 1211 	movw	r2, #4369	; 0x1111
 80842f2:	4211      	tst	r1, r2
 80842f4:	d108      	bne.n	8084308 <HAL_TIM_Encoder_Stop_DMA+0x60>
 80842f6:	6a19      	ldr	r1, [r3, #32]
 80842f8:	f240 4244 	movw	r2, #1092	; 0x444
 80842fc:	4211      	tst	r1, r2
 80842fe:	d103      	bne.n	8084308 <HAL_TIM_Encoder_Stop_DMA+0x60>
 8084300:	681a      	ldr	r2, [r3, #0]
 8084302:	f022 0201 	bic.w	r2, r2, #1
 8084306:	601a      	str	r2, [r3, #0]
 8084308:	2301      	movs	r3, #1
 808430a:	f884 303d 	strb.w	r3, [r4, #61]	; 0x3d
 808430e:	2000      	movs	r0, #0
 8084310:	bd10      	pop	{r4, pc}
 8084312:	f022 0210 	bic.w	r2, r2, #16
 8084316:	6a80      	ldr	r0, [r0, #40]	; 0x28
 8084318:	621a      	str	r2, [r3, #32]
 808431a:	6a1a      	ldr	r2, [r3, #32]
 808431c:	621a      	str	r2, [r3, #32]
 808431e:	68da      	ldr	r2, [r3, #12]
 8084320:	f422 6280 	bic.w	r2, r2, #1024	; 0x400
 8084324:	60da      	str	r2, [r3, #12]
 8084326:	f7fd faf1 	bl	808190c <HAL_DMA_Abort_IT>
 808432a:	e7de      	b.n	80842ea <HAL_TIM_Encoder_Stop_DMA+0x42>
 808432c:	f022 0201 	bic.w	r2, r2, #1
 8084330:	6a40      	ldr	r0, [r0, #36]	; 0x24
 8084332:	621a      	str	r2, [r3, #32]
 8084334:	6a1a      	ldr	r2, [r3, #32]
 8084336:	621a      	str	r2, [r3, #32]
 8084338:	68da      	ldr	r2, [r3, #12]
 808433a:	f422 7200 	bic.w	r2, r2, #512	; 0x200
 808433e:	60da      	str	r2, [r3, #12]
 8084340:	f7fd fae4 	bl	808190c <HAL_DMA_Abort_IT>
 8084344:	e7d1      	b.n	80842ea <HAL_TIM_Encoder_Stop_DMA+0x42>
 8084346:	bf00      	nop

08084348 <HAL_TIM_OC_ConfigChannel>:
 8084348:	f890 303c 	ldrb.w	r3, [r0, #60]	; 0x3c
 808434c:	2b01      	cmp	r3, #1
 808434e:	f000 809a 	beq.w	8084486 <HAL_TIM_OC_ConfigChannel+0x13e>
 8084352:	b4f0      	push	{r4, r5, r6, r7}
 8084354:	2302      	movs	r3, #2
 8084356:	2401      	movs	r4, #1
 8084358:	f880 403c 	strb.w	r4, [r0, #60]	; 0x3c
 808435c:	f880 303d 	strb.w	r3, [r0, #61]	; 0x3d
 8084360:	2a0c      	cmp	r2, #12
 8084362:	d829      	bhi.n	80843b8 <HAL_TIM_OC_ConfigChannel+0x70>
 8084364:	e8df f002 	tbb	[pc, r2]
 8084368:	28282807 	.word	0x28282807
 808436c:	28282851 	.word	0x28282851
 8084370:	28282870 	.word	0x28282870
 8084374:	31          	.byte	0x31
 8084375:	00          	.byte	0x00
 8084376:	6803      	ldr	r3, [r0, #0]
 8084378:	f8d1 c008 	ldr.w	ip, [r1, #8]
 808437c:	6a1d      	ldr	r5, [r3, #32]
 808437e:	680f      	ldr	r7, [r1, #0]
 8084380:	4e5b      	ldr	r6, [pc, #364]	; (80844f0 <HAL_TIM_OC_ConfigChannel+0x1a8>)
 8084382:	f025 0501 	bic.w	r5, r5, #1
 8084386:	621d      	str	r5, [r3, #32]
 8084388:	6a1a      	ldr	r2, [r3, #32]
 808438a:	685d      	ldr	r5, [r3, #4]
 808438c:	699c      	ldr	r4, [r3, #24]
 808438e:	f022 0202 	bic.w	r2, r2, #2
 8084392:	f024 0473 	bic.w	r4, r4, #115	; 0x73
 8084396:	42b3      	cmp	r3, r6
 8084398:	ea42 020c 	orr.w	r2, r2, ip
 808439c:	ea44 0407 	orr.w	r4, r4, r7
 80843a0:	f000 8089 	beq.w	80844b6 <HAL_TIM_OC_ConfigChannel+0x16e>
 80843a4:	f506 6680 	add.w	r6, r6, #1024	; 0x400
 80843a8:	42b3      	cmp	r3, r6
 80843aa:	f000 8084 	beq.w	80844b6 <HAL_TIM_OC_ConfigChannel+0x16e>
 80843ae:	6849      	ldr	r1, [r1, #4]
 80843b0:	605d      	str	r5, [r3, #4]
 80843b2:	619c      	str	r4, [r3, #24]
 80843b4:	6359      	str	r1, [r3, #52]	; 0x34
 80843b6:	621a      	str	r2, [r3, #32]
 80843b8:	2300      	movs	r3, #0
 80843ba:	2201      	movs	r2, #1
 80843bc:	f880 203d 	strb.w	r2, [r0, #61]	; 0x3d
 80843c0:	f880 303c 	strb.w	r3, [r0, #60]	; 0x3c
 80843c4:	bcf0      	pop	{r4, r5, r6, r7}
 80843c6:	4618      	mov	r0, r3
 80843c8:	4770      	bx	lr
 80843ca:	6803      	ldr	r3, [r0, #0]
 80843cc:	f8d1 c008 	ldr.w	ip, [r1, #8]
 80843d0:	6a1d      	ldr	r5, [r3, #32]
 80843d2:	680f      	ldr	r7, [r1, #0]
 80843d4:	4e46      	ldr	r6, [pc, #280]	; (80844f0 <HAL_TIM_OC_ConfigChannel+0x1a8>)
 80843d6:	f425 5580 	bic.w	r5, r5, #4096	; 0x1000
 80843da:	621d      	str	r5, [r3, #32]
 80843dc:	6a1a      	ldr	r2, [r3, #32]
 80843de:	685d      	ldr	r5, [r3, #4]
 80843e0:	69dc      	ldr	r4, [r3, #28]
 80843e2:	f422 5200 	bic.w	r2, r2, #8192	; 0x2000
 80843e6:	f424 44e6 	bic.w	r4, r4, #29440	; 0x7300
 80843ea:	42b3      	cmp	r3, r6
 80843ec:	ea42 320c 	orr.w	r2, r2, ip, lsl #12
 80843f0:	ea44 2407 	orr.w	r4, r4, r7, lsl #8
 80843f4:	d049      	beq.n	808448a <HAL_TIM_OC_ConfigChannel+0x142>
 80843f6:	f506 6680 	add.w	r6, r6, #1024	; 0x400
 80843fa:	42b3      	cmp	r3, r6
 80843fc:	d045      	beq.n	808448a <HAL_TIM_OC_ConfigChannel+0x142>
 80843fe:	6849      	ldr	r1, [r1, #4]
 8084400:	605d      	str	r5, [r3, #4]
 8084402:	61dc      	str	r4, [r3, #28]
 8084404:	6419      	str	r1, [r3, #64]	; 0x40
 8084406:	621a      	str	r2, [r3, #32]
 8084408:	e7d6      	b.n	80843b8 <HAL_TIM_OC_ConfigChannel+0x70>
 808440a:	6803      	ldr	r3, [r0, #0]
 808440c:	688f      	ldr	r7, [r1, #8]
 808440e:	6a1d      	ldr	r5, [r3, #32]
 8084410:	680e      	ldr	r6, [r1, #0]
 8084412:	f8df c0dc 	ldr.w	ip, [pc, #220]	; 80844f0 <HAL_TIM_OC_ConfigChannel+0x1a8>
 8084416:	f025 0510 	bic.w	r5, r5, #16
 808441a:	621d      	str	r5, [r3, #32]
 808441c:	6a1a      	ldr	r2, [r3, #32]
 808441e:	685d      	ldr	r5, [r3, #4]
 8084420:	699c      	ldr	r4, [r3, #24]
 8084422:	f022 0220 	bic.w	r2, r2, #32
 8084426:	f424 44e6 	bic.w	r4, r4, #29440	; 0x7300
 808442a:	4563      	cmp	r3, ip
 808442c:	ea42 1207 	orr.w	r2, r2, r7, lsl #4
 8084430:	ea44 2406 	orr.w	r4, r4, r6, lsl #8
 8084434:	d04c      	beq.n	80844d0 <HAL_TIM_OC_ConfigChannel+0x188>
 8084436:	4f2f      	ldr	r7, [pc, #188]	; (80844f4 <HAL_TIM_OC_ConfigChannel+0x1ac>)
 8084438:	42bb      	cmp	r3, r7
 808443a:	d049      	beq.n	80844d0 <HAL_TIM_OC_ConfigChannel+0x188>
 808443c:	6849      	ldr	r1, [r1, #4]
 808443e:	605d      	str	r5, [r3, #4]
 8084440:	619c      	str	r4, [r3, #24]
 8084442:	6399      	str	r1, [r3, #56]	; 0x38
 8084444:	621a      	str	r2, [r3, #32]
 8084446:	e7b7      	b.n	80843b8 <HAL_TIM_OC_ConfigChannel+0x70>
 8084448:	6803      	ldr	r3, [r0, #0]
 808444a:	688f      	ldr	r7, [r1, #8]
 808444c:	6a1d      	ldr	r5, [r3, #32]
 808444e:	680e      	ldr	r6, [r1, #0]
 8084450:	f8df c09c 	ldr.w	ip, [pc, #156]	; 80844f0 <HAL_TIM_OC_ConfigChannel+0x1a8>
 8084454:	f425 7580 	bic.w	r5, r5, #256	; 0x100
 8084458:	621d      	str	r5, [r3, #32]
 808445a:	6a1a      	ldr	r2, [r3, #32]
 808445c:	685d      	ldr	r5, [r3, #4]
 808445e:	69dc      	ldr	r4, [r3, #28]
 8084460:	f422 7200 	bic.w	r2, r2, #512	; 0x200
 8084464:	f024 0473 	bic.w	r4, r4, #115	; 0x73
 8084468:	4563      	cmp	r3, ip
 808446a:	ea42 2207 	orr.w	r2, r2, r7, lsl #8
 808446e:	ea44 0406 	orr.w	r4, r4, r6
 8084472:	d010      	beq.n	8084496 <HAL_TIM_OC_ConfigChannel+0x14e>
 8084474:	4f1f      	ldr	r7, [pc, #124]	; (80844f4 <HAL_TIM_OC_ConfigChannel+0x1ac>)
 8084476:	42bb      	cmp	r3, r7
 8084478:	d00d      	beq.n	8084496 <HAL_TIM_OC_ConfigChannel+0x14e>
 808447a:	6849      	ldr	r1, [r1, #4]
 808447c:	605d      	str	r5, [r3, #4]
 808447e:	61dc      	str	r4, [r3, #28]
 8084480:	63d9      	str	r1, [r3, #60]	; 0x3c
 8084482:	621a      	str	r2, [r3, #32]
 8084484:	e798      	b.n	80843b8 <HAL_TIM_OC_ConfigChannel+0x70>
 8084486:	2002      	movs	r0, #2
 8084488:	4770      	bx	lr
 808448a:	694e      	ldr	r6, [r1, #20]
 808448c:	f425 4580 	bic.w	r5, r5, #16384	; 0x4000
 8084490:	ea45 1586 	orr.w	r5, r5, r6, lsl #6
 8084494:	e7b3      	b.n	80843fe <HAL_TIM_OC_ConfigChannel+0xb6>
 8084496:	68ce      	ldr	r6, [r1, #12]
 8084498:	f422 6200 	bic.w	r2, r2, #2048	; 0x800
 808449c:	ea42 2206 	orr.w	r2, r2, r6, lsl #8
 80844a0:	e9d1 6705 	ldrd	r6, r7, [r1, #20]
 80844a4:	f425 5c40 	bic.w	ip, r5, #12288	; 0x3000
 80844a8:	ea46 0507 	orr.w	r5, r6, r7
 80844ac:	f422 6280 	bic.w	r2, r2, #1024	; 0x400
 80844b0:	ea4c 1505 	orr.w	r5, ip, r5, lsl #4
 80844b4:	e7e1      	b.n	808447a <HAL_TIM_OC_ConfigChannel+0x132>
 80844b6:	68ce      	ldr	r6, [r1, #12]
 80844b8:	f022 0208 	bic.w	r2, r2, #8
 80844bc:	4332      	orrs	r2, r6
 80844be:	e9d1 6705 	ldrd	r6, r7, [r1, #20]
 80844c2:	f425 7540 	bic.w	r5, r5, #768	; 0x300
 80844c6:	433e      	orrs	r6, r7
 80844c8:	f022 0204 	bic.w	r2, r2, #4
 80844cc:	4335      	orrs	r5, r6
 80844ce:	e76e      	b.n	80843ae <HAL_TIM_OC_ConfigChannel+0x66>
 80844d0:	68ce      	ldr	r6, [r1, #12]
 80844d2:	f022 0280 	bic.w	r2, r2, #128	; 0x80
 80844d6:	ea42 1206 	orr.w	r2, r2, r6, lsl #4
 80844da:	e9d1 6705 	ldrd	r6, r7, [r1, #20]
 80844de:	f425 6c40 	bic.w	ip, r5, #3072	; 0xc00
 80844e2:	ea46 0507 	orr.w	r5, r6, r7
 80844e6:	f022 0240 	bic.w	r2, r2, #64	; 0x40
 80844ea:	ea4c 0585 	orr.w	r5, ip, r5, lsl #2
 80844ee:	e7a5      	b.n	808443c <HAL_TIM_OC_ConfigChannel+0xf4>
 80844f0:	40010000 	.word	0x40010000
 80844f4:	40010400 	.word	0x40010400

080844f8 <HAL_TIM_IC_ConfigChannel>:
 80844f8:	f890 303c 	ldrb.w	r3, [r0, #60]	; 0x3c
 80844fc:	2b01      	cmp	r3, #1
 80844fe:	f000 809d 	beq.w	808463c <HAL_TIM_IC_ConfigChannel+0x144>
 8084502:	b4f0      	push	{r4, r5, r6, r7}
 8084504:	2302      	movs	r3, #2
 8084506:	2401      	movs	r4, #1
 8084508:	f880 403c 	strb.w	r4, [r0, #60]	; 0x3c
 808450c:	f880 303d 	strb.w	r3, [r0, #61]	; 0x3d
 8084510:	e9d1 5700 	ldrd	r5, r7, [r1]
 8084514:	6803      	ldr	r3, [r0, #0]
 8084516:	e9d1 6402 	ldrd	r6, r4, [r1, #8]
 808451a:	b372      	cbz	r2, 808457a <HAL_TIM_IC_ConfigChannel+0x82>
 808451c:	2a04      	cmp	r2, #4
 808451e:	d06b      	beq.n	80845f8 <HAL_TIM_IC_ConfigChannel+0x100>
 8084520:	2a08      	cmp	r2, #8
 8084522:	6a1a      	ldr	r2, [r3, #32]
 8084524:	f000 808c 	beq.w	8084640 <HAL_TIM_IC_ConfigChannel+0x148>
 8084528:	f422 5280 	bic.w	r2, r2, #4096	; 0x1000
 808452c:	621a      	str	r2, [r3, #32]
 808452e:	69d9      	ldr	r1, [r3, #28]
 8084530:	f8d3 c020 	ldr.w	ip, [r3, #32]
 8084534:	f421 7140 	bic.w	r1, r1, #768	; 0x300
 8084538:	0324      	lsls	r4, r4, #12
 808453a:	032a      	lsls	r2, r5, #12
 808453c:	ea41 2107 	orr.w	r1, r1, r7, lsl #8
 8084540:	b2a4      	uxth	r4, r4
 8084542:	f402 4220 	and.w	r2, r2, #40960	; 0xa000
 8084546:	f421 4170 	bic.w	r1, r1, #61440	; 0xf000
 808454a:	f42c 4c20 	bic.w	ip, ip, #40960	; 0xa000
 808454e:	ea42 020c 	orr.w	r2, r2, ip
 8084552:	430c      	orrs	r4, r1
 8084554:	61dc      	str	r4, [r3, #28]
 8084556:	621a      	str	r2, [r3, #32]
 8084558:	69da      	ldr	r2, [r3, #28]
 808455a:	f422 6240 	bic.w	r2, r2, #3072	; 0xc00
 808455e:	61da      	str	r2, [r3, #28]
 8084560:	69da      	ldr	r2, [r3, #28]
 8084562:	ea42 2606 	orr.w	r6, r2, r6, lsl #8
 8084566:	61de      	str	r6, [r3, #28]
 8084568:	2300      	movs	r3, #0
 808456a:	2201      	movs	r2, #1
 808456c:	f880 203d 	strb.w	r2, [r0, #61]	; 0x3d
 8084570:	f880 303c 	strb.w	r3, [r0, #60]	; 0x3c
 8084574:	bcf0      	pop	{r4, r5, r6, r7}
 8084576:	4618      	mov	r0, r3
 8084578:	4770      	bx	lr
 808457a:	6a1a      	ldr	r2, [r3, #32]
 808457c:	f8df c100 	ldr.w	ip, [pc, #256]	; 8084680 <HAL_TIM_IC_ConfigChannel+0x188>
 8084580:	f022 0201 	bic.w	r2, r2, #1
 8084584:	621a      	str	r2, [r3, #32]
 8084586:	4563      	cmp	r3, ip
 8084588:	6999      	ldr	r1, [r3, #24]
 808458a:	6a1a      	ldr	r2, [r3, #32]
 808458c:	d01d      	beq.n	80845ca <HAL_TIM_IC_ConfigChannel+0xd2>
 808458e:	f1b3 4f80 	cmp.w	r3, #1073741824	; 0x40000000
 8084592:	d01a      	beq.n	80845ca <HAL_TIM_IC_ConfigChannel+0xd2>
 8084594:	f5ac 4c7c 	sub.w	ip, ip, #64512	; 0xfc00
 8084598:	4563      	cmp	r3, ip
 808459a:	d016      	beq.n	80845ca <HAL_TIM_IC_ConfigChannel+0xd2>
 808459c:	f50c 6c80 	add.w	ip, ip, #1024	; 0x400
 80845a0:	4563      	cmp	r3, ip
 80845a2:	d012      	beq.n	80845ca <HAL_TIM_IC_ConfigChannel+0xd2>
 80845a4:	f50c 6c80 	add.w	ip, ip, #1024	; 0x400
 80845a8:	4563      	cmp	r3, ip
 80845aa:	d00e      	beq.n	80845ca <HAL_TIM_IC_ConfigChannel+0xd2>
 80845ac:	f50c 4c78 	add.w	ip, ip, #63488	; 0xf800
 80845b0:	4563      	cmp	r3, ip
 80845b2:	d00a      	beq.n	80845ca <HAL_TIM_IC_ConfigChannel+0xd2>
 80845b4:	f50c 5c70 	add.w	ip, ip, #15360	; 0x3c00
 80845b8:	4563      	cmp	r3, ip
 80845ba:	d006      	beq.n	80845ca <HAL_TIM_IC_ConfigChannel+0xd2>
 80845bc:	f5ac 3c94 	sub.w	ip, ip, #75776	; 0x12800
 80845c0:	4563      	cmp	r3, ip
 80845c2:	d002      	beq.n	80845ca <HAL_TIM_IC_ConfigChannel+0xd2>
 80845c4:	f041 0101 	orr.w	r1, r1, #1
 80845c8:	e002      	b.n	80845d0 <HAL_TIM_IC_ConfigChannel+0xd8>
 80845ca:	f021 0103 	bic.w	r1, r1, #3
 80845ce:	4339      	orrs	r1, r7
 80845d0:	0124      	lsls	r4, r4, #4
 80845d2:	f022 070a 	bic.w	r7, r2, #10
 80845d6:	b2e4      	uxtb	r4, r4
 80845d8:	f021 01f0 	bic.w	r1, r1, #240	; 0xf0
 80845dc:	f005 020a 	and.w	r2, r5, #10
 80845e0:	433a      	orrs	r2, r7
 80845e2:	4321      	orrs	r1, r4
 80845e4:	6199      	str	r1, [r3, #24]
 80845e6:	621a      	str	r2, [r3, #32]
 80845e8:	699a      	ldr	r2, [r3, #24]
 80845ea:	f022 020c 	bic.w	r2, r2, #12
 80845ee:	619a      	str	r2, [r3, #24]
 80845f0:	699a      	ldr	r2, [r3, #24]
 80845f2:	4316      	orrs	r6, r2
 80845f4:	619e      	str	r6, [r3, #24]
 80845f6:	e7b7      	b.n	8084568 <HAL_TIM_IC_ConfigChannel+0x70>
 80845f8:	6a1a      	ldr	r2, [r3, #32]
 80845fa:	f022 0210 	bic.w	r2, r2, #16
 80845fe:	621a      	str	r2, [r3, #32]
 8084600:	6999      	ldr	r1, [r3, #24]
 8084602:	f8d3 c020 	ldr.w	ip, [r3, #32]
 8084606:	f421 7140 	bic.w	r1, r1, #768	; 0x300
 808460a:	0324      	lsls	r4, r4, #12
 808460c:	012a      	lsls	r2, r5, #4
 808460e:	ea41 2107 	orr.w	r1, r1, r7, lsl #8
 8084612:	b2a4      	uxth	r4, r4
 8084614:	f002 02a0 	and.w	r2, r2, #160	; 0xa0
 8084618:	f421 4170 	bic.w	r1, r1, #61440	; 0xf000
 808461c:	f02c 0ca0 	bic.w	ip, ip, #160	; 0xa0
 8084620:	ea42 020c 	orr.w	r2, r2, ip
 8084624:	4321      	orrs	r1, r4
 8084626:	6199      	str	r1, [r3, #24]
 8084628:	621a      	str	r2, [r3, #32]
 808462a:	699a      	ldr	r2, [r3, #24]
 808462c:	f422 6240 	bic.w	r2, r2, #3072	; 0xc00
 8084630:	619a      	str	r2, [r3, #24]
 8084632:	699a      	ldr	r2, [r3, #24]
 8084634:	ea42 2606 	orr.w	r6, r2, r6, lsl #8
 8084638:	619e      	str	r6, [r3, #24]
 808463a:	e795      	b.n	8084568 <HAL_TIM_IC_ConfigChannel+0x70>
 808463c:	2002      	movs	r0, #2
 808463e:	4770      	bx	lr
 8084640:	f422 7280 	bic.w	r2, r2, #256	; 0x100
 8084644:	621a      	str	r2, [r3, #32]
 8084646:	69d9      	ldr	r1, [r3, #28]
 8084648:	f8d3 c020 	ldr.w	ip, [r3, #32]
 808464c:	f021 0103 	bic.w	r1, r1, #3
 8084650:	0124      	lsls	r4, r4, #4
 8084652:	022a      	lsls	r2, r5, #8
 8084654:	4339      	orrs	r1, r7
 8084656:	b2e4      	uxtb	r4, r4
 8084658:	f402 6220 	and.w	r2, r2, #2560	; 0xa00
 808465c:	f021 01f0 	bic.w	r1, r1, #240	; 0xf0
 8084660:	f42c 6c20 	bic.w	ip, ip, #2560	; 0xa00
 8084664:	ea42 020c 	orr.w	r2, r2, ip
 8084668:	4321      	orrs	r1, r4
 808466a:	61d9      	str	r1, [r3, #28]
 808466c:	621a      	str	r2, [r3, #32]
 808466e:	69da      	ldr	r2, [r3, #28]
 8084670:	f022 020c 	bic.w	r2, r2, #12
 8084674:	61da      	str	r2, [r3, #28]
 8084676:	69da      	ldr	r2, [r3, #28]
 8084678:	4316      	orrs	r6, r2
 808467a:	61de      	str	r6, [r3, #28]
 808467c:	e774      	b.n	8084568 <HAL_TIM_IC_ConfigChannel+0x70>
 808467e:	bf00      	nop
 8084680:	40010000 	.word	0x40010000

08084684 <HAL_TIM_PWM_ConfigChannel>:
 8084684:	f890 303c 	ldrb.w	r3, [r0, #60]	; 0x3c
 8084688:	2b01      	cmp	r3, #1
 808468a:	f000 80cc 	beq.w	8084826 <HAL_TIM_PWM_ConfigChannel+0x1a2>
 808468e:	b4f0      	push	{r4, r5, r6, r7}
 8084690:	2302      	movs	r3, #2
 8084692:	2401      	movs	r4, #1
 8084694:	f880 403c 	strb.w	r4, [r0, #60]	; 0x3c
 8084698:	f880 303d 	strb.w	r3, [r0, #61]	; 0x3d
 808469c:	2a0c      	cmp	r2, #12
 808469e:	d835      	bhi.n	808470c <HAL_TIM_PWM_ConfigChannel+0x88>
 80846a0:	e8df f002 	tbb	[pc, r2]
 80846a4:	34343407 	.word	0x34343407
 80846a8:	3434346a 	.word	0x3434346a
 80846ac:	34343496 	.word	0x34343496
 80846b0:	3d          	.byte	0x3d
 80846b1:	00          	.byte	0x00
 80846b2:	6803      	ldr	r3, [r0, #0]
 80846b4:	f8d1 c008 	ldr.w	ip, [r1, #8]
 80846b8:	6a1d      	ldr	r5, [r3, #32]
 80846ba:	680f      	ldr	r7, [r1, #0]
 80846bc:	4e74      	ldr	r6, [pc, #464]	; (8084890 <HAL_TIM_PWM_ConfigChannel+0x20c>)
 80846be:	f025 0501 	bic.w	r5, r5, #1
 80846c2:	621d      	str	r5, [r3, #32]
 80846c4:	6a1a      	ldr	r2, [r3, #32]
 80846c6:	685d      	ldr	r5, [r3, #4]
 80846c8:	699c      	ldr	r4, [r3, #24]
 80846ca:	f022 0202 	bic.w	r2, r2, #2
 80846ce:	f024 0473 	bic.w	r4, r4, #115	; 0x73
 80846d2:	42b3      	cmp	r3, r6
 80846d4:	ea42 020c 	orr.w	r2, r2, ip
 80846d8:	ea44 0407 	orr.w	r4, r4, r7
 80846dc:	f000 80bb 	beq.w	8084856 <HAL_TIM_PWM_ConfigChannel+0x1d2>
 80846e0:	f506 6680 	add.w	r6, r6, #1024	; 0x400
 80846e4:	42b3      	cmp	r3, r6
 80846e6:	f000 80b6 	beq.w	8084856 <HAL_TIM_PWM_ConfigChannel+0x1d2>
 80846ea:	684e      	ldr	r6, [r1, #4]
 80846ec:	605d      	str	r5, [r3, #4]
 80846ee:	619c      	str	r4, [r3, #24]
 80846f0:	635e      	str	r6, [r3, #52]	; 0x34
 80846f2:	621a      	str	r2, [r3, #32]
 80846f4:	699c      	ldr	r4, [r3, #24]
 80846f6:	690d      	ldr	r5, [r1, #16]
 80846f8:	f044 0408 	orr.w	r4, r4, #8
 80846fc:	619c      	str	r4, [r3, #24]
 80846fe:	6999      	ldr	r1, [r3, #24]
 8084700:	f021 0104 	bic.w	r1, r1, #4
 8084704:	6199      	str	r1, [r3, #24]
 8084706:	699a      	ldr	r2, [r3, #24]
 8084708:	432a      	orrs	r2, r5
 808470a:	619a      	str	r2, [r3, #24]
 808470c:	2300      	movs	r3, #0
 808470e:	2201      	movs	r2, #1
 8084710:	f880 203d 	strb.w	r2, [r0, #61]	; 0x3d
 8084714:	f880 303c 	strb.w	r3, [r0, #60]	; 0x3c
 8084718:	bcf0      	pop	{r4, r5, r6, r7}
 808471a:	4618      	mov	r0, r3
 808471c:	4770      	bx	lr
 808471e:	6803      	ldr	r3, [r0, #0]
 8084720:	f8d1 c008 	ldr.w	ip, [r1, #8]
 8084724:	6a1d      	ldr	r5, [r3, #32]
 8084726:	680f      	ldr	r7, [r1, #0]
 8084728:	4e59      	ldr	r6, [pc, #356]	; (8084890 <HAL_TIM_PWM_ConfigChannel+0x20c>)
 808472a:	f425 5580 	bic.w	r5, r5, #4096	; 0x1000
 808472e:	621d      	str	r5, [r3, #32]
 8084730:	6a1a      	ldr	r2, [r3, #32]
 8084732:	685d      	ldr	r5, [r3, #4]
 8084734:	69dc      	ldr	r4, [r3, #28]
 8084736:	f422 5200 	bic.w	r2, r2, #8192	; 0x2000
 808473a:	f424 44e6 	bic.w	r4, r4, #29440	; 0x7300
 808473e:	42b3      	cmp	r3, r6
 8084740:	ea42 320c 	orr.w	r2, r2, ip, lsl #12
 8084744:	ea44 2407 	orr.w	r4, r4, r7, lsl #8
 8084748:	d06f      	beq.n	808482a <HAL_TIM_PWM_ConfigChannel+0x1a6>
 808474a:	f506 6680 	add.w	r6, r6, #1024	; 0x400
 808474e:	42b3      	cmp	r3, r6
 8084750:	d06b      	beq.n	808482a <HAL_TIM_PWM_ConfigChannel+0x1a6>
 8084752:	684e      	ldr	r6, [r1, #4]
 8084754:	605d      	str	r5, [r3, #4]
 8084756:	61dc      	str	r4, [r3, #28]
 8084758:	641e      	str	r6, [r3, #64]	; 0x40
 808475a:	621a      	str	r2, [r3, #32]
 808475c:	69dc      	ldr	r4, [r3, #28]
 808475e:	690d      	ldr	r5, [r1, #16]
 8084760:	f444 6400 	orr.w	r4, r4, #2048	; 0x800
 8084764:	61dc      	str	r4, [r3, #28]
 8084766:	69d9      	ldr	r1, [r3, #28]
 8084768:	f421 6180 	bic.w	r1, r1, #1024	; 0x400
 808476c:	61d9      	str	r1, [r3, #28]
 808476e:	69da      	ldr	r2, [r3, #28]
 8084770:	ea42 2205 	orr.w	r2, r2, r5, lsl #8
 8084774:	61da      	str	r2, [r3, #28]
 8084776:	e7c9      	b.n	808470c <HAL_TIM_PWM_ConfigChannel+0x88>
 8084778:	6803      	ldr	r3, [r0, #0]
 808477a:	688f      	ldr	r7, [r1, #8]
 808477c:	6a1d      	ldr	r5, [r3, #32]
 808477e:	680e      	ldr	r6, [r1, #0]
 8084780:	f8df c10c 	ldr.w	ip, [pc, #268]	; 8084890 <HAL_TIM_PWM_ConfigChannel+0x20c>
 8084784:	f025 0510 	bic.w	r5, r5, #16
 8084788:	621d      	str	r5, [r3, #32]
 808478a:	6a1a      	ldr	r2, [r3, #32]
 808478c:	685d      	ldr	r5, [r3, #4]
 808478e:	699c      	ldr	r4, [r3, #24]
 8084790:	f022 0220 	bic.w	r2, r2, #32
 8084794:	f424 44e6 	bic.w	r4, r4, #29440	; 0x7300
 8084798:	4563      	cmp	r3, ip
 808479a:	ea42 1207 	orr.w	r2, r2, r7, lsl #4
 808479e:	ea44 2406 	orr.w	r4, r4, r6, lsl #8
 80847a2:	d065      	beq.n	8084870 <HAL_TIM_PWM_ConfigChannel+0x1ec>
 80847a4:	4f3b      	ldr	r7, [pc, #236]	; (8084894 <HAL_TIM_PWM_ConfigChannel+0x210>)
 80847a6:	42bb      	cmp	r3, r7
 80847a8:	d062      	beq.n	8084870 <HAL_TIM_PWM_ConfigChannel+0x1ec>
 80847aa:	684e      	ldr	r6, [r1, #4]
 80847ac:	605d      	str	r5, [r3, #4]
 80847ae:	619c      	str	r4, [r3, #24]
 80847b0:	639e      	str	r6, [r3, #56]	; 0x38
 80847b2:	621a      	str	r2, [r3, #32]
 80847b4:	699c      	ldr	r4, [r3, #24]
 80847b6:	690d      	ldr	r5, [r1, #16]
 80847b8:	f444 6400 	orr.w	r4, r4, #2048	; 0x800
 80847bc:	619c      	str	r4, [r3, #24]
 80847be:	6999      	ldr	r1, [r3, #24]
 80847c0:	f421 6180 	bic.w	r1, r1, #1024	; 0x400
 80847c4:	6199      	str	r1, [r3, #24]
 80847c6:	699a      	ldr	r2, [r3, #24]
 80847c8:	ea42 2205 	orr.w	r2, r2, r5, lsl #8
 80847cc:	619a      	str	r2, [r3, #24]
 80847ce:	e79d      	b.n	808470c <HAL_TIM_PWM_ConfigChannel+0x88>
 80847d0:	6803      	ldr	r3, [r0, #0]
 80847d2:	688f      	ldr	r7, [r1, #8]
 80847d4:	6a1d      	ldr	r5, [r3, #32]
 80847d6:	680e      	ldr	r6, [r1, #0]
 80847d8:	f8df c0b4 	ldr.w	ip, [pc, #180]	; 8084890 <HAL_TIM_PWM_ConfigChannel+0x20c>
 80847dc:	f425 7580 	bic.w	r5, r5, #256	; 0x100
 80847e0:	621d      	str	r5, [r3, #32]
 80847e2:	6a1a      	ldr	r2, [r3, #32]
 80847e4:	685d      	ldr	r5, [r3, #4]
 80847e6:	69dc      	ldr	r4, [r3, #28]
 80847e8:	f422 7200 	bic.w	r2, r2, #512	; 0x200
 80847ec:	f024 0473 	bic.w	r4, r4, #115	; 0x73
 80847f0:	4563      	cmp	r3, ip
 80847f2:	ea42 2207 	orr.w	r2, r2, r7, lsl #8
 80847f6:	ea44 0406 	orr.w	r4, r4, r6
 80847fa:	d01c      	beq.n	8084836 <HAL_TIM_PWM_ConfigChannel+0x1b2>
 80847fc:	4f25      	ldr	r7, [pc, #148]	; (8084894 <HAL_TIM_PWM_ConfigChannel+0x210>)
 80847fe:	42bb      	cmp	r3, r7
 8084800:	d019      	beq.n	8084836 <HAL_TIM_PWM_ConfigChannel+0x1b2>
 8084802:	684e      	ldr	r6, [r1, #4]
 8084804:	605d      	str	r5, [r3, #4]
 8084806:	61dc      	str	r4, [r3, #28]
 8084808:	63de      	str	r6, [r3, #60]	; 0x3c
 808480a:	621a      	str	r2, [r3, #32]
 808480c:	69dc      	ldr	r4, [r3, #28]
 808480e:	690d      	ldr	r5, [r1, #16]
 8084810:	f044 0408 	orr.w	r4, r4, #8
 8084814:	61dc      	str	r4, [r3, #28]
 8084816:	69d9      	ldr	r1, [r3, #28]
 8084818:	f021 0104 	bic.w	r1, r1, #4
 808481c:	61d9      	str	r1, [r3, #28]
 808481e:	69da      	ldr	r2, [r3, #28]
 8084820:	432a      	orrs	r2, r5
 8084822:	61da      	str	r2, [r3, #28]
 8084824:	e772      	b.n	808470c <HAL_TIM_PWM_ConfigChannel+0x88>
 8084826:	2002      	movs	r0, #2
 8084828:	4770      	bx	lr
 808482a:	694e      	ldr	r6, [r1, #20]
 808482c:	f425 4580 	bic.w	r5, r5, #16384	; 0x4000
 8084830:	ea45 1586 	orr.w	r5, r5, r6, lsl #6
 8084834:	e78d      	b.n	8084752 <HAL_TIM_PWM_ConfigChannel+0xce>
 8084836:	68ce      	ldr	r6, [r1, #12]
 8084838:	f422 6200 	bic.w	r2, r2, #2048	; 0x800
 808483c:	ea42 2206 	orr.w	r2, r2, r6, lsl #8
 8084840:	e9d1 6705 	ldrd	r6, r7, [r1, #20]
 8084844:	f425 5c40 	bic.w	ip, r5, #12288	; 0x3000
 8084848:	ea46 0507 	orr.w	r5, r6, r7
 808484c:	f422 6280 	bic.w	r2, r2, #1024	; 0x400
 8084850:	ea4c 1505 	orr.w	r5, ip, r5, lsl #4
 8084854:	e7d5      	b.n	8084802 <HAL_TIM_PWM_ConfigChannel+0x17e>
 8084856:	68ce      	ldr	r6, [r1, #12]
 8084858:	f022 0208 	bic.w	r2, r2, #8
 808485c:	4332      	orrs	r2, r6
 808485e:	e9d1 6705 	ldrd	r6, r7, [r1, #20]
 8084862:	f425 7540 	bic.w	r5, r5, #768	; 0x300
 8084866:	433e      	orrs	r6, r7
 8084868:	f022 0204 	bic.w	r2, r2, #4
 808486c:	4335      	orrs	r5, r6
 808486e:	e73c      	b.n	80846ea <HAL_TIM_PWM_ConfigChannel+0x66>
 8084870:	68ce      	ldr	r6, [r1, #12]
 8084872:	f022 0280 	bic.w	r2, r2, #128	; 0x80
 8084876:	ea42 1206 	orr.w	r2, r2, r6, lsl #4
 808487a:	e9d1 6705 	ldrd	r6, r7, [r1, #20]
 808487e:	f425 6c40 	bic.w	ip, r5, #3072	; 0xc00
 8084882:	ea46 0507 	orr.w	r5, r6, r7
 8084886:	f022 0240 	bic.w	r2, r2, #64	; 0x40
 808488a:	ea4c 0585 	orr.w	r5, ip, r5, lsl #2
 808488e:	e78c      	b.n	80847aa <HAL_TIM_PWM_ConfigChannel+0x126>
 8084890:	40010000 	.word	0x40010000
 8084894:	40010400 	.word	0x40010400

08084898 <HAL_TIM_OnePulse_ConfigChannel>:
 8084898:	429a      	cmp	r2, r3
 808489a:	d073      	beq.n	8084984 <HAL_TIM_OnePulse_ConfigChannel+0xec>
 808489c:	e92d 4ff0 	stmdb	sp!, {r4, r5, r6, r7, r8, r9, sl, fp, lr}
 80848a0:	f890 403c 	ldrb.w	r4, [r0, #60]	; 0x3c
 80848a4:	2c01      	cmp	r4, #1
 80848a6:	f000 80d6 	beq.w	8084a56 <HAL_TIM_OnePulse_ConfigChannel+0x1be>
 80848aa:	2501      	movs	r5, #1
 80848ac:	2402      	movs	r4, #2
 80848ae:	f880 503c 	strb.w	r5, [r0, #60]	; 0x3c
 80848b2:	f880 403d 	strb.w	r4, [r0, #61]	; 0x3d
 80848b6:	e9d1 c700 	ldrd	ip, r7, [r1]
 80848ba:	e9d1 4802 	ldrd	r4, r8, [r1, #8]
 80848be:	e9d1 5e04 	ldrd	r5, lr, [r1, #16]
 80848c2:	2a00      	cmp	r2, #0
 80848c4:	d060      	beq.n	8084988 <HAL_TIM_OnePulse_ConfigChannel+0xf0>
 80848c6:	2a04      	cmp	r2, #4
 80848c8:	d120      	bne.n	808490c <HAL_TIM_OnePulse_ConfigChannel+0x74>
 80848ca:	6802      	ldr	r2, [r0, #0]
 80848cc:	f8df a1c0 	ldr.w	sl, [pc, #448]	; 8084a90 <HAL_TIM_OnePulse_ConfigChannel+0x1f8>
 80848d0:	6a16      	ldr	r6, [r2, #32]
 80848d2:	f026 0610 	bic.w	r6, r6, #16
 80848d6:	6216      	str	r6, [r2, #32]
 80848d8:	f8d2 b020 	ldr.w	fp, [r2, #32]
 80848dc:	f8d2 9004 	ldr.w	r9, [r2, #4]
 80848e0:	6996      	ldr	r6, [r2, #24]
 80848e2:	f02b 0b20 	bic.w	fp, fp, #32
 80848e6:	f426 46e6 	bic.w	r6, r6, #29440	; 0x7300
 80848ea:	4552      	cmp	r2, sl
 80848ec:	ea4b 1404 	orr.w	r4, fp, r4, lsl #4
 80848f0:	ea46 260c 	orr.w	r6, r6, ip, lsl #8
 80848f4:	f000 80bf 	beq.w	8084a76 <HAL_TIM_OnePulse_ConfigChannel+0x1de>
 80848f8:	f8df c198 	ldr.w	ip, [pc, #408]	; 8084a94 <HAL_TIM_OnePulse_ConfigChannel+0x1fc>
 80848fc:	4562      	cmp	r2, ip
 80848fe:	f000 80ba 	beq.w	8084a76 <HAL_TIM_OnePulse_ConfigChannel+0x1de>
 8084902:	f8c2 9004 	str.w	r9, [r2, #4]
 8084906:	6196      	str	r6, [r2, #24]
 8084908:	6397      	str	r7, [r2, #56]	; 0x38
 808490a:	6214      	str	r4, [r2, #32]
 808490c:	2b00      	cmp	r3, #0
 808490e:	d05c      	beq.n	80849ca <HAL_TIM_OnePulse_ConfigChannel+0x132>
 8084910:	2b04      	cmp	r3, #4
 8084912:	d12e      	bne.n	8084972 <HAL_TIM_OnePulse_ConfigChannel+0xda>
 8084914:	6803      	ldr	r3, [r0, #0]
 8084916:	698a      	ldr	r2, [r1, #24]
 8084918:	6a1d      	ldr	r5, [r3, #32]
 808491a:	f025 0510 	bic.w	r5, r5, #16
 808491e:	e9d1 6107 	ldrd	r6, r1, [r1, #28]
 8084922:	621d      	str	r5, [r3, #32]
 8084924:	699c      	ldr	r4, [r3, #24]
 8084926:	6a1d      	ldr	r5, [r3, #32]
 8084928:	f424 7440 	bic.w	r4, r4, #768	; 0x300
 808492c:	0112      	lsls	r2, r2, #4
 808492e:	0309      	lsls	r1, r1, #12
 8084930:	ea44 2406 	orr.w	r4, r4, r6, lsl #8
 8084934:	f002 02a0 	and.w	r2, r2, #160	; 0xa0
 8084938:	b289      	uxth	r1, r1
 808493a:	f424 4470 	bic.w	r4, r4, #61440	; 0xf000
 808493e:	f025 05a0 	bic.w	r5, r5, #160	; 0xa0
 8084942:	432a      	orrs	r2, r5
 8084944:	4321      	orrs	r1, r4
 8084946:	6199      	str	r1, [r3, #24]
 8084948:	621a      	str	r2, [r3, #32]
 808494a:	699a      	ldr	r2, [r3, #24]
 808494c:	f422 6240 	bic.w	r2, r2, #3072	; 0xc00
 8084950:	619a      	str	r2, [r3, #24]
 8084952:	689a      	ldr	r2, [r3, #8]
 8084954:	f022 0270 	bic.w	r2, r2, #112	; 0x70
 8084958:	609a      	str	r2, [r3, #8]
 808495a:	689a      	ldr	r2, [r3, #8]
 808495c:	f042 0260 	orr.w	r2, r2, #96	; 0x60
 8084960:	609a      	str	r2, [r3, #8]
 8084962:	689a      	ldr	r2, [r3, #8]
 8084964:	f022 0207 	bic.w	r2, r2, #7
 8084968:	609a      	str	r2, [r3, #8]
 808496a:	689a      	ldr	r2, [r3, #8]
 808496c:	f042 0206 	orr.w	r2, r2, #6
 8084970:	609a      	str	r2, [r3, #8]
 8084972:	2300      	movs	r3, #0
 8084974:	2201      	movs	r2, #1
 8084976:	f880 203d 	strb.w	r2, [r0, #61]	; 0x3d
 808497a:	f880 303c 	strb.w	r3, [r0, #60]	; 0x3c
 808497e:	4618      	mov	r0, r3
 8084980:	e8bd 8ff0 	ldmia.w	sp!, {r4, r5, r6, r7, r8, r9, sl, fp, pc}
 8084984:	2001      	movs	r0, #1
 8084986:	4770      	bx	lr
 8084988:	6802      	ldr	r2, [r0, #0]
 808498a:	f8df a104 	ldr.w	sl, [pc, #260]	; 8084a90 <HAL_TIM_OnePulse_ConfigChannel+0x1f8>
 808498e:	6a16      	ldr	r6, [r2, #32]
 8084990:	f026 0601 	bic.w	r6, r6, #1
 8084994:	6216      	str	r6, [r2, #32]
 8084996:	f8d2 b020 	ldr.w	fp, [r2, #32]
 808499a:	f8d2 9004 	ldr.w	r9, [r2, #4]
 808499e:	6996      	ldr	r6, [r2, #24]
 80849a0:	f02b 0b02 	bic.w	fp, fp, #2
 80849a4:	f026 0673 	bic.w	r6, r6, #115	; 0x73
 80849a8:	4552      	cmp	r2, sl
 80849aa:	ea44 040b 	orr.w	r4, r4, fp
 80849ae:	ea4c 0606 	orr.w	r6, ip, r6
 80849b2:	d053      	beq.n	8084a5c <HAL_TIM_OnePulse_ConfigChannel+0x1c4>
 80849b4:	f8df c0dc 	ldr.w	ip, [pc, #220]	; 8084a94 <HAL_TIM_OnePulse_ConfigChannel+0x1fc>
 80849b8:	4562      	cmp	r2, ip
 80849ba:	d04f      	beq.n	8084a5c <HAL_TIM_OnePulse_ConfigChannel+0x1c4>
 80849bc:	f8c2 9004 	str.w	r9, [r2, #4]
 80849c0:	6196      	str	r6, [r2, #24]
 80849c2:	6357      	str	r7, [r2, #52]	; 0x34
 80849c4:	6214      	str	r4, [r2, #32]
 80849c6:	2b00      	cmp	r3, #0
 80849c8:	d1a2      	bne.n	8084910 <HAL_TIM_OnePulse_ConfigChannel+0x78>
 80849ca:	6803      	ldr	r3, [r0, #0]
 80849cc:	4f30      	ldr	r7, [pc, #192]	; (8084a90 <HAL_TIM_OnePulse_ConfigChannel+0x1f8>)
 80849ce:	6a1e      	ldr	r6, [r3, #32]
 80849d0:	6a0a      	ldr	r2, [r1, #32]
 80849d2:	f026 0601 	bic.w	r6, r6, #1
 80849d6:	e9d1 5406 	ldrd	r5, r4, [r1, #24]
 80849da:	42bb      	cmp	r3, r7
 80849dc:	621e      	str	r6, [r3, #32]
 80849de:	699e      	ldr	r6, [r3, #24]
 80849e0:	6a19      	ldr	r1, [r3, #32]
 80849e2:	d01d      	beq.n	8084a20 <HAL_TIM_OnePulse_ConfigChannel+0x188>
 80849e4:	f1b3 4f80 	cmp.w	r3, #1073741824	; 0x40000000
 80849e8:	d01a      	beq.n	8084a20 <HAL_TIM_OnePulse_ConfigChannel+0x188>
 80849ea:	f5a7 477c 	sub.w	r7, r7, #64512	; 0xfc00
 80849ee:	42bb      	cmp	r3, r7
 80849f0:	d016      	beq.n	8084a20 <HAL_TIM_OnePulse_ConfigChannel+0x188>
 80849f2:	f507 6780 	add.w	r7, r7, #1024	; 0x400
 80849f6:	42bb      	cmp	r3, r7
 80849f8:	d012      	beq.n	8084a20 <HAL_TIM_OnePulse_ConfigChannel+0x188>
 80849fa:	f507 6780 	add.w	r7, r7, #1024	; 0x400
 80849fe:	42bb      	cmp	r3, r7
 8084a00:	d00e      	beq.n	8084a20 <HAL_TIM_OnePulse_ConfigChannel+0x188>
 8084a02:	f507 4778 	add.w	r7, r7, #63488	; 0xf800
 8084a06:	42bb      	cmp	r3, r7
 8084a08:	d00a      	beq.n	8084a20 <HAL_TIM_OnePulse_ConfigChannel+0x188>
 8084a0a:	f507 5770 	add.w	r7, r7, #15360	; 0x3c00
 8084a0e:	42bb      	cmp	r3, r7
 8084a10:	d006      	beq.n	8084a20 <HAL_TIM_OnePulse_ConfigChannel+0x188>
 8084a12:	f5a7 3794 	sub.w	r7, r7, #75776	; 0x12800
 8084a16:	42bb      	cmp	r3, r7
 8084a18:	d002      	beq.n	8084a20 <HAL_TIM_OnePulse_ConfigChannel+0x188>
 8084a1a:	f046 0401 	orr.w	r4, r6, #1
 8084a1e:	e002      	b.n	8084a26 <HAL_TIM_OnePulse_ConfigChannel+0x18e>
 8084a20:	f026 0603 	bic.w	r6, r6, #3
 8084a24:	4334      	orrs	r4, r6
 8084a26:	0112      	lsls	r2, r2, #4
 8084a28:	f021 060a 	bic.w	r6, r1, #10
 8084a2c:	b2d2      	uxtb	r2, r2
 8084a2e:	f024 04f0 	bic.w	r4, r4, #240	; 0xf0
 8084a32:	f005 010a 	and.w	r1, r5, #10
 8084a36:	4322      	orrs	r2, r4
 8084a38:	4331      	orrs	r1, r6
 8084a3a:	619a      	str	r2, [r3, #24]
 8084a3c:	6219      	str	r1, [r3, #32]
 8084a3e:	699a      	ldr	r2, [r3, #24]
 8084a40:	f022 020c 	bic.w	r2, r2, #12
 8084a44:	619a      	str	r2, [r3, #24]
 8084a46:	689a      	ldr	r2, [r3, #8]
 8084a48:	f022 0270 	bic.w	r2, r2, #112	; 0x70
 8084a4c:	609a      	str	r2, [r3, #8]
 8084a4e:	689a      	ldr	r2, [r3, #8]
 8084a50:	f042 0250 	orr.w	r2, r2, #80	; 0x50
 8084a54:	e784      	b.n	8084960 <HAL_TIM_OnePulse_ConfigChannel+0xc8>
 8084a56:	2002      	movs	r0, #2
 8084a58:	e8bd 8ff0 	ldmia.w	sp!, {r4, r5, r6, r7, r8, r9, sl, fp, pc}
 8084a5c:	f024 0408 	bic.w	r4, r4, #8
 8084a60:	ea48 0404 	orr.w	r4, r8, r4
 8084a64:	f429 7940 	bic.w	r9, r9, #768	; 0x300
 8084a68:	ea45 050e 	orr.w	r5, r5, lr
 8084a6c:	f024 0404 	bic.w	r4, r4, #4
 8084a70:	ea45 0909 	orr.w	r9, r5, r9
 8084a74:	e7a2      	b.n	80849bc <HAL_TIM_OnePulse_ConfigChannel+0x124>
 8084a76:	f024 0480 	bic.w	r4, r4, #128	; 0x80
 8084a7a:	ea44 1408 	orr.w	r4, r4, r8, lsl #4
 8084a7e:	f429 6940 	bic.w	r9, r9, #3072	; 0xc00
 8084a82:	ea45 050e 	orr.w	r5, r5, lr
 8084a86:	f024 0440 	bic.w	r4, r4, #64	; 0x40
 8084a8a:	ea49 0985 	orr.w	r9, r9, r5, lsl #2
 8084a8e:	e738      	b.n	8084902 <HAL_TIM_OnePulse_ConfigChannel+0x6a>
 8084a90:	40010000 	.word	0x40010000
 8084a94:	40010400 	.word	0x40010400

08084a98 <HAL_TIM_DMABurst_WriteStart>:
 8084a98:	b5f8      	push	{r3, r4, r5, r6, r7, lr}
 8084a9a:	f890 403d 	ldrb.w	r4, [r0, #61]	; 0x3d
 8084a9e:	9d06      	ldr	r5, [sp, #24]
 8084aa0:	b2e4      	uxtb	r4, r4
 8084aa2:	2c02      	cmp	r4, #2
 8084aa4:	d050      	beq.n	8084b48 <HAL_TIM_DMABurst_WriteStart+0xb0>
 8084aa6:	f890 403d 	ldrb.w	r4, [r0, #61]	; 0x3d
 8084aaa:	2c01      	cmp	r4, #1
 8084aac:	d039      	beq.n	8084b22 <HAL_TIM_DMABurst_WriteStart+0x8a>
 8084aae:	4614      	mov	r4, r2
 8084ab0:	f5b4 6f00 	cmp.w	r4, #2048	; 0x800
 8084ab4:	460f      	mov	r7, r1
 8084ab6:	4606      	mov	r6, r0
 8084ab8:	6802      	ldr	r2, [r0, #0]
 8084aba:	d056      	beq.n	8084b6a <HAL_TIM_DMABurst_WriteStart+0xd2>
 8084abc:	d912      	bls.n	8084ae4 <HAL_TIM_DMABurst_WriteStart+0x4c>
 8084abe:	f5b4 5f00 	cmp.w	r4, #8192	; 0x2000
 8084ac2:	d048      	beq.n	8084b56 <HAL_TIM_DMABurst_WriteStart+0xbe>
 8084ac4:	f5b4 4f80 	cmp.w	r4, #16384	; 0x4000
 8084ac8:	d035      	beq.n	8084b36 <HAL_TIM_DMABurst_WriteStart+0x9e>
 8084aca:	f5b4 5f80 	cmp.w	r4, #4096	; 0x1000
 8084ace:	d03d      	beq.n	8084b4c <HAL_TIM_DMABurst_WriteStart+0xb4>
 8084ad0:	433d      	orrs	r5, r7
 8084ad2:	6495      	str	r5, [r2, #72]	; 0x48
 8084ad4:	68d3      	ldr	r3, [r2, #12]
 8084ad6:	2101      	movs	r1, #1
 8084ad8:	431c      	orrs	r4, r3
 8084ada:	60d4      	str	r4, [r2, #12]
 8084adc:	2000      	movs	r0, #0
 8084ade:	f886 103d 	strb.w	r1, [r6, #61]	; 0x3d
 8084ae2:	bdf8      	pop	{r3, r4, r5, r6, r7, pc}
 8084ae4:	f5b4 7f00 	cmp.w	r4, #512	; 0x200
 8084ae8:	d03a      	beq.n	8084b60 <HAL_TIM_DMABurst_WriteStart+0xc8>
 8084aea:	f5b4 6f80 	cmp.w	r4, #1024	; 0x400
 8084aee:	d01d      	beq.n	8084b2c <HAL_TIM_DMABurst_WriteStart+0x94>
 8084af0:	f5b4 7f80 	cmp.w	r4, #256	; 0x100
 8084af4:	d1ec      	bne.n	8084ad0 <HAL_TIM_DMABurst_WriteStart+0x38>
 8084af6:	6a00      	ldr	r0, [r0, #32]
 8084af8:	f8df c088 	ldr.w	ip, [pc, #136]	; 8084b84 <HAL_TIM_DMABurst_WriteStart+0xec>
 8084afc:	491d      	ldr	r1, [pc, #116]	; (8084b74 <HAL_TIM_DMABurst_WriteStart+0xdc>)
 8084afe:	f8c0 c03c 	str.w	ip, [r0, #60]	; 0x3c
 8084b02:	f8df e084 	ldr.w	lr, [pc, #132]	; 8084b88 <HAL_TIM_DMABurst_WriteStart+0xf0>
 8084b06:	6401      	str	r1, [r0, #64]	; 0x40
 8084b08:	ea4f 2c15 	mov.w	ip, r5, lsr #8
 8084b0c:	4619      	mov	r1, r3
 8084b0e:	324c      	adds	r2, #76	; 0x4c
 8084b10:	f8c0 e04c 	str.w	lr, [r0, #76]	; 0x4c
 8084b14:	f10c 0301 	add.w	r3, ip, #1
 8084b18:	f7fc fe6e 	bl	80817f8 <HAL_DMA_Start_IT>
 8084b1c:	b990      	cbnz	r0, 8084b44 <HAL_TIM_DMABurst_WriteStart+0xac>
 8084b1e:	6832      	ldr	r2, [r6, #0]
 8084b20:	e7d6      	b.n	8084ad0 <HAL_TIM_DMABurst_WriteStart+0x38>
 8084b22:	b16b      	cbz	r3, 8084b40 <HAL_TIM_DMABurst_WriteStart+0xa8>
 8084b24:	2402      	movs	r4, #2
 8084b26:	f880 403d 	strb.w	r4, [r0, #61]	; 0x3d
 8084b2a:	e7c0      	b.n	8084aae <HAL_TIM_DMABurst_WriteStart+0x16>
 8084b2c:	6a80      	ldr	r0, [r0, #40]	; 0x28
 8084b2e:	f8df c05c 	ldr.w	ip, [pc, #92]	; 8084b8c <HAL_TIM_DMABurst_WriteStart+0xf4>
 8084b32:	4911      	ldr	r1, [pc, #68]	; (8084b78 <HAL_TIM_DMABurst_WriteStart+0xe0>)
 8084b34:	e7e3      	b.n	8084afe <HAL_TIM_DMABurst_WriteStart+0x66>
 8084b36:	6b80      	ldr	r0, [r0, #56]	; 0x38
 8084b38:	f8df c054 	ldr.w	ip, [pc, #84]	; 8084b90 <HAL_TIM_DMABurst_WriteStart+0xf8>
 8084b3c:	490f      	ldr	r1, [pc, #60]	; (8084b7c <HAL_TIM_DMABurst_WriteStart+0xe4>)
 8084b3e:	e7de      	b.n	8084afe <HAL_TIM_DMABurst_WriteStart+0x66>
 8084b40:	2d00      	cmp	r5, #0
 8084b42:	d0ef      	beq.n	8084b24 <HAL_TIM_DMABurst_WriteStart+0x8c>
 8084b44:	2001      	movs	r0, #1
 8084b46:	bdf8      	pop	{r3, r4, r5, r6, r7, pc}
 8084b48:	4620      	mov	r0, r4
 8084b4a:	bdf8      	pop	{r3, r4, r5, r6, r7, pc}
 8084b4c:	6b00      	ldr	r0, [r0, #48]	; 0x30
 8084b4e:	f8df c03c 	ldr.w	ip, [pc, #60]	; 8084b8c <HAL_TIM_DMABurst_WriteStart+0xf4>
 8084b52:	4909      	ldr	r1, [pc, #36]	; (8084b78 <HAL_TIM_DMABurst_WriteStart+0xe0>)
 8084b54:	e7d3      	b.n	8084afe <HAL_TIM_DMABurst_WriteStart+0x66>
 8084b56:	6b40      	ldr	r0, [r0, #52]	; 0x34
 8084b58:	f8df c038 	ldr.w	ip, [pc, #56]	; 8084b94 <HAL_TIM_DMABurst_WriteStart+0xfc>
 8084b5c:	4908      	ldr	r1, [pc, #32]	; (8084b80 <HAL_TIM_DMABurst_WriteStart+0xe8>)
 8084b5e:	e7ce      	b.n	8084afe <HAL_TIM_DMABurst_WriteStart+0x66>
 8084b60:	6a40      	ldr	r0, [r0, #36]	; 0x24
 8084b62:	f8df c028 	ldr.w	ip, [pc, #40]	; 8084b8c <HAL_TIM_DMABurst_WriteStart+0xf4>
 8084b66:	4904      	ldr	r1, [pc, #16]	; (8084b78 <HAL_TIM_DMABurst_WriteStart+0xe0>)
 8084b68:	e7c9      	b.n	8084afe <HAL_TIM_DMABurst_WriteStart+0x66>
 8084b6a:	6ac0      	ldr	r0, [r0, #44]	; 0x2c
 8084b6c:	f8df c01c 	ldr.w	ip, [pc, #28]	; 8084b8c <HAL_TIM_DMABurst_WriteStart+0xf4>
 8084b70:	4901      	ldr	r1, [pc, #4]	; (8084b78 <HAL_TIM_DMABurst_WriteStart+0xe0>)
 8084b72:	e7c4      	b.n	8084afe <HAL_TIM_DMABurst_WriteStart+0x66>
 8084b74:	08085265 	.word	0x08085265
 8084b78:	080853a9 	.word	0x080853a9
 8084b7c:	08085575 	.word	0x08085575
 8084b80:	080863c9 	.word	0x080863c9
 8084b84:	08085251 	.word	0x08085251
 8084b88:	08085589 	.word	0x08085589
 8084b8c:	08085345 	.word	0x08085345
 8084b90:	08085561 	.word	0x08085561
 8084b94:	080863b5 	.word	0x080863b5

08084b98 <HAL_TIM_DMABurst_WriteStop>:
 8084b98:	f5b1 6f00 	cmp.w	r1, #2048	; 0x800
 8084b9c:	b538      	push	{r3, r4, r5, lr}
 8084b9e:	460c      	mov	r4, r1
 8084ba0:	4605      	mov	r5, r0
 8084ba2:	d03d      	beq.n	8084c20 <HAL_TIM_DMABurst_WriteStop+0x88>
 8084ba4:	d90f      	bls.n	8084bc6 <HAL_TIM_DMABurst_WriteStop+0x2e>
 8084ba6:	f5b1 5f00 	cmp.w	r1, #8192	; 0x2000
 8084baa:	d027      	beq.n	8084bfc <HAL_TIM_DMABurst_WriteStop+0x64>
 8084bac:	f5b1 4f80 	cmp.w	r1, #16384	; 0x4000
 8084bb0:	d018      	beq.n	8084be4 <HAL_TIM_DMABurst_WriteStop+0x4c>
 8084bb2:	f5b1 5f80 	cmp.w	r1, #4096	; 0x1000
 8084bb6:	d027      	beq.n	8084c08 <HAL_TIM_DMABurst_WriteStop+0x70>
 8084bb8:	682b      	ldr	r3, [r5, #0]
 8084bba:	68d9      	ldr	r1, [r3, #12]
 8084bbc:	ea21 0404 	bic.w	r4, r1, r4
 8084bc0:	60dc      	str	r4, [r3, #12]
 8084bc2:	2000      	movs	r0, #0
 8084bc4:	bd38      	pop	{r3, r4, r5, pc}
 8084bc6:	f5b1 7f00 	cmp.w	r1, #512	; 0x200
 8084bca:	d023      	beq.n	8084c14 <HAL_TIM_DMABurst_WriteStop+0x7c>
 8084bcc:	f5b1 6f80 	cmp.w	r1, #1024	; 0x400
 8084bd0:	d00e      	beq.n	8084bf0 <HAL_TIM_DMABurst_WriteStop+0x58>
 8084bd2:	f5b1 7f80 	cmp.w	r1, #256	; 0x100
 8084bd6:	d1ef      	bne.n	8084bb8 <HAL_TIM_DMABurst_WriteStop+0x20>
 8084bd8:	6a00      	ldr	r0, [r0, #32]
 8084bda:	f7fc fe97 	bl	808190c <HAL_DMA_Abort_IT>
 8084bde:	2800      	cmp	r0, #0
 8084be0:	d0ea      	beq.n	8084bb8 <HAL_TIM_DMABurst_WriteStop+0x20>
 8084be2:	bd38      	pop	{r3, r4, r5, pc}
 8084be4:	6b80      	ldr	r0, [r0, #56]	; 0x38
 8084be6:	f7fc fe91 	bl	808190c <HAL_DMA_Abort_IT>
 8084bea:	2800      	cmp	r0, #0
 8084bec:	d0e4      	beq.n	8084bb8 <HAL_TIM_DMABurst_WriteStop+0x20>
 8084bee:	e7f8      	b.n	8084be2 <HAL_TIM_DMABurst_WriteStop+0x4a>
 8084bf0:	6a80      	ldr	r0, [r0, #40]	; 0x28
 8084bf2:	f7fc fe8b 	bl	808190c <HAL_DMA_Abort_IT>
 8084bf6:	2800      	cmp	r0, #0
 8084bf8:	d0de      	beq.n	8084bb8 <HAL_TIM_DMABurst_WriteStop+0x20>
 8084bfa:	e7f2      	b.n	8084be2 <HAL_TIM_DMABurst_WriteStop+0x4a>
 8084bfc:	6b40      	ldr	r0, [r0, #52]	; 0x34
 8084bfe:	f7fc fe85 	bl	808190c <HAL_DMA_Abort_IT>
 8084c02:	2800      	cmp	r0, #0
 8084c04:	d0d8      	beq.n	8084bb8 <HAL_TIM_DMABurst_WriteStop+0x20>
 8084c06:	e7ec      	b.n	8084be2 <HAL_TIM_DMABurst_WriteStop+0x4a>
 8084c08:	6b00      	ldr	r0, [r0, #48]	; 0x30
 8084c0a:	f7fc fe7f 	bl	808190c <HAL_DMA_Abort_IT>
 8084c0e:	2800      	cmp	r0, #0
 8084c10:	d0d2      	beq.n	8084bb8 <HAL_TIM_DMABurst_WriteStop+0x20>
 8084c12:	e7e6      	b.n	8084be2 <HAL_TIM_DMABurst_WriteStop+0x4a>
 8084c14:	6a40      	ldr	r0, [r0, #36]	; 0x24
 8084c16:	f7fc fe79 	bl	808190c <HAL_DMA_Abort_IT>
 8084c1a:	2800      	cmp	r0, #0
 8084c1c:	d0cc      	beq.n	8084bb8 <HAL_TIM_DMABurst_WriteStop+0x20>
 8084c1e:	e7e0      	b.n	8084be2 <HAL_TIM_DMABurst_WriteStop+0x4a>
 8084c20:	6ac0      	ldr	r0, [r0, #44]	; 0x2c
 8084c22:	f7fc fe73 	bl	808190c <HAL_DMA_Abort_IT>
 8084c26:	2800      	cmp	r0, #0
 8084c28:	d0c6      	beq.n	8084bb8 <HAL_TIM_DMABurst_WriteStop+0x20>
 8084c2a:	e7da      	b.n	8084be2 <HAL_TIM_DMABurst_WriteStop+0x4a>

08084c2c <HAL_TIM_DMABurst_ReadStart>:
 8084c2c:	e92d 41f0 	stmdb	sp!, {r4, r5, r6, r7, r8, lr}
 8084c30:	f890 403d 	ldrb.w	r4, [r0, #61]	; 0x3d
 8084c34:	9d06      	ldr	r5, [sp, #24]
 8084c36:	b2e4      	uxtb	r4, r4
 8084c38:	2c02      	cmp	r4, #2
 8084c3a:	d050      	beq.n	8084cde <HAL_TIM_DMABurst_ReadStart+0xb2>
 8084c3c:	f890 403d 	ldrb.w	r4, [r0, #61]	; 0x3d
 8084c40:	2c01      	cmp	r4, #1
 8084c42:	d03a      	beq.n	8084cba <HAL_TIM_DMABurst_ReadStart+0x8e>
 8084c44:	f5b2 6f00 	cmp.w	r2, #2048	; 0x800
 8084c48:	4614      	mov	r4, r2
 8084c4a:	4688      	mov	r8, r1
 8084c4c:	4606      	mov	r6, r0
 8084c4e:	6807      	ldr	r7, [r0, #0]
 8084c50:	d054      	beq.n	8084cfc <HAL_TIM_DMABurst_ReadStart+0xd0>
 8084c52:	d914      	bls.n	8084c7e <HAL_TIM_DMABurst_ReadStart+0x52>
 8084c54:	f5b2 5f00 	cmp.w	r2, #8192	; 0x2000
 8084c58:	d044      	beq.n	8084ce4 <HAL_TIM_DMABurst_ReadStart+0xb8>
 8084c5a:	f5b2 4f80 	cmp.w	r2, #16384	; 0x4000
 8084c5e:	d031      	beq.n	8084cc4 <HAL_TIM_DMABurst_ReadStart+0x98>
 8084c60:	f5b2 5f80 	cmp.w	r2, #4096	; 0x1000
 8084c64:	d042      	beq.n	8084cec <HAL_TIM_DMABurst_ReadStart+0xc0>
 8084c66:	ea45 0508 	orr.w	r5, r5, r8
 8084c6a:	64bd      	str	r5, [r7, #72]	; 0x48
 8084c6c:	68fa      	ldr	r2, [r7, #12]
 8084c6e:	2301      	movs	r3, #1
 8084c70:	4314      	orrs	r4, r2
 8084c72:	60fc      	str	r4, [r7, #12]
 8084c74:	2000      	movs	r0, #0
 8084c76:	f886 303d 	strb.w	r3, [r6, #61]	; 0x3d
 8084c7a:	e8bd 81f0 	ldmia.w	sp!, {r4, r5, r6, r7, r8, pc}
 8084c7e:	f5b2 7f00 	cmp.w	r2, #512	; 0x200
 8084c82:	d037      	beq.n	8084cf4 <HAL_TIM_DMABurst_ReadStart+0xc8>
 8084c84:	f5b2 6f80 	cmp.w	r2, #1024	; 0x400
 8084c88:	d020      	beq.n	8084ccc <HAL_TIM_DMABurst_ReadStart+0xa0>
 8084c8a:	f5b2 7f80 	cmp.w	r2, #256	; 0x100
 8084c8e:	d1ea      	bne.n	8084c66 <HAL_TIM_DMABurst_ReadStart+0x3a>
 8084c90:	6a00      	ldr	r0, [r0, #32]
 8084c92:	491c      	ldr	r1, [pc, #112]	; (8084d04 <HAL_TIM_DMABurst_ReadStart+0xd8>)
 8084c94:	4a1c      	ldr	r2, [pc, #112]	; (8084d08 <HAL_TIM_DMABurst_ReadStart+0xdc>)
 8084c96:	f8df e08c 	ldr.w	lr, [pc, #140]	; 8084d24 <HAL_TIM_DMABurst_ReadStart+0xf8>
 8084c9a:	63c1      	str	r1, [r0, #60]	; 0x3c
 8084c9c:	ea4f 2c15 	mov.w	ip, r5, lsr #8
 8084ca0:	6402      	str	r2, [r0, #64]	; 0x40
 8084ca2:	f107 014c 	add.w	r1, r7, #76	; 0x4c
 8084ca6:	461a      	mov	r2, r3
 8084ca8:	f8c0 e04c 	str.w	lr, [r0, #76]	; 0x4c
 8084cac:	f10c 0301 	add.w	r3, ip, #1
 8084cb0:	f7fc fda2 	bl	80817f8 <HAL_DMA_Start_IT>
 8084cb4:	b980      	cbnz	r0, 8084cd8 <HAL_TIM_DMABurst_ReadStart+0xac>
 8084cb6:	6837      	ldr	r7, [r6, #0]
 8084cb8:	e7d5      	b.n	8084c66 <HAL_TIM_DMABurst_ReadStart+0x3a>
 8084cba:	b15b      	cbz	r3, 8084cd4 <HAL_TIM_DMABurst_ReadStart+0xa8>
 8084cbc:	2402      	movs	r4, #2
 8084cbe:	f880 403d 	strb.w	r4, [r0, #61]	; 0x3d
 8084cc2:	e7bf      	b.n	8084c44 <HAL_TIM_DMABurst_ReadStart+0x18>
 8084cc4:	6b80      	ldr	r0, [r0, #56]	; 0x38
 8084cc6:	4911      	ldr	r1, [pc, #68]	; (8084d0c <HAL_TIM_DMABurst_ReadStart+0xe0>)
 8084cc8:	4a11      	ldr	r2, [pc, #68]	; (8084d10 <HAL_TIM_DMABurst_ReadStart+0xe4>)
 8084cca:	e7e4      	b.n	8084c96 <HAL_TIM_DMABurst_ReadStart+0x6a>
 8084ccc:	6a80      	ldr	r0, [r0, #40]	; 0x28
 8084cce:	4911      	ldr	r1, [pc, #68]	; (8084d14 <HAL_TIM_DMABurst_ReadStart+0xe8>)
 8084cd0:	4a11      	ldr	r2, [pc, #68]	; (8084d18 <HAL_TIM_DMABurst_ReadStart+0xec>)
 8084cd2:	e7e0      	b.n	8084c96 <HAL_TIM_DMABurst_ReadStart+0x6a>
 8084cd4:	2d00      	cmp	r5, #0
 8084cd6:	d0f1      	beq.n	8084cbc <HAL_TIM_DMABurst_ReadStart+0x90>
 8084cd8:	2001      	movs	r0, #1
 8084cda:	e8bd 81f0 	ldmia.w	sp!, {r4, r5, r6, r7, r8, pc}
 8084cde:	4620      	mov	r0, r4
 8084ce0:	e8bd 81f0 	ldmia.w	sp!, {r4, r5, r6, r7, r8, pc}
 8084ce4:	6b40      	ldr	r0, [r0, #52]	; 0x34
 8084ce6:	490d      	ldr	r1, [pc, #52]	; (8084d1c <HAL_TIM_DMABurst_ReadStart+0xf0>)
 8084ce8:	4a0d      	ldr	r2, [pc, #52]	; (8084d20 <HAL_TIM_DMABurst_ReadStart+0xf4>)
 8084cea:	e7d4      	b.n	8084c96 <HAL_TIM_DMABurst_ReadStart+0x6a>
 8084cec:	6b00      	ldr	r0, [r0, #48]	; 0x30
 8084cee:	4909      	ldr	r1, [pc, #36]	; (8084d14 <HAL_TIM_DMABurst_ReadStart+0xe8>)
 8084cf0:	4a09      	ldr	r2, [pc, #36]	; (8084d18 <HAL_TIM_DMABurst_ReadStart+0xec>)
 8084cf2:	e7d0      	b.n	8084c96 <HAL_TIM_DMABurst_ReadStart+0x6a>
 8084cf4:	6a40      	ldr	r0, [r0, #36]	; 0x24
 8084cf6:	4907      	ldr	r1, [pc, #28]	; (8084d14 <HAL_TIM_DMABurst_ReadStart+0xe8>)
 8084cf8:	4a07      	ldr	r2, [pc, #28]	; (8084d18 <HAL_TIM_DMABurst_ReadStart+0xec>)
 8084cfa:	e7cc      	b.n	8084c96 <HAL_TIM_DMABurst_ReadStart+0x6a>
 8084cfc:	6ac0      	ldr	r0, [r0, #44]	; 0x2c
 8084cfe:	4905      	ldr	r1, [pc, #20]	; (8084d14 <HAL_TIM_DMABurst_ReadStart+0xe8>)
 8084d00:	4a05      	ldr	r2, [pc, #20]	; (8084d18 <HAL_TIM_DMABurst_ReadStart+0xec>)
 8084d02:	e7c8      	b.n	8084c96 <HAL_TIM_DMABurst_ReadStart+0x6a>
 8084d04:	08085251 	.word	0x08085251
 8084d08:	08085265 	.word	0x08085265
 8084d0c:	08085561 	.word	0x08085561
 8084d10:	08085575 	.word	0x08085575
 8084d14:	0808527d 	.word	0x0808527d
 8084d18:	080852e1 	.word	0x080852e1
 8084d1c:	080863b5 	.word	0x080863b5
 8084d20:	080863c9 	.word	0x080863c9
 8084d24:	08085589 	.word	0x08085589

08084d28 <HAL_TIM_DMABurst_ReadStop>:
 8084d28:	f5b1 6f00 	cmp.w	r1, #2048	; 0x800
 8084d2c:	b538      	push	{r3, r4, r5, lr}
 8084d2e:	460c      	mov	r4, r1
 8084d30:	4605      	mov	r5, r0
 8084d32:	d03d      	beq.n	8084db0 <HAL_TIM_DMABurst_ReadStop+0x88>
 8084d34:	d90f      	bls.n	8084d56 <HAL_TIM_DMABurst_ReadStop+0x2e>
 8084d36:	f5b1 5f00 	cmp.w	r1, #8192	; 0x2000
 8084d3a:	d027      	beq.n	8084d8c <HAL_TIM_DMABurst_ReadStop+0x64>
 8084d3c:	f5b1 4f80 	cmp.w	r1, #16384	; 0x4000
 8084d40:	d018      	beq.n	8084d74 <HAL_TIM_DMABurst_ReadStop+0x4c>
 8084d42:	f5b1 5f80 	cmp.w	r1, #4096	; 0x1000
 8084d46:	d027      	beq.n	8084d98 <HAL_TIM_DMABurst_ReadStop+0x70>
 8084d48:	682b      	ldr	r3, [r5, #0]
 8084d4a:	68d9      	ldr	r1, [r3, #12]
 8084d4c:	ea21 0404 	bic.w	r4, r1, r4
 8084d50:	60dc      	str	r4, [r3, #12]
 8084d52:	2000      	movs	r0, #0
 8084d54:	bd38      	pop	{r3, r4, r5, pc}
 8084d56:	f5b1 7f00 	cmp.w	r1, #512	; 0x200
 8084d5a:	d023      	beq.n	8084da4 <HAL_TIM_DMABurst_ReadStop+0x7c>
 8084d5c:	f5b1 6f80 	cmp.w	r1, #1024	; 0x400
 8084d60:	d00e      	beq.n	8084d80 <HAL_TIM_DMABurst_ReadStop+0x58>
 8084d62:	f5b1 7f80 	cmp.w	r1, #256	; 0x100
 8084d66:	d1ef      	bne.n	8084d48 <HAL_TIM_DMABurst_ReadStop+0x20>
 8084d68:	6a00      	ldr	r0, [r0, #32]
 8084d6a:	f7fc fdcf 	bl	808190c <HAL_DMA_Abort_IT>
 8084d6e:	2800      	cmp	r0, #0
 8084d70:	d0ea      	beq.n	8084d48 <HAL_TIM_DMABurst_ReadStop+0x20>
 8084d72:	bd38      	pop	{r3, r4, r5, pc}
 8084d74:	6b80      	ldr	r0, [r0, #56]	; 0x38
 8084d76:	f7fc fdc9 	bl	808190c <HAL_DMA_Abort_IT>
 8084d7a:	2800      	cmp	r0, #0
 8084d7c:	d0e4      	beq.n	8084d48 <HAL_TIM_DMABurst_ReadStop+0x20>
 8084d7e:	e7f8      	b.n	8084d72 <HAL_TIM_DMABurst_ReadStop+0x4a>
 8084d80:	6a80      	ldr	r0, [r0, #40]	; 0x28
 8084d82:	f7fc fdc3 	bl	808190c <HAL_DMA_Abort_IT>
 8084d86:	2800      	cmp	r0, #0
 8084d88:	d0de      	beq.n	8084d48 <HAL_TIM_DMABurst_ReadStop+0x20>
 8084d8a:	e7f2      	b.n	8084d72 <HAL_TIM_DMABurst_ReadStop+0x4a>
 8084d8c:	6b40      	ldr	r0, [r0, #52]	; 0x34
 8084d8e:	f7fc fdbd 	bl	808190c <HAL_DMA_Abort_IT>
 8084d92:	2800      	cmp	r0, #0
 8084d94:	d0d8      	beq.n	8084d48 <HAL_TIM_DMABurst_ReadStop+0x20>
 8084d96:	e7ec      	b.n	8084d72 <HAL_TIM_DMABurst_ReadStop+0x4a>
 8084d98:	6b00      	ldr	r0, [r0, #48]	; 0x30
 8084d9a:	f7fc fdb7 	bl	808190c <HAL_DMA_Abort_IT>
 8084d9e:	2800      	cmp	r0, #0
 8084da0:	d0d2      	beq.n	8084d48 <HAL_TIM_DMABurst_ReadStop+0x20>
 8084da2:	e7e6      	b.n	8084d72 <HAL_TIM_DMABurst_ReadStop+0x4a>
 8084da4:	6a40      	ldr	r0, [r0, #36]	; 0x24
 8084da6:	f7fc fdb1 	bl	808190c <HAL_DMA_Abort_IT>
 8084daa:	2800      	cmp	r0, #0
 8084dac:	d0cc      	beq.n	8084d48 <HAL_TIM_DMABurst_ReadStop+0x20>
 8084dae:	e7e0      	b.n	8084d72 <HAL_TIM_DMABurst_ReadStop+0x4a>
 8084db0:	6ac0      	ldr	r0, [r0, #44]	; 0x2c
 8084db2:	f7fc fdab 	bl	808190c <HAL_DMA_Abort_IT>
 8084db6:	2800      	cmp	r0, #0
 8084db8:	d0c6      	beq.n	8084d48 <HAL_TIM_DMABurst_ReadStop+0x20>
 8084dba:	e7da      	b.n	8084d72 <HAL_TIM_DMABurst_ReadStop+0x4a>

08084dbc <HAL_TIM_GenerateEvent>:
 8084dbc:	f890 203c 	ldrb.w	r2, [r0, #60]	; 0x3c
 8084dc0:	2a01      	cmp	r2, #1
 8084dc2:	d00f      	beq.n	8084de4 <HAL_TIM_GenerateEvent+0x28>
 8084dc4:	b430      	push	{r4, r5}
 8084dc6:	4603      	mov	r3, r0
 8084dc8:	6800      	ldr	r0, [r0, #0]
 8084dca:	2502      	movs	r5, #2
 8084dcc:	2401      	movs	r4, #1
 8084dce:	2200      	movs	r2, #0
 8084dd0:	f883 503d 	strb.w	r5, [r3, #61]	; 0x3d
 8084dd4:	6141      	str	r1, [r0, #20]
 8084dd6:	4610      	mov	r0, r2
 8084dd8:	f883 403d 	strb.w	r4, [r3, #61]	; 0x3d
 8084ddc:	f883 203c 	strb.w	r2, [r3, #60]	; 0x3c
 8084de0:	bc30      	pop	{r4, r5}
 8084de2:	4770      	bx	lr
 8084de4:	2002      	movs	r0, #2
 8084de6:	4770      	bx	lr

08084de8 <HAL_TIM_ConfigOCrefClear>:
 8084de8:	f890 303c 	ldrb.w	r3, [r0, #60]	; 0x3c
 8084dec:	2b01      	cmp	r3, #1
 8084dee:	d059      	beq.n	8084ea4 <HAL_TIM_ConfigOCrefClear+0xbc>
 8084df0:	684b      	ldr	r3, [r1, #4]
 8084df2:	b470      	push	{r4, r5, r6}
 8084df4:	2501      	movs	r5, #1
 8084df6:	2402      	movs	r4, #2
 8084df8:	f880 503c 	strb.w	r5, [r0, #60]	; 0x3c
 8084dfc:	f880 403d 	strb.w	r4, [r0, #61]	; 0x3d
 8084e00:	b353      	cbz	r3, 8084e58 <HAL_TIM_ConfigOCrefClear+0x70>
 8084e02:	42ab      	cmp	r3, r5
 8084e04:	d10c      	bne.n	8084e20 <HAL_TIM_ConfigOCrefClear+0x38>
 8084e06:	68cc      	ldr	r4, [r1, #12]
 8084e08:	2c00      	cmp	r4, #0
 8084e0a:	d143      	bne.n	8084e94 <HAL_TIM_ConfigOCrefClear+0xac>
 8084e0c:	6805      	ldr	r5, [r0, #0]
 8084e0e:	690e      	ldr	r6, [r1, #16]
 8084e10:	68ac      	ldr	r4, [r5, #8]
 8084e12:	688b      	ldr	r3, [r1, #8]
 8084e14:	f424 447f 	bic.w	r4, r4, #65280	; 0xff00
 8084e18:	ea43 2306 	orr.w	r3, r3, r6, lsl #8
 8084e1c:	4323      	orrs	r3, r4
 8084e1e:	60ab      	str	r3, [r5, #8]
 8084e20:	2a0c      	cmp	r2, #12
 8084e22:	d810      	bhi.n	8084e46 <HAL_TIM_ConfigOCrefClear+0x5e>
 8084e24:	e8df f002 	tbb	[pc, r2]
 8084e28:	0f0f0f07 	.word	0x0f0f0f07
 8084e2c:	0f0f0f26 	.word	0x0f0f0f26
 8084e30:	0f0f0f2e 	.word	0x0f0f0f2e
 8084e34:	1e          	.byte	0x1e
 8084e35:	00          	.byte	0x00
 8084e36:	680a      	ldr	r2, [r1, #0]
 8084e38:	6803      	ldr	r3, [r0, #0]
 8084e3a:	2a00      	cmp	r2, #0
 8084e3c:	d03f      	beq.n	8084ebe <HAL_TIM_ConfigOCrefClear+0xd6>
 8084e3e:	699a      	ldr	r2, [r3, #24]
 8084e40:	f042 0280 	orr.w	r2, r2, #128	; 0x80
 8084e44:	619a      	str	r2, [r3, #24]
 8084e46:	2300      	movs	r3, #0
 8084e48:	2201      	movs	r2, #1
 8084e4a:	f880 203d 	strb.w	r2, [r0, #61]	; 0x3d
 8084e4e:	f880 303c 	strb.w	r3, [r0, #60]	; 0x3c
 8084e52:	bc70      	pop	{r4, r5, r6}
 8084e54:	4618      	mov	r0, r3
 8084e56:	4770      	bx	lr
 8084e58:	6804      	ldr	r4, [r0, #0]
 8084e5a:	68a3      	ldr	r3, [r4, #8]
 8084e5c:	f423 437f 	bic.w	r3, r3, #65280	; 0xff00
 8084e60:	60a3      	str	r3, [r4, #8]
 8084e62:	e7dd      	b.n	8084e20 <HAL_TIM_ConfigOCrefClear+0x38>
 8084e64:	680a      	ldr	r2, [r1, #0]
 8084e66:	6803      	ldr	r3, [r0, #0]
 8084e68:	b322      	cbz	r2, 8084eb4 <HAL_TIM_ConfigOCrefClear+0xcc>
 8084e6a:	69da      	ldr	r2, [r3, #28]
 8084e6c:	f442 4200 	orr.w	r2, r2, #32768	; 0x8000
 8084e70:	61da      	str	r2, [r3, #28]
 8084e72:	e7e8      	b.n	8084e46 <HAL_TIM_ConfigOCrefClear+0x5e>
 8084e74:	680a      	ldr	r2, [r1, #0]
 8084e76:	6803      	ldr	r3, [r0, #0]
 8084e78:	b332      	cbz	r2, 8084ec8 <HAL_TIM_ConfigOCrefClear+0xe0>
 8084e7a:	699a      	ldr	r2, [r3, #24]
 8084e7c:	f442 4200 	orr.w	r2, r2, #32768	; 0x8000
 8084e80:	619a      	str	r2, [r3, #24]
 8084e82:	e7e0      	b.n	8084e46 <HAL_TIM_ConfigOCrefClear+0x5e>
 8084e84:	680a      	ldr	r2, [r1, #0]
 8084e86:	6803      	ldr	r3, [r0, #0]
 8084e88:	b17a      	cbz	r2, 8084eaa <HAL_TIM_ConfigOCrefClear+0xc2>
 8084e8a:	69da      	ldr	r2, [r3, #28]
 8084e8c:	f042 0280 	orr.w	r2, r2, #128	; 0x80
 8084e90:	61da      	str	r2, [r3, #28]
 8084e92:	e7d8      	b.n	8084e46 <HAL_TIM_ConfigOCrefClear+0x5e>
 8084e94:	2200      	movs	r2, #0
 8084e96:	f880 303d 	strb.w	r3, [r0, #61]	; 0x3d
 8084e9a:	f880 203c 	strb.w	r2, [r0, #60]	; 0x3c
 8084e9e:	bc70      	pop	{r4, r5, r6}
 8084ea0:	4618      	mov	r0, r3
 8084ea2:	4770      	bx	lr
 8084ea4:	2302      	movs	r3, #2
 8084ea6:	4618      	mov	r0, r3
 8084ea8:	4770      	bx	lr
 8084eaa:	69da      	ldr	r2, [r3, #28]
 8084eac:	f022 0280 	bic.w	r2, r2, #128	; 0x80
 8084eb0:	61da      	str	r2, [r3, #28]
 8084eb2:	e7c8      	b.n	8084e46 <HAL_TIM_ConfigOCrefClear+0x5e>
 8084eb4:	69da      	ldr	r2, [r3, #28]
 8084eb6:	f422 4200 	bic.w	r2, r2, #32768	; 0x8000
 8084eba:	61da      	str	r2, [r3, #28]
 8084ebc:	e7c3      	b.n	8084e46 <HAL_TIM_ConfigOCrefClear+0x5e>
 8084ebe:	699a      	ldr	r2, [r3, #24]
 8084ec0:	f022 0280 	bic.w	r2, r2, #128	; 0x80
 8084ec4:	619a      	str	r2, [r3, #24]
 8084ec6:	e7be      	b.n	8084e46 <HAL_TIM_ConfigOCrefClear+0x5e>
 8084ec8:	699a      	ldr	r2, [r3, #24]
 8084eca:	f422 4200 	bic.w	r2, r2, #32768	; 0x8000
 8084ece:	619a      	str	r2, [r3, #24]
 8084ed0:	e7b9      	b.n	8084e46 <HAL_TIM_ConfigOCrefClear+0x5e>
 8084ed2:	bf00      	nop

08084ed4 <HAL_TIM_ConfigClockSource>:
 8084ed4:	f890 303c 	ldrb.w	r3, [r0, #60]	; 0x3c
 8084ed8:	2b01      	cmp	r3, #1
 8084eda:	d05a      	beq.n	8084f92 <HAL_TIM_ConfigClockSource+0xbe>
 8084edc:	2202      	movs	r2, #2
 8084ede:	6803      	ldr	r3, [r0, #0]
 8084ee0:	b4f0      	push	{r4, r5, r6, r7}
 8084ee2:	f880 203d 	strb.w	r2, [r0, #61]	; 0x3d
 8084ee6:	689a      	ldr	r2, [r3, #8]
 8084ee8:	680c      	ldr	r4, [r1, #0]
 8084eea:	f422 427f 	bic.w	r2, r2, #65280	; 0xff00
 8084eee:	f022 0277 	bic.w	r2, r2, #119	; 0x77
 8084ef2:	2501      	movs	r5, #1
 8084ef4:	2c40      	cmp	r4, #64	; 0x40
 8084ef6:	f880 503c 	strb.w	r5, [r0, #60]	; 0x3c
 8084efa:	609a      	str	r2, [r3, #8]
 8084efc:	d074      	beq.n	8084fe8 <HAL_TIM_ConfigClockSource+0x114>
 8084efe:	d94a      	bls.n	8084f96 <HAL_TIM_ConfigClockSource+0xc2>
 8084f00:	2c60      	cmp	r4, #96	; 0x60
 8084f02:	d02d      	beq.n	8084f60 <HAL_TIM_ConfigClockSource+0x8c>
 8084f04:	d956      	bls.n	8084fb4 <HAL_TIM_ConfigClockSource+0xe0>
 8084f06:	2c70      	cmp	r4, #112	; 0x70
 8084f08:	d01a      	beq.n	8084f40 <HAL_TIM_ConfigClockSource+0x6c>
 8084f0a:	f5b4 5f00 	cmp.w	r4, #8192	; 0x2000
 8084f0e:	d10e      	bne.n	8084f2e <HAL_TIM_ConfigClockSource+0x5a>
 8084f10:	e9d1 5201 	ldrd	r5, r2, [r1, #4]
 8084f14:	68cc      	ldr	r4, [r1, #12]
 8084f16:	6899      	ldr	r1, [r3, #8]
 8084f18:	432a      	orrs	r2, r5
 8084f1a:	ea42 2204 	orr.w	r2, r2, r4, lsl #8
 8084f1e:	f421 417f 	bic.w	r1, r1, #65280	; 0xff00
 8084f22:	430a      	orrs	r2, r1
 8084f24:	609a      	str	r2, [r3, #8]
 8084f26:	689a      	ldr	r2, [r3, #8]
 8084f28:	f442 4280 	orr.w	r2, r2, #16384	; 0x4000
 8084f2c:	609a      	str	r2, [r3, #8]
 8084f2e:	2300      	movs	r3, #0
 8084f30:	2201      	movs	r2, #1
 8084f32:	f880 203d 	strb.w	r2, [r0, #61]	; 0x3d
 8084f36:	f880 303c 	strb.w	r3, [r0, #60]	; 0x3c
 8084f3a:	bcf0      	pop	{r4, r5, r6, r7}
 8084f3c:	4618      	mov	r0, r3
 8084f3e:	4770      	bx	lr
 8084f40:	e9d1 5201 	ldrd	r5, r2, [r1, #4]
 8084f44:	68cc      	ldr	r4, [r1, #12]
 8084f46:	6899      	ldr	r1, [r3, #8]
 8084f48:	432a      	orrs	r2, r5
 8084f4a:	ea42 2204 	orr.w	r2, r2, r4, lsl #8
 8084f4e:	f421 417f 	bic.w	r1, r1, #65280	; 0xff00
 8084f52:	430a      	orrs	r2, r1
 8084f54:	609a      	str	r2, [r3, #8]
 8084f56:	689a      	ldr	r2, [r3, #8]
 8084f58:	f042 0277 	orr.w	r2, r2, #119	; 0x77
 8084f5c:	609a      	str	r2, [r3, #8]
 8084f5e:	e7e6      	b.n	8084f2e <HAL_TIM_ConfigClockSource+0x5a>
 8084f60:	6a1c      	ldr	r4, [r3, #32]
 8084f62:	684d      	ldr	r5, [r1, #4]
 8084f64:	68ce      	ldr	r6, [r1, #12]
 8084f66:	f024 0410 	bic.w	r4, r4, #16
 8084f6a:	621c      	str	r4, [r3, #32]
 8084f6c:	6999      	ldr	r1, [r3, #24]
 8084f6e:	6a1a      	ldr	r2, [r3, #32]
 8084f70:	f421 4170 	bic.w	r1, r1, #61440	; 0xf000
 8084f74:	f022 02a0 	bic.w	r2, r2, #160	; 0xa0
 8084f78:	ea42 1205 	orr.w	r2, r2, r5, lsl #4
 8084f7c:	ea41 3106 	orr.w	r1, r1, r6, lsl #12
 8084f80:	6199      	str	r1, [r3, #24]
 8084f82:	621a      	str	r2, [r3, #32]
 8084f84:	689a      	ldr	r2, [r3, #8]
 8084f86:	f022 0270 	bic.w	r2, r2, #112	; 0x70
 8084f8a:	f042 0267 	orr.w	r2, r2, #103	; 0x67
 8084f8e:	609a      	str	r2, [r3, #8]
 8084f90:	e7cd      	b.n	8084f2e <HAL_TIM_ConfigClockSource+0x5a>
 8084f92:	2002      	movs	r0, #2
 8084f94:	4770      	bx	lr
 8084f96:	2c10      	cmp	r4, #16
 8084f98:	d004      	beq.n	8084fa4 <HAL_TIM_ConfigClockSource+0xd0>
 8084f9a:	d93d      	bls.n	8085018 <HAL_TIM_ConfigClockSource+0x144>
 8084f9c:	2c20      	cmp	r4, #32
 8084f9e:	d001      	beq.n	8084fa4 <HAL_TIM_ConfigClockSource+0xd0>
 8084fa0:	2c30      	cmp	r4, #48	; 0x30
 8084fa2:	d1c4      	bne.n	8084f2e <HAL_TIM_ConfigClockSource+0x5a>
 8084fa4:	689a      	ldr	r2, [r3, #8]
 8084fa6:	f044 0407 	orr.w	r4, r4, #7
 8084faa:	f022 0270 	bic.w	r2, r2, #112	; 0x70
 8084fae:	4314      	orrs	r4, r2
 8084fb0:	609c      	str	r4, [r3, #8]
 8084fb2:	e7bc      	b.n	8084f2e <HAL_TIM_ConfigClockSource+0x5a>
 8084fb4:	2c50      	cmp	r4, #80	; 0x50
 8084fb6:	d1ba      	bne.n	8084f2e <HAL_TIM_ConfigClockSource+0x5a>
 8084fb8:	6a1d      	ldr	r5, [r3, #32]
 8084fba:	6a1e      	ldr	r6, [r3, #32]
 8084fbc:	684c      	ldr	r4, [r1, #4]
 8084fbe:	68cf      	ldr	r7, [r1, #12]
 8084fc0:	f026 0601 	bic.w	r6, r6, #1
 8084fc4:	621e      	str	r6, [r3, #32]
 8084fc6:	699a      	ldr	r2, [r3, #24]
 8084fc8:	f025 010a 	bic.w	r1, r5, #10
 8084fcc:	f022 02f0 	bic.w	r2, r2, #240	; 0xf0
 8084fd0:	ea42 1207 	orr.w	r2, r2, r7, lsl #4
 8084fd4:	4321      	orrs	r1, r4
 8084fd6:	619a      	str	r2, [r3, #24]
 8084fd8:	6219      	str	r1, [r3, #32]
 8084fda:	689a      	ldr	r2, [r3, #8]
 8084fdc:	f022 0270 	bic.w	r2, r2, #112	; 0x70
 8084fe0:	f042 0257 	orr.w	r2, r2, #87	; 0x57
 8084fe4:	609a      	str	r2, [r3, #8]
 8084fe6:	e7a2      	b.n	8084f2e <HAL_TIM_ConfigClockSource+0x5a>
 8084fe8:	6a1d      	ldr	r5, [r3, #32]
 8084fea:	6a1e      	ldr	r6, [r3, #32]
 8084fec:	684c      	ldr	r4, [r1, #4]
 8084fee:	68cf      	ldr	r7, [r1, #12]
 8084ff0:	f026 0601 	bic.w	r6, r6, #1
 8084ff4:	621e      	str	r6, [r3, #32]
 8084ff6:	699a      	ldr	r2, [r3, #24]
 8084ff8:	f025 010a 	bic.w	r1, r5, #10
 8084ffc:	f022 02f0 	bic.w	r2, r2, #240	; 0xf0
 8085000:	ea42 1207 	orr.w	r2, r2, r7, lsl #4
 8085004:	4321      	orrs	r1, r4
 8085006:	619a      	str	r2, [r3, #24]
 8085008:	6219      	str	r1, [r3, #32]
 808500a:	689a      	ldr	r2, [r3, #8]
 808500c:	f022 0270 	bic.w	r2, r2, #112	; 0x70
 8085010:	f042 0247 	orr.w	r2, r2, #71	; 0x47
 8085014:	609a      	str	r2, [r3, #8]
 8085016:	e78a      	b.n	8084f2e <HAL_TIM_ConfigClockSource+0x5a>
 8085018:	2c00      	cmp	r4, #0
 808501a:	d0c3      	beq.n	8084fa4 <HAL_TIM_ConfigClockSource+0xd0>
 808501c:	e787      	b.n	8084f2e <HAL_TIM_ConfigClockSource+0x5a>
 808501e:	bf00      	nop

08085020 <HAL_TIM_ConfigTI1Input>:
 8085020:	6802      	ldr	r2, [r0, #0]
 8085022:	6853      	ldr	r3, [r2, #4]
 8085024:	f023 0380 	bic.w	r3, r3, #128	; 0x80
 8085028:	4319      	orrs	r1, r3
 808502a:	6051      	str	r1, [r2, #4]
 808502c:	2000      	movs	r0, #0
 808502e:	4770      	bx	lr

08085030 <HAL_TIM_SlaveConfigSynchro>:
 8085030:	f890 303c 	ldrb.w	r3, [r0, #60]	; 0x3c
 8085034:	2b01      	cmp	r3, #1
 8085036:	d047      	beq.n	80850c8 <HAL_TIM_SlaveConfigSynchro+0x98>
 8085038:	6802      	ldr	r2, [r0, #0]
 808503a:	2302      	movs	r3, #2
 808503c:	b4f0      	push	{r4, r5, r6, r7}
 808503e:	f880 303d 	strb.w	r3, [r0, #61]	; 0x3d
 8085042:	e9d1 6500 	ldrd	r6, r5, [r1]
 8085046:	6893      	ldr	r3, [r2, #8]
 8085048:	f023 0370 	bic.w	r3, r3, #112	; 0x70
 808504c:	432b      	orrs	r3, r5
 808504e:	4604      	mov	r4, r0
 8085050:	f023 0307 	bic.w	r3, r3, #7
 8085054:	4333      	orrs	r3, r6
 8085056:	2001      	movs	r0, #1
 8085058:	2d50      	cmp	r5, #80	; 0x50
 808505a:	f884 003c 	strb.w	r0, [r4, #60]	; 0x3c
 808505e:	6093      	str	r3, [r2, #8]
 8085060:	d04e      	beq.n	8085100 <HAL_TIM_SlaveConfigSynchro+0xd0>
 8085062:	d91f      	bls.n	80850a4 <HAL_TIM_SlaveConfigSynchro+0x74>
 8085064:	2d60      	cmp	r5, #96	; 0x60
 8085066:	d038      	beq.n	80850da <HAL_TIM_SlaveConfigSynchro+0xaa>
 8085068:	2d70      	cmp	r5, #112	; 0x70
 808506a:	d10a      	bne.n	8085082 <HAL_TIM_SlaveConfigSynchro+0x52>
 808506c:	e9d1 5302 	ldrd	r5, r3, [r1, #8]
 8085070:	6908      	ldr	r0, [r1, #16]
 8085072:	6891      	ldr	r1, [r2, #8]
 8085074:	432b      	orrs	r3, r5
 8085076:	ea43 2300 	orr.w	r3, r3, r0, lsl #8
 808507a:	f421 417f 	bic.w	r1, r1, #65280	; 0xff00
 808507e:	430b      	orrs	r3, r1
 8085080:	6093      	str	r3, [r2, #8]
 8085082:	68d3      	ldr	r3, [r2, #12]
 8085084:	f023 0340 	bic.w	r3, r3, #64	; 0x40
 8085088:	60d3      	str	r3, [r2, #12]
 808508a:	68d3      	ldr	r3, [r2, #12]
 808508c:	2501      	movs	r5, #1
 808508e:	2100      	movs	r1, #0
 8085090:	f423 4380 	bic.w	r3, r3, #16384	; 0x4000
 8085094:	60d3      	str	r3, [r2, #12]
 8085096:	4608      	mov	r0, r1
 8085098:	f884 503d 	strb.w	r5, [r4, #61]	; 0x3d
 808509c:	f884 103c 	strb.w	r1, [r4, #60]	; 0x3c
 80850a0:	bcf0      	pop	{r4, r5, r6, r7}
 80850a2:	4770      	bx	lr
 80850a4:	2d40      	cmp	r5, #64	; 0x40
 80850a6:	d1ec      	bne.n	8085082 <HAL_TIM_SlaveConfigSynchro+0x52>
 80850a8:	2e05      	cmp	r6, #5
 80850aa:	d00f      	beq.n	80850cc <HAL_TIM_SlaveConfigSynchro+0x9c>
 80850ac:	6a15      	ldr	r5, [r2, #32]
 80850ae:	6a10      	ldr	r0, [r2, #32]
 80850b0:	690e      	ldr	r6, [r1, #16]
 80850b2:	f020 0001 	bic.w	r0, r0, #1
 80850b6:	6210      	str	r0, [r2, #32]
 80850b8:	6993      	ldr	r3, [r2, #24]
 80850ba:	f023 03f0 	bic.w	r3, r3, #240	; 0xf0
 80850be:	ea43 1306 	orr.w	r3, r3, r6, lsl #4
 80850c2:	6193      	str	r3, [r2, #24]
 80850c4:	6215      	str	r5, [r2, #32]
 80850c6:	e7dc      	b.n	8085082 <HAL_TIM_SlaveConfigSynchro+0x52>
 80850c8:	2002      	movs	r0, #2
 80850ca:	4770      	bx	lr
 80850cc:	2300      	movs	r3, #0
 80850ce:	f884 003d 	strb.w	r0, [r4, #61]	; 0x3d
 80850d2:	f884 303c 	strb.w	r3, [r4, #60]	; 0x3c
 80850d6:	bcf0      	pop	{r4, r5, r6, r7}
 80850d8:	4770      	bx	lr
 80850da:	6a10      	ldr	r0, [r2, #32]
 80850dc:	688d      	ldr	r5, [r1, #8]
 80850de:	690e      	ldr	r6, [r1, #16]
 80850e0:	f020 0010 	bic.w	r0, r0, #16
 80850e4:	6210      	str	r0, [r2, #32]
 80850e6:	6991      	ldr	r1, [r2, #24]
 80850e8:	6a13      	ldr	r3, [r2, #32]
 80850ea:	f421 4170 	bic.w	r1, r1, #61440	; 0xf000
 80850ee:	f023 03a0 	bic.w	r3, r3, #160	; 0xa0
 80850f2:	ea41 3106 	orr.w	r1, r1, r6, lsl #12
 80850f6:	ea43 1305 	orr.w	r3, r3, r5, lsl #4
 80850fa:	6191      	str	r1, [r2, #24]
 80850fc:	6213      	str	r3, [r2, #32]
 80850fe:	e7c0      	b.n	8085082 <HAL_TIM_SlaveConfigSynchro+0x52>
 8085100:	6a15      	ldr	r5, [r2, #32]
 8085102:	6a16      	ldr	r6, [r2, #32]
 8085104:	6888      	ldr	r0, [r1, #8]
 8085106:	690f      	ldr	r7, [r1, #16]
 8085108:	f026 0601 	bic.w	r6, r6, #1
 808510c:	6216      	str	r6, [r2, #32]
 808510e:	6993      	ldr	r3, [r2, #24]
 8085110:	f025 010a 	bic.w	r1, r5, #10
 8085114:	f023 03f0 	bic.w	r3, r3, #240	; 0xf0
 8085118:	4301      	orrs	r1, r0
 808511a:	ea43 1307 	orr.w	r3, r3, r7, lsl #4
 808511e:	6193      	str	r3, [r2, #24]
 8085120:	6211      	str	r1, [r2, #32]
 8085122:	e7ae      	b.n	8085082 <HAL_TIM_SlaveConfigSynchro+0x52>

08085124 <HAL_TIM_SlaveConfigSynchro_IT>:
 8085124:	f890 303c 	ldrb.w	r3, [r0, #60]	; 0x3c
 8085128:	2b01      	cmp	r3, #1
 808512a:	d047      	beq.n	80851bc <HAL_TIM_SlaveConfigSynchro_IT+0x98>
 808512c:	6802      	ldr	r2, [r0, #0]
 808512e:	2302      	movs	r3, #2
 8085130:	b4f0      	push	{r4, r5, r6, r7}
 8085132:	f880 303d 	strb.w	r3, [r0, #61]	; 0x3d
 8085136:	e9d1 6500 	ldrd	r6, r5, [r1]
 808513a:	6893      	ldr	r3, [r2, #8]
 808513c:	f023 0370 	bic.w	r3, r3, #112	; 0x70
 8085140:	432b      	orrs	r3, r5
 8085142:	4604      	mov	r4, r0
 8085144:	f023 0307 	bic.w	r3, r3, #7
 8085148:	4333      	orrs	r3, r6
 808514a:	2001      	movs	r0, #1
 808514c:	2d50      	cmp	r5, #80	; 0x50
 808514e:	f884 003c 	strb.w	r0, [r4, #60]	; 0x3c
 8085152:	6093      	str	r3, [r2, #8]
 8085154:	d04e      	beq.n	80851f4 <HAL_TIM_SlaveConfigSynchro_IT+0xd0>
 8085156:	d91f      	bls.n	8085198 <HAL_TIM_SlaveConfigSynchro_IT+0x74>
 8085158:	2d60      	cmp	r5, #96	; 0x60
 808515a:	d038      	beq.n	80851ce <HAL_TIM_SlaveConfigSynchro_IT+0xaa>
 808515c:	2d70      	cmp	r5, #112	; 0x70
 808515e:	d10a      	bne.n	8085176 <HAL_TIM_SlaveConfigSynchro_IT+0x52>
 8085160:	e9d1 5302 	ldrd	r5, r3, [r1, #8]
 8085164:	6908      	ldr	r0, [r1, #16]
 8085166:	6891      	ldr	r1, [r2, #8]
 8085168:	432b      	orrs	r3, r5
 808516a:	ea43 2300 	orr.w	r3, r3, r0, lsl #8
 808516e:	f421 417f 	bic.w	r1, r1, #65280	; 0xff00
 8085172:	430b      	orrs	r3, r1
 8085174:	6093      	str	r3, [r2, #8]
 8085176:	68d3      	ldr	r3, [r2, #12]
 8085178:	f043 0340 	orr.w	r3, r3, #64	; 0x40
 808517c:	60d3      	str	r3, [r2, #12]
 808517e:	68d3      	ldr	r3, [r2, #12]
 8085180:	2501      	movs	r5, #1
 8085182:	2100      	movs	r1, #0
 8085184:	f423 4380 	bic.w	r3, r3, #16384	; 0x4000
 8085188:	60d3      	str	r3, [r2, #12]
 808518a:	4608      	mov	r0, r1
 808518c:	f884 503d 	strb.w	r5, [r4, #61]	; 0x3d
 8085190:	f884 103c 	strb.w	r1, [r4, #60]	; 0x3c
 8085194:	bcf0      	pop	{r4, r5, r6, r7}
 8085196:	4770      	bx	lr
 8085198:	2d40      	cmp	r5, #64	; 0x40
 808519a:	d1ec      	bne.n	8085176 <HAL_TIM_SlaveConfigSynchro_IT+0x52>
 808519c:	2e05      	cmp	r6, #5
 808519e:	d00f      	beq.n	80851c0 <HAL_TIM_SlaveConfigSynchro_IT+0x9c>
 80851a0:	6a15      	ldr	r5, [r2, #32]
 80851a2:	6a10      	ldr	r0, [r2, #32]
 80851a4:	690e      	ldr	r6, [r1, #16]
 80851a6:	f020 0001 	bic.w	r0, r0, #1
 80851aa:	6210      	str	r0, [r2, #32]
 80851ac:	6993      	ldr	r3, [r2, #24]
 80851ae:	f023 03f0 	bic.w	r3, r3, #240	; 0xf0
 80851b2:	ea43 1306 	orr.w	r3, r3, r6, lsl #4
 80851b6:	6193      	str	r3, [r2, #24]
 80851b8:	6215      	str	r5, [r2, #32]
 80851ba:	e7dc      	b.n	8085176 <HAL_TIM_SlaveConfigSynchro_IT+0x52>
 80851bc:	2002      	movs	r0, #2
 80851be:	4770      	bx	lr
 80851c0:	2300      	movs	r3, #0
 80851c2:	f884 003d 	strb.w	r0, [r4, #61]	; 0x3d
 80851c6:	f884 303c 	strb.w	r3, [r4, #60]	; 0x3c
 80851ca:	bcf0      	pop	{r4, r5, r6, r7}
 80851cc:	4770      	bx	lr
 80851ce:	6a10      	ldr	r0, [r2, #32]
 80851d0:	688d      	ldr	r5, [r1, #8]
 80851d2:	690e      	ldr	r6, [r1, #16]
 80851d4:	f020 0010 	bic.w	r0, r0, #16
 80851d8:	6210      	str	r0, [r2, #32]
 80851da:	6991      	ldr	r1, [r2, #24]
 80851dc:	6a13      	ldr	r3, [r2, #32]
 80851de:	f421 4170 	bic.w	r1, r1, #61440	; 0xf000
 80851e2:	f023 03a0 	bic.w	r3, r3, #160	; 0xa0
 80851e6:	ea41 3106 	orr.w	r1, r1, r6, lsl #12
 80851ea:	ea43 1305 	orr.w	r3, r3, r5, lsl #4
 80851ee:	6191      	str	r1, [r2, #24]
 80851f0:	6213      	str	r3, [r2, #32]
 80851f2:	e7c0      	b.n	8085176 <HAL_TIM_SlaveConfigSynchro_IT+0x52>
 80851f4:	6a15      	ldr	r5, [r2, #32]
 80851f6:	6a16      	ldr	r6, [r2, #32]
 80851f8:	6888      	ldr	r0, [r1, #8]
 80851fa:	690f      	ldr	r7, [r1, #16]
 80851fc:	f026 0601 	bic.w	r6, r6, #1
 8085200:	6216      	str	r6, [r2, #32]
 8085202:	6993      	ldr	r3, [r2, #24]
 8085204:	f025 010a 	bic.w	r1, r5, #10
 8085208:	f023 03f0 	bic.w	r3, r3, #240	; 0xf0
 808520c:	4301      	orrs	r1, r0
 808520e:	ea43 1307 	orr.w	r3, r3, r7, lsl #4
 8085212:	6193      	str	r3, [r2, #24]
 8085214:	6211      	str	r1, [r2, #32]
 8085216:	e7ae      	b.n	8085176 <HAL_TIM_SlaveConfigSynchro_IT+0x52>

08085218 <HAL_TIM_ReadCapturedValue>:
 8085218:	290c      	cmp	r1, #12
 808521a:	d814      	bhi.n	8085246 <HAL_TIM_ReadCapturedValue+0x2e>
 808521c:	e8df f001 	tbb	[pc, r1]
 8085220:	13131310 	.word	0x13131310
 8085224:	1313130d 	.word	0x1313130d
 8085228:	1313130a 	.word	0x1313130a
 808522c:	07          	.byte	0x07
 808522d:	00          	.byte	0x00
 808522e:	6803      	ldr	r3, [r0, #0]
 8085230:	6c18      	ldr	r0, [r3, #64]	; 0x40
 8085232:	4770      	bx	lr
 8085234:	6803      	ldr	r3, [r0, #0]
 8085236:	6bd8      	ldr	r0, [r3, #60]	; 0x3c
 8085238:	4770      	bx	lr
 808523a:	6803      	ldr	r3, [r0, #0]
 808523c:	6b98      	ldr	r0, [r3, #56]	; 0x38
 808523e:	4770      	bx	lr
 8085240:	6803      	ldr	r3, [r0, #0]
 8085242:	6b58      	ldr	r0, [r3, #52]	; 0x34
 8085244:	4770      	bx	lr
 8085246:	2000      	movs	r0, #0
 8085248:	4770      	bx	lr
 808524a:	bf00      	nop

0808524c <HAL_TIM_PeriodElapsedCallback>:
 808524c:	4770      	bx	lr
 808524e:	bf00      	nop

08085250 <TIM_DMAPeriodElapsedCplt>:
 8085250:	b508      	push	{r3, lr}
 8085252:	6b80      	ldr	r0, [r0, #56]	; 0x38
 8085254:	2301      	movs	r3, #1
 8085256:	f880 303d 	strb.w	r3, [r0, #61]	; 0x3d
 808525a:	f7ff fff7 	bl	808524c <HAL_TIM_PeriodElapsedCallback>
 808525e:	bd08      	pop	{r3, pc}

08085260 <HAL_TIM_PeriodElapsedHalfCpltCallback>:
 8085260:	4770      	bx	lr
 8085262:	bf00      	nop

08085264 <TIM_DMAPeriodElapsedHalfCplt>:
 8085264:	b508      	push	{r3, lr}
 8085266:	6b80      	ldr	r0, [r0, #56]	; 0x38
 8085268:	2301      	movs	r3, #1
 808526a:	f880 303d 	strb.w	r3, [r0, #61]	; 0x3d
 808526e:	f7ff fff7 	bl	8085260 <HAL_TIM_PeriodElapsedHalfCpltCallback>
 8085272:	bd08      	pop	{r3, pc}

08085274 <HAL_TIM_OC_DelayElapsedCallback>:
 8085274:	4770      	bx	lr
 8085276:	bf00      	nop

08085278 <HAL_TIM_IC_CaptureCallback>:
 8085278:	4770      	bx	lr
 808527a:	bf00      	nop

0808527c <TIM_DMACaptureCplt>:
 808527c:	b510      	push	{r4, lr}
 808527e:	6b84      	ldr	r4, [r0, #56]	; 0x38
 8085280:	6a62      	ldr	r2, [r4, #36]	; 0x24
 8085282:	2301      	movs	r3, #1
 8085284:	4282      	cmp	r2, r0
 8085286:	f884 303d 	strb.w	r3, [r4, #61]	; 0x3d
 808528a:	d00f      	beq.n	80852ac <TIM_DMACaptureCplt+0x30>
 808528c:	6aa3      	ldr	r3, [r4, #40]	; 0x28
 808528e:	4283      	cmp	r3, r0
 8085290:	d01b      	beq.n	80852ca <TIM_DMACaptureCplt+0x4e>
 8085292:	6ae3      	ldr	r3, [r4, #44]	; 0x2c
 8085294:	4283      	cmp	r3, r0
 8085296:	d010      	beq.n	80852ba <TIM_DMACaptureCplt+0x3e>
 8085298:	6b23      	ldr	r3, [r4, #48]	; 0x30
 808529a:	4283      	cmp	r3, r0
 808529c:	d005      	beq.n	80852aa <TIM_DMACaptureCplt+0x2e>
 808529e:	4620      	mov	r0, r4
 80852a0:	f7ff ffea 	bl	8085278 <HAL_TIM_IC_CaptureCallback>
 80852a4:	2300      	movs	r3, #0
 80852a6:	7723      	strb	r3, [r4, #28]
 80852a8:	bd10      	pop	{r4, pc}
 80852aa:	2308      	movs	r3, #8
 80852ac:	7723      	strb	r3, [r4, #28]
 80852ae:	4620      	mov	r0, r4
 80852b0:	f7ff ffe2 	bl	8085278 <HAL_TIM_IC_CaptureCallback>
 80852b4:	2300      	movs	r3, #0
 80852b6:	7723      	strb	r3, [r4, #28]
 80852b8:	bd10      	pop	{r4, pc}
 80852ba:	2304      	movs	r3, #4
 80852bc:	7723      	strb	r3, [r4, #28]
 80852be:	4620      	mov	r0, r4
 80852c0:	f7ff ffda 	bl	8085278 <HAL_TIM_IC_CaptureCallback>
 80852c4:	2300      	movs	r3, #0
 80852c6:	7723      	strb	r3, [r4, #28]
 80852c8:	bd10      	pop	{r4, pc}
 80852ca:	2302      	movs	r3, #2
 80852cc:	7723      	strb	r3, [r4, #28]
 80852ce:	4620      	mov	r0, r4
 80852d0:	f7ff ffd2 	bl	8085278 <HAL_TIM_IC_CaptureCallback>
 80852d4:	2300      	movs	r3, #0
 80852d6:	7723      	strb	r3, [r4, #28]
 80852d8:	bd10      	pop	{r4, pc}
 80852da:	bf00      	nop

080852dc <HAL_TIM_IC_CaptureHalfCpltCallback>:
 80852dc:	4770      	bx	lr
 80852de:	bf00      	nop

080852e0 <TIM_DMACaptureHalfCplt>:
 80852e0:	b510      	push	{r4, lr}
 80852e2:	6b84      	ldr	r4, [r0, #56]	; 0x38
 80852e4:	6a62      	ldr	r2, [r4, #36]	; 0x24
 80852e6:	2301      	movs	r3, #1
 80852e8:	4282      	cmp	r2, r0
 80852ea:	f884 303d 	strb.w	r3, [r4, #61]	; 0x3d
 80852ee:	d00f      	beq.n	8085310 <TIM_DMACaptureHalfCplt+0x30>
 80852f0:	6aa3      	ldr	r3, [r4, #40]	; 0x28
 80852f2:	4283      	cmp	r3, r0
 80852f4:	d01b      	beq.n	808532e <TIM_DMACaptureHalfCplt+0x4e>
 80852f6:	6ae3      	ldr	r3, [r4, #44]	; 0x2c
 80852f8:	4283      	cmp	r3, r0
 80852fa:	d010      	beq.n	808531e <TIM_DMACaptureHalfCplt+0x3e>
 80852fc:	6b23      	ldr	r3, [r4, #48]	; 0x30
 80852fe:	4283      	cmp	r3, r0
 8085300:	d005      	beq.n	808530e <TIM_DMACaptureHalfCplt+0x2e>
 8085302:	4620      	mov	r0, r4
 8085304:	f7ff ffea 	bl	80852dc <HAL_TIM_IC_CaptureHalfCpltCallback>
 8085308:	2300      	movs	r3, #0
 808530a:	7723      	strb	r3, [r4, #28]
 808530c:	bd10      	pop	{r4, pc}
 808530e:	2308      	movs	r3, #8
 8085310:	7723      	strb	r3, [r4, #28]
 8085312:	4620      	mov	r0, r4
 8085314:	f7ff ffe2 	bl	80852dc <HAL_TIM_IC_CaptureHalfCpltCallback>
 8085318:	2300      	movs	r3, #0
 808531a:	7723      	strb	r3, [r4, #28]
 808531c:	bd10      	pop	{r4, pc}
 808531e:	2304      	movs	r3, #4
 8085320:	7723      	strb	r3, [r4, #28]
 8085322:	4620      	mov	r0, r4
 8085324:	f7ff ffda 	bl	80852dc <HAL_TIM_IC_CaptureHalfCpltCallback>
 8085328:	2300      	movs	r3, #0
 808532a:	7723      	strb	r3, [r4, #28]
 808532c:	bd10      	pop	{r4, pc}
 808532e:	2302      	movs	r3, #2
 8085330:	7723      	strb	r3, [r4, #28]
 8085332:	4620      	mov	r0, r4
 8085334:	f7ff ffd2 	bl	80852dc <HAL_TIM_IC_CaptureHalfCpltCallback>
 8085338:	2300      	movs	r3, #0
 808533a:	7723      	strb	r3, [r4, #28]
 808533c:	bd10      	pop	{r4, pc}
 808533e:	bf00      	nop

08085340 <HAL_TIM_PWM_PulseFinishedCallback>:
 8085340:	4770      	bx	lr
 8085342:	bf00      	nop

08085344 <TIM_DMADelayPulseCplt>:
 8085344:	b510      	push	{r4, lr}
 8085346:	6b84      	ldr	r4, [r0, #56]	; 0x38
 8085348:	6a62      	ldr	r2, [r4, #36]	; 0x24
 808534a:	2301      	movs	r3, #1
 808534c:	4282      	cmp	r2, r0
 808534e:	f884 303d 	strb.w	r3, [r4, #61]	; 0x3d
 8085352:	d00f      	beq.n	8085374 <TIM_DMADelayPulseCplt+0x30>
 8085354:	6aa3      	ldr	r3, [r4, #40]	; 0x28
 8085356:	4283      	cmp	r3, r0
 8085358:	d01b      	beq.n	8085392 <TIM_DMADelayPulseCplt+0x4e>
 808535a:	6ae3      	ldr	r3, [r4, #44]	; 0x2c
 808535c:	4283      	cmp	r3, r0
 808535e:	d010      	beq.n	8085382 <TIM_DMADelayPulseCplt+0x3e>
 8085360:	6b23      	ldr	r3, [r4, #48]	; 0x30
 8085362:	4283      	cmp	r3, r0
 8085364:	d005      	beq.n	8085372 <TIM_DMADelayPulseCplt+0x2e>
 8085366:	4620      	mov	r0, r4
 8085368:	f7ff ffea 	bl	8085340 <HAL_TIM_PWM_PulseFinishedCallback>
 808536c:	2300      	movs	r3, #0
 808536e:	7723      	strb	r3, [r4, #28]
 8085370:	bd10      	pop	{r4, pc}
 8085372:	2308      	movs	r3, #8
 8085374:	7723      	strb	r3, [r4, #28]
 8085376:	4620      	mov	r0, r4
 8085378:	f7ff ffe2 	bl	8085340 <HAL_TIM_PWM_PulseFinishedCallback>
 808537c:	2300      	movs	r3, #0
 808537e:	7723      	strb	r3, [r4, #28]
 8085380:	bd10      	pop	{r4, pc}
 8085382:	2304      	movs	r3, #4
 8085384:	7723      	strb	r3, [r4, #28]
 8085386:	4620      	mov	r0, r4
 8085388:	f7ff ffda 	bl	8085340 <HAL_TIM_PWM_PulseFinishedCallback>
 808538c:	2300      	movs	r3, #0
 808538e:	7723      	strb	r3, [r4, #28]
 8085390:	bd10      	pop	{r4, pc}
 8085392:	2302      	movs	r3, #2
 8085394:	7723      	strb	r3, [r4, #28]
 8085396:	4620      	mov	r0, r4
 8085398:	f7ff ffd2 	bl	8085340 <HAL_TIM_PWM_PulseFinishedCallback>
 808539c:	2300      	movs	r3, #0
 808539e:	7723      	strb	r3, [r4, #28]
 80853a0:	bd10      	pop	{r4, pc}
 80853a2:	bf00      	nop

080853a4 <HAL_TIM_PWM_PulseFinishedHalfCpltCallback>:
 80853a4:	4770      	bx	lr
 80853a6:	bf00      	nop

080853a8 <TIM_DMADelayPulseHalfCplt>:
 80853a8:	b510      	push	{r4, lr}
 80853aa:	6b84      	ldr	r4, [r0, #56]	; 0x38
 80853ac:	6a62      	ldr	r2, [r4, #36]	; 0x24
 80853ae:	2301      	movs	r3, #1
 80853b0:	4282      	cmp	r2, r0
 80853b2:	f884 303d 	strb.w	r3, [r4, #61]	; 0x3d
 80853b6:	d00f      	beq.n	80853d8 <TIM_DMADelayPulseHalfCplt+0x30>
 80853b8:	6aa3      	ldr	r3, [r4, #40]	; 0x28
 80853ba:	4283      	cmp	r3, r0
 80853bc:	d01b      	beq.n	80853f6 <TIM_DMADelayPulseHalfCplt+0x4e>
 80853be:	6ae3      	ldr	r3, [r4, #44]	; 0x2c
 80853c0:	4283      	cmp	r3, r0
 80853c2:	d010      	beq.n	80853e6 <TIM_DMADelayPulseHalfCplt+0x3e>
 80853c4:	6b23      	ldr	r3, [r4, #48]	; 0x30
 80853c6:	4283      	cmp	r3, r0
 80853c8:	d005      	beq.n	80853d6 <TIM_DMADelayPulseHalfCplt+0x2e>
 80853ca:	4620      	mov	r0, r4
 80853cc:	f7ff ffea 	bl	80853a4 <HAL_TIM_PWM_PulseFinishedHalfCpltCallback>
 80853d0:	2300      	movs	r3, #0
 80853d2:	7723      	strb	r3, [r4, #28]
 80853d4:	bd10      	pop	{r4, pc}
 80853d6:	2308      	movs	r3, #8
 80853d8:	7723      	strb	r3, [r4, #28]
 80853da:	4620      	mov	r0, r4
 80853dc:	f7ff ffe2 	bl	80853a4 <HAL_TIM_PWM_PulseFinishedHalfCpltCallback>
 80853e0:	2300      	movs	r3, #0
 80853e2:	7723      	strb	r3, [r4, #28]
 80853e4:	bd10      	pop	{r4, pc}
 80853e6:	2304      	movs	r3, #4
 80853e8:	7723      	strb	r3, [r4, #28]
 80853ea:	4620      	mov	r0, r4
 80853ec:	f7ff ffda 	bl	80853a4 <HAL_TIM_PWM_PulseFinishedHalfCpltCallback>
 80853f0:	2300      	movs	r3, #0
 80853f2:	7723      	strb	r3, [r4, #28]
 80853f4:	bd10      	pop	{r4, pc}
 80853f6:	2302      	movs	r3, #2
 80853f8:	7723      	strb	r3, [r4, #28]
 80853fa:	4620      	mov	r0, r4
 80853fc:	f7ff ffd2 	bl	80853a4 <HAL_TIM_PWM_PulseFinishedHalfCpltCallback>
 8085400:	2300      	movs	r3, #0
 8085402:	7723      	strb	r3, [r4, #28]
 8085404:	bd10      	pop	{r4, pc}
 8085406:	bf00      	nop

08085408 <HAL_TIM_TriggerCallback>:
 8085408:	4770      	bx	lr
 808540a:	bf00      	nop

0808540c <HAL_TIM_IRQHandler>:
 808540c:	6803      	ldr	r3, [r0, #0]
 808540e:	691a      	ldr	r2, [r3, #16]
 8085410:	0791      	lsls	r1, r2, #30
 8085412:	b510      	push	{r4, lr}
 8085414:	4604      	mov	r4, r0
 8085416:	d502      	bpl.n	808541e <HAL_TIM_IRQHandler+0x12>
 8085418:	68da      	ldr	r2, [r3, #12]
 808541a:	0792      	lsls	r2, r2, #30
 808541c:	d45f      	bmi.n	80854de <HAL_TIM_IRQHandler+0xd2>
 808541e:	691a      	ldr	r2, [r3, #16]
 8085420:	0750      	lsls	r0, r2, #29
 8085422:	d502      	bpl.n	808542a <HAL_TIM_IRQHandler+0x1e>
 8085424:	68da      	ldr	r2, [r3, #12]
 8085426:	0751      	lsls	r1, r2, #29
 8085428:	d446      	bmi.n	80854b8 <HAL_TIM_IRQHandler+0xac>
 808542a:	691a      	ldr	r2, [r3, #16]
 808542c:	0712      	lsls	r2, r2, #28
 808542e:	d502      	bpl.n	8085436 <HAL_TIM_IRQHandler+0x2a>
 8085430:	68da      	ldr	r2, [r3, #12]
 8085432:	0710      	lsls	r0, r2, #28
 8085434:	d42e      	bmi.n	8085494 <HAL_TIM_IRQHandler+0x88>
 8085436:	691a      	ldr	r2, [r3, #16]
 8085438:	06d2      	lsls	r2, r2, #27
 808543a:	d502      	bpl.n	8085442 <HAL_TIM_IRQHandler+0x36>
 808543c:	68da      	ldr	r2, [r3, #12]
 808543e:	06d0      	lsls	r0, r2, #27
 8085440:	d418      	bmi.n	8085474 <HAL_TIM_IRQHandler+0x68>
 8085442:	691a      	ldr	r2, [r3, #16]
 8085444:	07d1      	lsls	r1, r2, #31
 8085446:	d502      	bpl.n	808544e <HAL_TIM_IRQHandler+0x42>
 8085448:	68da      	ldr	r2, [r3, #12]
 808544a:	07d2      	lsls	r2, r2, #31
 808544c:	d45d      	bmi.n	808550a <HAL_TIM_IRQHandler+0xfe>
 808544e:	691a      	ldr	r2, [r3, #16]
 8085450:	0610      	lsls	r0, r2, #24
 8085452:	d502      	bpl.n	808545a <HAL_TIM_IRQHandler+0x4e>
 8085454:	68da      	ldr	r2, [r3, #12]
 8085456:	0611      	lsls	r1, r2, #24
 8085458:	d45f      	bmi.n	808551a <HAL_TIM_IRQHandler+0x10e>
 808545a:	691a      	ldr	r2, [r3, #16]
 808545c:	0652      	lsls	r2, r2, #25
 808545e:	d502      	bpl.n	8085466 <HAL_TIM_IRQHandler+0x5a>
 8085460:	68da      	ldr	r2, [r3, #12]
 8085462:	0650      	lsls	r0, r2, #25
 8085464:	d461      	bmi.n	808552a <HAL_TIM_IRQHandler+0x11e>
 8085466:	691a      	ldr	r2, [r3, #16]
 8085468:	0691      	lsls	r1, r2, #26
 808546a:	d502      	bpl.n	8085472 <HAL_TIM_IRQHandler+0x66>
 808546c:	68da      	ldr	r2, [r3, #12]
 808546e:	0692      	lsls	r2, r2, #26
 8085470:	d443      	bmi.n	80854fa <HAL_TIM_IRQHandler+0xee>
 8085472:	bd10      	pop	{r4, pc}
 8085474:	f06f 0210 	mvn.w	r2, #16
 8085478:	611a      	str	r2, [r3, #16]
 808547a:	69db      	ldr	r3, [r3, #28]
 808547c:	2208      	movs	r2, #8
 808547e:	f413 7f40 	tst.w	r3, #768	; 0x300
 8085482:	7722      	strb	r2, [r4, #28]
 8085484:	4620      	mov	r0, r4
 8085486:	d064      	beq.n	8085552 <HAL_TIM_IRQHandler+0x146>
 8085488:	f7ff fef6 	bl	8085278 <HAL_TIM_IC_CaptureCallback>
 808548c:	2200      	movs	r2, #0
 808548e:	6823      	ldr	r3, [r4, #0]
 8085490:	7722      	strb	r2, [r4, #28]
 8085492:	e7d6      	b.n	8085442 <HAL_TIM_IRQHandler+0x36>
 8085494:	f06f 0208 	mvn.w	r2, #8
 8085498:	611a      	str	r2, [r3, #16]
 808549a:	69db      	ldr	r3, [r3, #28]
 808549c:	2204      	movs	r2, #4
 808549e:	0799      	lsls	r1, r3, #30
 80854a0:	7722      	strb	r2, [r4, #28]
 80854a2:	4620      	mov	r0, r4
 80854a4:	d152      	bne.n	808554c <HAL_TIM_IRQHandler+0x140>
 80854a6:	f7ff fee5 	bl	8085274 <HAL_TIM_OC_DelayElapsedCallback>
 80854aa:	4620      	mov	r0, r4
 80854ac:	f7ff ff48 	bl	8085340 <HAL_TIM_PWM_PulseFinishedCallback>
 80854b0:	2200      	movs	r2, #0
 80854b2:	6823      	ldr	r3, [r4, #0]
 80854b4:	7722      	strb	r2, [r4, #28]
 80854b6:	e7be      	b.n	8085436 <HAL_TIM_IRQHandler+0x2a>
 80854b8:	f06f 0204 	mvn.w	r2, #4
 80854bc:	611a      	str	r2, [r3, #16]
 80854be:	699b      	ldr	r3, [r3, #24]
 80854c0:	2202      	movs	r2, #2
 80854c2:	f413 7f40 	tst.w	r3, #768	; 0x300
 80854c6:	7722      	strb	r2, [r4, #28]
 80854c8:	4620      	mov	r0, r4
 80854ca:	d13c      	bne.n	8085546 <HAL_TIM_IRQHandler+0x13a>
 80854cc:	f7ff fed2 	bl	8085274 <HAL_TIM_OC_DelayElapsedCallback>
 80854d0:	4620      	mov	r0, r4
 80854d2:	f7ff ff35 	bl	8085340 <HAL_TIM_PWM_PulseFinishedCallback>
 80854d6:	2200      	movs	r2, #0
 80854d8:	6823      	ldr	r3, [r4, #0]
 80854da:	7722      	strb	r2, [r4, #28]
 80854dc:	e7a5      	b.n	808542a <HAL_TIM_IRQHandler+0x1e>
 80854de:	f06f 0202 	mvn.w	r2, #2
 80854e2:	611a      	str	r2, [r3, #16]
 80854e4:	699b      	ldr	r3, [r3, #24]
 80854e6:	2201      	movs	r2, #1
 80854e8:	079b      	lsls	r3, r3, #30
 80854ea:	7702      	strb	r2, [r0, #28]
 80854ec:	d025      	beq.n	808553a <HAL_TIM_IRQHandler+0x12e>
 80854ee:	f7ff fec3 	bl	8085278 <HAL_TIM_IC_CaptureCallback>
 80854f2:	2200      	movs	r2, #0
 80854f4:	6823      	ldr	r3, [r4, #0]
 80854f6:	7722      	strb	r2, [r4, #28]
 80854f8:	e791      	b.n	808541e <HAL_TIM_IRQHandler+0x12>
 80854fa:	f06f 0220 	mvn.w	r2, #32
 80854fe:	4620      	mov	r0, r4
 8085500:	611a      	str	r2, [r3, #16]
 8085502:	e8bd 4010 	ldmia.w	sp!, {r4, lr}
 8085506:	f000 bf53 	b.w	80863b0 <HAL_TIMEx_CommutCallback>
 808550a:	f06f 0201 	mvn.w	r2, #1
 808550e:	611a      	str	r2, [r3, #16]
 8085510:	4620      	mov	r0, r4
 8085512:	f7ff fe9b 	bl	808524c <HAL_TIM_PeriodElapsedCallback>
 8085516:	6823      	ldr	r3, [r4, #0]
 8085518:	e799      	b.n	808544e <HAL_TIM_IRQHandler+0x42>
 808551a:	f06f 0280 	mvn.w	r2, #128	; 0x80
 808551e:	611a      	str	r2, [r3, #16]
 8085520:	4620      	mov	r0, r4
 8085522:	f000 ff59 	bl	80863d8 <HAL_TIMEx_BreakCallback>
 8085526:	6823      	ldr	r3, [r4, #0]
 8085528:	e797      	b.n	808545a <HAL_TIM_IRQHandler+0x4e>
 808552a:	f06f 0240 	mvn.w	r2, #64	; 0x40
 808552e:	611a      	str	r2, [r3, #16]
 8085530:	4620      	mov	r0, r4
 8085532:	f7ff ff69 	bl	8085408 <HAL_TIM_TriggerCallback>
 8085536:	6823      	ldr	r3, [r4, #0]
 8085538:	e795      	b.n	8085466 <HAL_TIM_IRQHandler+0x5a>
 808553a:	f7ff fe9b 	bl	8085274 <HAL_TIM_OC_DelayElapsedCallback>
 808553e:	4620      	mov	r0, r4
 8085540:	f7ff fefe 	bl	8085340 <HAL_TIM_PWM_PulseFinishedCallback>
 8085544:	e7d5      	b.n	80854f2 <HAL_TIM_IRQHandler+0xe6>
 8085546:	f7ff fe97 	bl	8085278 <HAL_TIM_IC_CaptureCallback>
 808554a:	e7c4      	b.n	80854d6 <HAL_TIM_IRQHandler+0xca>
 808554c:	f7ff fe94 	bl	8085278 <HAL_TIM_IC_CaptureCallback>
 8085550:	e7ae      	b.n	80854b0 <HAL_TIM_IRQHandler+0xa4>
 8085552:	f7ff fe8f 	bl	8085274 <HAL_TIM_OC_DelayElapsedCallback>
 8085556:	4620      	mov	r0, r4
 8085558:	f7ff fef2 	bl	8085340 <HAL_TIM_PWM_PulseFinishedCallback>
 808555c:	e796      	b.n	808548c <HAL_TIM_IRQHandler+0x80>
 808555e:	bf00      	nop

08085560 <TIM_DMATriggerCplt>:
 8085560:	b508      	push	{r3, lr}
 8085562:	6b80      	ldr	r0, [r0, #56]	; 0x38
 8085564:	2301      	movs	r3, #1
 8085566:	f880 303d 	strb.w	r3, [r0, #61]	; 0x3d
 808556a:	f7ff ff4d 	bl	8085408 <HAL_TIM_TriggerCallback>
 808556e:	bd08      	pop	{r3, pc}

08085570 <HAL_TIM_TriggerHalfCpltCallback>:
 8085570:	4770      	bx	lr
 8085572:	bf00      	nop

08085574 <TIM_DMATriggerHalfCplt>:
 8085574:	b508      	push	{r3, lr}
 8085576:	6b80      	ldr	r0, [r0, #56]	; 0x38
 8085578:	2301      	movs	r3, #1
 808557a:	f880 303d 	strb.w	r3, [r0, #61]	; 0x3d
 808557e:	f7ff fff7 	bl	8085570 <HAL_TIM_TriggerHalfCpltCallback>
 8085582:	bd08      	pop	{r3, pc}

08085584 <HAL_TIM_ErrorCallback>:
 8085584:	4770      	bx	lr
 8085586:	bf00      	nop

08085588 <TIM_DMAError>:
 8085588:	b508      	push	{r3, lr}
 808558a:	6b80      	ldr	r0, [r0, #56]	; 0x38
 808558c:	2301      	movs	r3, #1
 808558e:	f880 303d 	strb.w	r3, [r0, #61]	; 0x3d
 8085592:	f7ff fff7 	bl	8085584 <HAL_TIM_ErrorCallback>
 8085596:	bd08      	pop	{r3, pc}

08085598 <HAL_TIM_Base_GetState>:
 8085598:	f890 003d 	ldrb.w	r0, [r0, #61]	; 0x3d
 808559c:	4770      	bx	lr
 808559e:	bf00      	nop

080855a0 <HAL_TIM_OC_GetState>:
 80855a0:	f890 003d 	ldrb.w	r0, [r0, #61]	; 0x3d
 80855a4:	4770      	bx	lr
 80855a6:	bf00      	nop

080855a8 <HAL_TIM_PWM_GetState>:
 80855a8:	f890 003d 	ldrb.w	r0, [r0, #61]	; 0x3d
 80855ac:	4770      	bx	lr
 80855ae:	bf00      	nop

080855b0 <HAL_TIM_IC_GetState>:
 80855b0:	f890 003d 	ldrb.w	r0, [r0, #61]	; 0x3d
 80855b4:	4770      	bx	lr
 80855b6:	bf00      	nop

080855b8 <HAL_TIM_OnePulse_GetState>:
 80855b8:	f890 003d 	ldrb.w	r0, [r0, #61]	; 0x3d
 80855bc:	4770      	bx	lr
 80855be:	bf00      	nop

080855c0 <HAL_TIM_Encoder_GetState>:
 80855c0:	f890 003d 	ldrb.w	r0, [r0, #61]	; 0x3d
 80855c4:	4770      	bx	lr
 80855c6:	bf00      	nop

080855c8 <TIM_Base_SetConfig>:
 80855c8:	b4f0      	push	{r4, r5, r6, r7}
 80855ca:	4e36      	ldr	r6, [pc, #216]	; (80856a4 <TIM_Base_SetConfig+0xdc>)
 80855cc:	6803      	ldr	r3, [r0, #0]
 80855ce:	694d      	ldr	r5, [r1, #20]
 80855d0:	688c      	ldr	r4, [r1, #8]
 80855d2:	680a      	ldr	r2, [r1, #0]
 80855d4:	42b0      	cmp	r0, r6
 80855d6:	d055      	beq.n	8085684 <TIM_Base_SetConfig+0xbc>
 80855d8:	f1b0 4f80 	cmp.w	r0, #1073741824	; 0x40000000
 80855dc:	d029      	beq.n	8085632 <TIM_Base_SetConfig+0x6a>
 80855de:	f5a6 467c 	sub.w	r6, r6, #64512	; 0xfc00
 80855e2:	42b0      	cmp	r0, r6
 80855e4:	d037      	beq.n	8085656 <TIM_Base_SetConfig+0x8e>
 80855e6:	f506 6680 	add.w	r6, r6, #1024	; 0x400
 80855ea:	42b0      	cmp	r0, r6
 80855ec:	d033      	beq.n	8085656 <TIM_Base_SetConfig+0x8e>
 80855ee:	f506 6680 	add.w	r6, r6, #1024	; 0x400
 80855f2:	42b0      	cmp	r0, r6
 80855f4:	d02f      	beq.n	8085656 <TIM_Base_SetConfig+0x8e>
 80855f6:	f506 4678 	add.w	r6, r6, #63488	; 0xf800
 80855fa:	42b0      	cmp	r0, r6
 80855fc:	d02b      	beq.n	8085656 <TIM_Base_SetConfig+0x8e>
 80855fe:	f506 5670 	add.w	r6, r6, #15360	; 0x3c00
 8085602:	42b0      	cmp	r0, r6
 8085604:	d013      	beq.n	808562e <TIM_Base_SetConfig+0x66>
 8085606:	f506 6680 	add.w	r6, r6, #1024	; 0x400
 808560a:	42b0      	cmp	r0, r6
 808560c:	d00f      	beq.n	808562e <TIM_Base_SetConfig+0x66>
 808560e:	f506 6680 	add.w	r6, r6, #1024	; 0x400
 8085612:	42b0      	cmp	r0, r6
 8085614:	d00b      	beq.n	808562e <TIM_Base_SetConfig+0x66>
 8085616:	f5a6 3698 	sub.w	r6, r6, #77824	; 0x13000
 808561a:	42b0      	cmp	r0, r6
 808561c:	d007      	beq.n	808562e <TIM_Base_SetConfig+0x66>
 808561e:	f506 6680 	add.w	r6, r6, #1024	; 0x400
 8085622:	42b0      	cmp	r0, r6
 8085624:	d003      	beq.n	808562e <TIM_Base_SetConfig+0x66>
 8085626:	f506 6680 	add.w	r6, r6, #1024	; 0x400
 808562a:	42b0      	cmp	r0, r6
 808562c:	d109      	bne.n	8085642 <TIM_Base_SetConfig+0x7a>
 808562e:	68c9      	ldr	r1, [r1, #12]
 8085630:	e004      	b.n	808563c <TIM_Base_SetConfig+0x74>
 8085632:	684e      	ldr	r6, [r1, #4]
 8085634:	68c9      	ldr	r1, [r1, #12]
 8085636:	f023 0370 	bic.w	r3, r3, #112	; 0x70
 808563a:	4333      	orrs	r3, r6
 808563c:	f423 7340 	bic.w	r3, r3, #768	; 0x300
 8085640:	430b      	orrs	r3, r1
 8085642:	f023 0380 	bic.w	r3, r3, #128	; 0x80
 8085646:	432b      	orrs	r3, r5
 8085648:	6003      	str	r3, [r0, #0]
 808564a:	62c4      	str	r4, [r0, #44]	; 0x2c
 808564c:	6282      	str	r2, [r0, #40]	; 0x28
 808564e:	2301      	movs	r3, #1
 8085650:	6143      	str	r3, [r0, #20]
 8085652:	bcf0      	pop	{r4, r5, r6, r7}
 8085654:	4770      	bx	lr
 8085656:	684e      	ldr	r6, [r1, #4]
 8085658:	4f13      	ldr	r7, [pc, #76]	; (80856a8 <TIM_Base_SetConfig+0xe0>)
 808565a:	f023 0370 	bic.w	r3, r3, #112	; 0x70
 808565e:	4333      	orrs	r3, r6
 8085660:	68ce      	ldr	r6, [r1, #12]
 8085662:	f423 7340 	bic.w	r3, r3, #768	; 0x300
 8085666:	4333      	orrs	r3, r6
 8085668:	f023 0380 	bic.w	r3, r3, #128	; 0x80
 808566c:	432b      	orrs	r3, r5
 808566e:	42b8      	cmp	r0, r7
 8085670:	6003      	str	r3, [r0, #0]
 8085672:	62c4      	str	r4, [r0, #44]	; 0x2c
 8085674:	6282      	str	r2, [r0, #40]	; 0x28
 8085676:	d1ea      	bne.n	808564e <TIM_Base_SetConfig+0x86>
 8085678:	690b      	ldr	r3, [r1, #16]
 808567a:	6303      	str	r3, [r0, #48]	; 0x30
 808567c:	2301      	movs	r3, #1
 808567e:	6143      	str	r3, [r0, #20]
 8085680:	bcf0      	pop	{r4, r5, r6, r7}
 8085682:	4770      	bx	lr
 8085684:	684f      	ldr	r7, [r1, #4]
 8085686:	68ce      	ldr	r6, [r1, #12]
 8085688:	f023 0370 	bic.w	r3, r3, #112	; 0x70
 808568c:	433b      	orrs	r3, r7
 808568e:	f423 7340 	bic.w	r3, r3, #768	; 0x300
 8085692:	4333      	orrs	r3, r6
 8085694:	f023 0380 	bic.w	r3, r3, #128	; 0x80
 8085698:	432b      	orrs	r3, r5
 808569a:	6003      	str	r3, [r0, #0]
 808569c:	62c4      	str	r4, [r0, #44]	; 0x2c
 808569e:	6282      	str	r2, [r0, #40]	; 0x28
 80856a0:	e7ea      	b.n	8085678 <TIM_Base_SetConfig+0xb0>
 80856a2:	bf00      	nop
 80856a4:	40010000 	.word	0x40010000
 80856a8:	40010400 	.word	0x40010400

080856ac <TIM_OC2_SetConfig>:
 80856ac:	b4f0      	push	{r4, r5, r6, r7}
 80856ae:	6a04      	ldr	r4, [r0, #32]
 80856b0:	688f      	ldr	r7, [r1, #8]
 80856b2:	680e      	ldr	r6, [r1, #0]
 80856b4:	4d15      	ldr	r5, [pc, #84]	; (808570c <TIM_OC2_SetConfig+0x60>)
 80856b6:	f024 0410 	bic.w	r4, r4, #16
 80856ba:	6204      	str	r4, [r0, #32]
 80856bc:	6a03      	ldr	r3, [r0, #32]
 80856be:	6844      	ldr	r4, [r0, #4]
 80856c0:	6982      	ldr	r2, [r0, #24]
 80856c2:	f023 0320 	bic.w	r3, r3, #32
 80856c6:	f422 42e6 	bic.w	r2, r2, #29440	; 0x7300
 80856ca:	42a8      	cmp	r0, r5
 80856cc:	ea43 1307 	orr.w	r3, r3, r7, lsl #4
 80856d0:	ea42 2206 	orr.w	r2, r2, r6, lsl #8
 80856d4:	d00a      	beq.n	80856ec <TIM_OC2_SetConfig+0x40>
 80856d6:	f505 6580 	add.w	r5, r5, #1024	; 0x400
 80856da:	42a8      	cmp	r0, r5
 80856dc:	d006      	beq.n	80856ec <TIM_OC2_SetConfig+0x40>
 80856de:	6849      	ldr	r1, [r1, #4]
 80856e0:	6044      	str	r4, [r0, #4]
 80856e2:	6182      	str	r2, [r0, #24]
 80856e4:	bcf0      	pop	{r4, r5, r6, r7}
 80856e6:	6381      	str	r1, [r0, #56]	; 0x38
 80856e8:	6203      	str	r3, [r0, #32]
 80856ea:	4770      	bx	lr
 80856ec:	68cd      	ldr	r5, [r1, #12]
 80856ee:	f023 0380 	bic.w	r3, r3, #128	; 0x80
 80856f2:	ea43 1305 	orr.w	r3, r3, r5, lsl #4
 80856f6:	e9d1 5605 	ldrd	r5, r6, [r1, #20]
 80856fa:	f424 6440 	bic.w	r4, r4, #3072	; 0xc00
 80856fe:	4335      	orrs	r5, r6
 8085700:	f023 0340 	bic.w	r3, r3, #64	; 0x40
 8085704:	ea44 0485 	orr.w	r4, r4, r5, lsl #2
 8085708:	e7e9      	b.n	80856de <TIM_OC2_SetConfig+0x32>
 808570a:	bf00      	nop
 808570c:	40010000 	.word	0x40010000

08085710 <TIM_TI1_SetConfig>:
 8085710:	b470      	push	{r4, r5, r6}
 8085712:	6a04      	ldr	r4, [r0, #32]
 8085714:	4e1b      	ldr	r6, [pc, #108]	; (8085784 <TIM_TI1_SetConfig+0x74>)
 8085716:	f024 0401 	bic.w	r4, r4, #1
 808571a:	6204      	str	r4, [r0, #32]
 808571c:	42b0      	cmp	r0, r6
 808571e:	6984      	ldr	r4, [r0, #24]
 8085720:	6a05      	ldr	r5, [r0, #32]
 8085722:	d01d      	beq.n	8085760 <TIM_TI1_SetConfig+0x50>
 8085724:	f1b0 4f80 	cmp.w	r0, #1073741824	; 0x40000000
 8085728:	d01a      	beq.n	8085760 <TIM_TI1_SetConfig+0x50>
 808572a:	f5a6 467c 	sub.w	r6, r6, #64512	; 0xfc00
 808572e:	42b0      	cmp	r0, r6
 8085730:	d016      	beq.n	8085760 <TIM_TI1_SetConfig+0x50>
 8085732:	f506 6680 	add.w	r6, r6, #1024	; 0x400
 8085736:	42b0      	cmp	r0, r6
 8085738:	d012      	beq.n	8085760 <TIM_TI1_SetConfig+0x50>
 808573a:	f506 6680 	add.w	r6, r6, #1024	; 0x400
 808573e:	42b0      	cmp	r0, r6
 8085740:	d00e      	beq.n	8085760 <TIM_TI1_SetConfig+0x50>
 8085742:	f506 4678 	add.w	r6, r6, #63488	; 0xf800
 8085746:	42b0      	cmp	r0, r6
 8085748:	d00a      	beq.n	8085760 <TIM_TI1_SetConfig+0x50>
 808574a:	f506 5670 	add.w	r6, r6, #15360	; 0x3c00
 808574e:	42b0      	cmp	r0, r6
 8085750:	d006      	beq.n	8085760 <TIM_TI1_SetConfig+0x50>
 8085752:	f5a6 3694 	sub.w	r6, r6, #75776	; 0x12800
 8085756:	42b0      	cmp	r0, r6
 8085758:	d002      	beq.n	8085760 <TIM_TI1_SetConfig+0x50>
 808575a:	f044 0201 	orr.w	r2, r4, #1
 808575e:	e002      	b.n	8085766 <TIM_TI1_SetConfig+0x56>
 8085760:	f024 0403 	bic.w	r4, r4, #3
 8085764:	4322      	orrs	r2, r4
 8085766:	011b      	lsls	r3, r3, #4
 8085768:	f025 040a 	bic.w	r4, r5, #10
 808576c:	b2db      	uxtb	r3, r3
 808576e:	f022 02f0 	bic.w	r2, r2, #240	; 0xf0
 8085772:	f001 010a 	and.w	r1, r1, #10
 8085776:	4321      	orrs	r1, r4
 8085778:	4313      	orrs	r3, r2
 808577a:	6183      	str	r3, [r0, #24]
 808577c:	bc70      	pop	{r4, r5, r6}
 808577e:	6201      	str	r1, [r0, #32]
 8085780:	4770      	bx	lr
 8085782:	bf00      	nop
 8085784:	40010000 	.word	0x40010000

08085788 <TIM_ETR_SetConfig>:
 8085788:	430a      	orrs	r2, r1
 808578a:	6881      	ldr	r1, [r0, #8]
 808578c:	ea42 2303 	orr.w	r3, r2, r3, lsl #8
 8085790:	f421 417f 	bic.w	r1, r1, #65280	; 0xff00
 8085794:	430b      	orrs	r3, r1
 8085796:	6083      	str	r3, [r0, #8]
 8085798:	4770      	bx	lr
 808579a:	bf00      	nop

0808579c <TIM_CCxChannelCmd>:
 808579c:	6a03      	ldr	r3, [r0, #32]
 808579e:	b410      	push	{r4}
 80857a0:	f001 011f 	and.w	r1, r1, #31
 80857a4:	2401      	movs	r4, #1
 80857a6:	408c      	lsls	r4, r1
 80857a8:	ea23 0304 	bic.w	r3, r3, r4
 80857ac:	6203      	str	r3, [r0, #32]
 80857ae:	6a03      	ldr	r3, [r0, #32]
 80857b0:	f85d 4b04 	ldr.w	r4, [sp], #4
 80857b4:	408a      	lsls	r2, r1
 80857b6:	431a      	orrs	r2, r3
 80857b8:	6202      	str	r2, [r0, #32]
 80857ba:	4770      	bx	lr

080857bc <HAL_TIMEx_HallSensor_MspInit>:
 80857bc:	4770      	bx	lr
 80857be:	bf00      	nop

080857c0 <HAL_TIMEx_HallSensor_Init>:
 80857c0:	2800      	cmp	r0, #0
 80857c2:	d054      	beq.n	808586e <HAL_TIMEx_HallSensor_Init+0xae>
 80857c4:	b570      	push	{r4, r5, r6, lr}
 80857c6:	f890 303d 	ldrb.w	r3, [r0, #61]	; 0x3d
 80857ca:	b088      	sub	sp, #32
 80857cc:	4604      	mov	r4, r0
 80857ce:	460d      	mov	r5, r1
 80857d0:	f003 02ff 	and.w	r2, r3, #255	; 0xff
 80857d4:	2b00      	cmp	r3, #0
 80857d6:	d045      	beq.n	8085864 <HAL_TIMEx_HallSensor_Init+0xa4>
 80857d8:	2302      	movs	r3, #2
 80857da:	f884 303d 	strb.w	r3, [r4, #61]	; 0x3d
 80857de:	1d21      	adds	r1, r4, #4
 80857e0:	6820      	ldr	r0, [r4, #0]
 80857e2:	f7ff fef1 	bl	80855c8 <TIM_Base_SetConfig>
 80857e6:	68ab      	ldr	r3, [r5, #8]
 80857e8:	6829      	ldr	r1, [r5, #0]
 80857ea:	6820      	ldr	r0, [r4, #0]
 80857ec:	2203      	movs	r2, #3
 80857ee:	f7ff ff8f 	bl	8085710 <TIM_TI1_SetConfig>
 80857f2:	6820      	ldr	r0, [r4, #0]
 80857f4:	686e      	ldr	r6, [r5, #4]
 80857f6:	6982      	ldr	r2, [r0, #24]
 80857f8:	68e9      	ldr	r1, [r5, #12]
 80857fa:	f022 020c 	bic.w	r2, r2, #12
 80857fe:	6182      	str	r2, [r0, #24]
 8085800:	6983      	ldr	r3, [r0, #24]
 8085802:	4333      	orrs	r3, r6
 8085804:	6183      	str	r3, [r0, #24]
 8085806:	6843      	ldr	r3, [r0, #4]
 8085808:	f043 0380 	orr.w	r3, r3, #128	; 0x80
 808580c:	6043      	str	r3, [r0, #4]
 808580e:	6883      	ldr	r3, [r0, #8]
 8085810:	9102      	str	r1, [sp, #8]
 8085812:	f023 0370 	bic.w	r3, r3, #112	; 0x70
 8085816:	6083      	str	r3, [r0, #8]
 8085818:	6883      	ldr	r3, [r0, #8]
 808581a:	f043 0340 	orr.w	r3, r3, #64	; 0x40
 808581e:	6083      	str	r3, [r0, #8]
 8085820:	6883      	ldr	r3, [r0, #8]
 8085822:	f023 0307 	bic.w	r3, r3, #7
 8085826:	6083      	str	r3, [r0, #8]
 8085828:	6883      	ldr	r3, [r0, #8]
 808582a:	f043 0304 	orr.w	r3, r3, #4
 808582e:	6083      	str	r3, [r0, #8]
 8085830:	2500      	movs	r5, #0
 8085832:	2370      	movs	r3, #112	; 0x70
 8085834:	a901      	add	r1, sp, #4
 8085836:	9301      	str	r3, [sp, #4]
 8085838:	e9cd 5505 	strd	r5, r5, [sp, #20]
 808583c:	9507      	str	r5, [sp, #28]
 808583e:	e9cd 5503 	strd	r5, r5, [sp, #12]
 8085842:	f7ff ff33 	bl	80856ac <TIM_OC2_SetConfig>
 8085846:	6823      	ldr	r3, [r4, #0]
 8085848:	685a      	ldr	r2, [r3, #4]
 808584a:	f022 0270 	bic.w	r2, r2, #112	; 0x70
 808584e:	605a      	str	r2, [r3, #4]
 8085850:	685a      	ldr	r2, [r3, #4]
 8085852:	2101      	movs	r1, #1
 8085854:	f042 0250 	orr.w	r2, r2, #80	; 0x50
 8085858:	4628      	mov	r0, r5
 808585a:	605a      	str	r2, [r3, #4]
 808585c:	f884 103d 	strb.w	r1, [r4, #61]	; 0x3d
 8085860:	b008      	add	sp, #32
 8085862:	bd70      	pop	{r4, r5, r6, pc}
 8085864:	f880 203c 	strb.w	r2, [r0, #60]	; 0x3c
 8085868:	f7ff ffa8 	bl	80857bc <HAL_TIMEx_HallSensor_MspInit>
 808586c:	e7b4      	b.n	80857d8 <HAL_TIMEx_HallSensor_Init+0x18>
 808586e:	2001      	movs	r0, #1
 8085870:	4770      	bx	lr
 8085872:	bf00      	nop

08085874 <HAL_TIMEx_HallSensor_MspDeInit>:
 8085874:	4770      	bx	lr
 8085876:	bf00      	nop

08085878 <HAL_TIMEx_HallSensor_DeInit>:
 8085878:	2202      	movs	r2, #2
 808587a:	6803      	ldr	r3, [r0, #0]
 808587c:	b510      	push	{r4, lr}
 808587e:	f880 203d 	strb.w	r2, [r0, #61]	; 0x3d
 8085882:	6a19      	ldr	r1, [r3, #32]
 8085884:	f241 1211 	movw	r2, #4369	; 0x1111
 8085888:	4211      	tst	r1, r2
 808588a:	4604      	mov	r4, r0
 808588c:	d108      	bne.n	80858a0 <HAL_TIMEx_HallSensor_DeInit+0x28>
 808588e:	6a19      	ldr	r1, [r3, #32]
 8085890:	f240 4244 	movw	r2, #1092	; 0x444
 8085894:	4211      	tst	r1, r2
 8085896:	d103      	bne.n	80858a0 <HAL_TIMEx_HallSensor_DeInit+0x28>
 8085898:	681a      	ldr	r2, [r3, #0]
 808589a:	f022 0201 	bic.w	r2, r2, #1
 808589e:	601a      	str	r2, [r3, #0]
 80858a0:	4620      	mov	r0, r4
 80858a2:	f7ff ffe7 	bl	8085874 <HAL_TIMEx_HallSensor_MspDeInit>
 80858a6:	2000      	movs	r0, #0
 80858a8:	f884 003d 	strb.w	r0, [r4, #61]	; 0x3d
 80858ac:	f884 003c 	strb.w	r0, [r4, #60]	; 0x3c
 80858b0:	bd10      	pop	{r4, pc}
 80858b2:	bf00      	nop

080858b4 <HAL_TIMEx_HallSensor_Start>:
 80858b4:	b510      	push	{r4, lr}
 80858b6:	4604      	mov	r4, r0
 80858b8:	2201      	movs	r2, #1
 80858ba:	6800      	ldr	r0, [r0, #0]
 80858bc:	2100      	movs	r1, #0
 80858be:	f7ff ff6d 	bl	808579c <TIM_CCxChannelCmd>
 80858c2:	6822      	ldr	r2, [r4, #0]
 80858c4:	6893      	ldr	r3, [r2, #8]
 80858c6:	f003 0307 	and.w	r3, r3, #7
 80858ca:	2b06      	cmp	r3, #6
 80858cc:	d003      	beq.n	80858d6 <HAL_TIMEx_HallSensor_Start+0x22>
 80858ce:	6813      	ldr	r3, [r2, #0]
 80858d0:	f043 0301 	orr.w	r3, r3, #1
 80858d4:	6013      	str	r3, [r2, #0]
 80858d6:	2000      	movs	r0, #0
 80858d8:	bd10      	pop	{r4, pc}
 80858da:	bf00      	nop

080858dc <HAL_TIMEx_HallSensor_Stop>:
 80858dc:	2200      	movs	r2, #0
 80858de:	b510      	push	{r4, lr}
 80858e0:	4604      	mov	r4, r0
 80858e2:	4611      	mov	r1, r2
 80858e4:	6800      	ldr	r0, [r0, #0]
 80858e6:	f7ff ff59 	bl	808579c <TIM_CCxChannelCmd>
 80858ea:	6823      	ldr	r3, [r4, #0]
 80858ec:	6a19      	ldr	r1, [r3, #32]
 80858ee:	f241 1211 	movw	r2, #4369	; 0x1111
 80858f2:	4211      	tst	r1, r2
 80858f4:	d108      	bne.n	8085908 <HAL_TIMEx_HallSensor_Stop+0x2c>
 80858f6:	6a19      	ldr	r1, [r3, #32]
 80858f8:	f240 4244 	movw	r2, #1092	; 0x444
 80858fc:	4211      	tst	r1, r2
 80858fe:	d103      	bne.n	8085908 <HAL_TIMEx_HallSensor_Stop+0x2c>
 8085900:	681a      	ldr	r2, [r3, #0]
 8085902:	f022 0201 	bic.w	r2, r2, #1
 8085906:	601a      	str	r2, [r3, #0]
 8085908:	2000      	movs	r0, #0
 808590a:	bd10      	pop	{r4, pc}

0808590c <HAL_TIMEx_HallSensor_Start_IT>:
 808590c:	b510      	push	{r4, lr}
 808590e:	4604      	mov	r4, r0
 8085910:	6800      	ldr	r0, [r0, #0]
 8085912:	68c3      	ldr	r3, [r0, #12]
 8085914:	f043 0302 	orr.w	r3, r3, #2
 8085918:	2201      	movs	r2, #1
 808591a:	60c3      	str	r3, [r0, #12]
 808591c:	2100      	movs	r1, #0
 808591e:	f7ff ff3d 	bl	808579c <TIM_CCxChannelCmd>
 8085922:	6822      	ldr	r2, [r4, #0]
 8085924:	6893      	ldr	r3, [r2, #8]
 8085926:	f003 0307 	and.w	r3, r3, #7
 808592a:	2b06      	cmp	r3, #6
 808592c:	d003      	beq.n	8085936 <HAL_TIMEx_HallSensor_Start_IT+0x2a>
 808592e:	6813      	ldr	r3, [r2, #0]
 8085930:	f043 0301 	orr.w	r3, r3, #1
 8085934:	6013      	str	r3, [r2, #0]
 8085936:	2000      	movs	r0, #0
 8085938:	bd10      	pop	{r4, pc}
 808593a:	bf00      	nop

0808593c <HAL_TIMEx_HallSensor_Stop_IT>:
 808593c:	2200      	movs	r2, #0
 808593e:	b510      	push	{r4, lr}
 8085940:	4604      	mov	r4, r0
 8085942:	4611      	mov	r1, r2
 8085944:	6800      	ldr	r0, [r0, #0]
 8085946:	f7ff ff29 	bl	808579c <TIM_CCxChannelCmd>
 808594a:	6823      	ldr	r3, [r4, #0]
 808594c:	68da      	ldr	r2, [r3, #12]
 808594e:	f022 0202 	bic.w	r2, r2, #2
 8085952:	60da      	str	r2, [r3, #12]
 8085954:	6a19      	ldr	r1, [r3, #32]
 8085956:	f241 1211 	movw	r2, #4369	; 0x1111
 808595a:	4211      	tst	r1, r2
 808595c:	d108      	bne.n	8085970 <HAL_TIMEx_HallSensor_Stop_IT+0x34>
 808595e:	6a19      	ldr	r1, [r3, #32]
 8085960:	f240 4244 	movw	r2, #1092	; 0x444
 8085964:	4211      	tst	r1, r2
 8085966:	d103      	bne.n	8085970 <HAL_TIMEx_HallSensor_Stop_IT+0x34>
 8085968:	681a      	ldr	r2, [r3, #0]
 808596a:	f022 0201 	bic.w	r2, r2, #1
 808596e:	601a      	str	r2, [r3, #0]
 8085970:	2000      	movs	r0, #0
 8085972:	bd10      	pop	{r4, pc}

08085974 <HAL_TIMEx_HallSensor_Start_DMA>:
 8085974:	b5f8      	push	{r3, r4, r5, r6, r7, lr}
 8085976:	f890 403d 	ldrb.w	r4, [r0, #61]	; 0x3d
 808597a:	b2e4      	uxtb	r4, r4
 808597c:	2c02      	cmp	r4, #2
 808597e:	d030      	beq.n	80859e2 <HAL_TIMEx_HallSensor_Start_DMA+0x6e>
 8085980:	f890 303d 	ldrb.w	r3, [r0, #61]	; 0x3d
 8085984:	2b01      	cmp	r3, #1
 8085986:	d103      	bne.n	8085990 <HAL_TIMEx_HallSensor_Start_DMA+0x1c>
 8085988:	b339      	cbz	r1, 80859da <HAL_TIMEx_HallSensor_Start_DMA+0x66>
 808598a:	2302      	movs	r3, #2
 808598c:	f880 303d 	strb.w	r3, [r0, #61]	; 0x3d
 8085990:	4604      	mov	r4, r0
 8085992:	4616      	mov	r6, r2
 8085994:	460d      	mov	r5, r1
 8085996:	2201      	movs	r2, #1
 8085998:	2100      	movs	r1, #0
 808599a:	6800      	ldr	r0, [r0, #0]
 808599c:	4f12      	ldr	r7, [pc, #72]	; (80859e8 <HAL_TIMEx_HallSensor_Start_DMA+0x74>)
 808599e:	f7ff fefd 	bl	808579c <TIM_CCxChannelCmd>
 80859a2:	6821      	ldr	r1, [r4, #0]
 80859a4:	6a60      	ldr	r0, [r4, #36]	; 0x24
 80859a6:	4a11      	ldr	r2, [pc, #68]	; (80859ec <HAL_TIMEx_HallSensor_Start_DMA+0x78>)
 80859a8:	4b11      	ldr	r3, [pc, #68]	; (80859f0 <HAL_TIMEx_HallSensor_Start_DMA+0x7c>)
 80859aa:	63c2      	str	r2, [r0, #60]	; 0x3c
 80859ac:	6403      	str	r3, [r0, #64]	; 0x40
 80859ae:	462a      	mov	r2, r5
 80859b0:	4633      	mov	r3, r6
 80859b2:	64c7      	str	r7, [r0, #76]	; 0x4c
 80859b4:	3134      	adds	r1, #52	; 0x34
 80859b6:	f7fb ff1f 	bl	80817f8 <HAL_DMA_Start_IT>
 80859ba:	b980      	cbnz	r0, 80859de <HAL_TIMEx_HallSensor_Start_DMA+0x6a>
 80859bc:	6823      	ldr	r3, [r4, #0]
 80859be:	68da      	ldr	r2, [r3, #12]
 80859c0:	f442 7200 	orr.w	r2, r2, #512	; 0x200
 80859c4:	60da      	str	r2, [r3, #12]
 80859c6:	689a      	ldr	r2, [r3, #8]
 80859c8:	f002 0207 	and.w	r2, r2, #7
 80859cc:	2a06      	cmp	r2, #6
 80859ce:	d003      	beq.n	80859d8 <HAL_TIMEx_HallSensor_Start_DMA+0x64>
 80859d0:	681a      	ldr	r2, [r3, #0]
 80859d2:	f042 0201 	orr.w	r2, r2, #1
 80859d6:	601a      	str	r2, [r3, #0]
 80859d8:	bdf8      	pop	{r3, r4, r5, r6, r7, pc}
 80859da:	2a00      	cmp	r2, #0
 80859dc:	d0d5      	beq.n	808598a <HAL_TIMEx_HallSensor_Start_DMA+0x16>
 80859de:	2001      	movs	r0, #1
 80859e0:	bdf8      	pop	{r3, r4, r5, r6, r7, pc}
 80859e2:	4620      	mov	r0, r4
 80859e4:	bdf8      	pop	{r3, r4, r5, r6, r7, pc}
 80859e6:	bf00      	nop
 80859e8:	08085589 	.word	0x08085589
 80859ec:	0808527d 	.word	0x0808527d
 80859f0:	080852e1 	.word	0x080852e1

080859f4 <HAL_TIMEx_HallSensor_Stop_DMA>:
 80859f4:	b510      	push	{r4, lr}
 80859f6:	2200      	movs	r2, #0
 80859f8:	4604      	mov	r4, r0
 80859fa:	4611      	mov	r1, r2
 80859fc:	6800      	ldr	r0, [r0, #0]
 80859fe:	f7ff fecd 	bl	808579c <TIM_CCxChannelCmd>
 8085a02:	6822      	ldr	r2, [r4, #0]
 8085a04:	6a60      	ldr	r0, [r4, #36]	; 0x24
 8085a06:	68d3      	ldr	r3, [r2, #12]
 8085a08:	f423 7300 	bic.w	r3, r3, #512	; 0x200
 8085a0c:	60d3      	str	r3, [r2, #12]
 8085a0e:	f7fb ff7d 	bl	808190c <HAL_DMA_Abort_IT>
 8085a12:	6823      	ldr	r3, [r4, #0]
 8085a14:	6a19      	ldr	r1, [r3, #32]
 8085a16:	f241 1211 	movw	r2, #4369	; 0x1111
 8085a1a:	4211      	tst	r1, r2
 8085a1c:	d108      	bne.n	8085a30 <HAL_TIMEx_HallSensor_Stop_DMA+0x3c>
 8085a1e:	6a19      	ldr	r1, [r3, #32]
 8085a20:	f240 4244 	movw	r2, #1092	; 0x444
 8085a24:	4211      	tst	r1, r2
 8085a26:	d103      	bne.n	8085a30 <HAL_TIMEx_HallSensor_Stop_DMA+0x3c>
 8085a28:	681a      	ldr	r2, [r3, #0]
 8085a2a:	f022 0201 	bic.w	r2, r2, #1
 8085a2e:	601a      	str	r2, [r3, #0]
 8085a30:	2000      	movs	r0, #0
 8085a32:	bd10      	pop	{r4, pc}

08085a34 <HAL_TIMEx_OCN_Start>:
 8085a34:	6803      	ldr	r3, [r0, #0]
 8085a36:	2204      	movs	r2, #4
 8085a38:	6a18      	ldr	r0, [r3, #32]
 8085a3a:	f001 011f 	and.w	r1, r1, #31
 8085a3e:	fa02 f101 	lsl.w	r1, r2, r1
 8085a42:	ea20 0001 	bic.w	r0, r0, r1
 8085a46:	6218      	str	r0, [r3, #32]
 8085a48:	6a1a      	ldr	r2, [r3, #32]
 8085a4a:	4311      	orrs	r1, r2
 8085a4c:	6219      	str	r1, [r3, #32]
 8085a4e:	6c5a      	ldr	r2, [r3, #68]	; 0x44
 8085a50:	f442 4200 	orr.w	r2, r2, #32768	; 0x8000
 8085a54:	645a      	str	r2, [r3, #68]	; 0x44
 8085a56:	689a      	ldr	r2, [r3, #8]
 8085a58:	f002 0207 	and.w	r2, r2, #7
 8085a5c:	2a06      	cmp	r2, #6
 8085a5e:	d003      	beq.n	8085a68 <HAL_TIMEx_OCN_Start+0x34>
 8085a60:	681a      	ldr	r2, [r3, #0]
 8085a62:	f042 0201 	orr.w	r2, r2, #1
 8085a66:	601a      	str	r2, [r3, #0]
 8085a68:	2000      	movs	r0, #0
 8085a6a:	4770      	bx	lr

08085a6c <HAL_TIMEx_OCN_Stop>:
 8085a6c:	6803      	ldr	r3, [r0, #0]
 8085a6e:	f001 001f 	and.w	r0, r1, #31
 8085a72:	6a1a      	ldr	r2, [r3, #32]
 8085a74:	2104      	movs	r1, #4
 8085a76:	4081      	lsls	r1, r0
 8085a78:	ea22 0101 	bic.w	r1, r2, r1
 8085a7c:	6219      	str	r1, [r3, #32]
 8085a7e:	6a1a      	ldr	r2, [r3, #32]
 8085a80:	621a      	str	r2, [r3, #32]
 8085a82:	6a19      	ldr	r1, [r3, #32]
 8085a84:	f241 1211 	movw	r2, #4369	; 0x1111
 8085a88:	4211      	tst	r1, r2
 8085a8a:	d104      	bne.n	8085a96 <HAL_TIMEx_OCN_Stop+0x2a>
 8085a8c:	6a19      	ldr	r1, [r3, #32]
 8085a8e:	f240 4244 	movw	r2, #1092	; 0x444
 8085a92:	4211      	tst	r1, r2
 8085a94:	d00f      	beq.n	8085ab6 <HAL_TIMEx_OCN_Stop+0x4a>
 8085a96:	6a19      	ldr	r1, [r3, #32]
 8085a98:	f241 1211 	movw	r2, #4369	; 0x1111
 8085a9c:	4211      	tst	r1, r2
 8085a9e:	d108      	bne.n	8085ab2 <HAL_TIMEx_OCN_Stop+0x46>
 8085aa0:	6a19      	ldr	r1, [r3, #32]
 8085aa2:	f240 4244 	movw	r2, #1092	; 0x444
 8085aa6:	4211      	tst	r1, r2
 8085aa8:	d103      	bne.n	8085ab2 <HAL_TIMEx_OCN_Stop+0x46>
 8085aaa:	681a      	ldr	r2, [r3, #0]
 8085aac:	f022 0201 	bic.w	r2, r2, #1
 8085ab0:	601a      	str	r2, [r3, #0]
 8085ab2:	2000      	movs	r0, #0
 8085ab4:	4770      	bx	lr
 8085ab6:	6c5a      	ldr	r2, [r3, #68]	; 0x44
 8085ab8:	f422 4200 	bic.w	r2, r2, #32768	; 0x8000
 8085abc:	645a      	str	r2, [r3, #68]	; 0x44
 8085abe:	e7ea      	b.n	8085a96 <HAL_TIMEx_OCN_Stop+0x2a>

08085ac0 <HAL_TIMEx_OCN_Start_IT>:
 8085ac0:	2904      	cmp	r1, #4
 8085ac2:	6803      	ldr	r3, [r0, #0]
 8085ac4:	d02a      	beq.n	8085b1c <HAL_TIMEx_OCN_Start_IT+0x5c>
 8085ac6:	2908      	cmp	r1, #8
 8085ac8:	d023      	beq.n	8085b12 <HAL_TIMEx_OCN_Start_IT+0x52>
 8085aca:	b1e9      	cbz	r1, 8085b08 <HAL_TIMEx_OCN_Start_IT+0x48>
 8085acc:	68da      	ldr	r2, [r3, #12]
 8085ace:	f042 0280 	orr.w	r2, r2, #128	; 0x80
 8085ad2:	60da      	str	r2, [r3, #12]
 8085ad4:	6a18      	ldr	r0, [r3, #32]
 8085ad6:	f001 021f 	and.w	r2, r1, #31
 8085ada:	2104      	movs	r1, #4
 8085adc:	4091      	lsls	r1, r2
 8085ade:	ea20 0001 	bic.w	r0, r0, r1
 8085ae2:	6218      	str	r0, [r3, #32]
 8085ae4:	6a1a      	ldr	r2, [r3, #32]
 8085ae6:	4311      	orrs	r1, r2
 8085ae8:	6219      	str	r1, [r3, #32]
 8085aea:	6c5a      	ldr	r2, [r3, #68]	; 0x44
 8085aec:	f442 4200 	orr.w	r2, r2, #32768	; 0x8000
 8085af0:	645a      	str	r2, [r3, #68]	; 0x44
 8085af2:	689a      	ldr	r2, [r3, #8]
 8085af4:	f002 0207 	and.w	r2, r2, #7
 8085af8:	2a06      	cmp	r2, #6
 8085afa:	d003      	beq.n	8085b04 <HAL_TIMEx_OCN_Start_IT+0x44>
 8085afc:	681a      	ldr	r2, [r3, #0]
 8085afe:	f042 0201 	orr.w	r2, r2, #1
 8085b02:	601a      	str	r2, [r3, #0]
 8085b04:	2000      	movs	r0, #0
 8085b06:	4770      	bx	lr
 8085b08:	68da      	ldr	r2, [r3, #12]
 8085b0a:	f042 0202 	orr.w	r2, r2, #2
 8085b0e:	60da      	str	r2, [r3, #12]
 8085b10:	e7dc      	b.n	8085acc <HAL_TIMEx_OCN_Start_IT+0xc>
 8085b12:	68da      	ldr	r2, [r3, #12]
 8085b14:	f042 0208 	orr.w	r2, r2, #8
 8085b18:	60da      	str	r2, [r3, #12]
 8085b1a:	e7d7      	b.n	8085acc <HAL_TIMEx_OCN_Start_IT+0xc>
 8085b1c:	68da      	ldr	r2, [r3, #12]
 8085b1e:	f042 0204 	orr.w	r2, r2, #4
 8085b22:	60da      	str	r2, [r3, #12]
 8085b24:	e7d2      	b.n	8085acc <HAL_TIMEx_OCN_Start_IT+0xc>
 8085b26:	bf00      	nop

08085b28 <HAL_TIMEx_OCN_Stop_IT>:
 8085b28:	2904      	cmp	r1, #4
 8085b2a:	6803      	ldr	r3, [r0, #0]
 8085b2c:	d040      	beq.n	8085bb0 <HAL_TIMEx_OCN_Stop_IT+0x88>
 8085b2e:	2908      	cmp	r1, #8
 8085b30:	d039      	beq.n	8085ba6 <HAL_TIMEx_OCN_Stop_IT+0x7e>
 8085b32:	2900      	cmp	r1, #0
 8085b34:	d032      	beq.n	8085b9c <HAL_TIMEx_OCN_Stop_IT+0x74>
 8085b36:	6a1a      	ldr	r2, [r3, #32]
 8085b38:	f001 011f 	and.w	r1, r1, #31
 8085b3c:	2004      	movs	r0, #4
 8085b3e:	fa00 f101 	lsl.w	r1, r0, r1
 8085b42:	ea22 0101 	bic.w	r1, r2, r1
 8085b46:	6219      	str	r1, [r3, #32]
 8085b48:	6a1a      	ldr	r2, [r3, #32]
 8085b4a:	621a      	str	r2, [r3, #32]
 8085b4c:	6a19      	ldr	r1, [r3, #32]
 8085b4e:	f240 4244 	movw	r2, #1092	; 0x444
 8085b52:	4211      	tst	r1, r2
 8085b54:	d103      	bne.n	8085b5e <HAL_TIMEx_OCN_Stop_IT+0x36>
 8085b56:	68da      	ldr	r2, [r3, #12]
 8085b58:	f022 0280 	bic.w	r2, r2, #128	; 0x80
 8085b5c:	60da      	str	r2, [r3, #12]
 8085b5e:	6a19      	ldr	r1, [r3, #32]
 8085b60:	f241 1211 	movw	r2, #4369	; 0x1111
 8085b64:	4211      	tst	r1, r2
 8085b66:	d104      	bne.n	8085b72 <HAL_TIMEx_OCN_Stop_IT+0x4a>
 8085b68:	6a19      	ldr	r1, [r3, #32]
 8085b6a:	f240 4244 	movw	r2, #1092	; 0x444
 8085b6e:	4211      	tst	r1, r2
 8085b70:	d00f      	beq.n	8085b92 <HAL_TIMEx_OCN_Stop_IT+0x6a>
 8085b72:	6a19      	ldr	r1, [r3, #32]
 8085b74:	f241 1211 	movw	r2, #4369	; 0x1111
 8085b78:	4211      	tst	r1, r2
 8085b7a:	d108      	bne.n	8085b8e <HAL_TIMEx_OCN_Stop_IT+0x66>
 8085b7c:	6a19      	ldr	r1, [r3, #32]
 8085b7e:	f240 4244 	movw	r2, #1092	; 0x444
 8085b82:	4211      	tst	r1, r2
 8085b84:	d103      	bne.n	8085b8e <HAL_TIMEx_OCN_Stop_IT+0x66>
 8085b86:	681a      	ldr	r2, [r3, #0]
 8085b88:	f022 0201 	bic.w	r2, r2, #1
 8085b8c:	601a      	str	r2, [r3, #0]
 8085b8e:	2000      	movs	r0, #0
 8085b90:	4770      	bx	lr
 8085b92:	6c5a      	ldr	r2, [r3, #68]	; 0x44
 8085b94:	f422 4200 	bic.w	r2, r2, #32768	; 0x8000
 8085b98:	645a      	str	r2, [r3, #68]	; 0x44
 8085b9a:	e7ea      	b.n	8085b72 <HAL_TIMEx_OCN_Stop_IT+0x4a>
 8085b9c:	68da      	ldr	r2, [r3, #12]
 8085b9e:	f022 0202 	bic.w	r2, r2, #2
 8085ba2:	60da      	str	r2, [r3, #12]
 8085ba4:	e7c7      	b.n	8085b36 <HAL_TIMEx_OCN_Stop_IT+0xe>
 8085ba6:	68da      	ldr	r2, [r3, #12]
 8085ba8:	f022 0208 	bic.w	r2, r2, #8
 8085bac:	60da      	str	r2, [r3, #12]
 8085bae:	e7c2      	b.n	8085b36 <HAL_TIMEx_OCN_Stop_IT+0xe>
 8085bb0:	68da      	ldr	r2, [r3, #12]
 8085bb2:	f022 0204 	bic.w	r2, r2, #4
 8085bb6:	60da      	str	r2, [r3, #12]
 8085bb8:	e7bd      	b.n	8085b36 <HAL_TIMEx_OCN_Stop_IT+0xe>
 8085bba:	bf00      	nop

08085bbc <HAL_TIMEx_OCN_Start_DMA>:
 8085bbc:	b5f8      	push	{r3, r4, r5, r6, r7, lr}
 8085bbe:	f890 403d 	ldrb.w	r4, [r0, #61]	; 0x3d
 8085bc2:	b2e4      	uxtb	r4, r4
 8085bc4:	2c02      	cmp	r4, #2
 8085bc6:	d077      	beq.n	8085cb8 <HAL_TIMEx_OCN_Start_DMA+0xfc>
 8085bc8:	f890 403d 	ldrb.w	r4, [r0, #61]	; 0x3d
 8085bcc:	2c01      	cmp	r4, #1
 8085bce:	d024      	beq.n	8085c1a <HAL_TIMEx_OCN_Start_DMA+0x5e>
 8085bd0:	2904      	cmp	r1, #4
 8085bd2:	4617      	mov	r7, r2
 8085bd4:	460e      	mov	r6, r1
 8085bd6:	4605      	mov	r5, r0
 8085bd8:	6804      	ldr	r4, [r0, #0]
 8085bda:	d029      	beq.n	8085c30 <HAL_TIMEx_OCN_Start_DMA+0x74>
 8085bdc:	2908      	cmp	r1, #8
 8085bde:	d03c      	beq.n	8085c5a <HAL_TIMEx_OCN_Start_DMA+0x9e>
 8085be0:	2900      	cmp	r1, #0
 8085be2:	d053      	beq.n	8085c8c <HAL_TIMEx_OCN_Start_DMA+0xd0>
 8085be4:	6a22      	ldr	r2, [r4, #32]
 8085be6:	2304      	movs	r3, #4
 8085be8:	f006 011f 	and.w	r1, r6, #31
 8085bec:	fa03 f101 	lsl.w	r1, r3, r1
 8085bf0:	ea22 0201 	bic.w	r2, r2, r1
 8085bf4:	6222      	str	r2, [r4, #32]
 8085bf6:	6a23      	ldr	r3, [r4, #32]
 8085bf8:	4319      	orrs	r1, r3
 8085bfa:	6221      	str	r1, [r4, #32]
 8085bfc:	6c63      	ldr	r3, [r4, #68]	; 0x44
 8085bfe:	f443 4300 	orr.w	r3, r3, #32768	; 0x8000
 8085c02:	6463      	str	r3, [r4, #68]	; 0x44
 8085c04:	68a3      	ldr	r3, [r4, #8]
 8085c06:	f003 0307 	and.w	r3, r3, #7
 8085c0a:	2b06      	cmp	r3, #6
 8085c0c:	d056      	beq.n	8085cbc <HAL_TIMEx_OCN_Start_DMA+0x100>
 8085c0e:	6823      	ldr	r3, [r4, #0]
 8085c10:	f043 0301 	orr.w	r3, r3, #1
 8085c14:	6023      	str	r3, [r4, #0]
 8085c16:	2000      	movs	r0, #0
 8085c18:	bdf8      	pop	{r3, r4, r5, r6, r7, pc}
 8085c1a:	2a00      	cmp	r2, #0
 8085c1c:	d032      	beq.n	8085c84 <HAL_TIMEx_OCN_Start_DMA+0xc8>
 8085c1e:	2402      	movs	r4, #2
 8085c20:	2904      	cmp	r1, #4
 8085c22:	f880 403d 	strb.w	r4, [r0, #61]	; 0x3d
 8085c26:	4617      	mov	r7, r2
 8085c28:	460e      	mov	r6, r1
 8085c2a:	4605      	mov	r5, r0
 8085c2c:	6804      	ldr	r4, [r0, #0]
 8085c2e:	d1d5      	bne.n	8085bdc <HAL_TIMEx_OCN_Start_DMA+0x20>
 8085c30:	6a80      	ldr	r0, [r0, #40]	; 0x28
 8085c32:	4923      	ldr	r1, [pc, #140]	; (8085cc0 <HAL_TIMEx_OCN_Start_DMA+0x104>)
 8085c34:	4a23      	ldr	r2, [pc, #140]	; (8085cc4 <HAL_TIMEx_OCN_Start_DMA+0x108>)
 8085c36:	f8df c090 	ldr.w	ip, [pc, #144]	; 8085cc8 <HAL_TIMEx_OCN_Start_DMA+0x10c>
 8085c3a:	63c1      	str	r1, [r0, #60]	; 0x3c
 8085c3c:	6402      	str	r2, [r0, #64]	; 0x40
 8085c3e:	4639      	mov	r1, r7
 8085c40:	f104 0238 	add.w	r2, r4, #56	; 0x38
 8085c44:	f8c0 c04c 	str.w	ip, [r0, #76]	; 0x4c
 8085c48:	f7fb fdd6 	bl	80817f8 <HAL_DMA_Start_IT>
 8085c4c:	b9e0      	cbnz	r0, 8085c88 <HAL_TIMEx_OCN_Start_DMA+0xcc>
 8085c4e:	682c      	ldr	r4, [r5, #0]
 8085c50:	68e3      	ldr	r3, [r4, #12]
 8085c52:	f443 6380 	orr.w	r3, r3, #1024	; 0x400
 8085c56:	60e3      	str	r3, [r4, #12]
 8085c58:	e7c4      	b.n	8085be4 <HAL_TIMEx_OCN_Start_DMA+0x28>
 8085c5a:	6ac0      	ldr	r0, [r0, #44]	; 0x2c
 8085c5c:	4918      	ldr	r1, [pc, #96]	; (8085cc0 <HAL_TIMEx_OCN_Start_DMA+0x104>)
 8085c5e:	4a19      	ldr	r2, [pc, #100]	; (8085cc4 <HAL_TIMEx_OCN_Start_DMA+0x108>)
 8085c60:	f8df c064 	ldr.w	ip, [pc, #100]	; 8085cc8 <HAL_TIMEx_OCN_Start_DMA+0x10c>
 8085c64:	63c1      	str	r1, [r0, #60]	; 0x3c
 8085c66:	6402      	str	r2, [r0, #64]	; 0x40
 8085c68:	4639      	mov	r1, r7
 8085c6a:	f104 023c 	add.w	r2, r4, #60	; 0x3c
 8085c6e:	f8c0 c04c 	str.w	ip, [r0, #76]	; 0x4c
 8085c72:	f7fb fdc1 	bl	80817f8 <HAL_DMA_Start_IT>
 8085c76:	b938      	cbnz	r0, 8085c88 <HAL_TIMEx_OCN_Start_DMA+0xcc>
 8085c78:	682c      	ldr	r4, [r5, #0]
 8085c7a:	68e3      	ldr	r3, [r4, #12]
 8085c7c:	f443 6300 	orr.w	r3, r3, #2048	; 0x800
 8085c80:	60e3      	str	r3, [r4, #12]
 8085c82:	e7af      	b.n	8085be4 <HAL_TIMEx_OCN_Start_DMA+0x28>
 8085c84:	2b00      	cmp	r3, #0
 8085c86:	d0ca      	beq.n	8085c1e <HAL_TIMEx_OCN_Start_DMA+0x62>
 8085c88:	2001      	movs	r0, #1
 8085c8a:	bdf8      	pop	{r3, r4, r5, r6, r7, pc}
 8085c8c:	6a40      	ldr	r0, [r0, #36]	; 0x24
 8085c8e:	490c      	ldr	r1, [pc, #48]	; (8085cc0 <HAL_TIMEx_OCN_Start_DMA+0x104>)
 8085c90:	4a0c      	ldr	r2, [pc, #48]	; (8085cc4 <HAL_TIMEx_OCN_Start_DMA+0x108>)
 8085c92:	f8df c034 	ldr.w	ip, [pc, #52]	; 8085cc8 <HAL_TIMEx_OCN_Start_DMA+0x10c>
 8085c96:	63c1      	str	r1, [r0, #60]	; 0x3c
 8085c98:	6402      	str	r2, [r0, #64]	; 0x40
 8085c9a:	4639      	mov	r1, r7
 8085c9c:	f104 0234 	add.w	r2, r4, #52	; 0x34
 8085ca0:	f8c0 c04c 	str.w	ip, [r0, #76]	; 0x4c
 8085ca4:	f7fb fda8 	bl	80817f8 <HAL_DMA_Start_IT>
 8085ca8:	2800      	cmp	r0, #0
 8085caa:	d1ed      	bne.n	8085c88 <HAL_TIMEx_OCN_Start_DMA+0xcc>
 8085cac:	682c      	ldr	r4, [r5, #0]
 8085cae:	68e3      	ldr	r3, [r4, #12]
 8085cb0:	f443 7300 	orr.w	r3, r3, #512	; 0x200
 8085cb4:	60e3      	str	r3, [r4, #12]
 8085cb6:	e795      	b.n	8085be4 <HAL_TIMEx_OCN_Start_DMA+0x28>
 8085cb8:	4620      	mov	r0, r4
 8085cba:	bdf8      	pop	{r3, r4, r5, r6, r7, pc}
 8085cbc:	2000      	movs	r0, #0
 8085cbe:	bdf8      	pop	{r3, r4, r5, r6, r7, pc}
 8085cc0:	08085345 	.word	0x08085345
 8085cc4:	080853a9 	.word	0x080853a9
 8085cc8:	08085589 	.word	0x08085589

08085ccc <HAL_TIMEx_OCN_Stop_DMA>:
 8085ccc:	2904      	cmp	r1, #4
 8085cce:	b538      	push	{r3, r4, r5, lr}
 8085cd0:	4605      	mov	r5, r0
 8085cd2:	460c      	mov	r4, r1
 8085cd4:	6803      	ldr	r3, [r0, #0]
 8085cd6:	d041      	beq.n	8085d5c <HAL_TIMEx_OCN_Stop_DMA+0x90>
 8085cd8:	2908      	cmp	r1, #8
 8085cda:	d036      	beq.n	8085d4a <HAL_TIMEx_OCN_Stop_DMA+0x7e>
 8085cdc:	b361      	cbz	r1, 8085d38 <HAL_TIMEx_OCN_Stop_DMA+0x6c>
 8085cde:	6a1a      	ldr	r2, [r3, #32]
 8085ce0:	2104      	movs	r1, #4
 8085ce2:	f004 041f 	and.w	r4, r4, #31
 8085ce6:	fa01 f404 	lsl.w	r4, r1, r4
 8085cea:	ea22 0404 	bic.w	r4, r2, r4
 8085cee:	621c      	str	r4, [r3, #32]
 8085cf0:	6a1a      	ldr	r2, [r3, #32]
 8085cf2:	621a      	str	r2, [r3, #32]
 8085cf4:	6a19      	ldr	r1, [r3, #32]
 8085cf6:	f241 1211 	movw	r2, #4369	; 0x1111
 8085cfa:	4211      	tst	r1, r2
 8085cfc:	d104      	bne.n	8085d08 <HAL_TIMEx_OCN_Stop_DMA+0x3c>
 8085cfe:	6a19      	ldr	r1, [r3, #32]
 8085d00:	f240 4244 	movw	r2, #1092	; 0x444
 8085d04:	4211      	tst	r1, r2
 8085d06:	d012      	beq.n	8085d2e <HAL_TIMEx_OCN_Stop_DMA+0x62>
 8085d08:	6a19      	ldr	r1, [r3, #32]
 8085d0a:	f241 1211 	movw	r2, #4369	; 0x1111
 8085d0e:	4211      	tst	r1, r2
 8085d10:	d108      	bne.n	8085d24 <HAL_TIMEx_OCN_Stop_DMA+0x58>
 8085d12:	6a19      	ldr	r1, [r3, #32]
 8085d14:	f240 4244 	movw	r2, #1092	; 0x444
 8085d18:	4211      	tst	r1, r2
 8085d1a:	d103      	bne.n	8085d24 <HAL_TIMEx_OCN_Stop_DMA+0x58>
 8085d1c:	681a      	ldr	r2, [r3, #0]
 8085d1e:	f022 0201 	bic.w	r2, r2, #1
 8085d22:	601a      	str	r2, [r3, #0]
 8085d24:	2301      	movs	r3, #1
 8085d26:	f885 303d 	strb.w	r3, [r5, #61]	; 0x3d
 8085d2a:	2000      	movs	r0, #0
 8085d2c:	bd38      	pop	{r3, r4, r5, pc}
 8085d2e:	6c5a      	ldr	r2, [r3, #68]	; 0x44
 8085d30:	f422 4200 	bic.w	r2, r2, #32768	; 0x8000
 8085d34:	645a      	str	r2, [r3, #68]	; 0x44
 8085d36:	e7e7      	b.n	8085d08 <HAL_TIMEx_OCN_Stop_DMA+0x3c>
 8085d38:	68da      	ldr	r2, [r3, #12]
 8085d3a:	6a40      	ldr	r0, [r0, #36]	; 0x24
 8085d3c:	f422 7200 	bic.w	r2, r2, #512	; 0x200
 8085d40:	60da      	str	r2, [r3, #12]
 8085d42:	f7fb fde3 	bl	808190c <HAL_DMA_Abort_IT>
 8085d46:	682b      	ldr	r3, [r5, #0]
 8085d48:	e7c9      	b.n	8085cde <HAL_TIMEx_OCN_Stop_DMA+0x12>
 8085d4a:	68da      	ldr	r2, [r3, #12]
 8085d4c:	6ac0      	ldr	r0, [r0, #44]	; 0x2c
 8085d4e:	f422 6200 	bic.w	r2, r2, #2048	; 0x800
 8085d52:	60da      	str	r2, [r3, #12]
 8085d54:	f7fb fdda 	bl	808190c <HAL_DMA_Abort_IT>
 8085d58:	682b      	ldr	r3, [r5, #0]
 8085d5a:	e7c0      	b.n	8085cde <HAL_TIMEx_OCN_Stop_DMA+0x12>
 8085d5c:	68da      	ldr	r2, [r3, #12]
 8085d5e:	6a80      	ldr	r0, [r0, #40]	; 0x28
 8085d60:	f422 6280 	bic.w	r2, r2, #1024	; 0x400
 8085d64:	60da      	str	r2, [r3, #12]
 8085d66:	f7fb fdd1 	bl	808190c <HAL_DMA_Abort_IT>
 8085d6a:	682b      	ldr	r3, [r5, #0]
 8085d6c:	e7b7      	b.n	8085cde <HAL_TIMEx_OCN_Stop_DMA+0x12>
 8085d6e:	bf00      	nop

08085d70 <HAL_TIMEx_PWMN_Start>:
 8085d70:	6803      	ldr	r3, [r0, #0]
 8085d72:	2204      	movs	r2, #4
 8085d74:	6a18      	ldr	r0, [r3, #32]
 8085d76:	f001 011f 	and.w	r1, r1, #31
 8085d7a:	fa02 f101 	lsl.w	r1, r2, r1
 8085d7e:	ea20 0001 	bic.w	r0, r0, r1
 8085d82:	6218      	str	r0, [r3, #32]
 8085d84:	6a1a      	ldr	r2, [r3, #32]
 8085d86:	4311      	orrs	r1, r2
 8085d88:	6219      	str	r1, [r3, #32]
 8085d8a:	6c5a      	ldr	r2, [r3, #68]	; 0x44
 8085d8c:	f442 4200 	orr.w	r2, r2, #32768	; 0x8000
 8085d90:	645a      	str	r2, [r3, #68]	; 0x44
 8085d92:	689a      	ldr	r2, [r3, #8]
 8085d94:	f002 0207 	and.w	r2, r2, #7
 8085d98:	2a06      	cmp	r2, #6
 8085d9a:	d003      	beq.n	8085da4 <HAL_TIMEx_PWMN_Start+0x34>
 8085d9c:	681a      	ldr	r2, [r3, #0]
 8085d9e:	f042 0201 	orr.w	r2, r2, #1
 8085da2:	601a      	str	r2, [r3, #0]
 8085da4:	2000      	movs	r0, #0
 8085da6:	4770      	bx	lr

08085da8 <HAL_TIMEx_PWMN_Stop>:
 8085da8:	6803      	ldr	r3, [r0, #0]
 8085daa:	f001 001f 	and.w	r0, r1, #31
 8085dae:	6a1a      	ldr	r2, [r3, #32]
 8085db0:	2104      	movs	r1, #4
 8085db2:	4081      	lsls	r1, r0
 8085db4:	ea22 0101 	bic.w	r1, r2, r1
 8085db8:	6219      	str	r1, [r3, #32]
 8085dba:	6a1a      	ldr	r2, [r3, #32]
 8085dbc:	621a      	str	r2, [r3, #32]
 8085dbe:	6a19      	ldr	r1, [r3, #32]
 8085dc0:	f241 1211 	movw	r2, #4369	; 0x1111
 8085dc4:	4211      	tst	r1, r2
 8085dc6:	d104      	bne.n	8085dd2 <HAL_TIMEx_PWMN_Stop+0x2a>
 8085dc8:	6a19      	ldr	r1, [r3, #32]
 8085dca:	f240 4244 	movw	r2, #1092	; 0x444
 8085dce:	4211      	tst	r1, r2
 8085dd0:	d00f      	beq.n	8085df2 <HAL_TIMEx_PWMN_Stop+0x4a>
 8085dd2:	6a19      	ldr	r1, [r3, #32]
 8085dd4:	f241 1211 	movw	r2, #4369	; 0x1111
 8085dd8:	4211      	tst	r1, r2
 8085dda:	d108      	bne.n	8085dee <HAL_TIMEx_PWMN_Stop+0x46>
 8085ddc:	6a19      	ldr	r1, [r3, #32]
 8085dde:	f240 4244 	movw	r2, #1092	; 0x444
 8085de2:	4211      	tst	r1, r2
 8085de4:	d103      	bne.n	8085dee <HAL_TIMEx_PWMN_Stop+0x46>
 8085de6:	681a      	ldr	r2, [r3, #0]
 8085de8:	f022 0201 	bic.w	r2, r2, #1
 8085dec:	601a      	str	r2, [r3, #0]
 8085dee:	2000      	movs	r0, #0
 8085df0:	4770      	bx	lr
 8085df2:	6c5a      	ldr	r2, [r3, #68]	; 0x44
 8085df4:	f422 4200 	bic.w	r2, r2, #32768	; 0x8000
 8085df8:	645a      	str	r2, [r3, #68]	; 0x44
 8085dfa:	e7ea      	b.n	8085dd2 <HAL_TIMEx_PWMN_Stop+0x2a>

08085dfc <HAL_TIMEx_PWMN_Start_IT>:
 8085dfc:	2904      	cmp	r1, #4
 8085dfe:	6803      	ldr	r3, [r0, #0]
 8085e00:	d02a      	beq.n	8085e58 <HAL_TIMEx_PWMN_Start_IT+0x5c>
 8085e02:	2908      	cmp	r1, #8
 8085e04:	d023      	beq.n	8085e4e <HAL_TIMEx_PWMN_Start_IT+0x52>
 8085e06:	b1e9      	cbz	r1, 8085e44 <HAL_TIMEx_PWMN_Start_IT+0x48>
 8085e08:	68da      	ldr	r2, [r3, #12]
 8085e0a:	f042 0280 	orr.w	r2, r2, #128	; 0x80
 8085e0e:	60da      	str	r2, [r3, #12]
 8085e10:	6a18      	ldr	r0, [r3, #32]
 8085e12:	f001 021f 	and.w	r2, r1, #31
 8085e16:	2104      	movs	r1, #4
 8085e18:	4091      	lsls	r1, r2
 8085e1a:	ea20 0001 	bic.w	r0, r0, r1
 8085e1e:	6218      	str	r0, [r3, #32]
 8085e20:	6a1a      	ldr	r2, [r3, #32]
 8085e22:	4311      	orrs	r1, r2
 8085e24:	6219      	str	r1, [r3, #32]
 8085e26:	6c5a      	ldr	r2, [r3, #68]	; 0x44
 8085e28:	f442 4200 	orr.w	r2, r2, #32768	; 0x8000
 8085e2c:	645a      	str	r2, [r3, #68]	; 0x44
 8085e2e:	689a      	ldr	r2, [r3, #8]
 8085e30:	f002 0207 	and.w	r2, r2, #7
 8085e34:	2a06      	cmp	r2, #6
 8085e36:	d003      	beq.n	8085e40 <HAL_TIMEx_PWMN_Start_IT+0x44>
 8085e38:	681a      	ldr	r2, [r3, #0]
 8085e3a:	f042 0201 	orr.w	r2, r2, #1
 8085e3e:	601a      	str	r2, [r3, #0]
 8085e40:	2000      	movs	r0, #0
 8085e42:	4770      	bx	lr
 8085e44:	68da      	ldr	r2, [r3, #12]
 8085e46:	f042 0202 	orr.w	r2, r2, #2
 8085e4a:	60da      	str	r2, [r3, #12]
 8085e4c:	e7dc      	b.n	8085e08 <HAL_TIMEx_PWMN_Start_IT+0xc>
 8085e4e:	68da      	ldr	r2, [r3, #12]
 8085e50:	f042 0208 	orr.w	r2, r2, #8
 8085e54:	60da      	str	r2, [r3, #12]
 8085e56:	e7d7      	b.n	8085e08 <HAL_TIMEx_PWMN_Start_IT+0xc>
 8085e58:	68da      	ldr	r2, [r3, #12]
 8085e5a:	f042 0204 	orr.w	r2, r2, #4
 8085e5e:	60da      	str	r2, [r3, #12]
 8085e60:	e7d2      	b.n	8085e08 <HAL_TIMEx_PWMN_Start_IT+0xc>
 8085e62:	bf00      	nop

08085e64 <HAL_TIMEx_PWMN_Stop_IT>:
 8085e64:	2904      	cmp	r1, #4
 8085e66:	6803      	ldr	r3, [r0, #0]
 8085e68:	d040      	beq.n	8085eec <HAL_TIMEx_PWMN_Stop_IT+0x88>
 8085e6a:	2908      	cmp	r1, #8
 8085e6c:	d039      	beq.n	8085ee2 <HAL_TIMEx_PWMN_Stop_IT+0x7e>
 8085e6e:	2900      	cmp	r1, #0
 8085e70:	d032      	beq.n	8085ed8 <HAL_TIMEx_PWMN_Stop_IT+0x74>
 8085e72:	6a1a      	ldr	r2, [r3, #32]
 8085e74:	f001 011f 	and.w	r1, r1, #31
 8085e78:	2004      	movs	r0, #4
 8085e7a:	fa00 f101 	lsl.w	r1, r0, r1
 8085e7e:	ea22 0101 	bic.w	r1, r2, r1
 8085e82:	6219      	str	r1, [r3, #32]
 8085e84:	6a1a      	ldr	r2, [r3, #32]
 8085e86:	621a      	str	r2, [r3, #32]
 8085e88:	6a19      	ldr	r1, [r3, #32]
 8085e8a:	f240 4244 	movw	r2, #1092	; 0x444
 8085e8e:	4211      	tst	r1, r2
 8085e90:	d103      	bne.n	8085e9a <HAL_TIMEx_PWMN_Stop_IT+0x36>
 8085e92:	68da      	ldr	r2, [r3, #12]
 8085e94:	f022 0280 	bic.w	r2, r2, #128	; 0x80
 8085e98:	60da      	str	r2, [r3, #12]
 8085e9a:	6a19      	ldr	r1, [r3, #32]
 8085e9c:	f241 1211 	movw	r2, #4369	; 0x1111
 8085ea0:	4211      	tst	r1, r2
 8085ea2:	d104      	bne.n	8085eae <HAL_TIMEx_PWMN_Stop_IT+0x4a>
 8085ea4:	6a19      	ldr	r1, [r3, #32]
 8085ea6:	f240 4244 	movw	r2, #1092	; 0x444
 8085eaa:	4211      	tst	r1, r2
 8085eac:	d00f      	beq.n	8085ece <HAL_TIMEx_PWMN_Stop_IT+0x6a>
 8085eae:	6a19      	ldr	r1, [r3, #32]
 8085eb0:	f241 1211 	movw	r2, #4369	; 0x1111
 8085eb4:	4211      	tst	r1, r2
 8085eb6:	d108      	bne.n	8085eca <HAL_TIMEx_PWMN_Stop_IT+0x66>
 8085eb8:	6a19      	ldr	r1, [r3, #32]
 8085eba:	f240 4244 	movw	r2, #1092	; 0x444
 8085ebe:	4211      	tst	r1, r2
 8085ec0:	d103      	bne.n	8085eca <HAL_TIMEx_PWMN_Stop_IT+0x66>
 8085ec2:	681a      	ldr	r2, [r3, #0]
 8085ec4:	f022 0201 	bic.w	r2, r2, #1
 8085ec8:	601a      	str	r2, [r3, #0]
 8085eca:	2000      	movs	r0, #0
 8085ecc:	4770      	bx	lr
 8085ece:	6c5a      	ldr	r2, [r3, #68]	; 0x44
 8085ed0:	f422 4200 	bic.w	r2, r2, #32768	; 0x8000
 8085ed4:	645a      	str	r2, [r3, #68]	; 0x44
 8085ed6:	e7ea      	b.n	8085eae <HAL_TIMEx_PWMN_Stop_IT+0x4a>
 8085ed8:	68da      	ldr	r2, [r3, #12]
 8085eda:	f022 0202 	bic.w	r2, r2, #2
 8085ede:	60da      	str	r2, [r3, #12]
 8085ee0:	e7c7      	b.n	8085e72 <HAL_TIMEx_PWMN_Stop_IT+0xe>
 8085ee2:	68da      	ldr	r2, [r3, #12]
 8085ee4:	f022 0208 	bic.w	r2, r2, #8
 8085ee8:	60da      	str	r2, [r3, #12]
 8085eea:	e7c2      	b.n	8085e72 <HAL_TIMEx_PWMN_Stop_IT+0xe>
 8085eec:	68da      	ldr	r2, [r3, #12]
 8085eee:	f022 0204 	bic.w	r2, r2, #4
 8085ef2:	60da      	str	r2, [r3, #12]
 8085ef4:	e7bd      	b.n	8085e72 <HAL_TIMEx_PWMN_Stop_IT+0xe>
 8085ef6:	bf00      	nop

08085ef8 <HAL_TIMEx_PWMN_Start_DMA>:
 8085ef8:	b5f8      	push	{r3, r4, r5, r6, r7, lr}
 8085efa:	f890 403d 	ldrb.w	r4, [r0, #61]	; 0x3d
 8085efe:	b2e4      	uxtb	r4, r4
 8085f00:	2c02      	cmp	r4, #2
 8085f02:	d077      	beq.n	8085ff4 <HAL_TIMEx_PWMN_Start_DMA+0xfc>
 8085f04:	f890 403d 	ldrb.w	r4, [r0, #61]	; 0x3d
 8085f08:	2c01      	cmp	r4, #1
 8085f0a:	d024      	beq.n	8085f56 <HAL_TIMEx_PWMN_Start_DMA+0x5e>
 8085f0c:	2904      	cmp	r1, #4
 8085f0e:	4617      	mov	r7, r2
 8085f10:	460e      	mov	r6, r1
 8085f12:	4605      	mov	r5, r0
 8085f14:	6804      	ldr	r4, [r0, #0]
 8085f16:	d029      	beq.n	8085f6c <HAL_TIMEx_PWMN_Start_DMA+0x74>
 8085f18:	2908      	cmp	r1, #8
 8085f1a:	d03c      	beq.n	8085f96 <HAL_TIMEx_PWMN_Start_DMA+0x9e>
 8085f1c:	2900      	cmp	r1, #0
 8085f1e:	d053      	beq.n	8085fc8 <HAL_TIMEx_PWMN_Start_DMA+0xd0>
 8085f20:	6a22      	ldr	r2, [r4, #32]
 8085f22:	2304      	movs	r3, #4
 8085f24:	f006 011f 	and.w	r1, r6, #31
 8085f28:	fa03 f101 	lsl.w	r1, r3, r1
 8085f2c:	ea22 0201 	bic.w	r2, r2, r1
 8085f30:	6222      	str	r2, [r4, #32]
 8085f32:	6a23      	ldr	r3, [r4, #32]
 8085f34:	4319      	orrs	r1, r3
 8085f36:	6221      	str	r1, [r4, #32]
 8085f38:	6c63      	ldr	r3, [r4, #68]	; 0x44
 8085f3a:	f443 4300 	orr.w	r3, r3, #32768	; 0x8000
 8085f3e:	6463      	str	r3, [r4, #68]	; 0x44
 8085f40:	68a3      	ldr	r3, [r4, #8]
 8085f42:	f003 0307 	and.w	r3, r3, #7
 8085f46:	2b06      	cmp	r3, #6
 8085f48:	d056      	beq.n	8085ff8 <HAL_TIMEx_PWMN_Start_DMA+0x100>
 8085f4a:	6823      	ldr	r3, [r4, #0]
 8085f4c:	f043 0301 	orr.w	r3, r3, #1
 8085f50:	6023      	str	r3, [r4, #0]
 8085f52:	2000      	movs	r0, #0
 8085f54:	bdf8      	pop	{r3, r4, r5, r6, r7, pc}
 8085f56:	2a00      	cmp	r2, #0
 8085f58:	d032      	beq.n	8085fc0 <HAL_TIMEx_PWMN_Start_DMA+0xc8>
 8085f5a:	2402      	movs	r4, #2
 8085f5c:	2904      	cmp	r1, #4
 8085f5e:	f880 403d 	strb.w	r4, [r0, #61]	; 0x3d
 8085f62:	4617      	mov	r7, r2
 8085f64:	460e      	mov	r6, r1
 8085f66:	4605      	mov	r5, r0
 8085f68:	6804      	ldr	r4, [r0, #0]
 8085f6a:	d1d5      	bne.n	8085f18 <HAL_TIMEx_PWMN_Start_DMA+0x20>
 8085f6c:	6a80      	ldr	r0, [r0, #40]	; 0x28
 8085f6e:	4923      	ldr	r1, [pc, #140]	; (8085ffc <HAL_TIMEx_PWMN_Start_DMA+0x104>)
 8085f70:	4a23      	ldr	r2, [pc, #140]	; (8086000 <HAL_TIMEx_PWMN_Start_DMA+0x108>)
 8085f72:	f8df c090 	ldr.w	ip, [pc, #144]	; 8086004 <HAL_TIMEx_PWMN_Start_DMA+0x10c>
 8085f76:	63c1      	str	r1, [r0, #60]	; 0x3c
 8085f78:	6402      	str	r2, [r0, #64]	; 0x40
 8085f7a:	4639      	mov	r1, r7
 8085f7c:	f104 0238 	add.w	r2, r4, #56	; 0x38
 8085f80:	f8c0 c04c 	str.w	ip, [r0, #76]	; 0x4c
 8085f84:	f7fb fc38 	bl	80817f8 <HAL_DMA_Start_IT>
 8085f88:	b9e0      	cbnz	r0, 8085fc4 <HAL_TIMEx_PWMN_Start_DMA+0xcc>
 8085f8a:	682c      	ldr	r4, [r5, #0]
 8085f8c:	68e3      	ldr	r3, [r4, #12]
 8085f8e:	f443 6380 	orr.w	r3, r3, #1024	; 0x400
 8085f92:	60e3      	str	r3, [r4, #12]
 8085f94:	e7c4      	b.n	8085f20 <HAL_TIMEx_PWMN_Start_DMA+0x28>
 8085f96:	6ac0      	ldr	r0, [r0, #44]	; 0x2c
 8085f98:	4918      	ldr	r1, [pc, #96]	; (8085ffc <HAL_TIMEx_PWMN_Start_DMA+0x104>)
 8085f9a:	4a19      	ldr	r2, [pc, #100]	; (8086000 <HAL_TIMEx_PWMN_Start_DMA+0x108>)
 8085f9c:	f8df c064 	ldr.w	ip, [pc, #100]	; 8086004 <HAL_TIMEx_PWMN_Start_DMA+0x10c>
 8085fa0:	63c1      	str	r1, [r0, #60]	; 0x3c
 8085fa2:	6402      	str	r2, [r0, #64]	; 0x40
 8085fa4:	4639      	mov	r1, r7
 8085fa6:	f104 023c 	add.w	r2, r4, #60	; 0x3c
 8085faa:	f8c0 c04c 	str.w	ip, [r0, #76]	; 0x4c
 8085fae:	f7fb fc23 	bl	80817f8 <HAL_DMA_Start_IT>
 8085fb2:	b938      	cbnz	r0, 8085fc4 <HAL_TIMEx_PWMN_Start_DMA+0xcc>
 8085fb4:	682c      	ldr	r4, [r5, #0]
 8085fb6:	68e3      	ldr	r3, [r4, #12]
 8085fb8:	f443 6300 	orr.w	r3, r3, #2048	; 0x800
 8085fbc:	60e3      	str	r3, [r4, #12]
 8085fbe:	e7af      	b.n	8085f20 <HAL_TIMEx_PWMN_Start_DMA+0x28>
 8085fc0:	2b00      	cmp	r3, #0
 8085fc2:	d0ca      	beq.n	8085f5a <HAL_TIMEx_PWMN_Start_DMA+0x62>
 8085fc4:	2001      	movs	r0, #1
 8085fc6:	bdf8      	pop	{r3, r4, r5, r6, r7, pc}
 8085fc8:	6a40      	ldr	r0, [r0, #36]	; 0x24
 8085fca:	490c      	ldr	r1, [pc, #48]	; (8085ffc <HAL_TIMEx_PWMN_Start_DMA+0x104>)
 8085fcc:	4a0c      	ldr	r2, [pc, #48]	; (8086000 <HAL_TIMEx_PWMN_Start_DMA+0x108>)
 8085fce:	f8df c034 	ldr.w	ip, [pc, #52]	; 8086004 <HAL_TIMEx_PWMN_Start_DMA+0x10c>
 8085fd2:	63c1      	str	r1, [r0, #60]	; 0x3c
 8085fd4:	6402      	str	r2, [r0, #64]	; 0x40
 8085fd6:	4639      	mov	r1, r7
 8085fd8:	f104 0234 	add.w	r2, r4, #52	; 0x34
 8085fdc:	f8c0 c04c 	str.w	ip, [r0, #76]	; 0x4c
 8085fe0:	f7fb fc0a 	bl	80817f8 <HAL_DMA_Start_IT>
 8085fe4:	2800      	cmp	r0, #0
 8085fe6:	d1ed      	bne.n	8085fc4 <HAL_TIMEx_PWMN_Start_DMA+0xcc>
 8085fe8:	682c      	ldr	r4, [r5, #0]
 8085fea:	68e3      	ldr	r3, [r4, #12]
 8085fec:	f443 7300 	orr.w	r3, r3, #512	; 0x200
 8085ff0:	60e3      	str	r3, [r4, #12]
 8085ff2:	e795      	b.n	8085f20 <HAL_TIMEx_PWMN_Start_DMA+0x28>
 8085ff4:	4620      	mov	r0, r4
 8085ff6:	bdf8      	pop	{r3, r4, r5, r6, r7, pc}
 8085ff8:	2000      	movs	r0, #0
 8085ffa:	bdf8      	pop	{r3, r4, r5, r6, r7, pc}
 8085ffc:	08085345 	.word	0x08085345
 8086000:	080853a9 	.word	0x080853a9
 8086004:	08085589 	.word	0x08085589

08086008 <HAL_TIMEx_PWMN_Stop_DMA>:
 8086008:	2904      	cmp	r1, #4
 808600a:	b538      	push	{r3, r4, r5, lr}
 808600c:	4605      	mov	r5, r0
 808600e:	460c      	mov	r4, r1
 8086010:	6803      	ldr	r3, [r0, #0]
 8086012:	d041      	beq.n	8086098 <HAL_TIMEx_PWMN_Stop_DMA+0x90>
 8086014:	2908      	cmp	r1, #8
 8086016:	d036      	beq.n	8086086 <HAL_TIMEx_PWMN_Stop_DMA+0x7e>
 8086018:	b361      	cbz	r1, 8086074 <HAL_TIMEx_PWMN_Stop_DMA+0x6c>
 808601a:	6a1a      	ldr	r2, [r3, #32]
 808601c:	2104      	movs	r1, #4
 808601e:	f004 041f 	and.w	r4, r4, #31
 8086022:	fa01 f404 	lsl.w	r4, r1, r4
 8086026:	ea22 0404 	bic.w	r4, r2, r4
 808602a:	621c      	str	r4, [r3, #32]
 808602c:	6a1a      	ldr	r2, [r3, #32]
 808602e:	621a      	str	r2, [r3, #32]
 8086030:	6a19      	ldr	r1, [r3, #32]
 8086032:	f241 1211 	movw	r2, #4369	; 0x1111
 8086036:	4211      	tst	r1, r2
 8086038:	d104      	bne.n	8086044 <HAL_TIMEx_PWMN_Stop_DMA+0x3c>
 808603a:	6a19      	ldr	r1, [r3, #32]
 808603c:	f240 4244 	movw	r2, #1092	; 0x444
 8086040:	4211      	tst	r1, r2
 8086042:	d012      	beq.n	808606a <HAL_TIMEx_PWMN_Stop_DMA+0x62>
 8086044:	6a19      	ldr	r1, [r3, #32]
 8086046:	f241 1211 	movw	r2, #4369	; 0x1111
 808604a:	4211      	tst	r1, r2
 808604c:	d108      	bne.n	8086060 <HAL_TIMEx_PWMN_Stop_DMA+0x58>
 808604e:	6a19      	ldr	r1, [r3, #32]
 8086050:	f240 4244 	movw	r2, #1092	; 0x444
 8086054:	4211      	tst	r1, r2
 8086056:	d103      	bne.n	8086060 <HAL_TIMEx_PWMN_Stop_DMA+0x58>
 8086058:	681a      	ldr	r2, [r3, #0]
 808605a:	f022 0201 	bic.w	r2, r2, #1
 808605e:	601a      	str	r2, [r3, #0]
 8086060:	2301      	movs	r3, #1
 8086062:	f885 303d 	strb.w	r3, [r5, #61]	; 0x3d
 8086066:	2000      	movs	r0, #0
 8086068:	bd38      	pop	{r3, r4, r5, pc}
 808606a:	6c5a      	ldr	r2, [r3, #68]	; 0x44
 808606c:	f422 4200 	bic.w	r2, r2, #32768	; 0x8000
 8086070:	645a      	str	r2, [r3, #68]	; 0x44
 8086072:	e7e7      	b.n	8086044 <HAL_TIMEx_PWMN_Stop_DMA+0x3c>
 8086074:	68da      	ldr	r2, [r3, #12]
 8086076:	6a40      	ldr	r0, [r0, #36]	; 0x24
 8086078:	f422 7200 	bic.w	r2, r2, #512	; 0x200
 808607c:	60da      	str	r2, [r3, #12]
 808607e:	f7fb fc45 	bl	808190c <HAL_DMA_Abort_IT>
 8086082:	682b      	ldr	r3, [r5, #0]
 8086084:	e7c9      	b.n	808601a <HAL_TIMEx_PWMN_Stop_DMA+0x12>
 8086086:	68da      	ldr	r2, [r3, #12]
 8086088:	6ac0      	ldr	r0, [r0, #44]	; 0x2c
 808608a:	f422 6200 	bic.w	r2, r2, #2048	; 0x800
 808608e:	60da      	str	r2, [r3, #12]
 8086090:	f7fb fc3c 	bl	808190c <HAL_DMA_Abort_IT>
 8086094:	682b      	ldr	r3, [r5, #0]
 8086096:	e7c0      	b.n	808601a <HAL_TIMEx_PWMN_Stop_DMA+0x12>
 8086098:	68da      	ldr	r2, [r3, #12]
 808609a:	6a80      	ldr	r0, [r0, #40]	; 0x28
 808609c:	f422 6280 	bic.w	r2, r2, #1024	; 0x400
 80860a0:	60da      	str	r2, [r3, #12]
 80860a2:	f7fb fc33 	bl	808190c <HAL_DMA_Abort_IT>
 80860a6:	682b      	ldr	r3, [r5, #0]
 80860a8:	e7b7      	b.n	808601a <HAL_TIMEx_PWMN_Stop_DMA+0x12>
 80860aa:	bf00      	nop

080860ac <HAL_TIMEx_OnePulseN_Start>:
 80860ac:	6803      	ldr	r3, [r0, #0]
 80860ae:	2204      	movs	r2, #4
 80860b0:	6a18      	ldr	r0, [r3, #32]
 80860b2:	f001 011f 	and.w	r1, r1, #31
 80860b6:	fa02 f101 	lsl.w	r1, r2, r1
 80860ba:	ea20 0001 	bic.w	r0, r0, r1
 80860be:	6218      	str	r0, [r3, #32]
 80860c0:	6a1a      	ldr	r2, [r3, #32]
 80860c2:	4311      	orrs	r1, r2
 80860c4:	6219      	str	r1, [r3, #32]
 80860c6:	6c5a      	ldr	r2, [r3, #68]	; 0x44
 80860c8:	f442 4200 	orr.w	r2, r2, #32768	; 0x8000
 80860cc:	645a      	str	r2, [r3, #68]	; 0x44
 80860ce:	2000      	movs	r0, #0
 80860d0:	4770      	bx	lr
 80860d2:	bf00      	nop

080860d4 <HAL_TIMEx_OnePulseN_Stop>:
 80860d4:	6803      	ldr	r3, [r0, #0]
 80860d6:	f001 001f 	and.w	r0, r1, #31
 80860da:	6a1a      	ldr	r2, [r3, #32]
 80860dc:	2104      	movs	r1, #4
 80860de:	4081      	lsls	r1, r0
 80860e0:	ea22 0101 	bic.w	r1, r2, r1
 80860e4:	6219      	str	r1, [r3, #32]
 80860e6:	6a1a      	ldr	r2, [r3, #32]
 80860e8:	621a      	str	r2, [r3, #32]
 80860ea:	6a19      	ldr	r1, [r3, #32]
 80860ec:	f241 1211 	movw	r2, #4369	; 0x1111
 80860f0:	4211      	tst	r1, r2
 80860f2:	d104      	bne.n	80860fe <HAL_TIMEx_OnePulseN_Stop+0x2a>
 80860f4:	6a19      	ldr	r1, [r3, #32]
 80860f6:	f240 4244 	movw	r2, #1092	; 0x444
 80860fa:	4211      	tst	r1, r2
 80860fc:	d00f      	beq.n	808611e <HAL_TIMEx_OnePulseN_Stop+0x4a>
 80860fe:	6a19      	ldr	r1, [r3, #32]
 8086100:	f241 1211 	movw	r2, #4369	; 0x1111
 8086104:	4211      	tst	r1, r2
 8086106:	d108      	bne.n	808611a <HAL_TIMEx_OnePulseN_Stop+0x46>
 8086108:	6a19      	ldr	r1, [r3, #32]
 808610a:	f240 4244 	movw	r2, #1092	; 0x444
 808610e:	4211      	tst	r1, r2
 8086110:	d103      	bne.n	808611a <HAL_TIMEx_OnePulseN_Stop+0x46>
 8086112:	681a      	ldr	r2, [r3, #0]
 8086114:	f022 0201 	bic.w	r2, r2, #1
 8086118:	601a      	str	r2, [r3, #0]
 808611a:	2000      	movs	r0, #0
 808611c:	4770      	bx	lr
 808611e:	6c5a      	ldr	r2, [r3, #68]	; 0x44
 8086120:	f422 4200 	bic.w	r2, r2, #32768	; 0x8000
 8086124:	645a      	str	r2, [r3, #68]	; 0x44
 8086126:	e7ea      	b.n	80860fe <HAL_TIMEx_OnePulseN_Stop+0x2a>

08086128 <HAL_TIMEx_OnePulseN_Start_IT>:
 8086128:	6803      	ldr	r3, [r0, #0]
 808612a:	68da      	ldr	r2, [r3, #12]
 808612c:	f042 0202 	orr.w	r2, r2, #2
 8086130:	60da      	str	r2, [r3, #12]
 8086132:	68da      	ldr	r2, [r3, #12]
 8086134:	f042 0204 	orr.w	r2, r2, #4
 8086138:	60da      	str	r2, [r3, #12]
 808613a:	6a18      	ldr	r0, [r3, #32]
 808613c:	2204      	movs	r2, #4
 808613e:	f001 011f 	and.w	r1, r1, #31
 8086142:	fa02 f101 	lsl.w	r1, r2, r1
 8086146:	ea20 0001 	bic.w	r0, r0, r1
 808614a:	6218      	str	r0, [r3, #32]
 808614c:	6a1a      	ldr	r2, [r3, #32]
 808614e:	4311      	orrs	r1, r2
 8086150:	6219      	str	r1, [r3, #32]
 8086152:	6c5a      	ldr	r2, [r3, #68]	; 0x44
 8086154:	f442 4200 	orr.w	r2, r2, #32768	; 0x8000
 8086158:	645a      	str	r2, [r3, #68]	; 0x44
 808615a:	2000      	movs	r0, #0
 808615c:	4770      	bx	lr
 808615e:	bf00      	nop

08086160 <HAL_TIMEx_OnePulseN_Stop_IT>:
 8086160:	6803      	ldr	r3, [r0, #0]
 8086162:	68da      	ldr	r2, [r3, #12]
 8086164:	f022 0202 	bic.w	r2, r2, #2
 8086168:	60da      	str	r2, [r3, #12]
 808616a:	68da      	ldr	r2, [r3, #12]
 808616c:	f022 0204 	bic.w	r2, r2, #4
 8086170:	60da      	str	r2, [r3, #12]
 8086172:	6a1a      	ldr	r2, [r3, #32]
 8086174:	f001 001f 	and.w	r0, r1, #31
 8086178:	2104      	movs	r1, #4
 808617a:	4081      	lsls	r1, r0
 808617c:	ea22 0101 	bic.w	r1, r2, r1
 8086180:	6219      	str	r1, [r3, #32]
 8086182:	6a1a      	ldr	r2, [r3, #32]
 8086184:	621a      	str	r2, [r3, #32]
 8086186:	6a19      	ldr	r1, [r3, #32]
 8086188:	f241 1211 	movw	r2, #4369	; 0x1111
 808618c:	4211      	tst	r1, r2
 808618e:	d104      	bne.n	808619a <HAL_TIMEx_OnePulseN_Stop_IT+0x3a>
 8086190:	6a19      	ldr	r1, [r3, #32]
 8086192:	f240 4244 	movw	r2, #1092	; 0x444
 8086196:	4211      	tst	r1, r2
 8086198:	d00f      	beq.n	80861ba <HAL_TIMEx_OnePulseN_Stop_IT+0x5a>
 808619a:	6a19      	ldr	r1, [r3, #32]
 808619c:	f241 1211 	movw	r2, #4369	; 0x1111
 80861a0:	4211      	tst	r1, r2
 80861a2:	d108      	bne.n	80861b6 <HAL_TIMEx_OnePulseN_Stop_IT+0x56>
 80861a4:	6a19      	ldr	r1, [r3, #32]
 80861a6:	f240 4244 	movw	r2, #1092	; 0x444
 80861aa:	4211      	tst	r1, r2
 80861ac:	d103      	bne.n	80861b6 <HAL_TIMEx_OnePulseN_Stop_IT+0x56>
 80861ae:	681a      	ldr	r2, [r3, #0]
 80861b0:	f022 0201 	bic.w	r2, r2, #1
 80861b4:	601a      	str	r2, [r3, #0]
 80861b6:	2000      	movs	r0, #0
 80861b8:	4770      	bx	lr
 80861ba:	6c5a      	ldr	r2, [r3, #68]	; 0x44
 80861bc:	f422 4200 	bic.w	r2, r2, #32768	; 0x8000
 80861c0:	645a      	str	r2, [r3, #68]	; 0x44
 80861c2:	e7ea      	b.n	808619a <HAL_TIMEx_OnePulseN_Stop_IT+0x3a>

080861c4 <HAL_TIMEx_ConfigCommutEvent>:
 80861c4:	f890 303c 	ldrb.w	r3, [r0, #60]	; 0x3c
 80861c8:	2b01      	cmp	r3, #1
 80861ca:	d028      	beq.n	808621e <HAL_TIMEx_ConfigCommutEvent+0x5a>
 80861cc:	b410      	push	{r4}
 80861ce:	2301      	movs	r3, #1
 80861d0:	f031 0430 	bics.w	r4, r1, #48	; 0x30
 80861d4:	f880 303c 	strb.w	r3, [r0, #60]	; 0x3c
 80861d8:	6803      	ldr	r3, [r0, #0]
 80861da:	d106      	bne.n	80861ea <HAL_TIMEx_ConfigCommutEvent+0x26>
 80861dc:	689c      	ldr	r4, [r3, #8]
 80861de:	f024 0470 	bic.w	r4, r4, #112	; 0x70
 80861e2:	609c      	str	r4, [r3, #8]
 80861e4:	689c      	ldr	r4, [r3, #8]
 80861e6:	4321      	orrs	r1, r4
 80861e8:	6099      	str	r1, [r3, #8]
 80861ea:	6859      	ldr	r1, [r3, #4]
 80861ec:	f85d 4b04 	ldr.w	r4, [sp], #4
 80861f0:	f041 0101 	orr.w	r1, r1, #1
 80861f4:	6059      	str	r1, [r3, #4]
 80861f6:	6859      	ldr	r1, [r3, #4]
 80861f8:	f021 0104 	bic.w	r1, r1, #4
 80861fc:	6059      	str	r1, [r3, #4]
 80861fe:	6859      	ldr	r1, [r3, #4]
 8086200:	430a      	orrs	r2, r1
 8086202:	605a      	str	r2, [r3, #4]
 8086204:	68da      	ldr	r2, [r3, #12]
 8086206:	f022 0220 	bic.w	r2, r2, #32
 808620a:	60da      	str	r2, [r3, #12]
 808620c:	68da      	ldr	r2, [r3, #12]
 808620e:	2100      	movs	r1, #0
 8086210:	f422 5200 	bic.w	r2, r2, #8192	; 0x2000
 8086214:	60da      	str	r2, [r3, #12]
 8086216:	f880 103c 	strb.w	r1, [r0, #60]	; 0x3c
 808621a:	4608      	mov	r0, r1
 808621c:	4770      	bx	lr
 808621e:	2302      	movs	r3, #2
 8086220:	4618      	mov	r0, r3
 8086222:	4770      	bx	lr

08086224 <HAL_TIMEx_ConfigCommutEvent_IT>:
 8086224:	f890 303c 	ldrb.w	r3, [r0, #60]	; 0x3c
 8086228:	2b01      	cmp	r3, #1
 808622a:	d028      	beq.n	808627e <HAL_TIMEx_ConfigCommutEvent_IT+0x5a>
 808622c:	b410      	push	{r4}
 808622e:	2301      	movs	r3, #1
 8086230:	f031 0430 	bics.w	r4, r1, #48	; 0x30
 8086234:	f880 303c 	strb.w	r3, [r0, #60]	; 0x3c
 8086238:	6803      	ldr	r3, [r0, #0]
 808623a:	d106      	bne.n	808624a <HAL_TIMEx_ConfigCommutEvent_IT+0x26>
 808623c:	689c      	ldr	r4, [r3, #8]
 808623e:	f024 0470 	bic.w	r4, r4, #112	; 0x70
 8086242:	609c      	str	r4, [r3, #8]
 8086244:	689c      	ldr	r4, [r3, #8]
 8086246:	4321      	orrs	r1, r4
 8086248:	6099      	str	r1, [r3, #8]
 808624a:	6859      	ldr	r1, [r3, #4]
 808624c:	f85d 4b04 	ldr.w	r4, [sp], #4
 8086250:	f041 0101 	orr.w	r1, r1, #1
 8086254:	6059      	str	r1, [r3, #4]
 8086256:	6859      	ldr	r1, [r3, #4]
 8086258:	f021 0104 	bic.w	r1, r1, #4
 808625c:	6059      	str	r1, [r3, #4]
 808625e:	6859      	ldr	r1, [r3, #4]
 8086260:	430a      	orrs	r2, r1
 8086262:	605a      	str	r2, [r3, #4]
 8086264:	68da      	ldr	r2, [r3, #12]
 8086266:	f422 5200 	bic.w	r2, r2, #8192	; 0x2000
 808626a:	60da      	str	r2, [r3, #12]
 808626c:	68da      	ldr	r2, [r3, #12]
 808626e:	2100      	movs	r1, #0
 8086270:	f042 0220 	orr.w	r2, r2, #32
 8086274:	60da      	str	r2, [r3, #12]
 8086276:	f880 103c 	strb.w	r1, [r0, #60]	; 0x3c
 808627a:	4608      	mov	r0, r1
 808627c:	4770      	bx	lr
 808627e:	2302      	movs	r3, #2
 8086280:	4618      	mov	r0, r3
 8086282:	4770      	bx	lr

08086284 <HAL_TIMEx_ConfigCommutEvent_DMA>:
 8086284:	f890 303c 	ldrb.w	r3, [r0, #60]	; 0x3c
 8086288:	2b01      	cmp	r3, #1
 808628a:	d02e      	beq.n	80862ea <HAL_TIMEx_ConfigCommutEvent_DMA+0x66>
 808628c:	b470      	push	{r4, r5, r6}
 808628e:	2301      	movs	r3, #1
 8086290:	f031 0430 	bics.w	r4, r1, #48	; 0x30
 8086294:	f880 303c 	strb.w	r3, [r0, #60]	; 0x3c
 8086298:	6803      	ldr	r3, [r0, #0]
 808629a:	d106      	bne.n	80862aa <HAL_TIMEx_ConfigCommutEvent_DMA+0x26>
 808629c:	689c      	ldr	r4, [r3, #8]
 808629e:	f024 0470 	bic.w	r4, r4, #112	; 0x70
 80862a2:	609c      	str	r4, [r3, #8]
 80862a4:	689c      	ldr	r4, [r3, #8]
 80862a6:	4321      	orrs	r1, r4
 80862a8:	6099      	str	r1, [r3, #8]
 80862aa:	685c      	ldr	r4, [r3, #4]
 80862ac:	6b41      	ldr	r1, [r0, #52]	; 0x34
 80862ae:	4e10      	ldr	r6, [pc, #64]	; (80862f0 <HAL_TIMEx_ConfigCommutEvent_DMA+0x6c>)
 80862b0:	4d10      	ldr	r5, [pc, #64]	; (80862f4 <HAL_TIMEx_ConfigCommutEvent_DMA+0x70>)
 80862b2:	f044 0401 	orr.w	r4, r4, #1
 80862b6:	605c      	str	r4, [r3, #4]
 80862b8:	685c      	ldr	r4, [r3, #4]
 80862ba:	f024 0404 	bic.w	r4, r4, #4
 80862be:	605c      	str	r4, [r3, #4]
 80862c0:	685c      	ldr	r4, [r3, #4]
 80862c2:	4322      	orrs	r2, r4
 80862c4:	605a      	str	r2, [r3, #4]
 80862c6:	68da      	ldr	r2, [r3, #12]
 80862c8:	4c0b      	ldr	r4, [pc, #44]	; (80862f8 <HAL_TIMEx_ConfigCommutEvent_DMA+0x74>)
 80862ca:	63ce      	str	r6, [r1, #60]	; 0x3c
 80862cc:	f022 0220 	bic.w	r2, r2, #32
 80862d0:	640d      	str	r5, [r1, #64]	; 0x40
 80862d2:	64cc      	str	r4, [r1, #76]	; 0x4c
 80862d4:	60da      	str	r2, [r3, #12]
 80862d6:	68da      	ldr	r2, [r3, #12]
 80862d8:	2100      	movs	r1, #0
 80862da:	f442 5200 	orr.w	r2, r2, #8192	; 0x2000
 80862de:	60da      	str	r2, [r3, #12]
 80862e0:	bc70      	pop	{r4, r5, r6}
 80862e2:	f880 103c 	strb.w	r1, [r0, #60]	; 0x3c
 80862e6:	4608      	mov	r0, r1
 80862e8:	4770      	bx	lr
 80862ea:	2302      	movs	r3, #2
 80862ec:	4618      	mov	r0, r3
 80862ee:	4770      	bx	lr
 80862f0:	080863b5 	.word	0x080863b5
 80862f4:	080863c9 	.word	0x080863c9
 80862f8:	08085589 	.word	0x08085589

080862fc <HAL_TIMEx_MasterConfigSynchronization>:
 80862fc:	f890 203c 	ldrb.w	r2, [r0, #60]	; 0x3c
 8086300:	2a01      	cmp	r2, #1
 8086302:	d01a      	beq.n	808633a <HAL_TIMEx_MasterConfigSynchronization+0x3e>
 8086304:	b470      	push	{r4, r5, r6}
 8086306:	2202      	movs	r2, #2
 8086308:	6804      	ldr	r4, [r0, #0]
 808630a:	f880 203d 	strb.w	r2, [r0, #61]	; 0x3d
 808630e:	e9d1 6500 	ldrd	r6, r5, [r1]
 8086312:	4603      	mov	r3, r0
 8086314:	6860      	ldr	r0, [r4, #4]
 8086316:	68a2      	ldr	r2, [r4, #8]
 8086318:	f020 0170 	bic.w	r1, r0, #112	; 0x70
 808631c:	f022 0280 	bic.w	r2, r2, #128	; 0x80
 8086320:	4331      	orrs	r1, r6
 8086322:	432a      	orrs	r2, r5
 8086324:	2601      	movs	r6, #1
 8086326:	2500      	movs	r5, #0
 8086328:	6061      	str	r1, [r4, #4]
 808632a:	4628      	mov	r0, r5
 808632c:	60a2      	str	r2, [r4, #8]
 808632e:	f883 603d 	strb.w	r6, [r3, #61]	; 0x3d
 8086332:	f883 503c 	strb.w	r5, [r3, #60]	; 0x3c
 8086336:	bc70      	pop	{r4, r5, r6}
 8086338:	4770      	bx	lr
 808633a:	2002      	movs	r0, #2
 808633c:	4770      	bx	lr
 808633e:	bf00      	nop

08086340 <HAL_TIMEx_ConfigBreakDeadTime>:
 8086340:	f890 303c 	ldrb.w	r3, [r0, #60]	; 0x3c
 8086344:	2b01      	cmp	r3, #1
 8086346:	d021      	beq.n	808638c <HAL_TIMEx_ConfigBreakDeadTime+0x4c>
 8086348:	b430      	push	{r4, r5}
 808634a:	e9d1 5302 	ldrd	r5, r3, [r1, #8]
 808634e:	e9d1 2400 	ldrd	r2, r4, [r1]
 8086352:	f423 7340 	bic.w	r3, r3, #768	; 0x300
 8086356:	432b      	orrs	r3, r5
 8086358:	f423 6380 	bic.w	r3, r3, #1024	; 0x400
 808635c:	4323      	orrs	r3, r4
 808635e:	f423 6300 	bic.w	r3, r3, #2048	; 0x800
 8086362:	e9d1 5404 	ldrd	r5, r4, [r1, #16]
 8086366:	4313      	orrs	r3, r2
 8086368:	f423 5380 	bic.w	r3, r3, #4096	; 0x1000
 808636c:	432b      	orrs	r3, r5
 808636e:	f423 5300 	bic.w	r3, r3, #8192	; 0x2000
 8086372:	69c9      	ldr	r1, [r1, #28]
 8086374:	6802      	ldr	r2, [r0, #0]
 8086376:	4323      	orrs	r3, r4
 8086378:	f423 4380 	bic.w	r3, r3, #16384	; 0x4000
 808637c:	430b      	orrs	r3, r1
 808637e:	2100      	movs	r1, #0
 8086380:	6453      	str	r3, [r2, #68]	; 0x44
 8086382:	bc30      	pop	{r4, r5}
 8086384:	f880 103c 	strb.w	r1, [r0, #60]	; 0x3c
 8086388:	4608      	mov	r0, r1
 808638a:	4770      	bx	lr
 808638c:	2302      	movs	r3, #2
 808638e:	4618      	mov	r0, r3
 8086390:	4770      	bx	lr
 8086392:	bf00      	nop

08086394 <HAL_TIMEx_RemapConfig>:
 8086394:	f890 203c 	ldrb.w	r2, [r0, #60]	; 0x3c
 8086398:	2a01      	cmp	r2, #1
 808639a:	4603      	mov	r3, r0
 808639c:	d006      	beq.n	80863ac <HAL_TIMEx_RemapConfig+0x18>
 808639e:	6800      	ldr	r0, [r0, #0]
 80863a0:	2200      	movs	r2, #0
 80863a2:	6501      	str	r1, [r0, #80]	; 0x50
 80863a4:	4610      	mov	r0, r2
 80863a6:	f883 203c 	strb.w	r2, [r3, #60]	; 0x3c
 80863aa:	4770      	bx	lr
 80863ac:	2002      	movs	r0, #2
 80863ae:	4770      	bx	lr

080863b0 <HAL_TIMEx_CommutCallback>:
 80863b0:	4770      	bx	lr
 80863b2:	bf00      	nop

080863b4 <TIMEx_DMACommutationCplt>:
 80863b4:	b508      	push	{r3, lr}
 80863b6:	6b80      	ldr	r0, [r0, #56]	; 0x38
 80863b8:	2301      	movs	r3, #1
 80863ba:	f880 303d 	strb.w	r3, [r0, #61]	; 0x3d
 80863be:	f7ff fff7 	bl	80863b0 <HAL_TIMEx_CommutCallback>
 80863c2:	bd08      	pop	{r3, pc}

080863c4 <HAL_TIMEx_CommutHalfCpltCallback>:
 80863c4:	4770      	bx	lr
 80863c6:	bf00      	nop

080863c8 <TIMEx_DMACommutationHalfCplt>:
 80863c8:	b508      	push	{r3, lr}
 80863ca:	6b80      	ldr	r0, [r0, #56]	; 0x38
 80863cc:	2301      	movs	r3, #1
 80863ce:	f880 303d 	strb.w	r3, [r0, #61]	; 0x3d
 80863d2:	f7ff fff7 	bl	80863c4 <HAL_TIMEx_CommutHalfCpltCallback>
 80863d6:	bd08      	pop	{r3, pc}

080863d8 <HAL_TIMEx_BreakCallback>:
 80863d8:	4770      	bx	lr
 80863da:	bf00      	nop

080863dc <HAL_TIMEx_HallSensor_GetState>:
 80863dc:	f890 003d 	ldrb.w	r0, [r0, #61]	; 0x3d
 80863e0:	4770      	bx	lr
 80863e2:	bf00      	nop
 80863e4:	4770      	bx	lr
 80863e6:	bf00      	nop

080863e8 <HAL_UART_Init>:
 80863e8:	2800      	cmp	r0, #0
 80863ea:	f000 8104 	beq.w	80865f6 <HAL_UART_Init+0x20e>
 80863ee:	e92d 43f8 	stmdb	sp!, {r3, r4, r5, r6, r7, r8, r9, lr}
 80863f2:	f890 3039 	ldrb.w	r3, [r0, #57]	; 0x39
 80863f6:	4604      	mov	r4, r0
 80863f8:	f003 02ff 	and.w	r2, r3, #255	; 0xff
 80863fc:	2b00      	cmp	r3, #0
 80863fe:	f000 80f5 	beq.w	80865ec <HAL_UART_Init+0x204>
 8086402:	6823      	ldr	r3, [r4, #0]
 8086404:	6926      	ldr	r6, [r4, #16]
 8086406:	2224      	movs	r2, #36	; 0x24
 8086408:	f884 2039 	strb.w	r2, [r4, #57]	; 0x39
 808640c:	68d8      	ldr	r0, [r3, #12]
 808640e:	f420 5000 	bic.w	r0, r0, #8192	; 0x2000
 8086412:	e9d4 2502 	ldrd	r2, r5, [r4, #8]
 8086416:	60d8      	str	r0, [r3, #12]
 8086418:	6919      	ldr	r1, [r3, #16]
 808641a:	69e0      	ldr	r0, [r4, #28]
 808641c:	f421 5140 	bic.w	r1, r1, #12288	; 0x3000
 8086420:	4329      	orrs	r1, r5
 8086422:	6119      	str	r1, [r3, #16]
 8086424:	68d9      	ldr	r1, [r3, #12]
 8086426:	6965      	ldr	r5, [r4, #20]
 8086428:	4332      	orrs	r2, r6
 808642a:	f421 4116 	bic.w	r1, r1, #38400	; 0x9600
 808642e:	432a      	orrs	r2, r5
 8086430:	f021 010c 	bic.w	r1, r1, #12
 8086434:	4302      	orrs	r2, r0
 8086436:	430a      	orrs	r2, r1
 8086438:	60da      	str	r2, [r3, #12]
 808643a:	695a      	ldr	r2, [r3, #20]
 808643c:	69a1      	ldr	r1, [r4, #24]
 808643e:	f422 7240 	bic.w	r2, r2, #768	; 0x300
 8086442:	430a      	orrs	r2, r1
 8086444:	f5b0 4f00 	cmp.w	r0, #32768	; 0x8000
 8086448:	615a      	str	r2, [r3, #20]
 808644a:	4aaa      	ldr	r2, [pc, #680]	; (80866f4 <HAL_UART_Init+0x30c>)
 808644c:	d071      	beq.n	8086532 <HAL_UART_Init+0x14a>
 808644e:	4293      	cmp	r3, r2
 8086450:	f000 80d3 	beq.w	80865fa <HAL_UART_Init+0x212>
 8086454:	f502 6280 	add.w	r2, r2, #1024	; 0x400
 8086458:	4293      	cmp	r3, r2
 808645a:	f000 80ce 	beq.w	80865fa <HAL_UART_Init+0x212>
 808645e:	f7fc f9c7 	bl	80827f0 <HAL_RCC_GetPCLK1Freq>
 8086462:	4fa5      	ldr	r7, [pc, #660]	; (80866f8 <HAL_UART_Init+0x310>)
 8086464:	6863      	ldr	r3, [r4, #4]
 8086466:	eb00 0080 	add.w	r0, r0, r0, lsl #2
 808646a:	eb00 0080 	add.w	r0, r0, r0, lsl #2
 808646e:	009b      	lsls	r3, r3, #2
 8086470:	fbb0 f3f3 	udiv	r3, r0, r3
 8086474:	fba7 2303 	umull	r2, r3, r7, r3
 8086478:	095b      	lsrs	r3, r3, #5
 808647a:	011d      	lsls	r5, r3, #4
 808647c:	f7fc f9b8 	bl	80827f0 <HAL_RCC_GetPCLK1Freq>
 8086480:	6866      	ldr	r6, [r4, #4]
 8086482:	eb00 0080 	add.w	r0, r0, r0, lsl #2
 8086486:	eb00 0080 	add.w	r0, r0, r0, lsl #2
 808648a:	00b6      	lsls	r6, r6, #2
 808648c:	fbb0 f6f6 	udiv	r6, r0, r6
 8086490:	f7fc f9ae 	bl	80827f0 <HAL_RCC_GetPCLK1Freq>
 8086494:	6863      	ldr	r3, [r4, #4]
 8086496:	eb00 0080 	add.w	r0, r0, r0, lsl #2
 808649a:	eb00 0080 	add.w	r0, r0, r0, lsl #2
 808649e:	009b      	lsls	r3, r3, #2
 80864a0:	fbb0 f3f3 	udiv	r3, r0, r3
 80864a4:	fba7 2303 	umull	r2, r3, r7, r3
 80864a8:	095b      	lsrs	r3, r3, #5
 80864aa:	f04f 0964 	mov.w	r9, #100	; 0x64
 80864ae:	fb09 6313 	mls	r3, r9, r3, r6
 80864b2:	011b      	lsls	r3, r3, #4
 80864b4:	3332      	adds	r3, #50	; 0x32
 80864b6:	fba7 2303 	umull	r2, r3, r7, r3
 80864ba:	095b      	lsrs	r3, r3, #5
 80864bc:	f003 06f0 	and.w	r6, r3, #240	; 0xf0
 80864c0:	f7fc f996 	bl	80827f0 <HAL_RCC_GetPCLK1Freq>
 80864c4:	6862      	ldr	r2, [r4, #4]
 80864c6:	eb00 0080 	add.w	r0, r0, r0, lsl #2
 80864ca:	eb00 0080 	add.w	r0, r0, r0, lsl #2
 80864ce:	0093      	lsls	r3, r2, #2
 80864d0:	fbb0 f8f3 	udiv	r8, r0, r3
 80864d4:	f7fc f98c 	bl	80827f0 <HAL_RCC_GetPCLK1Freq>
 80864d8:	e9d4 2100 	ldrd	r2, r1, [r4]
 80864dc:	eb00 0080 	add.w	r0, r0, r0, lsl #2
 80864e0:	008b      	lsls	r3, r1, #2
 80864e2:	eb00 0080 	add.w	r0, r0, r0, lsl #2
 80864e6:	fbb0 f3f3 	udiv	r3, r0, r3
 80864ea:	fba7 1303 	umull	r1, r3, r7, r3
 80864ee:	095b      	lsrs	r3, r3, #5
 80864f0:	fb09 8313 	mls	r3, r9, r3, r8
 80864f4:	011b      	lsls	r3, r3, #4
 80864f6:	3332      	adds	r3, #50	; 0x32
 80864f8:	fba7 1303 	umull	r1, r3, r7, r3
 80864fc:	f3c3 1343 	ubfx	r3, r3, #5, #4
 8086500:	4333      	orrs	r3, r6
 8086502:	442b      	add	r3, r5
 8086504:	6093      	str	r3, [r2, #8]
 8086506:	6913      	ldr	r3, [r2, #16]
 8086508:	f423 4390 	bic.w	r3, r3, #18432	; 0x4800
 808650c:	6113      	str	r3, [r2, #16]
 808650e:	6953      	ldr	r3, [r2, #20]
 8086510:	f023 032a 	bic.w	r3, r3, #42	; 0x2a
 8086514:	6153      	str	r3, [r2, #20]
 8086516:	68d3      	ldr	r3, [r2, #12]
 8086518:	2500      	movs	r5, #0
 808651a:	2120      	movs	r1, #32
 808651c:	f443 5300 	orr.w	r3, r3, #8192	; 0x2000
 8086520:	60d3      	str	r3, [r2, #12]
 8086522:	4628      	mov	r0, r5
 8086524:	63e5      	str	r5, [r4, #60]	; 0x3c
 8086526:	f884 1039 	strb.w	r1, [r4, #57]	; 0x39
 808652a:	f884 103a 	strb.w	r1, [r4, #58]	; 0x3a
 808652e:	e8bd 83f8 	ldmia.w	sp!, {r3, r4, r5, r6, r7, r8, r9, pc}
 8086532:	4293      	cmp	r3, r2
 8086534:	f000 809f 	beq.w	8086676 <HAL_UART_Init+0x28e>
 8086538:	f502 6280 	add.w	r2, r2, #1024	; 0x400
 808653c:	4293      	cmp	r3, r2
 808653e:	f000 809a 	beq.w	8086676 <HAL_UART_Init+0x28e>
 8086542:	f7fc f955 	bl	80827f0 <HAL_RCC_GetPCLK1Freq>
 8086546:	4f6c      	ldr	r7, [pc, #432]	; (80866f8 <HAL_UART_Init+0x310>)
 8086548:	6863      	ldr	r3, [r4, #4]
 808654a:	eb00 0080 	add.w	r0, r0, r0, lsl #2
 808654e:	eb00 0080 	add.w	r0, r0, r0, lsl #2
 8086552:	005b      	lsls	r3, r3, #1
 8086554:	fbb0 f3f3 	udiv	r3, r0, r3
 8086558:	fba7 2303 	umull	r2, r3, r7, r3
 808655c:	095b      	lsrs	r3, r3, #5
 808655e:	011e      	lsls	r6, r3, #4
 8086560:	f7fc f946 	bl	80827f0 <HAL_RCC_GetPCLK1Freq>
 8086564:	6865      	ldr	r5, [r4, #4]
 8086566:	eb00 0080 	add.w	r0, r0, r0, lsl #2
 808656a:	eb00 0080 	add.w	r0, r0, r0, lsl #2
 808656e:	006d      	lsls	r5, r5, #1
 8086570:	fbb0 f5f5 	udiv	r5, r0, r5
 8086574:	f7fc f93c 	bl	80827f0 <HAL_RCC_GetPCLK1Freq>
 8086578:	6863      	ldr	r3, [r4, #4]
 808657a:	eb00 0080 	add.w	r0, r0, r0, lsl #2
 808657e:	eb00 0080 	add.w	r0, r0, r0, lsl #2
 8086582:	005b      	lsls	r3, r3, #1
 8086584:	fbb0 f3f3 	udiv	r3, r0, r3
 8086588:	fba7 2303 	umull	r2, r3, r7, r3
 808658c:	095b      	lsrs	r3, r3, #5
 808658e:	f04f 0964 	mov.w	r9, #100	; 0x64
 8086592:	fb09 5313 	mls	r3, r9, r3, r5
 8086596:	00db      	lsls	r3, r3, #3
 8086598:	3332      	adds	r3, #50	; 0x32
 808659a:	fba7 2303 	umull	r2, r3, r7, r3
 808659e:	091b      	lsrs	r3, r3, #4
 80865a0:	f403 75f8 	and.w	r5, r3, #496	; 0x1f0
 80865a4:	f7fc f924 	bl	80827f0 <HAL_RCC_GetPCLK1Freq>
 80865a8:	6862      	ldr	r2, [r4, #4]
 80865aa:	eb00 0080 	add.w	r0, r0, r0, lsl #2
 80865ae:	eb00 0080 	add.w	r0, r0, r0, lsl #2
 80865b2:	0053      	lsls	r3, r2, #1
 80865b4:	fbb0 f8f3 	udiv	r8, r0, r3
 80865b8:	f7fc f91a 	bl	80827f0 <HAL_RCC_GetPCLK1Freq>
 80865bc:	e9d4 2100 	ldrd	r2, r1, [r4]
 80865c0:	eb00 0080 	add.w	r0, r0, r0, lsl #2
 80865c4:	004b      	lsls	r3, r1, #1
 80865c6:	eb00 0080 	add.w	r0, r0, r0, lsl #2
 80865ca:	fbb0 f3f3 	udiv	r3, r0, r3
 80865ce:	fba7 1303 	umull	r1, r3, r7, r3
 80865d2:	095b      	lsrs	r3, r3, #5
 80865d4:	fb09 8313 	mls	r3, r9, r3, r8
 80865d8:	00db      	lsls	r3, r3, #3
 80865da:	3332      	adds	r3, #50	; 0x32
 80865dc:	fba7 1303 	umull	r1, r3, r7, r3
 80865e0:	f3c3 1342 	ubfx	r3, r3, #5, #3
 80865e4:	4433      	add	r3, r6
 80865e6:	442b      	add	r3, r5
 80865e8:	6093      	str	r3, [r2, #8]
 80865ea:	e78c      	b.n	8086506 <HAL_UART_Init+0x11e>
 80865ec:	f880 2038 	strb.w	r2, [r0, #56]	; 0x38
 80865f0:	f7fa fcf6 	bl	8080fe0 <HAL_UART_MspInit>
 80865f4:	e705      	b.n	8086402 <HAL_UART_Init+0x1a>
 80865f6:	2001      	movs	r0, #1
 80865f8:	4770      	bx	lr
 80865fa:	f7fc f909 	bl	8082810 <HAL_RCC_GetPCLK2Freq>
 80865fe:	4f3e      	ldr	r7, [pc, #248]	; (80866f8 <HAL_UART_Init+0x310>)
 8086600:	6863      	ldr	r3, [r4, #4]
 8086602:	eb00 0080 	add.w	r0, r0, r0, lsl #2
 8086606:	eb00 0080 	add.w	r0, r0, r0, lsl #2
 808660a:	009b      	lsls	r3, r3, #2
 808660c:	fbb0 f3f3 	udiv	r3, r0, r3
 8086610:	fba7 2303 	umull	r2, r3, r7, r3
 8086614:	095b      	lsrs	r3, r3, #5
 8086616:	011d      	lsls	r5, r3, #4
 8086618:	f7fc f8fa 	bl	8082810 <HAL_RCC_GetPCLK2Freq>
 808661c:	6866      	ldr	r6, [r4, #4]
 808661e:	eb00 0080 	add.w	r0, r0, r0, lsl #2
 8086622:	eb00 0080 	add.w	r0, r0, r0, lsl #2
 8086626:	00b6      	lsls	r6, r6, #2
 8086628:	fbb0 f6f6 	udiv	r6, r0, r6
 808662c:	f7fc f8f0 	bl	8082810 <HAL_RCC_GetPCLK2Freq>
 8086630:	6863      	ldr	r3, [r4, #4]
 8086632:	eb00 0080 	add.w	r0, r0, r0, lsl #2
 8086636:	eb00 0080 	add.w	r0, r0, r0, lsl #2
 808663a:	009b      	lsls	r3, r3, #2
 808663c:	fbb0 f3f3 	udiv	r3, r0, r3
 8086640:	fba7 2303 	umull	r2, r3, r7, r3
 8086644:	f04f 0964 	mov.w	r9, #100	; 0x64
 8086648:	095b      	lsrs	r3, r3, #5
 808664a:	fb09 6313 	mls	r3, r9, r3, r6
 808664e:	011b      	lsls	r3, r3, #4
 8086650:	3332      	adds	r3, #50	; 0x32
 8086652:	fba7 2303 	umull	r2, r3, r7, r3
 8086656:	095b      	lsrs	r3, r3, #5
 8086658:	f003 06f0 	and.w	r6, r3, #240	; 0xf0
 808665c:	f7fc f8d8 	bl	8082810 <HAL_RCC_GetPCLK2Freq>
 8086660:	6862      	ldr	r2, [r4, #4]
 8086662:	eb00 0080 	add.w	r0, r0, r0, lsl #2
 8086666:	0093      	lsls	r3, r2, #2
 8086668:	eb00 0080 	add.w	r0, r0, r0, lsl #2
 808666c:	fbb0 f8f3 	udiv	r8, r0, r3
 8086670:	f7fc f8ce 	bl	8082810 <HAL_RCC_GetPCLK2Freq>
 8086674:	e730      	b.n	80864d8 <HAL_UART_Init+0xf0>
 8086676:	f7fc f8cb 	bl	8082810 <HAL_RCC_GetPCLK2Freq>
 808667a:	4f1f      	ldr	r7, [pc, #124]	; (80866f8 <HAL_UART_Init+0x310>)
 808667c:	6863      	ldr	r3, [r4, #4]
 808667e:	eb00 0080 	add.w	r0, r0, r0, lsl #2
 8086682:	eb00 0080 	add.w	r0, r0, r0, lsl #2
 8086686:	005b      	lsls	r3, r3, #1
 8086688:	fbb0 f3f3 	udiv	r3, r0, r3
 808668c:	fba7 2303 	umull	r2, r3, r7, r3
 8086690:	095b      	lsrs	r3, r3, #5
 8086692:	011e      	lsls	r6, r3, #4
 8086694:	f7fc f8bc 	bl	8082810 <HAL_RCC_GetPCLK2Freq>
 8086698:	6865      	ldr	r5, [r4, #4]
 808669a:	eb00 0080 	add.w	r0, r0, r0, lsl #2
 808669e:	eb00 0080 	add.w	r0, r0, r0, lsl #2
 80866a2:	006d      	lsls	r5, r5, #1
 80866a4:	fbb0 f5f5 	udiv	r5, r0, r5
 80866a8:	f7fc f8b2 	bl	8082810 <HAL_RCC_GetPCLK2Freq>
 80866ac:	6863      	ldr	r3, [r4, #4]
 80866ae:	eb00 0080 	add.w	r0, r0, r0, lsl #2
 80866b2:	eb00 0080 	add.w	r0, r0, r0, lsl #2
 80866b6:	005b      	lsls	r3, r3, #1
 80866b8:	fbb0 f3f3 	udiv	r3, r0, r3
 80866bc:	fba7 2303 	umull	r2, r3, r7, r3
 80866c0:	f04f 0964 	mov.w	r9, #100	; 0x64
 80866c4:	095b      	lsrs	r3, r3, #5
 80866c6:	fb09 5313 	mls	r3, r9, r3, r5
 80866ca:	00db      	lsls	r3, r3, #3
 80866cc:	3332      	adds	r3, #50	; 0x32
 80866ce:	fba7 2303 	umull	r2, r3, r7, r3
 80866d2:	091b      	lsrs	r3, r3, #4
 80866d4:	f403 75f8 	and.w	r5, r3, #496	; 0x1f0
 80866d8:	f7fc f89a 	bl	8082810 <HAL_RCC_GetPCLK2Freq>
 80866dc:	6862      	ldr	r2, [r4, #4]
 80866de:	eb00 0080 	add.w	r0, r0, r0, lsl #2
 80866e2:	0053      	lsls	r3, r2, #1
 80866e4:	eb00 0080 	add.w	r0, r0, r0, lsl #2
 80866e8:	fbb0 f8f3 	udiv	r8, r0, r3
 80866ec:	f7fc f890 	bl	8082810 <HAL_RCC_GetPCLK2Freq>
 80866f0:	e764      	b.n	80865bc <HAL_UART_Init+0x1d4>
 80866f2:	bf00      	nop
 80866f4:	40011000 	.word	0x40011000
 80866f8:	51eb851f 	.word	0x51eb851f

080866fc <HAL_HalfDuplex_Init>:
 80866fc:	2800      	cmp	r0, #0
 80866fe:	f000 8108 	beq.w	8086912 <HAL_HalfDuplex_Init+0x216>
 8086702:	e92d 43f8 	stmdb	sp!, {r3, r4, r5, r6, r7, r8, r9, lr}
 8086706:	f890 3039 	ldrb.w	r3, [r0, #57]	; 0x39
 808670a:	4604      	mov	r4, r0
 808670c:	f003 02ff 	and.w	r2, r3, #255	; 0xff
 8086710:	2b00      	cmp	r3, #0
 8086712:	f000 80f9 	beq.w	8086908 <HAL_HalfDuplex_Init+0x20c>
 8086716:	6823      	ldr	r3, [r4, #0]
 8086718:	6926      	ldr	r6, [r4, #16]
 808671a:	2224      	movs	r2, #36	; 0x24
 808671c:	f884 2039 	strb.w	r2, [r4, #57]	; 0x39
 8086720:	68d8      	ldr	r0, [r3, #12]
 8086722:	f420 5000 	bic.w	r0, r0, #8192	; 0x2000
 8086726:	e9d4 2502 	ldrd	r2, r5, [r4, #8]
 808672a:	60d8      	str	r0, [r3, #12]
 808672c:	6919      	ldr	r1, [r3, #16]
 808672e:	69e0      	ldr	r0, [r4, #28]
 8086730:	f421 5140 	bic.w	r1, r1, #12288	; 0x3000
 8086734:	4329      	orrs	r1, r5
 8086736:	6119      	str	r1, [r3, #16]
 8086738:	68d9      	ldr	r1, [r3, #12]
 808673a:	6965      	ldr	r5, [r4, #20]
 808673c:	4332      	orrs	r2, r6
 808673e:	f421 4116 	bic.w	r1, r1, #38400	; 0x9600
 8086742:	432a      	orrs	r2, r5
 8086744:	f021 010c 	bic.w	r1, r1, #12
 8086748:	4302      	orrs	r2, r0
 808674a:	430a      	orrs	r2, r1
 808674c:	60da      	str	r2, [r3, #12]
 808674e:	695a      	ldr	r2, [r3, #20]
 8086750:	69a1      	ldr	r1, [r4, #24]
 8086752:	f422 7240 	bic.w	r2, r2, #768	; 0x300
 8086756:	430a      	orrs	r2, r1
 8086758:	f5b0 4f00 	cmp.w	r0, #32768	; 0x8000
 808675c:	615a      	str	r2, [r3, #20]
 808675e:	4aac      	ldr	r2, [pc, #688]	; (8086a10 <HAL_HalfDuplex_Init+0x314>)
 8086760:	d075      	beq.n	808684e <HAL_HalfDuplex_Init+0x152>
 8086762:	4293      	cmp	r3, r2
 8086764:	f000 80d7 	beq.w	8086916 <HAL_HalfDuplex_Init+0x21a>
 8086768:	f502 6280 	add.w	r2, r2, #1024	; 0x400
 808676c:	4293      	cmp	r3, r2
 808676e:	f000 80d2 	beq.w	8086916 <HAL_HalfDuplex_Init+0x21a>
 8086772:	f7fc f83d 	bl	80827f0 <HAL_RCC_GetPCLK1Freq>
 8086776:	4fa7      	ldr	r7, [pc, #668]	; (8086a14 <HAL_HalfDuplex_Init+0x318>)
 8086778:	6862      	ldr	r2, [r4, #4]
 808677a:	eb00 0080 	add.w	r0, r0, r0, lsl #2
 808677e:	eb00 0080 	add.w	r0, r0, r0, lsl #2
 8086782:	0092      	lsls	r2, r2, #2
 8086784:	fbb0 f2f2 	udiv	r2, r0, r2
 8086788:	fba7 3202 	umull	r3, r2, r7, r2
 808678c:	0952      	lsrs	r2, r2, #5
 808678e:	0115      	lsls	r5, r2, #4
 8086790:	f7fc f82e 	bl	80827f0 <HAL_RCC_GetPCLK1Freq>
 8086794:	6866      	ldr	r6, [r4, #4]
 8086796:	eb00 0080 	add.w	r0, r0, r0, lsl #2
 808679a:	eb00 0080 	add.w	r0, r0, r0, lsl #2
 808679e:	00b6      	lsls	r6, r6, #2
 80867a0:	fbb0 f6f6 	udiv	r6, r0, r6
 80867a4:	f7fc f824 	bl	80827f0 <HAL_RCC_GetPCLK1Freq>
 80867a8:	6862      	ldr	r2, [r4, #4]
 80867aa:	eb00 0080 	add.w	r0, r0, r0, lsl #2
 80867ae:	eb00 0080 	add.w	r0, r0, r0, lsl #2
 80867b2:	0092      	lsls	r2, r2, #2
 80867b4:	fbb0 f2f2 	udiv	r2, r0, r2
 80867b8:	fba7 3202 	umull	r3, r2, r7, r2
 80867bc:	0952      	lsrs	r2, r2, #5
 80867be:	f04f 0964 	mov.w	r9, #100	; 0x64
 80867c2:	fb09 6212 	mls	r2, r9, r2, r6
 80867c6:	0112      	lsls	r2, r2, #4
 80867c8:	3232      	adds	r2, #50	; 0x32
 80867ca:	fba7 3202 	umull	r3, r2, r7, r2
 80867ce:	0952      	lsrs	r2, r2, #5
 80867d0:	f002 06f0 	and.w	r6, r2, #240	; 0xf0
 80867d4:	f7fc f80c 	bl	80827f0 <HAL_RCC_GetPCLK1Freq>
 80867d8:	6863      	ldr	r3, [r4, #4]
 80867da:	eb00 0080 	add.w	r0, r0, r0, lsl #2
 80867de:	eb00 0080 	add.w	r0, r0, r0, lsl #2
 80867e2:	009a      	lsls	r2, r3, #2
 80867e4:	fbb0 f8f2 	udiv	r8, r0, r2
 80867e8:	f7fc f802 	bl	80827f0 <HAL_RCC_GetPCLK1Freq>
 80867ec:	e9d4 3100 	ldrd	r3, r1, [r4]
 80867f0:	eb00 0080 	add.w	r0, r0, r0, lsl #2
 80867f4:	008a      	lsls	r2, r1, #2
 80867f6:	eb00 0080 	add.w	r0, r0, r0, lsl #2
 80867fa:	fbb0 f2f2 	udiv	r2, r0, r2
 80867fe:	fba7 1202 	umull	r1, r2, r7, r2
 8086802:	0952      	lsrs	r2, r2, #5
 8086804:	fb09 8212 	mls	r2, r9, r2, r8
 8086808:	0112      	lsls	r2, r2, #4
 808680a:	3232      	adds	r2, #50	; 0x32
 808680c:	fba7 1202 	umull	r1, r2, r7, r2
 8086810:	f3c2 1243 	ubfx	r2, r2, #5, #4
 8086814:	4332      	orrs	r2, r6
 8086816:	442a      	add	r2, r5
 8086818:	609a      	str	r2, [r3, #8]
 808681a:	691a      	ldr	r2, [r3, #16]
 808681c:	f422 4290 	bic.w	r2, r2, #18432	; 0x4800
 8086820:	611a      	str	r2, [r3, #16]
 8086822:	695a      	ldr	r2, [r3, #20]
 8086824:	f022 0222 	bic.w	r2, r2, #34	; 0x22
 8086828:	615a      	str	r2, [r3, #20]
 808682a:	695a      	ldr	r2, [r3, #20]
 808682c:	f042 0208 	orr.w	r2, r2, #8
 8086830:	615a      	str	r2, [r3, #20]
 8086832:	68da      	ldr	r2, [r3, #12]
 8086834:	2500      	movs	r5, #0
 8086836:	2120      	movs	r1, #32
 8086838:	f442 5200 	orr.w	r2, r2, #8192	; 0x2000
 808683c:	60da      	str	r2, [r3, #12]
 808683e:	4628      	mov	r0, r5
 8086840:	63e5      	str	r5, [r4, #60]	; 0x3c
 8086842:	f884 1039 	strb.w	r1, [r4, #57]	; 0x39
 8086846:	f884 103a 	strb.w	r1, [r4, #58]	; 0x3a
 808684a:	e8bd 83f8 	ldmia.w	sp!, {r3, r4, r5, r6, r7, r8, r9, pc}
 808684e:	4293      	cmp	r3, r2
 8086850:	f000 809f 	beq.w	8086992 <HAL_HalfDuplex_Init+0x296>
 8086854:	f502 6280 	add.w	r2, r2, #1024	; 0x400
 8086858:	4293      	cmp	r3, r2
 808685a:	f000 809a 	beq.w	8086992 <HAL_HalfDuplex_Init+0x296>
 808685e:	f7fb ffc7 	bl	80827f0 <HAL_RCC_GetPCLK1Freq>
 8086862:	4f6c      	ldr	r7, [pc, #432]	; (8086a14 <HAL_HalfDuplex_Init+0x318>)
 8086864:	6862      	ldr	r2, [r4, #4]
 8086866:	eb00 0080 	add.w	r0, r0, r0, lsl #2
 808686a:	eb00 0080 	add.w	r0, r0, r0, lsl #2
 808686e:	0052      	lsls	r2, r2, #1
 8086870:	fbb0 f2f2 	udiv	r2, r0, r2
 8086874:	fba7 3202 	umull	r3, r2, r7, r2
 8086878:	0952      	lsrs	r2, r2, #5
 808687a:	0116      	lsls	r6, r2, #4
 808687c:	f7fb ffb8 	bl	80827f0 <HAL_RCC_GetPCLK1Freq>
 8086880:	6865      	ldr	r5, [r4, #4]
 8086882:	eb00 0080 	add.w	r0, r0, r0, lsl #2
 8086886:	eb00 0080 	add.w	r0, r0, r0, lsl #2
 808688a:	006d      	lsls	r5, r5, #1
 808688c:	fbb0 f5f5 	udiv	r5, r0, r5
 8086890:	f7fb ffae 	bl	80827f0 <HAL_RCC_GetPCLK1Freq>
 8086894:	6862      	ldr	r2, [r4, #4]
 8086896:	eb00 0080 	add.w	r0, r0, r0, lsl #2
 808689a:	eb00 0080 	add.w	r0, r0, r0, lsl #2
 808689e:	0052      	lsls	r2, r2, #1
 80868a0:	fbb0 f2f2 	udiv	r2, r0, r2
 80868a4:	fba7 3202 	umull	r3, r2, r7, r2
 80868a8:	0952      	lsrs	r2, r2, #5
 80868aa:	f04f 0964 	mov.w	r9, #100	; 0x64
 80868ae:	fb09 5212 	mls	r2, r9, r2, r5
 80868b2:	00d2      	lsls	r2, r2, #3
 80868b4:	3232      	adds	r2, #50	; 0x32
 80868b6:	fba7 3202 	umull	r3, r2, r7, r2
 80868ba:	0912      	lsrs	r2, r2, #4
 80868bc:	f402 75f8 	and.w	r5, r2, #496	; 0x1f0
 80868c0:	f7fb ff96 	bl	80827f0 <HAL_RCC_GetPCLK1Freq>
 80868c4:	6863      	ldr	r3, [r4, #4]
 80868c6:	eb00 0080 	add.w	r0, r0, r0, lsl #2
 80868ca:	eb00 0080 	add.w	r0, r0, r0, lsl #2
 80868ce:	005a      	lsls	r2, r3, #1
 80868d0:	fbb0 f8f2 	udiv	r8, r0, r2
 80868d4:	f7fb ff8c 	bl	80827f0 <HAL_RCC_GetPCLK1Freq>
 80868d8:	e9d4 3100 	ldrd	r3, r1, [r4]
 80868dc:	eb00 0080 	add.w	r0, r0, r0, lsl #2
 80868e0:	004a      	lsls	r2, r1, #1
 80868e2:	eb00 0080 	add.w	r0, r0, r0, lsl #2
 80868e6:	fbb0 f2f2 	udiv	r2, r0, r2
 80868ea:	fba7 1202 	umull	r1, r2, r7, r2
 80868ee:	0952      	lsrs	r2, r2, #5
 80868f0:	fb09 8212 	mls	r2, r9, r2, r8
 80868f4:	00d2      	lsls	r2, r2, #3
 80868f6:	3232      	adds	r2, #50	; 0x32
 80868f8:	fba7 1202 	umull	r1, r2, r7, r2
 80868fc:	f3c2 1242 	ubfx	r2, r2, #5, #3
 8086900:	4432      	add	r2, r6
 8086902:	442a      	add	r2, r5
 8086904:	609a      	str	r2, [r3, #8]
 8086906:	e788      	b.n	808681a <HAL_HalfDuplex_Init+0x11e>
 8086908:	f880 2038 	strb.w	r2, [r0, #56]	; 0x38
 808690c:	f7fa fb68 	bl	8080fe0 <HAL_UART_MspInit>
 8086910:	e701      	b.n	8086716 <HAL_HalfDuplex_Init+0x1a>
 8086912:	2001      	movs	r0, #1
 8086914:	4770      	bx	lr
 8086916:	f7fb ff7b 	bl	8082810 <HAL_RCC_GetPCLK2Freq>
 808691a:	4f3e      	ldr	r7, [pc, #248]	; (8086a14 <HAL_HalfDuplex_Init+0x318>)
 808691c:	6862      	ldr	r2, [r4, #4]
 808691e:	eb00 0080 	add.w	r0, r0, r0, lsl #2
 8086922:	eb00 0080 	add.w	r0, r0, r0, lsl #2
 8086926:	0092      	lsls	r2, r2, #2
 8086928:	fbb0 f2f2 	udiv	r2, r0, r2
 808692c:	fba7 3202 	umull	r3, r2, r7, r2
 8086930:	0952      	lsrs	r2, r2, #5
 8086932:	0115      	lsls	r5, r2, #4
 8086934:	f7fb ff6c 	bl	8082810 <HAL_RCC_GetPCLK2Freq>
 8086938:	6866      	ldr	r6, [r4, #4]
 808693a:	eb00 0080 	add.w	r0, r0, r0, lsl #2
 808693e:	eb00 0080 	add.w	r0, r0, r0, lsl #2
 8086942:	00b6      	lsls	r6, r6, #2
 8086944:	fbb0 f6f6 	udiv	r6, r0, r6
 8086948:	f7fb ff62 	bl	8082810 <HAL_RCC_GetPCLK2Freq>
 808694c:	6862      	ldr	r2, [r4, #4]
 808694e:	eb00 0080 	add.w	r0, r0, r0, lsl #2
 8086952:	eb00 0080 	add.w	r0, r0, r0, lsl #2
 8086956:	0092      	lsls	r2, r2, #2
 8086958:	fbb0 f2f2 	udiv	r2, r0, r2
 808695c:	fba7 3202 	umull	r3, r2, r7, r2
 8086960:	f04f 0964 	mov.w	r9, #100	; 0x64
 8086964:	0952      	lsrs	r2, r2, #5
 8086966:	fb09 6212 	mls	r2, r9, r2, r6
 808696a:	0112      	lsls	r2, r2, #4
 808696c:	3232      	adds	r2, #50	; 0x32
 808696e:	fba7 3202 	umull	r3, r2, r7, r2
 8086972:	0952      	lsrs	r2, r2, #5
 8086974:	f002 06f0 	and.w	r6, r2, #240	; 0xf0
 8086978:	f7fb ff4a 	bl	8082810 <HAL_RCC_GetPCLK2Freq>
 808697c:	6863      	ldr	r3, [r4, #4]
 808697e:	eb00 0080 	add.w	r0, r0, r0, lsl #2
 8086982:	009a      	lsls	r2, r3, #2
 8086984:	eb00 0080 	add.w	r0, r0, r0, lsl #2
 8086988:	fbb0 f8f2 	udiv	r8, r0, r2
 808698c:	f7fb ff40 	bl	8082810 <HAL_RCC_GetPCLK2Freq>
 8086990:	e72c      	b.n	80867ec <HAL_HalfDuplex_Init+0xf0>
 8086992:	f7fb ff3d 	bl	8082810 <HAL_RCC_GetPCLK2Freq>
 8086996:	4f1f      	ldr	r7, [pc, #124]	; (8086a14 <HAL_HalfDuplex_Init+0x318>)
 8086998:	6862      	ldr	r2, [r4, #4]
 808699a:	eb00 0080 	add.w	r0, r0, r0, lsl #2
 808699e:	eb00 0080 	add.w	r0, r0, r0, lsl #2
 80869a2:	0052      	lsls	r2, r2, #1
 80869a4:	fbb0 f2f2 	udiv	r2, r0, r2
 80869a8:	fba7 3202 	umull	r3, r2, r7, r2
 80869ac:	0952      	lsrs	r2, r2, #5
 80869ae:	0116      	lsls	r6, r2, #4
 80869b0:	f7fb ff2e 	bl	8082810 <HAL_RCC_GetPCLK2Freq>
 80869b4:	6865      	ldr	r5, [r4, #4]
 80869b6:	eb00 0080 	add.w	r0, r0, r0, lsl #2
 80869ba:	eb00 0080 	add.w	r0, r0, r0, lsl #2
 80869be:	006d      	lsls	r5, r5, #1
 80869c0:	fbb0 f5f5 	udiv	r5, r0, r5
 80869c4:	f7fb ff24 	bl	8082810 <HAL_RCC_GetPCLK2Freq>
 80869c8:	6862      	ldr	r2, [r4, #4]
 80869ca:	eb00 0080 	add.w	r0, r0, r0, lsl #2
 80869ce:	eb00 0080 	add.w	r0, r0, r0, lsl #2
 80869d2:	0052      	lsls	r2, r2, #1
 80869d4:	fbb0 f2f2 	udiv	r2, r0, r2
 80869d8:	fba7 3202 	umull	r3, r2, r7, r2
 80869dc:	f04f 0964 	mov.w	r9, #100	; 0x64
 80869e0:	0952      	lsrs	r2, r2, #5
 80869e2:	fb09 5212 	mls	r2, r9, r2, r5
 80869e6:	00d2      	lsls	r2, r2, #3
 80869e8:	3232      	adds	r2, #50	; 0x32
 80869ea:	fba7 3202 	umull	r3, r2, r7, r2
 80869ee:	0912      	lsrs	r2, r2, #4
 80869f0:	f402 75f8 	and.w	r5, r2, #496	; 0x1f0
 80869f4:	f7fb ff0c 	bl	8082810 <HAL_RCC_GetPCLK2Freq>
 80869f8:	6863      	ldr	r3, [r4, #4]
 80869fa:	eb00 0080 	add.w	r0, r0, r0, lsl #2
 80869fe:	005a      	lsls	r2, r3, #1
 8086a00:	eb00 0080 	add.w	r0, r0, r0, lsl #2
 8086a04:	fbb0 f8f2 	udiv	r8, r0, r2
 8086a08:	f7fb ff02 	bl	8082810 <HAL_RCC_GetPCLK2Freq>
 8086a0c:	e764      	b.n	80868d8 <HAL_HalfDuplex_Init+0x1dc>
 8086a0e:	bf00      	nop
 8086a10:	40011000 	.word	0x40011000
 8086a14:	51eb851f 	.word	0x51eb851f

08086a18 <HAL_LIN_Init>:
 8086a18:	2800      	cmp	r0, #0
 8086a1a:	f000 8112 	beq.w	8086c42 <HAL_LIN_Init+0x22a>
 8086a1e:	f890 3039 	ldrb.w	r3, [r0, #57]	; 0x39
 8086a22:	e92d 47f0 	stmdb	sp!, {r4, r5, r6, r7, r8, r9, sl, lr}
 8086a26:	f003 02ff 	and.w	r2, r3, #255	; 0xff
 8086a2a:	4604      	mov	r4, r0
 8086a2c:	460d      	mov	r5, r1
 8086a2e:	2b00      	cmp	r3, #0
 8086a30:	f000 8102 	beq.w	8086c38 <HAL_LIN_Init+0x220>
 8086a34:	6823      	ldr	r3, [r4, #0]
 8086a36:	6926      	ldr	r6, [r4, #16]
 8086a38:	2224      	movs	r2, #36	; 0x24
 8086a3a:	f884 2039 	strb.w	r2, [r4, #57]	; 0x39
 8086a3e:	68d8      	ldr	r0, [r3, #12]
 8086a40:	f420 5000 	bic.w	r0, r0, #8192	; 0x2000
 8086a44:	e9d4 2702 	ldrd	r2, r7, [r4, #8]
 8086a48:	60d8      	str	r0, [r3, #12]
 8086a4a:	6919      	ldr	r1, [r3, #16]
 8086a4c:	6960      	ldr	r0, [r4, #20]
 8086a4e:	f421 5140 	bic.w	r1, r1, #12288	; 0x3000
 8086a52:	4339      	orrs	r1, r7
 8086a54:	6119      	str	r1, [r3, #16]
 8086a56:	68d9      	ldr	r1, [r3, #12]
 8086a58:	4332      	orrs	r2, r6
 8086a5a:	69e6      	ldr	r6, [r4, #28]
 8086a5c:	f421 4116 	bic.w	r1, r1, #38400	; 0x9600
 8086a60:	4302      	orrs	r2, r0
 8086a62:	f021 010c 	bic.w	r1, r1, #12
 8086a66:	4332      	orrs	r2, r6
 8086a68:	430a      	orrs	r2, r1
 8086a6a:	60da      	str	r2, [r3, #12]
 8086a6c:	695a      	ldr	r2, [r3, #20]
 8086a6e:	69a1      	ldr	r1, [r4, #24]
 8086a70:	f422 7240 	bic.w	r2, r2, #768	; 0x300
 8086a74:	430a      	orrs	r2, r1
 8086a76:	f5b6 4f00 	cmp.w	r6, #32768	; 0x8000
 8086a7a:	615a      	str	r2, [r3, #20]
 8086a7c:	4ab1      	ldr	r2, [pc, #708]	; (8086d44 <HAL_LIN_Init+0x32c>)
 8086a7e:	d07d      	beq.n	8086b7c <HAL_LIN_Init+0x164>
 8086a80:	4293      	cmp	r3, r2
 8086a82:	f000 80e0 	beq.w	8086c46 <HAL_LIN_Init+0x22e>
 8086a86:	f502 6280 	add.w	r2, r2, #1024	; 0x400
 8086a8a:	4293      	cmp	r3, r2
 8086a8c:	f000 80db 	beq.w	8086c46 <HAL_LIN_Init+0x22e>
 8086a90:	f7fb feae 	bl	80827f0 <HAL_RCC_GetPCLK1Freq>
 8086a94:	f8df 82b0 	ldr.w	r8, [pc, #688]	; 8086d48 <HAL_LIN_Init+0x330>
 8086a98:	6862      	ldr	r2, [r4, #4]
 8086a9a:	eb00 0080 	add.w	r0, r0, r0, lsl #2
 8086a9e:	eb00 0080 	add.w	r0, r0, r0, lsl #2
 8086aa2:	0092      	lsls	r2, r2, #2
 8086aa4:	fbb0 f2f2 	udiv	r2, r0, r2
 8086aa8:	fba8 3202 	umull	r3, r2, r8, r2
 8086aac:	0952      	lsrs	r2, r2, #5
 8086aae:	0116      	lsls	r6, r2, #4
 8086ab0:	f7fb fe9e 	bl	80827f0 <HAL_RCC_GetPCLK1Freq>
 8086ab4:	6862      	ldr	r2, [r4, #4]
 8086ab6:	eb00 0080 	add.w	r0, r0, r0, lsl #2
 8086aba:	0092      	lsls	r2, r2, #2
 8086abc:	eb00 0080 	add.w	r0, r0, r0, lsl #2
 8086ac0:	fbb0 f7f2 	udiv	r7, r0, r2
 8086ac4:	f7fb fe94 	bl	80827f0 <HAL_RCC_GetPCLK1Freq>
 8086ac8:	6863      	ldr	r3, [r4, #4]
 8086aca:	eb00 0080 	add.w	r0, r0, r0, lsl #2
 8086ace:	009a      	lsls	r2, r3, #2
 8086ad0:	eb00 0080 	add.w	r0, r0, r0, lsl #2
 8086ad4:	fbb0 f2f2 	udiv	r2, r0, r2
 8086ad8:	fba8 3202 	umull	r3, r2, r8, r2
 8086adc:	0952      	lsrs	r2, r2, #5
 8086ade:	f04f 0a64 	mov.w	sl, #100	; 0x64
 8086ae2:	fb0a 7212 	mls	r2, sl, r2, r7
 8086ae6:	0112      	lsls	r2, r2, #4
 8086ae8:	3232      	adds	r2, #50	; 0x32
 8086aea:	fba8 3202 	umull	r3, r2, r8, r2
 8086aee:	0952      	lsrs	r2, r2, #5
 8086af0:	f002 07f0 	and.w	r7, r2, #240	; 0xf0
 8086af4:	f7fb fe7c 	bl	80827f0 <HAL_RCC_GetPCLK1Freq>
 8086af8:	6863      	ldr	r3, [r4, #4]
 8086afa:	eb00 0080 	add.w	r0, r0, r0, lsl #2
 8086afe:	eb00 0080 	add.w	r0, r0, r0, lsl #2
 8086b02:	009a      	lsls	r2, r3, #2
 8086b04:	fbb0 f9f2 	udiv	r9, r0, r2
 8086b08:	f7fb fe72 	bl	80827f0 <HAL_RCC_GetPCLK1Freq>
 8086b0c:	e9d4 3100 	ldrd	r3, r1, [r4]
 8086b10:	eb00 0080 	add.w	r0, r0, r0, lsl #2
 8086b14:	008a      	lsls	r2, r1, #2
 8086b16:	eb00 0080 	add.w	r0, r0, r0, lsl #2
 8086b1a:	fbb0 f2f2 	udiv	r2, r0, r2
 8086b1e:	fba8 1202 	umull	r1, r2, r8, r2
 8086b22:	0952      	lsrs	r2, r2, #5
 8086b24:	fb0a 9212 	mls	r2, sl, r2, r9
 8086b28:	0112      	lsls	r2, r2, #4
 8086b2a:	3232      	adds	r2, #50	; 0x32
 8086b2c:	fba8 1202 	umull	r1, r2, r8, r2
 8086b30:	f3c2 1243 	ubfx	r2, r2, #5, #4
 8086b34:	433a      	orrs	r2, r7
 8086b36:	4432      	add	r2, r6
 8086b38:	609a      	str	r2, [r3, #8]
 8086b3a:	691a      	ldr	r2, [r3, #16]
 8086b3c:	f422 6200 	bic.w	r2, r2, #2048	; 0x800
 8086b40:	611a      	str	r2, [r3, #16]
 8086b42:	695a      	ldr	r2, [r3, #20]
 8086b44:	f022 022a 	bic.w	r2, r2, #42	; 0x2a
 8086b48:	615a      	str	r2, [r3, #20]
 8086b4a:	691a      	ldr	r2, [r3, #16]
 8086b4c:	f442 4280 	orr.w	r2, r2, #16384	; 0x4000
 8086b50:	611a      	str	r2, [r3, #16]
 8086b52:	691a      	ldr	r2, [r3, #16]
 8086b54:	f022 0220 	bic.w	r2, r2, #32
 8086b58:	611a      	str	r2, [r3, #16]
 8086b5a:	6919      	ldr	r1, [r3, #16]
 8086b5c:	430d      	orrs	r5, r1
 8086b5e:	611d      	str	r5, [r3, #16]
 8086b60:	68da      	ldr	r2, [r3, #12]
 8086b62:	2500      	movs	r5, #0
 8086b64:	2120      	movs	r1, #32
 8086b66:	f442 5200 	orr.w	r2, r2, #8192	; 0x2000
 8086b6a:	60da      	str	r2, [r3, #12]
 8086b6c:	4628      	mov	r0, r5
 8086b6e:	63e5      	str	r5, [r4, #60]	; 0x3c
 8086b70:	f884 1039 	strb.w	r1, [r4, #57]	; 0x39
 8086b74:	f884 103a 	strb.w	r1, [r4, #58]	; 0x3a
 8086b78:	e8bd 87f0 	ldmia.w	sp!, {r4, r5, r6, r7, r8, r9, sl, pc}
 8086b7c:	4293      	cmp	r3, r2
 8086b7e:	f000 80a1 	beq.w	8086cc4 <HAL_LIN_Init+0x2ac>
 8086b82:	f502 6280 	add.w	r2, r2, #1024	; 0x400
 8086b86:	4293      	cmp	r3, r2
 8086b88:	f000 809c 	beq.w	8086cc4 <HAL_LIN_Init+0x2ac>
 8086b8c:	f7fb fe30 	bl	80827f0 <HAL_RCC_GetPCLK1Freq>
 8086b90:	f8df 81b4 	ldr.w	r8, [pc, #436]	; 8086d48 <HAL_LIN_Init+0x330>
 8086b94:	6862      	ldr	r2, [r4, #4]
 8086b96:	eb00 0080 	add.w	r0, r0, r0, lsl #2
 8086b9a:	eb00 0080 	add.w	r0, r0, r0, lsl #2
 8086b9e:	0052      	lsls	r2, r2, #1
 8086ba0:	fbb0 f2f2 	udiv	r2, r0, r2
 8086ba4:	fba8 3202 	umull	r3, r2, r8, r2
 8086ba8:	0952      	lsrs	r2, r2, #5
 8086baa:	0117      	lsls	r7, r2, #4
 8086bac:	f7fb fe20 	bl	80827f0 <HAL_RCC_GetPCLK1Freq>
 8086bb0:	6862      	ldr	r2, [r4, #4]
 8086bb2:	eb00 0080 	add.w	r0, r0, r0, lsl #2
 8086bb6:	0052      	lsls	r2, r2, #1
 8086bb8:	eb00 0080 	add.w	r0, r0, r0, lsl #2
 8086bbc:	fbb0 f6f2 	udiv	r6, r0, r2
 8086bc0:	f7fb fe16 	bl	80827f0 <HAL_RCC_GetPCLK1Freq>
 8086bc4:	6863      	ldr	r3, [r4, #4]
 8086bc6:	eb00 0080 	add.w	r0, r0, r0, lsl #2
 8086bca:	005a      	lsls	r2, r3, #1
 8086bcc:	eb00 0080 	add.w	r0, r0, r0, lsl #2
 8086bd0:	fbb0 f2f2 	udiv	r2, r0, r2
 8086bd4:	fba8 3202 	umull	r3, r2, r8, r2
 8086bd8:	0952      	lsrs	r2, r2, #5
 8086bda:	f04f 0a64 	mov.w	sl, #100	; 0x64
 8086bde:	fb0a 6212 	mls	r2, sl, r2, r6
 8086be2:	00d2      	lsls	r2, r2, #3
 8086be4:	3232      	adds	r2, #50	; 0x32
 8086be6:	fba8 3202 	umull	r3, r2, r8, r2
 8086bea:	0912      	lsrs	r2, r2, #4
 8086bec:	f402 76f8 	and.w	r6, r2, #496	; 0x1f0
 8086bf0:	f7fb fdfe 	bl	80827f0 <HAL_RCC_GetPCLK1Freq>
 8086bf4:	6863      	ldr	r3, [r4, #4]
 8086bf6:	eb00 0080 	add.w	r0, r0, r0, lsl #2
 8086bfa:	eb00 0080 	add.w	r0, r0, r0, lsl #2
 8086bfe:	005a      	lsls	r2, r3, #1
 8086c00:	fbb0 f9f2 	udiv	r9, r0, r2
 8086c04:	f7fb fdf4 	bl	80827f0 <HAL_RCC_GetPCLK1Freq>
 8086c08:	e9d4 3100 	ldrd	r3, r1, [r4]
 8086c0c:	eb00 0080 	add.w	r0, r0, r0, lsl #2
 8086c10:	004a      	lsls	r2, r1, #1
 8086c12:	eb00 0080 	add.w	r0, r0, r0, lsl #2
 8086c16:	fbb0 f2f2 	udiv	r2, r0, r2
 8086c1a:	fba8 1202 	umull	r1, r2, r8, r2
 8086c1e:	0952      	lsrs	r2, r2, #5
 8086c20:	fb0a 9212 	mls	r2, sl, r2, r9
 8086c24:	00d2      	lsls	r2, r2, #3
 8086c26:	3232      	adds	r2, #50	; 0x32
 8086c28:	fba8 1202 	umull	r1, r2, r8, r2
 8086c2c:	f3c2 1242 	ubfx	r2, r2, #5, #3
 8086c30:	443a      	add	r2, r7
 8086c32:	4432      	add	r2, r6
 8086c34:	609a      	str	r2, [r3, #8]
 8086c36:	e780      	b.n	8086b3a <HAL_LIN_Init+0x122>
 8086c38:	f880 2038 	strb.w	r2, [r0, #56]	; 0x38
 8086c3c:	f7fa f9d0 	bl	8080fe0 <HAL_UART_MspInit>
 8086c40:	e6f8      	b.n	8086a34 <HAL_LIN_Init+0x1c>
 8086c42:	2001      	movs	r0, #1
 8086c44:	4770      	bx	lr
 8086c46:	f7fb fde3 	bl	8082810 <HAL_RCC_GetPCLK2Freq>
 8086c4a:	f8df 80fc 	ldr.w	r8, [pc, #252]	; 8086d48 <HAL_LIN_Init+0x330>
 8086c4e:	6862      	ldr	r2, [r4, #4]
 8086c50:	eb00 0080 	add.w	r0, r0, r0, lsl #2
 8086c54:	eb00 0080 	add.w	r0, r0, r0, lsl #2
 8086c58:	0092      	lsls	r2, r2, #2
 8086c5a:	fbb0 f2f2 	udiv	r2, r0, r2
 8086c5e:	fba8 3202 	umull	r3, r2, r8, r2
 8086c62:	0952      	lsrs	r2, r2, #5
 8086c64:	0116      	lsls	r6, r2, #4
 8086c66:	f7fb fdd3 	bl	8082810 <HAL_RCC_GetPCLK2Freq>
 8086c6a:	6862      	ldr	r2, [r4, #4]
 8086c6c:	eb00 0080 	add.w	r0, r0, r0, lsl #2
 8086c70:	0092      	lsls	r2, r2, #2
 8086c72:	eb00 0080 	add.w	r0, r0, r0, lsl #2
 8086c76:	fbb0 f7f2 	udiv	r7, r0, r2
 8086c7a:	f7fb fdc9 	bl	8082810 <HAL_RCC_GetPCLK2Freq>
 8086c7e:	6863      	ldr	r3, [r4, #4]
 8086c80:	eb00 0080 	add.w	r0, r0, r0, lsl #2
 8086c84:	009a      	lsls	r2, r3, #2
 8086c86:	eb00 0080 	add.w	r0, r0, r0, lsl #2
 8086c8a:	fbb0 f2f2 	udiv	r2, r0, r2
 8086c8e:	fba8 3202 	umull	r3, r2, r8, r2
 8086c92:	f04f 0a64 	mov.w	sl, #100	; 0x64
 8086c96:	0952      	lsrs	r2, r2, #5
 8086c98:	fb0a 7212 	mls	r2, sl, r2, r7
 8086c9c:	0112      	lsls	r2, r2, #4
 8086c9e:	3232      	adds	r2, #50	; 0x32
 8086ca0:	fba8 3202 	umull	r3, r2, r8, r2
 8086ca4:	0952      	lsrs	r2, r2, #5
 8086ca6:	f002 07f0 	and.w	r7, r2, #240	; 0xf0
 8086caa:	f7fb fdb1 	bl	8082810 <HAL_RCC_GetPCLK2Freq>
 8086cae:	6863      	ldr	r3, [r4, #4]
 8086cb0:	eb00 0080 	add.w	r0, r0, r0, lsl #2
 8086cb4:	009a      	lsls	r2, r3, #2
 8086cb6:	eb00 0080 	add.w	r0, r0, r0, lsl #2
 8086cba:	fbb0 f9f2 	udiv	r9, r0, r2
 8086cbe:	f7fb fda7 	bl	8082810 <HAL_RCC_GetPCLK2Freq>
 8086cc2:	e723      	b.n	8086b0c <HAL_LIN_Init+0xf4>
 8086cc4:	f7fb fda4 	bl	8082810 <HAL_RCC_GetPCLK2Freq>
 8086cc8:	f8df 807c 	ldr.w	r8, [pc, #124]	; 8086d48 <HAL_LIN_Init+0x330>
 8086ccc:	6862      	ldr	r2, [r4, #4]
 8086cce:	eb00 0080 	add.w	r0, r0, r0, lsl #2
 8086cd2:	eb00 0080 	add.w	r0, r0, r0, lsl #2
 8086cd6:	0052      	lsls	r2, r2, #1
 8086cd8:	fbb0 f2f2 	udiv	r2, r0, r2
 8086cdc:	fba8 3202 	umull	r3, r2, r8, r2
 8086ce0:	0952      	lsrs	r2, r2, #5
 8086ce2:	0117      	lsls	r7, r2, #4
 8086ce4:	f7fb fd94 	bl	8082810 <HAL_RCC_GetPCLK2Freq>
 8086ce8:	6862      	ldr	r2, [r4, #4]
 8086cea:	eb00 0080 	add.w	r0, r0, r0, lsl #2
 8086cee:	0052      	lsls	r2, r2, #1
 8086cf0:	eb00 0080 	add.w	r0, r0, r0, lsl #2
 8086cf4:	fbb0 f6f2 	udiv	r6, r0, r2
 8086cf8:	f7fb fd8a 	bl	8082810 <HAL_RCC_GetPCLK2Freq>
 8086cfc:	6863      	ldr	r3, [r4, #4]
 8086cfe:	eb00 0080 	add.w	r0, r0, r0, lsl #2
 8086d02:	005a      	lsls	r2, r3, #1
 8086d04:	eb00 0080 	add.w	r0, r0, r0, lsl #2
 8086d08:	fbb0 f2f2 	udiv	r2, r0, r2
 8086d0c:	fba8 3202 	umull	r3, r2, r8, r2
 8086d10:	f04f 0a64 	mov.w	sl, #100	; 0x64
 8086d14:	0952      	lsrs	r2, r2, #5
 8086d16:	fb0a 6212 	mls	r2, sl, r2, r6
 8086d1a:	00d2      	lsls	r2, r2, #3
 8086d1c:	3232      	adds	r2, #50	; 0x32
 8086d1e:	fba8 3202 	umull	r3, r2, r8, r2
 8086d22:	0912      	lsrs	r2, r2, #4
 8086d24:	f402 76f8 	and.w	r6, r2, #496	; 0x1f0
 8086d28:	f7fb fd72 	bl	8082810 <HAL_RCC_GetPCLK2Freq>
 8086d2c:	6863      	ldr	r3, [r4, #4]
 8086d2e:	eb00 0080 	add.w	r0, r0, r0, lsl #2
 8086d32:	005a      	lsls	r2, r3, #1
 8086d34:	eb00 0080 	add.w	r0, r0, r0, lsl #2
 8086d38:	fbb0 f9f2 	udiv	r9, r0, r2
 8086d3c:	f7fb fd68 	bl	8082810 <HAL_RCC_GetPCLK2Freq>
 8086d40:	e762      	b.n	8086c08 <HAL_LIN_Init+0x1f0>
 8086d42:	bf00      	nop
 8086d44:	40011000 	.word	0x40011000
 8086d48:	51eb851f 	.word	0x51eb851f

08086d4c <HAL_MultiProcessor_Init>:
 8086d4c:	2800      	cmp	r0, #0
 8086d4e:	f000 811a 	beq.w	8086f86 <HAL_MultiProcessor_Init+0x23a>
 8086d52:	e92d 4ff8 	stmdb	sp!, {r3, r4, r5, r6, r7, r8, r9, sl, fp, lr}
 8086d56:	f890 3039 	ldrb.w	r3, [r0, #57]	; 0x39
 8086d5a:	4616      	mov	r6, r2
 8086d5c:	4604      	mov	r4, r0
 8086d5e:	460d      	mov	r5, r1
 8086d60:	f003 02ff 	and.w	r2, r3, #255	; 0xff
 8086d64:	2b00      	cmp	r3, #0
 8086d66:	f000 8109 	beq.w	8086f7c <HAL_MultiProcessor_Init+0x230>
 8086d6a:	6823      	ldr	r3, [r4, #0]
 8086d6c:	6927      	ldr	r7, [r4, #16]
 8086d6e:	2224      	movs	r2, #36	; 0x24
 8086d70:	f884 2039 	strb.w	r2, [r4, #57]	; 0x39
 8086d74:	68d9      	ldr	r1, [r3, #12]
 8086d76:	f421 5100 	bic.w	r1, r1, #8192	; 0x2000
 8086d7a:	e9d4 0c02 	ldrd	r0, ip, [r4, #8]
 8086d7e:	60d9      	str	r1, [r3, #12]
 8086d80:	691a      	ldr	r2, [r3, #16]
 8086d82:	6961      	ldr	r1, [r4, #20]
 8086d84:	f422 5240 	bic.w	r2, r2, #12288	; 0x3000
 8086d88:	ea42 020c 	orr.w	r2, r2, ip
 8086d8c:	611a      	str	r2, [r3, #16]
 8086d8e:	68da      	ldr	r2, [r3, #12]
 8086d90:	4338      	orrs	r0, r7
 8086d92:	69e7      	ldr	r7, [r4, #28]
 8086d94:	4308      	orrs	r0, r1
 8086d96:	f422 4216 	bic.w	r2, r2, #38400	; 0x9600
 8086d9a:	f022 020c 	bic.w	r2, r2, #12
 8086d9e:	4338      	orrs	r0, r7
 8086da0:	4310      	orrs	r0, r2
 8086da2:	60d8      	str	r0, [r3, #12]
 8086da4:	695a      	ldr	r2, [r3, #20]
 8086da6:	69a1      	ldr	r1, [r4, #24]
 8086da8:	f422 7240 	bic.w	r2, r2, #768	; 0x300
 8086dac:	430a      	orrs	r2, r1
 8086dae:	f5b7 4f00 	cmp.w	r7, #32768	; 0x8000
 8086db2:	615a      	str	r2, [r3, #20]
 8086db4:	4ab4      	ldr	r2, [pc, #720]	; (8087088 <HAL_MultiProcessor_Init+0x33c>)
 8086db6:	f000 8082 	beq.w	8086ebe <HAL_MultiProcessor_Init+0x172>
 8086dba:	4293      	cmp	r3, r2
 8086dbc:	f000 80e5 	beq.w	8086f8a <HAL_MultiProcessor_Init+0x23e>
 8086dc0:	f502 6280 	add.w	r2, r2, #1024	; 0x400
 8086dc4:	4293      	cmp	r3, r2
 8086dc6:	f000 80e0 	beq.w	8086f8a <HAL_MultiProcessor_Init+0x23e>
 8086dca:	f7fb fd11 	bl	80827f0 <HAL_RCC_GetPCLK1Freq>
 8086dce:	f8df 92bc 	ldr.w	r9, [pc, #700]	; 808708c <HAL_MultiProcessor_Init+0x340>
 8086dd2:	6862      	ldr	r2, [r4, #4]
 8086dd4:	eb00 0080 	add.w	r0, r0, r0, lsl #2
 8086dd8:	eb00 0080 	add.w	r0, r0, r0, lsl #2
 8086ddc:	0092      	lsls	r2, r2, #2
 8086dde:	fbb0 f2f2 	udiv	r2, r0, r2
 8086de2:	fba9 3202 	umull	r3, r2, r9, r2
 8086de6:	0952      	lsrs	r2, r2, #5
 8086de8:	0117      	lsls	r7, r2, #4
 8086dea:	f7fb fd01 	bl	80827f0 <HAL_RCC_GetPCLK1Freq>
 8086dee:	6863      	ldr	r3, [r4, #4]
 8086df0:	eb00 0080 	add.w	r0, r0, r0, lsl #2
 8086df4:	009a      	lsls	r2, r3, #2
 8086df6:	eb00 0080 	add.w	r0, r0, r0, lsl #2
 8086dfa:	fbb0 f8f2 	udiv	r8, r0, r2
 8086dfe:	f7fb fcf7 	bl	80827f0 <HAL_RCC_GetPCLK1Freq>
 8086e02:	6863      	ldr	r3, [r4, #4]
 8086e04:	eb00 0080 	add.w	r0, r0, r0, lsl #2
 8086e08:	009a      	lsls	r2, r3, #2
 8086e0a:	eb00 0080 	add.w	r0, r0, r0, lsl #2
 8086e0e:	fbb0 f2f2 	udiv	r2, r0, r2
 8086e12:	fba9 3202 	umull	r3, r2, r9, r2
 8086e16:	0952      	lsrs	r2, r2, #5
 8086e18:	f04f 0a64 	mov.w	sl, #100	; 0x64
 8086e1c:	fb0a 8212 	mls	r2, sl, r2, r8
 8086e20:	0112      	lsls	r2, r2, #4
 8086e22:	3232      	adds	r2, #50	; 0x32
 8086e24:	fba9 3202 	umull	r3, r2, r9, r2
 8086e28:	0952      	lsrs	r2, r2, #5
 8086e2a:	f002 08f0 	and.w	r8, r2, #240	; 0xf0
 8086e2e:	f7fb fcdf 	bl	80827f0 <HAL_RCC_GetPCLK1Freq>
 8086e32:	6863      	ldr	r3, [r4, #4]
 8086e34:	eb00 0080 	add.w	r0, r0, r0, lsl #2
 8086e38:	eb00 0080 	add.w	r0, r0, r0, lsl #2
 8086e3c:	009a      	lsls	r2, r3, #2
 8086e3e:	fbb0 fbf2 	udiv	fp, r0, r2
 8086e42:	f7fb fcd5 	bl	80827f0 <HAL_RCC_GetPCLK1Freq>
 8086e46:	e9d4 3100 	ldrd	r3, r1, [r4]
 8086e4a:	eb00 0080 	add.w	r0, r0, r0, lsl #2
 8086e4e:	008a      	lsls	r2, r1, #2
 8086e50:	eb00 0080 	add.w	r0, r0, r0, lsl #2
 8086e54:	fbb0 f2f2 	udiv	r2, r0, r2
 8086e58:	fba9 1202 	umull	r1, r2, r9, r2
 8086e5c:	0952      	lsrs	r2, r2, #5
 8086e5e:	fb0a b212 	mls	r2, sl, r2, fp
 8086e62:	0112      	lsls	r2, r2, #4
 8086e64:	3232      	adds	r2, #50	; 0x32
 8086e66:	fba9 1202 	umull	r1, r2, r9, r2
 8086e6a:	f3c2 1243 	ubfx	r2, r2, #5, #4
 8086e6e:	ea42 0208 	orr.w	r2, r2, r8
 8086e72:	443a      	add	r2, r7
 8086e74:	609a      	str	r2, [r3, #8]
 8086e76:	691a      	ldr	r2, [r3, #16]
 8086e78:	f422 4290 	bic.w	r2, r2, #18432	; 0x4800
 8086e7c:	611a      	str	r2, [r3, #16]
 8086e7e:	695a      	ldr	r2, [r3, #20]
 8086e80:	f022 022a 	bic.w	r2, r2, #42	; 0x2a
 8086e84:	615a      	str	r2, [r3, #20]
 8086e86:	691a      	ldr	r2, [r3, #16]
 8086e88:	f022 020f 	bic.w	r2, r2, #15
 8086e8c:	611a      	str	r2, [r3, #16]
 8086e8e:	6919      	ldr	r1, [r3, #16]
 8086e90:	430d      	orrs	r5, r1
 8086e92:	611d      	str	r5, [r3, #16]
 8086e94:	68da      	ldr	r2, [r3, #12]
 8086e96:	f422 6200 	bic.w	r2, r2, #2048	; 0x800
 8086e9a:	60da      	str	r2, [r3, #12]
 8086e9c:	68da      	ldr	r2, [r3, #12]
 8086e9e:	4316      	orrs	r6, r2
 8086ea0:	60de      	str	r6, [r3, #12]
 8086ea2:	68da      	ldr	r2, [r3, #12]
 8086ea4:	2500      	movs	r5, #0
 8086ea6:	2120      	movs	r1, #32
 8086ea8:	f442 5200 	orr.w	r2, r2, #8192	; 0x2000
 8086eac:	60da      	str	r2, [r3, #12]
 8086eae:	4628      	mov	r0, r5
 8086eb0:	63e5      	str	r5, [r4, #60]	; 0x3c
 8086eb2:	f884 1039 	strb.w	r1, [r4, #57]	; 0x39
 8086eb6:	f884 103a 	strb.w	r1, [r4, #58]	; 0x3a
 8086eba:	e8bd 8ff8 	ldmia.w	sp!, {r3, r4, r5, r6, r7, r8, r9, sl, fp, pc}
 8086ebe:	4293      	cmp	r3, r2
 8086ec0:	f000 80a2 	beq.w	8087008 <HAL_MultiProcessor_Init+0x2bc>
 8086ec4:	f502 6280 	add.w	r2, r2, #1024	; 0x400
 8086ec8:	4293      	cmp	r3, r2
 8086eca:	f000 809d 	beq.w	8087008 <HAL_MultiProcessor_Init+0x2bc>
 8086ece:	f7fb fc8f 	bl	80827f0 <HAL_RCC_GetPCLK1Freq>
 8086ed2:	f8df 91b8 	ldr.w	r9, [pc, #440]	; 808708c <HAL_MultiProcessor_Init+0x340>
 8086ed6:	6862      	ldr	r2, [r4, #4]
 8086ed8:	eb00 0080 	add.w	r0, r0, r0, lsl #2
 8086edc:	eb00 0080 	add.w	r0, r0, r0, lsl #2
 8086ee0:	0052      	lsls	r2, r2, #1
 8086ee2:	fbb0 f2f2 	udiv	r2, r0, r2
 8086ee6:	fba9 3202 	umull	r3, r2, r9, r2
 8086eea:	0952      	lsrs	r2, r2, #5
 8086eec:	ea4f 1802 	mov.w	r8, r2, lsl #4
 8086ef0:	f7fb fc7e 	bl	80827f0 <HAL_RCC_GetPCLK1Freq>
 8086ef4:	6863      	ldr	r3, [r4, #4]
 8086ef6:	eb00 0080 	add.w	r0, r0, r0, lsl #2
 8086efa:	005a      	lsls	r2, r3, #1
 8086efc:	eb00 0080 	add.w	r0, r0, r0, lsl #2
 8086f00:	fbb0 f7f2 	udiv	r7, r0, r2
 8086f04:	f7fb fc74 	bl	80827f0 <HAL_RCC_GetPCLK1Freq>
 8086f08:	6863      	ldr	r3, [r4, #4]
 8086f0a:	eb00 0080 	add.w	r0, r0, r0, lsl #2
 8086f0e:	005a      	lsls	r2, r3, #1
 8086f10:	eb00 0080 	add.w	r0, r0, r0, lsl #2
 8086f14:	fbb0 f2f2 	udiv	r2, r0, r2
 8086f18:	fba9 3202 	umull	r3, r2, r9, r2
 8086f1c:	0952      	lsrs	r2, r2, #5
 8086f1e:	f04f 0a64 	mov.w	sl, #100	; 0x64
 8086f22:	fb0a 7212 	mls	r2, sl, r2, r7
 8086f26:	00d2      	lsls	r2, r2, #3
 8086f28:	3232      	adds	r2, #50	; 0x32
 8086f2a:	fba9 3202 	umull	r3, r2, r9, r2
 8086f2e:	0912      	lsrs	r2, r2, #4
 8086f30:	f402 77f8 	and.w	r7, r2, #496	; 0x1f0
 8086f34:	f7fb fc5c 	bl	80827f0 <HAL_RCC_GetPCLK1Freq>
 8086f38:	6863      	ldr	r3, [r4, #4]
 8086f3a:	eb00 0080 	add.w	r0, r0, r0, lsl #2
 8086f3e:	eb00 0080 	add.w	r0, r0, r0, lsl #2
 8086f42:	005a      	lsls	r2, r3, #1
 8086f44:	fbb0 fbf2 	udiv	fp, r0, r2
 8086f48:	f7fb fc52 	bl	80827f0 <HAL_RCC_GetPCLK1Freq>
 8086f4c:	e9d4 3100 	ldrd	r3, r1, [r4]
 8086f50:	eb00 0080 	add.w	r0, r0, r0, lsl #2
 8086f54:	004a      	lsls	r2, r1, #1
 8086f56:	eb00 0080 	add.w	r0, r0, r0, lsl #2
 8086f5a:	fbb0 f2f2 	udiv	r2, r0, r2
 8086f5e:	fba9 1202 	umull	r1, r2, r9, r2
 8086f62:	0952      	lsrs	r2, r2, #5
 8086f64:	fb0a b212 	mls	r2, sl, r2, fp
 8086f68:	00d2      	lsls	r2, r2, #3
 8086f6a:	3232      	adds	r2, #50	; 0x32
 8086f6c:	fba9 1202 	umull	r1, r2, r9, r2
 8086f70:	f3c2 1242 	ubfx	r2, r2, #5, #3
 8086f74:	4442      	add	r2, r8
 8086f76:	443a      	add	r2, r7
 8086f78:	609a      	str	r2, [r3, #8]
 8086f7a:	e77c      	b.n	8086e76 <HAL_MultiProcessor_Init+0x12a>
 8086f7c:	f880 2038 	strb.w	r2, [r0, #56]	; 0x38
 8086f80:	f7fa f82e 	bl	8080fe0 <HAL_UART_MspInit>
 8086f84:	e6f1      	b.n	8086d6a <HAL_MultiProcessor_Init+0x1e>
 8086f86:	2001      	movs	r0, #1
 8086f88:	4770      	bx	lr
 8086f8a:	f7fb fc41 	bl	8082810 <HAL_RCC_GetPCLK2Freq>
 8086f8e:	f8df 90fc 	ldr.w	r9, [pc, #252]	; 808708c <HAL_MultiProcessor_Init+0x340>
 8086f92:	6862      	ldr	r2, [r4, #4]
 8086f94:	eb00 0080 	add.w	r0, r0, r0, lsl #2
 8086f98:	eb00 0080 	add.w	r0, r0, r0, lsl #2
 8086f9c:	0092      	lsls	r2, r2, #2
 8086f9e:	fbb0 f2f2 	udiv	r2, r0, r2
 8086fa2:	fba9 3202 	umull	r3, r2, r9, r2
 8086fa6:	0952      	lsrs	r2, r2, #5
 8086fa8:	0117      	lsls	r7, r2, #4
 8086faa:	f7fb fc31 	bl	8082810 <HAL_RCC_GetPCLK2Freq>
 8086fae:	6863      	ldr	r3, [r4, #4]
 8086fb0:	eb00 0080 	add.w	r0, r0, r0, lsl #2
 8086fb4:	009a      	lsls	r2, r3, #2
 8086fb6:	eb00 0080 	add.w	r0, r0, r0, lsl #2
 8086fba:	fbb0 f8f2 	udiv	r8, r0, r2
 8086fbe:	f7fb fc27 	bl	8082810 <HAL_RCC_GetPCLK2Freq>
 8086fc2:	6863      	ldr	r3, [r4, #4]
 8086fc4:	eb00 0080 	add.w	r0, r0, r0, lsl #2
 8086fc8:	009a      	lsls	r2, r3, #2
 8086fca:	eb00 0080 	add.w	r0, r0, r0, lsl #2
 8086fce:	fbb0 f2f2 	udiv	r2, r0, r2
 8086fd2:	fba9 3202 	umull	r3, r2, r9, r2
 8086fd6:	f04f 0a64 	mov.w	sl, #100	; 0x64
 8086fda:	0952      	lsrs	r2, r2, #5
 8086fdc:	fb0a 8212 	mls	r2, sl, r2, r8
 8086fe0:	0112      	lsls	r2, r2, #4
 8086fe2:	3232      	adds	r2, #50	; 0x32
 8086fe4:	fba9 3202 	umull	r3, r2, r9, r2
 8086fe8:	0952      	lsrs	r2, r2, #5
 8086fea:	f002 08f0 	and.w	r8, r2, #240	; 0xf0
 8086fee:	f7fb fc0f 	bl	8082810 <HAL_RCC_GetPCLK2Freq>
 8086ff2:	6863      	ldr	r3, [r4, #4]
 8086ff4:	eb00 0080 	add.w	r0, r0, r0, lsl #2
 8086ff8:	009a      	lsls	r2, r3, #2
 8086ffa:	eb00 0080 	add.w	r0, r0, r0, lsl #2
 8086ffe:	fbb0 fbf2 	udiv	fp, r0, r2
 8087002:	f7fb fc05 	bl	8082810 <HAL_RCC_GetPCLK2Freq>
 8087006:	e71e      	b.n	8086e46 <HAL_MultiProcessor_Init+0xfa>
 8087008:	f7fb fc02 	bl	8082810 <HAL_RCC_GetPCLK2Freq>
 808700c:	f8df 907c 	ldr.w	r9, [pc, #124]	; 808708c <HAL_MultiProcessor_Init+0x340>
 8087010:	6862      	ldr	r2, [r4, #4]
 8087012:	eb00 0080 	add.w	r0, r0, r0, lsl #2
 8087016:	eb00 0080 	add.w	r0, r0, r0, lsl #2
 808701a:	0052      	lsls	r2, r2, #1
 808701c:	fbb0 f2f2 	udiv	r2, r0, r2
 8087020:	fba9 3202 	umull	r3, r2, r9, r2
 8087024:	0952      	lsrs	r2, r2, #5
 8087026:	ea4f 1802 	mov.w	r8, r2, lsl #4
 808702a:	f7fb fbf1 	bl	8082810 <HAL_RCC_GetPCLK2Freq>
 808702e:	6863      	ldr	r3, [r4, #4]
 8087030:	eb00 0080 	add.w	r0, r0, r0, lsl #2
 8087034:	005a      	lsls	r2, r3, #1
 8087036:	eb00 0080 	add.w	r0, r0, r0, lsl #2
 808703a:	fbb0 f7f2 	udiv	r7, r0, r2
 808703e:	f7fb fbe7 	bl	8082810 <HAL_RCC_GetPCLK2Freq>
 8087042:	6863      	ldr	r3, [r4, #4]
 8087044:	eb00 0080 	add.w	r0, r0, r0, lsl #2
 8087048:	005a      	lsls	r2, r3, #1
 808704a:	eb00 0080 	add.w	r0, r0, r0, lsl #2
 808704e:	fbb0 f2f2 	udiv	r2, r0, r2
 8087052:	fba9 3202 	umull	r3, r2, r9, r2
 8087056:	f04f 0a64 	mov.w	sl, #100	; 0x64
 808705a:	0952      	lsrs	r2, r2, #5
 808705c:	fb0a 7212 	mls	r2, sl, r2, r7
 8087060:	00d2      	lsls	r2, r2, #3
 8087062:	3232      	adds	r2, #50	; 0x32
 8087064:	fba9 3202 	umull	r3, r2, r9, r2
 8087068:	0912      	lsrs	r2, r2, #4
 808706a:	f402 77f8 	and.w	r7, r2, #496	; 0x1f0
 808706e:	f7fb fbcf 	bl	8082810 <HAL_RCC_GetPCLK2Freq>
 8087072:	6863      	ldr	r3, [r4, #4]
 8087074:	eb00 0080 	add.w	r0, r0, r0, lsl #2
 8087078:	005a      	lsls	r2, r3, #1
 808707a:	eb00 0080 	add.w	r0, r0, r0, lsl #2
 808707e:	fbb0 fbf2 	udiv	fp, r0, r2
 8087082:	f7fb fbc5 	bl	8082810 <HAL_RCC_GetPCLK2Freq>
 8087086:	e761      	b.n	8086f4c <HAL_MultiProcessor_Init+0x200>
 8087088:	40011000 	.word	0x40011000
 808708c:	51eb851f 	.word	0x51eb851f
 8087090:	4770      	bx	lr
 8087092:	bf00      	nop

08087094 <HAL_UART_DeInit>:
 8087094:	b1a8      	cbz	r0, 80870c2 <HAL_UART_DeInit+0x2e>
 8087096:	6802      	ldr	r2, [r0, #0]
 8087098:	2324      	movs	r3, #36	; 0x24
 808709a:	b510      	push	{r4, lr}
 808709c:	f880 3039 	strb.w	r3, [r0, #57]	; 0x39
 80870a0:	68d3      	ldr	r3, [r2, #12]
 80870a2:	f423 5300 	bic.w	r3, r3, #8192	; 0x2000
 80870a6:	4604      	mov	r4, r0
 80870a8:	60d3      	str	r3, [r2, #12]
 80870aa:	f7f9 fff5 	bl	8081098 <HAL_UART_MspDeInit>
 80870ae:	2300      	movs	r3, #0
 80870b0:	63e3      	str	r3, [r4, #60]	; 0x3c
 80870b2:	f884 3038 	strb.w	r3, [r4, #56]	; 0x38
 80870b6:	f884 3039 	strb.w	r3, [r4, #57]	; 0x39
 80870ba:	4618      	mov	r0, r3
 80870bc:	f884 303a 	strb.w	r3, [r4, #58]	; 0x3a
 80870c0:	bd10      	pop	{r4, pc}
 80870c2:	2001      	movs	r0, #1
 80870c4:	4770      	bx	lr
 80870c6:	bf00      	nop

080870c8 <HAL_UART_Transmit>:
 80870c8:	b5f0      	push	{r4, r5, r6, r7, lr}
 80870ca:	460e      	mov	r6, r1
 80870cc:	f890 1039 	ldrb.w	r1, [r0, #57]	; 0x39
 80870d0:	2920      	cmp	r1, #32
 80870d2:	b083      	sub	sp, #12
 80870d4:	d12d      	bne.n	8087132 <HAL_UART_Transmit+0x6a>
 80870d6:	2e00      	cmp	r6, #0
 80870d8:	d02e      	beq.n	8087138 <HAL_UART_Transmit+0x70>
 80870da:	9201      	str	r2, [sp, #4]
 80870dc:	b362      	cbz	r2, 8087138 <HAL_UART_Transmit+0x70>
 80870de:	461f      	mov	r7, r3
 80870e0:	f890 3038 	ldrb.w	r3, [r0, #56]	; 0x38
 80870e4:	2b01      	cmp	r3, #1
 80870e6:	4604      	mov	r4, r0
 80870e8:	d023      	beq.n	8087132 <HAL_UART_Transmit+0x6a>
 80870ea:	2300      	movs	r3, #0
 80870ec:	63c3      	str	r3, [r0, #60]	; 0x3c
 80870ee:	2101      	movs	r1, #1
 80870f0:	2321      	movs	r3, #33	; 0x21
 80870f2:	f880 1038 	strb.w	r1, [r0, #56]	; 0x38
 80870f6:	f880 3039 	strb.w	r3, [r0, #57]	; 0x39
 80870fa:	f7fa f853 	bl	80811a4 <HAL_GetTick>
 80870fe:	9a01      	ldr	r2, [sp, #4]
 8087100:	84a2      	strh	r2, [r4, #36]	; 0x24
 8087102:	84e2      	strh	r2, [r4, #38]	; 0x26
 8087104:	6822      	ldr	r2, [r4, #0]
 8087106:	4605      	mov	r5, r0
 8087108:	8ce3      	ldrh	r3, [r4, #38]	; 0x26
 808710a:	b29b      	uxth	r3, r3
 808710c:	2b00      	cmp	r3, #0
 808710e:	d039      	beq.n	8087184 <HAL_UART_Transmit+0xbc>
 8087110:	8ce0      	ldrh	r0, [r4, #38]	; 0x26
 8087112:	68a1      	ldr	r1, [r4, #8]
 8087114:	3801      	subs	r0, #1
 8087116:	b280      	uxth	r0, r0
 8087118:	f5b1 5f80 	cmp.w	r1, #4096	; 0x1000
 808711c:	84e0      	strh	r0, [r4, #38]	; 0x26
 808711e:	d019      	beq.n	8087154 <HAL_UART_Transmit+0x8c>
 8087120:	1c78      	adds	r0, r7, #1
 8087122:	d13b      	bne.n	808719c <HAL_UART_Transmit+0xd4>
 8087124:	6810      	ldr	r0, [r2, #0]
 8087126:	0601      	lsls	r1, r0, #24
 8087128:	d5fc      	bpl.n	8087124 <HAL_UART_Transmit+0x5c>
 808712a:	7833      	ldrb	r3, [r6, #0]
 808712c:	6053      	str	r3, [r2, #4]
 808712e:	3601      	adds	r6, #1
 8087130:	e7ea      	b.n	8087108 <HAL_UART_Transmit+0x40>
 8087132:	2002      	movs	r0, #2
 8087134:	b003      	add	sp, #12
 8087136:	bdf0      	pop	{r4, r5, r6, r7, pc}
 8087138:	2001      	movs	r0, #1
 808713a:	b003      	add	sp, #12
 808713c:	bdf0      	pop	{r4, r5, r6, r7, pc}
 808713e:	6813      	ldr	r3, [r2, #0]
 8087140:	061b      	lsls	r3, r3, #24
 8087142:	d40c      	bmi.n	808715e <HAL_UART_Transmit+0x96>
 8087144:	2f00      	cmp	r7, #0
 8087146:	d033      	beq.n	80871b0 <HAL_UART_Transmit+0xe8>
 8087148:	f7fa f82c 	bl	80811a4 <HAL_GetTick>
 808714c:	1b40      	subs	r0, r0, r5
 808714e:	4287      	cmp	r7, r0
 8087150:	6822      	ldr	r2, [r4, #0]
 8087152:	d32d      	bcc.n	80871b0 <HAL_UART_Transmit+0xe8>
 8087154:	1c78      	adds	r0, r7, #1
 8087156:	d1f2      	bne.n	808713e <HAL_UART_Transmit+0x76>
 8087158:	6810      	ldr	r0, [r2, #0]
 808715a:	0601      	lsls	r1, r0, #24
 808715c:	d5fc      	bpl.n	8087158 <HAL_UART_Transmit+0x90>
 808715e:	8833      	ldrh	r3, [r6, #0]
 8087160:	6921      	ldr	r1, [r4, #16]
 8087162:	f3c3 0308 	ubfx	r3, r3, #0, #9
 8087166:	6053      	str	r3, [r2, #4]
 8087168:	2900      	cmp	r1, #0
 808716a:	d1e0      	bne.n	808712e <HAL_UART_Transmit+0x66>
 808716c:	3602      	adds	r6, #2
 808716e:	e7cb      	b.n	8087108 <HAL_UART_Transmit+0x40>
 8087170:	6813      	ldr	r3, [r2, #0]
 8087172:	065b      	lsls	r3, r3, #25
 8087174:	d40b      	bmi.n	808718e <HAL_UART_Transmit+0xc6>
 8087176:	b1df      	cbz	r7, 80871b0 <HAL_UART_Transmit+0xe8>
 8087178:	f7fa f814 	bl	80811a4 <HAL_GetTick>
 808717c:	1b40      	subs	r0, r0, r5
 808717e:	4287      	cmp	r7, r0
 8087180:	6822      	ldr	r2, [r4, #0]
 8087182:	d315      	bcc.n	80871b0 <HAL_UART_Transmit+0xe8>
 8087184:	1c78      	adds	r0, r7, #1
 8087186:	d1f3      	bne.n	8087170 <HAL_UART_Transmit+0xa8>
 8087188:	6813      	ldr	r3, [r2, #0]
 808718a:	0659      	lsls	r1, r3, #25
 808718c:	d5fc      	bpl.n	8087188 <HAL_UART_Transmit+0xc0>
 808718e:	2320      	movs	r3, #32
 8087190:	2000      	movs	r0, #0
 8087192:	f884 3039 	strb.w	r3, [r4, #57]	; 0x39
 8087196:	f884 0038 	strb.w	r0, [r4, #56]	; 0x38
 808719a:	e7cb      	b.n	8087134 <HAL_UART_Transmit+0x6c>
 808719c:	6813      	ldr	r3, [r2, #0]
 808719e:	061b      	lsls	r3, r3, #24
 80871a0:	d4c3      	bmi.n	808712a <HAL_UART_Transmit+0x62>
 80871a2:	b12f      	cbz	r7, 80871b0 <HAL_UART_Transmit+0xe8>
 80871a4:	f7f9 fffe 	bl	80811a4 <HAL_GetTick>
 80871a8:	1b40      	subs	r0, r0, r5
 80871aa:	4287      	cmp	r7, r0
 80871ac:	6822      	ldr	r2, [r4, #0]
 80871ae:	d2b7      	bcs.n	8087120 <HAL_UART_Transmit+0x58>
 80871b0:	68d3      	ldr	r3, [r2, #12]
 80871b2:	f423 73d0 	bic.w	r3, r3, #416	; 0x1a0
 80871b6:	60d3      	str	r3, [r2, #12]
 80871b8:	6953      	ldr	r3, [r2, #20]
 80871ba:	2120      	movs	r1, #32
 80871bc:	f023 0301 	bic.w	r3, r3, #1
 80871c0:	2500      	movs	r5, #0
 80871c2:	2003      	movs	r0, #3
 80871c4:	6153      	str	r3, [r2, #20]
 80871c6:	f884 1039 	strb.w	r1, [r4, #57]	; 0x39
 80871ca:	f884 5038 	strb.w	r5, [r4, #56]	; 0x38
 80871ce:	f884 103a 	strb.w	r1, [r4, #58]	; 0x3a
 80871d2:	b003      	add	sp, #12
 80871d4:	bdf0      	pop	{r4, r5, r6, r7, pc}
 80871d6:	bf00      	nop

080871d8 <HAL_UART_Receive>:
 80871d8:	b5f0      	push	{r4, r5, r6, r7, lr}
 80871da:	460e      	mov	r6, r1
 80871dc:	f890 103a 	ldrb.w	r1, [r0, #58]	; 0x3a
 80871e0:	2920      	cmp	r1, #32
 80871e2:	b083      	sub	sp, #12
 80871e4:	d132      	bne.n	808724c <HAL_UART_Receive+0x74>
 80871e6:	2e00      	cmp	r6, #0
 80871e8:	d033      	beq.n	8087252 <HAL_UART_Receive+0x7a>
 80871ea:	9201      	str	r2, [sp, #4]
 80871ec:	2a00      	cmp	r2, #0
 80871ee:	d030      	beq.n	8087252 <HAL_UART_Receive+0x7a>
 80871f0:	461f      	mov	r7, r3
 80871f2:	f890 3038 	ldrb.w	r3, [r0, #56]	; 0x38
 80871f6:	2b01      	cmp	r3, #1
 80871f8:	4604      	mov	r4, r0
 80871fa:	d027      	beq.n	808724c <HAL_UART_Receive+0x74>
 80871fc:	2300      	movs	r3, #0
 80871fe:	63c3      	str	r3, [r0, #60]	; 0x3c
 8087200:	2101      	movs	r1, #1
 8087202:	2322      	movs	r3, #34	; 0x22
 8087204:	f880 1038 	strb.w	r1, [r0, #56]	; 0x38
 8087208:	f880 303a 	strb.w	r3, [r0, #58]	; 0x3a
 808720c:	f7f9 ffca 	bl	80811a4 <HAL_GetTick>
 8087210:	9a01      	ldr	r2, [sp, #4]
 8087212:	85a2      	strh	r2, [r4, #44]	; 0x2c
 8087214:	4605      	mov	r5, r0
 8087216:	85e2      	strh	r2, [r4, #46]	; 0x2e
 8087218:	8de0      	ldrh	r0, [r4, #46]	; 0x2e
 808721a:	b280      	uxth	r0, r0
 808721c:	2800      	cmp	r0, #0
 808721e:	d059      	beq.n	80872d4 <HAL_UART_Receive+0xfc>
 8087220:	8de2      	ldrh	r2, [r4, #46]	; 0x2e
 8087222:	68a3      	ldr	r3, [r4, #8]
 8087224:	3a01      	subs	r2, #1
 8087226:	b292      	uxth	r2, r2
 8087228:	f5b3 5f80 	cmp.w	r3, #4096	; 0x1000
 808722c:	85e2      	strh	r2, [r4, #46]	; 0x2e
 808722e:	d01d      	beq.n	808726c <HAL_UART_Receive+0x94>
 8087230:	1c79      	adds	r1, r7, #1
 8087232:	6820      	ldr	r0, [r4, #0]
 8087234:	d128      	bne.n	8087288 <HAL_UART_Receive+0xb0>
 8087236:	6802      	ldr	r2, [r0, #0]
 8087238:	0692      	lsls	r2, r2, #26
 808723a:	d5fc      	bpl.n	8087236 <HAL_UART_Receive+0x5e>
 808723c:	6923      	ldr	r3, [r4, #16]
 808723e:	1c72      	adds	r2, r6, #1
 8087240:	2b00      	cmp	r3, #0
 8087242:	d13d      	bne.n	80872c0 <HAL_UART_Receive+0xe8>
 8087244:	6843      	ldr	r3, [r0, #4]
 8087246:	7033      	strb	r3, [r6, #0]
 8087248:	4616      	mov	r6, r2
 808724a:	e7e5      	b.n	8087218 <HAL_UART_Receive+0x40>
 808724c:	2002      	movs	r0, #2
 808724e:	b003      	add	sp, #12
 8087250:	bdf0      	pop	{r4, r5, r6, r7, pc}
 8087252:	2001      	movs	r0, #1
 8087254:	b003      	add	sp, #12
 8087256:	bdf0      	pop	{r4, r5, r6, r7, pc}
 8087258:	681a      	ldr	r2, [r3, #0]
 808725a:	0690      	lsls	r0, r2, #26
 808725c:	d40c      	bmi.n	8087278 <HAL_UART_Receive+0xa0>
 808725e:	2f00      	cmp	r7, #0
 8087260:	d03f      	beq.n	80872e2 <HAL_UART_Receive+0x10a>
 8087262:	f7f9 ff9f 	bl	80811a4 <HAL_GetTick>
 8087266:	1b40      	subs	r0, r0, r5
 8087268:	4287      	cmp	r7, r0
 808726a:	d339      	bcc.n	80872e0 <HAL_UART_Receive+0x108>
 808726c:	1c79      	adds	r1, r7, #1
 808726e:	6823      	ldr	r3, [r4, #0]
 8087270:	d1f2      	bne.n	8087258 <HAL_UART_Receive+0x80>
 8087272:	681a      	ldr	r2, [r3, #0]
 8087274:	0692      	lsls	r2, r2, #26
 8087276:	d5fc      	bpl.n	8087272 <HAL_UART_Receive+0x9a>
 8087278:	6922      	ldr	r2, [r4, #16]
 808727a:	685b      	ldr	r3, [r3, #4]
 808727c:	bb32      	cbnz	r2, 80872cc <HAL_UART_Receive+0xf4>
 808727e:	f3c3 0308 	ubfx	r3, r3, #0, #9
 8087282:	f826 3b02 	strh.w	r3, [r6], #2
 8087286:	e7c7      	b.n	8087218 <HAL_UART_Receive+0x40>
 8087288:	6803      	ldr	r3, [r0, #0]
 808728a:	069b      	lsls	r3, r3, #26
 808728c:	d4d6      	bmi.n	808723c <HAL_UART_Receive+0x64>
 808728e:	b12f      	cbz	r7, 808729c <HAL_UART_Receive+0xc4>
 8087290:	f7f9 ff88 	bl	80811a4 <HAL_GetTick>
 8087294:	1b40      	subs	r0, r0, r5
 8087296:	4287      	cmp	r7, r0
 8087298:	d2ca      	bcs.n	8087230 <HAL_UART_Receive+0x58>
 808729a:	6820      	ldr	r0, [r4, #0]
 808729c:	68c3      	ldr	r3, [r0, #12]
 808729e:	f423 73d0 	bic.w	r3, r3, #416	; 0x1a0
 80872a2:	60c3      	str	r3, [r0, #12]
 80872a4:	6943      	ldr	r3, [r0, #20]
 80872a6:	2220      	movs	r2, #32
 80872a8:	f023 0301 	bic.w	r3, r3, #1
 80872ac:	2100      	movs	r1, #0
 80872ae:	6143      	str	r3, [r0, #20]
 80872b0:	f884 2039 	strb.w	r2, [r4, #57]	; 0x39
 80872b4:	2003      	movs	r0, #3
 80872b6:	f884 1038 	strb.w	r1, [r4, #56]	; 0x38
 80872ba:	f884 203a 	strb.w	r2, [r4, #58]	; 0x3a
 80872be:	e7c6      	b.n	808724e <HAL_UART_Receive+0x76>
 80872c0:	6843      	ldr	r3, [r0, #4]
 80872c2:	f003 037f 	and.w	r3, r3, #127	; 0x7f
 80872c6:	7033      	strb	r3, [r6, #0]
 80872c8:	4616      	mov	r6, r2
 80872ca:	e7a5      	b.n	8087218 <HAL_UART_Receive+0x40>
 80872cc:	b2db      	uxtb	r3, r3
 80872ce:	f826 3b01 	strh.w	r3, [r6], #1
 80872d2:	e7a1      	b.n	8087218 <HAL_UART_Receive+0x40>
 80872d4:	2320      	movs	r3, #32
 80872d6:	f884 0038 	strb.w	r0, [r4, #56]	; 0x38
 80872da:	f884 303a 	strb.w	r3, [r4, #58]	; 0x3a
 80872de:	e7b6      	b.n	808724e <HAL_UART_Receive+0x76>
 80872e0:	6823      	ldr	r3, [r4, #0]
 80872e2:	68da      	ldr	r2, [r3, #12]
 80872e4:	f422 72d0 	bic.w	r2, r2, #416	; 0x1a0
 80872e8:	60da      	str	r2, [r3, #12]
 80872ea:	695a      	ldr	r2, [r3, #20]
 80872ec:	2120      	movs	r1, #32
 80872ee:	f022 0201 	bic.w	r2, r2, #1
 80872f2:	2500      	movs	r5, #0
 80872f4:	615a      	str	r2, [r3, #20]
 80872f6:	2003      	movs	r0, #3
 80872f8:	f884 1039 	strb.w	r1, [r4, #57]	; 0x39
 80872fc:	f884 5038 	strb.w	r5, [r4, #56]	; 0x38
 8087300:	f884 103a 	strb.w	r1, [r4, #58]	; 0x3a
 8087304:	e7a3      	b.n	808724e <HAL_UART_Receive+0x76>
 8087306:	bf00      	nop

08087308 <HAL_UART_Transmit_IT>:
 8087308:	f890 3039 	ldrb.w	r3, [r0, #57]	; 0x39
 808730c:	2b20      	cmp	r3, #32
 808730e:	d118      	bne.n	8087342 <HAL_UART_Transmit_IT+0x3a>
 8087310:	b1c9      	cbz	r1, 8087346 <HAL_UART_Transmit_IT+0x3e>
 8087312:	b1c2      	cbz	r2, 8087346 <HAL_UART_Transmit_IT+0x3e>
 8087314:	f890 3038 	ldrb.w	r3, [r0, #56]	; 0x38
 8087318:	2b01      	cmp	r3, #1
 808731a:	d012      	beq.n	8087342 <HAL_UART_Transmit_IT+0x3a>
 808731c:	b430      	push	{r4, r5}
 808731e:	2300      	movs	r3, #0
 8087320:	6805      	ldr	r5, [r0, #0]
 8087322:	84c2      	strh	r2, [r0, #38]	; 0x26
 8087324:	2421      	movs	r4, #33	; 0x21
 8087326:	63c3      	str	r3, [r0, #60]	; 0x3c
 8087328:	f880 4039 	strb.w	r4, [r0, #57]	; 0x39
 808732c:	68ec      	ldr	r4, [r5, #12]
 808732e:	6201      	str	r1, [r0, #32]
 8087330:	f044 0480 	orr.w	r4, r4, #128	; 0x80
 8087334:	8482      	strh	r2, [r0, #36]	; 0x24
 8087336:	f880 3038 	strb.w	r3, [r0, #56]	; 0x38
 808733a:	4618      	mov	r0, r3
 808733c:	60ec      	str	r4, [r5, #12]
 808733e:	bc30      	pop	{r4, r5}
 8087340:	4770      	bx	lr
 8087342:	2002      	movs	r0, #2
 8087344:	4770      	bx	lr
 8087346:	2001      	movs	r0, #1
 8087348:	4770      	bx	lr
 808734a:	bf00      	nop

0808734c <HAL_UART_Receive_IT>:
 808734c:	f890 303a 	ldrb.w	r3, [r0, #58]	; 0x3a
 8087350:	2b20      	cmp	r3, #32
 8087352:	d120      	bne.n	8087396 <HAL_UART_Receive_IT+0x4a>
 8087354:	b309      	cbz	r1, 808739a <HAL_UART_Receive_IT+0x4e>
 8087356:	b302      	cbz	r2, 808739a <HAL_UART_Receive_IT+0x4e>
 8087358:	f890 3038 	ldrb.w	r3, [r0, #56]	; 0x38
 808735c:	2b01      	cmp	r3, #1
 808735e:	d01a      	beq.n	8087396 <HAL_UART_Receive_IT+0x4a>
 8087360:	b430      	push	{r4, r5}
 8087362:	2300      	movs	r3, #0
 8087364:	6804      	ldr	r4, [r0, #0]
 8087366:	85c2      	strh	r2, [r0, #46]	; 0x2e
 8087368:	2522      	movs	r5, #34	; 0x22
 808736a:	63c3      	str	r3, [r0, #60]	; 0x3c
 808736c:	f880 503a 	strb.w	r5, [r0, #58]	; 0x3a
 8087370:	68e5      	ldr	r5, [r4, #12]
 8087372:	8582      	strh	r2, [r0, #44]	; 0x2c
 8087374:	f445 7580 	orr.w	r5, r5, #256	; 0x100
 8087378:	6281      	str	r1, [r0, #40]	; 0x28
 808737a:	f880 3038 	strb.w	r3, [r0, #56]	; 0x38
 808737e:	60e5      	str	r5, [r4, #12]
 8087380:	6962      	ldr	r2, [r4, #20]
 8087382:	f042 0201 	orr.w	r2, r2, #1
 8087386:	6162      	str	r2, [r4, #20]
 8087388:	68e2      	ldr	r2, [r4, #12]
 808738a:	f042 0220 	orr.w	r2, r2, #32
 808738e:	4618      	mov	r0, r3
 8087390:	60e2      	str	r2, [r4, #12]
 8087392:	bc30      	pop	{r4, r5}
 8087394:	4770      	bx	lr
 8087396:	2002      	movs	r0, #2
 8087398:	4770      	bx	lr
 808739a:	2001      	movs	r0, #1
 808739c:	4770      	bx	lr
 808739e:	bf00      	nop

080873a0 <HAL_UART_Transmit_DMA>:
 80873a0:	f890 3039 	ldrb.w	r3, [r0, #57]	; 0x39
 80873a4:	2b20      	cmp	r3, #32
 80873a6:	d12d      	bne.n	8087404 <HAL_UART_Transmit_DMA+0x64>
 80873a8:	b570      	push	{r4, r5, r6, lr}
 80873aa:	b349      	cbz	r1, 8087400 <HAL_UART_Transmit_DMA+0x60>
 80873ac:	b342      	cbz	r2, 8087400 <HAL_UART_Transmit_DMA+0x60>
 80873ae:	f890 3038 	ldrb.w	r3, [r0, #56]	; 0x38
 80873b2:	2b01      	cmp	r3, #1
 80873b4:	d028      	beq.n	8087408 <HAL_UART_Transmit_DMA+0x68>
 80873b6:	4604      	mov	r4, r0
 80873b8:	2601      	movs	r6, #1
 80873ba:	6b00      	ldr	r0, [r0, #48]	; 0x30
 80873bc:	f884 6038 	strb.w	r6, [r4, #56]	; 0x38
 80873c0:	4613      	mov	r3, r2
 80873c2:	2500      	movs	r5, #0
 80873c4:	2621      	movs	r6, #33	; 0x21
 80873c6:	84e3      	strh	r3, [r4, #38]	; 0x26
 80873c8:	63e5      	str	r5, [r4, #60]	; 0x3c
 80873ca:	f884 6039 	strb.w	r6, [r4, #57]	; 0x39
 80873ce:	4e0f      	ldr	r6, [pc, #60]	; (808740c <HAL_UART_Transmit_DMA+0x6c>)
 80873d0:	6822      	ldr	r2, [r4, #0]
 80873d2:	84a3      	strh	r3, [r4, #36]	; 0x24
 80873d4:	6221      	str	r1, [r4, #32]
 80873d6:	63c6      	str	r6, [r0, #60]	; 0x3c
 80873d8:	4e0d      	ldr	r6, [pc, #52]	; (8087410 <HAL_UART_Transmit_DMA+0x70>)
 80873da:	6406      	str	r6, [r0, #64]	; 0x40
 80873dc:	4e0d      	ldr	r6, [pc, #52]	; (8087414 <HAL_UART_Transmit_DMA+0x74>)
 80873de:	6505      	str	r5, [r0, #80]	; 0x50
 80873e0:	64c6      	str	r6, [r0, #76]	; 0x4c
 80873e2:	3204      	adds	r2, #4
 80873e4:	f7fa fa08 	bl	80817f8 <HAL_DMA_Start_IT>
 80873e8:	6823      	ldr	r3, [r4, #0]
 80873ea:	f06f 0240 	mvn.w	r2, #64	; 0x40
 80873ee:	601a      	str	r2, [r3, #0]
 80873f0:	695a      	ldr	r2, [r3, #20]
 80873f2:	f884 5038 	strb.w	r5, [r4, #56]	; 0x38
 80873f6:	f042 0280 	orr.w	r2, r2, #128	; 0x80
 80873fa:	4628      	mov	r0, r5
 80873fc:	615a      	str	r2, [r3, #20]
 80873fe:	bd70      	pop	{r4, r5, r6, pc}
 8087400:	2001      	movs	r0, #1
 8087402:	bd70      	pop	{r4, r5, r6, pc}
 8087404:	2002      	movs	r0, #2
 8087406:	4770      	bx	lr
 8087408:	2002      	movs	r0, #2
 808740a:	bd70      	pop	{r4, r5, r6, pc}
 808740c:	0808771d 	.word	0x0808771d
 8087410:	0808774d 	.word	0x0808774d
 8087414:	08087815 	.word	0x08087815

08087418 <HAL_UART_Receive_DMA>:
 8087418:	b570      	push	{r4, r5, r6, lr}
 808741a:	f890 403a 	ldrb.w	r4, [r0, #58]	; 0x3a
 808741e:	2c20      	cmp	r4, #32
 8087420:	b082      	sub	sp, #8
 8087422:	d138      	bne.n	8087496 <HAL_UART_Receive_DMA+0x7e>
 8087424:	2900      	cmp	r1, #0
 8087426:	d039      	beq.n	808749c <HAL_UART_Receive_DMA+0x84>
 8087428:	2a00      	cmp	r2, #0
 808742a:	d037      	beq.n	808749c <HAL_UART_Receive_DMA+0x84>
 808742c:	f890 3038 	ldrb.w	r3, [r0, #56]	; 0x38
 8087430:	2b01      	cmp	r3, #1
 8087432:	d030      	beq.n	8087496 <HAL_UART_Receive_DMA+0x7e>
 8087434:	4604      	mov	r4, r0
 8087436:	2601      	movs	r6, #1
 8087438:	6b40      	ldr	r0, [r0, #52]	; 0x34
 808743a:	f884 6038 	strb.w	r6, [r4, #56]	; 0x38
 808743e:	2500      	movs	r5, #0
 8087440:	2622      	movs	r6, #34	; 0x22
 8087442:	63e5      	str	r5, [r4, #60]	; 0x3c
 8087444:	4613      	mov	r3, r2
 8087446:	f884 603a 	strb.w	r6, [r4, #58]	; 0x3a
 808744a:	460a      	mov	r2, r1
 808744c:	4e15      	ldr	r6, [pc, #84]	; (80874a4 <HAL_UART_Receive_DMA+0x8c>)
 808744e:	6821      	ldr	r1, [r4, #0]
 8087450:	62a2      	str	r2, [r4, #40]	; 0x28
 8087452:	85a3      	strh	r3, [r4, #44]	; 0x2c
 8087454:	63c6      	str	r6, [r0, #60]	; 0x3c
 8087456:	4e14      	ldr	r6, [pc, #80]	; (80874a8 <HAL_UART_Receive_DMA+0x90>)
 8087458:	6406      	str	r6, [r0, #64]	; 0x40
 808745a:	4e14      	ldr	r6, [pc, #80]	; (80874ac <HAL_UART_Receive_DMA+0x94>)
 808745c:	6505      	str	r5, [r0, #80]	; 0x50
 808745e:	64c6      	str	r6, [r0, #76]	; 0x4c
 8087460:	3104      	adds	r1, #4
 8087462:	f7fa f9c9 	bl	80817f8 <HAL_DMA_Start_IT>
 8087466:	6823      	ldr	r3, [r4, #0]
 8087468:	9501      	str	r5, [sp, #4]
 808746a:	681a      	ldr	r2, [r3, #0]
 808746c:	9201      	str	r2, [sp, #4]
 808746e:	685a      	ldr	r2, [r3, #4]
 8087470:	9201      	str	r2, [sp, #4]
 8087472:	9a01      	ldr	r2, [sp, #4]
 8087474:	68da      	ldr	r2, [r3, #12]
 8087476:	f884 5038 	strb.w	r5, [r4, #56]	; 0x38
 808747a:	f442 7280 	orr.w	r2, r2, #256	; 0x100
 808747e:	60da      	str	r2, [r3, #12]
 8087480:	695a      	ldr	r2, [r3, #20]
 8087482:	f042 0201 	orr.w	r2, r2, #1
 8087486:	615a      	str	r2, [r3, #20]
 8087488:	695a      	ldr	r2, [r3, #20]
 808748a:	4628      	mov	r0, r5
 808748c:	f042 0240 	orr.w	r2, r2, #64	; 0x40
 8087490:	615a      	str	r2, [r3, #20]
 8087492:	b002      	add	sp, #8
 8087494:	bd70      	pop	{r4, r5, r6, pc}
 8087496:	2002      	movs	r0, #2
 8087498:	b002      	add	sp, #8
 808749a:	bd70      	pop	{r4, r5, r6, pc}
 808749c:	2001      	movs	r0, #1
 808749e:	b002      	add	sp, #8
 80874a0:	bd70      	pop	{r4, r5, r6, pc}
 80874a2:	bf00      	nop
 80874a4:	0808775d 	.word	0x0808775d
 80874a8:	08087805 	.word	0x08087805
 80874ac:	08087815 	.word	0x08087815

080874b0 <HAL_UART_DMAPause>:
 80874b0:	f890 3038 	ldrb.w	r3, [r0, #56]	; 0x38
 80874b4:	2b01      	cmp	r3, #1
 80874b6:	d02f      	beq.n	8087518 <HAL_UART_DMAPause+0x68>
 80874b8:	6803      	ldr	r3, [r0, #0]
 80874ba:	b410      	push	{r4}
 80874bc:	695c      	ldr	r4, [r3, #20]
 80874be:	f890 2039 	ldrb.w	r2, [r0, #57]	; 0x39
 80874c2:	2101      	movs	r1, #1
 80874c4:	2a21      	cmp	r2, #33	; 0x21
 80874c6:	f880 1038 	strb.w	r1, [r0, #56]	; 0x38
 80874ca:	d00b      	beq.n	80874e4 <HAL_UART_DMAPause+0x34>
 80874cc:	6959      	ldr	r1, [r3, #20]
 80874ce:	f890 203a 	ldrb.w	r2, [r0, #58]	; 0x3a
 80874d2:	2a22      	cmp	r2, #34	; 0x22
 80874d4:	d011      	beq.n	80874fa <HAL_UART_DMAPause+0x4a>
 80874d6:	2300      	movs	r3, #0
 80874d8:	f880 3038 	strb.w	r3, [r0, #56]	; 0x38
 80874dc:	f85d 4b04 	ldr.w	r4, [sp], #4
 80874e0:	4618      	mov	r0, r3
 80874e2:	4770      	bx	lr
 80874e4:	0621      	lsls	r1, r4, #24
 80874e6:	d5f1      	bpl.n	80874cc <HAL_UART_DMAPause+0x1c>
 80874e8:	695a      	ldr	r2, [r3, #20]
 80874ea:	f022 0280 	bic.w	r2, r2, #128	; 0x80
 80874ee:	615a      	str	r2, [r3, #20]
 80874f0:	6959      	ldr	r1, [r3, #20]
 80874f2:	f890 203a 	ldrb.w	r2, [r0, #58]	; 0x3a
 80874f6:	2a22      	cmp	r2, #34	; 0x22
 80874f8:	d1ed      	bne.n	80874d6 <HAL_UART_DMAPause+0x26>
 80874fa:	064a      	lsls	r2, r1, #25
 80874fc:	d5eb      	bpl.n	80874d6 <HAL_UART_DMAPause+0x26>
 80874fe:	68da      	ldr	r2, [r3, #12]
 8087500:	f422 7280 	bic.w	r2, r2, #256	; 0x100
 8087504:	60da      	str	r2, [r3, #12]
 8087506:	695a      	ldr	r2, [r3, #20]
 8087508:	f022 0201 	bic.w	r2, r2, #1
 808750c:	615a      	str	r2, [r3, #20]
 808750e:	695a      	ldr	r2, [r3, #20]
 8087510:	f022 0240 	bic.w	r2, r2, #64	; 0x40
 8087514:	615a      	str	r2, [r3, #20]
 8087516:	e7de      	b.n	80874d6 <HAL_UART_DMAPause+0x26>
 8087518:	2002      	movs	r0, #2
 808751a:	4770      	bx	lr

0808751c <HAL_UART_DMAResume>:
 808751c:	f890 3038 	ldrb.w	r3, [r0, #56]	; 0x38
 8087520:	2b01      	cmp	r3, #1
 8087522:	d02f      	beq.n	8087584 <HAL_UART_DMAResume+0x68>
 8087524:	f890 3039 	ldrb.w	r3, [r0, #57]	; 0x39
 8087528:	2201      	movs	r2, #1
 808752a:	2b21      	cmp	r3, #33	; 0x21
 808752c:	f880 2038 	strb.w	r2, [r0, #56]	; 0x38
 8087530:	d104      	bne.n	808753c <HAL_UART_DMAResume+0x20>
 8087532:	6802      	ldr	r2, [r0, #0]
 8087534:	6953      	ldr	r3, [r2, #20]
 8087536:	f043 0380 	orr.w	r3, r3, #128	; 0x80
 808753a:	6153      	str	r3, [r2, #20]
 808753c:	f890 303a 	ldrb.w	r3, [r0, #58]	; 0x3a
 8087540:	2b22      	cmp	r3, #34	; 0x22
 8087542:	d004      	beq.n	808754e <HAL_UART_DMAResume+0x32>
 8087544:	2300      	movs	r3, #0
 8087546:	f880 3038 	strb.w	r3, [r0, #56]	; 0x38
 808754a:	4618      	mov	r0, r3
 808754c:	4770      	bx	lr
 808754e:	b082      	sub	sp, #8
 8087550:	6803      	ldr	r3, [r0, #0]
 8087552:	2200      	movs	r2, #0
 8087554:	9201      	str	r2, [sp, #4]
 8087556:	681a      	ldr	r2, [r3, #0]
 8087558:	9201      	str	r2, [sp, #4]
 808755a:	685a      	ldr	r2, [r3, #4]
 808755c:	9201      	str	r2, [sp, #4]
 808755e:	9a01      	ldr	r2, [sp, #4]
 8087560:	68da      	ldr	r2, [r3, #12]
 8087562:	f442 7280 	orr.w	r2, r2, #256	; 0x100
 8087566:	60da      	str	r2, [r3, #12]
 8087568:	695a      	ldr	r2, [r3, #20]
 808756a:	f042 0201 	orr.w	r2, r2, #1
 808756e:	615a      	str	r2, [r3, #20]
 8087570:	695a      	ldr	r2, [r3, #20]
 8087572:	f042 0240 	orr.w	r2, r2, #64	; 0x40
 8087576:	615a      	str	r2, [r3, #20]
 8087578:	2300      	movs	r3, #0
 808757a:	f880 3038 	strb.w	r3, [r0, #56]	; 0x38
 808757e:	4618      	mov	r0, r3
 8087580:	b002      	add	sp, #8
 8087582:	4770      	bx	lr
 8087584:	2002      	movs	r0, #2
 8087586:	4770      	bx	lr

08087588 <HAL_UART_DMAStop>:
 8087588:	6803      	ldr	r3, [r0, #0]
 808758a:	6959      	ldr	r1, [r3, #20]
 808758c:	f890 2039 	ldrb.w	r2, [r0, #57]	; 0x39
 8087590:	2a21      	cmp	r2, #33	; 0x21
 8087592:	b510      	push	{r4, lr}
 8087594:	4604      	mov	r4, r0
 8087596:	d01e      	beq.n	80875d6 <HAL_UART_DMAStop+0x4e>
 8087598:	6959      	ldr	r1, [r3, #20]
 808759a:	f894 203a 	ldrb.w	r2, [r4, #58]	; 0x3a
 808759e:	2a22      	cmp	r2, #34	; 0x22
 80875a0:	d001      	beq.n	80875a6 <HAL_UART_DMAStop+0x1e>
 80875a2:	2000      	movs	r0, #0
 80875a4:	bd10      	pop	{r4, pc}
 80875a6:	064a      	lsls	r2, r1, #25
 80875a8:	d5fb      	bpl.n	80875a2 <HAL_UART_DMAStop+0x1a>
 80875aa:	695a      	ldr	r2, [r3, #20]
 80875ac:	6b60      	ldr	r0, [r4, #52]	; 0x34
 80875ae:	f022 0240 	bic.w	r2, r2, #64	; 0x40
 80875b2:	615a      	str	r2, [r3, #20]
 80875b4:	b110      	cbz	r0, 80875bc <HAL_UART_DMAStop+0x34>
 80875b6:	f7fa f961 	bl	808187c <HAL_DMA_Abort>
 80875ba:	6823      	ldr	r3, [r4, #0]
 80875bc:	68da      	ldr	r2, [r3, #12]
 80875be:	f422 7290 	bic.w	r2, r2, #288	; 0x120
 80875c2:	60da      	str	r2, [r3, #12]
 80875c4:	695a      	ldr	r2, [r3, #20]
 80875c6:	2120      	movs	r1, #32
 80875c8:	f022 0201 	bic.w	r2, r2, #1
 80875cc:	615a      	str	r2, [r3, #20]
 80875ce:	2000      	movs	r0, #0
 80875d0:	f884 103a 	strb.w	r1, [r4, #58]	; 0x3a
 80875d4:	bd10      	pop	{r4, pc}
 80875d6:	0609      	lsls	r1, r1, #24
 80875d8:	d5de      	bpl.n	8087598 <HAL_UART_DMAStop+0x10>
 80875da:	695a      	ldr	r2, [r3, #20]
 80875dc:	6b00      	ldr	r0, [r0, #48]	; 0x30
 80875de:	f022 0280 	bic.w	r2, r2, #128	; 0x80
 80875e2:	615a      	str	r2, [r3, #20]
 80875e4:	b110      	cbz	r0, 80875ec <HAL_UART_DMAStop+0x64>
 80875e6:	f7fa f949 	bl	808187c <HAL_DMA_Abort>
 80875ea:	6823      	ldr	r3, [r4, #0]
 80875ec:	68da      	ldr	r2, [r3, #12]
 80875ee:	2120      	movs	r1, #32
 80875f0:	f022 02c0 	bic.w	r2, r2, #192	; 0xc0
 80875f4:	60da      	str	r2, [r3, #12]
 80875f6:	f884 1039 	strb.w	r1, [r4, #57]	; 0x39
 80875fa:	e7cd      	b.n	8087598 <HAL_UART_DMAStop+0x10>

080875fc <HAL_UART_Abort>:
 80875fc:	6803      	ldr	r3, [r0, #0]
 80875fe:	68da      	ldr	r2, [r3, #12]
 8087600:	f422 72f0 	bic.w	r2, r2, #480	; 0x1e0
 8087604:	b510      	push	{r4, lr}
 8087606:	60da      	str	r2, [r3, #12]
 8087608:	695a      	ldr	r2, [r3, #20]
 808760a:	f022 0201 	bic.w	r2, r2, #1
 808760e:	615a      	str	r2, [r3, #20]
 8087610:	695a      	ldr	r2, [r3, #20]
 8087612:	0611      	lsls	r1, r2, #24
 8087614:	4604      	mov	r4, r0
 8087616:	d50b      	bpl.n	8087630 <HAL_UART_Abort+0x34>
 8087618:	695a      	ldr	r2, [r3, #20]
 808761a:	6b00      	ldr	r0, [r0, #48]	; 0x30
 808761c:	f022 0280 	bic.w	r2, r2, #128	; 0x80
 8087620:	615a      	str	r2, [r3, #20]
 8087622:	b128      	cbz	r0, 8087630 <HAL_UART_Abort+0x34>
 8087624:	2300      	movs	r3, #0
 8087626:	6503      	str	r3, [r0, #80]	; 0x50
 8087628:	f7fa f928 	bl	808187c <HAL_DMA_Abort>
 808762c:	b9c8      	cbnz	r0, 8087662 <HAL_UART_Abort+0x66>
 808762e:	6823      	ldr	r3, [r4, #0]
 8087630:	695a      	ldr	r2, [r3, #20]
 8087632:	0652      	lsls	r2, r2, #25
 8087634:	d50a      	bpl.n	808764c <HAL_UART_Abort+0x50>
 8087636:	695a      	ldr	r2, [r3, #20]
 8087638:	6b60      	ldr	r0, [r4, #52]	; 0x34
 808763a:	f022 0240 	bic.w	r2, r2, #64	; 0x40
 808763e:	615a      	str	r2, [r3, #20]
 8087640:	b120      	cbz	r0, 808764c <HAL_UART_Abort+0x50>
 8087642:	2300      	movs	r3, #0
 8087644:	6503      	str	r3, [r0, #80]	; 0x50
 8087646:	f7fa f919 	bl	808187c <HAL_DMA_Abort>
 808764a:	b998      	cbnz	r0, 8087674 <HAL_UART_Abort+0x78>
 808764c:	2300      	movs	r3, #0
 808764e:	2220      	movs	r2, #32
 8087650:	84e3      	strh	r3, [r4, #38]	; 0x26
 8087652:	4618      	mov	r0, r3
 8087654:	85e3      	strh	r3, [r4, #46]	; 0x2e
 8087656:	63e3      	str	r3, [r4, #60]	; 0x3c
 8087658:	f884 203a 	strb.w	r2, [r4, #58]	; 0x3a
 808765c:	f884 2039 	strb.w	r2, [r4, #57]	; 0x39
 8087660:	bd10      	pop	{r4, pc}
 8087662:	6b20      	ldr	r0, [r4, #48]	; 0x30
 8087664:	f7fa fba6 	bl	8081db4 <HAL_DMA_GetError>
 8087668:	2820      	cmp	r0, #32
 808766a:	d1e0      	bne.n	808762e <HAL_UART_Abort+0x32>
 808766c:	2310      	movs	r3, #16
 808766e:	63e3      	str	r3, [r4, #60]	; 0x3c
 8087670:	2003      	movs	r0, #3
 8087672:	bd10      	pop	{r4, pc}
 8087674:	6b60      	ldr	r0, [r4, #52]	; 0x34
 8087676:	f7fa fb9d 	bl	8081db4 <HAL_DMA_GetError>
 808767a:	2820      	cmp	r0, #32
 808767c:	d1e6      	bne.n	808764c <HAL_UART_Abort+0x50>
 808767e:	e7f5      	b.n	808766c <HAL_UART_Abort+0x70>

08087680 <HAL_UART_AbortTransmit>:
 8087680:	6803      	ldr	r3, [r0, #0]
 8087682:	68da      	ldr	r2, [r3, #12]
 8087684:	f022 02c0 	bic.w	r2, r2, #192	; 0xc0
 8087688:	b510      	push	{r4, lr}
 808768a:	60da      	str	r2, [r3, #12]
 808768c:	695a      	ldr	r2, [r3, #20]
 808768e:	0612      	lsls	r2, r2, #24
 8087690:	4604      	mov	r4, r0
 8087692:	d50a      	bpl.n	80876aa <HAL_UART_AbortTransmit+0x2a>
 8087694:	695a      	ldr	r2, [r3, #20]
 8087696:	6b00      	ldr	r0, [r0, #48]	; 0x30
 8087698:	f022 0280 	bic.w	r2, r2, #128	; 0x80
 808769c:	615a      	str	r2, [r3, #20]
 808769e:	b120      	cbz	r0, 80876aa <HAL_UART_AbortTransmit+0x2a>
 80876a0:	2300      	movs	r3, #0
 80876a2:	6503      	str	r3, [r0, #80]	; 0x50
 80876a4:	f7fa f8ea 	bl	808187c <HAL_DMA_Abort>
 80876a8:	b928      	cbnz	r0, 80876b6 <HAL_UART_AbortTransmit+0x36>
 80876aa:	2000      	movs	r0, #0
 80876ac:	2320      	movs	r3, #32
 80876ae:	84e0      	strh	r0, [r4, #38]	; 0x26
 80876b0:	f884 3039 	strb.w	r3, [r4, #57]	; 0x39
 80876b4:	bd10      	pop	{r4, pc}
 80876b6:	6b20      	ldr	r0, [r4, #48]	; 0x30
 80876b8:	f7fa fb7c 	bl	8081db4 <HAL_DMA_GetError>
 80876bc:	2820      	cmp	r0, #32
 80876be:	d1f4      	bne.n	80876aa <HAL_UART_AbortTransmit+0x2a>
 80876c0:	2310      	movs	r3, #16
 80876c2:	63e3      	str	r3, [r4, #60]	; 0x3c
 80876c4:	2003      	movs	r0, #3
 80876c6:	bd10      	pop	{r4, pc}

080876c8 <HAL_UART_AbortReceive>:
 80876c8:	6803      	ldr	r3, [r0, #0]
 80876ca:	68da      	ldr	r2, [r3, #12]
 80876cc:	f422 7290 	bic.w	r2, r2, #288	; 0x120
 80876d0:	b510      	push	{r4, lr}
 80876d2:	60da      	str	r2, [r3, #12]
 80876d4:	695a      	ldr	r2, [r3, #20]
 80876d6:	f022 0201 	bic.w	r2, r2, #1
 80876da:	615a      	str	r2, [r3, #20]
 80876dc:	695a      	ldr	r2, [r3, #20]
 80876de:	0652      	lsls	r2, r2, #25
 80876e0:	4604      	mov	r4, r0
 80876e2:	d50a      	bpl.n	80876fa <HAL_UART_AbortReceive+0x32>
 80876e4:	695a      	ldr	r2, [r3, #20]
 80876e6:	6b40      	ldr	r0, [r0, #52]	; 0x34
 80876e8:	f022 0240 	bic.w	r2, r2, #64	; 0x40
 80876ec:	615a      	str	r2, [r3, #20]
 80876ee:	b120      	cbz	r0, 80876fa <HAL_UART_AbortReceive+0x32>
 80876f0:	2300      	movs	r3, #0
 80876f2:	6503      	str	r3, [r0, #80]	; 0x50
 80876f4:	f7fa f8c2 	bl	808187c <HAL_DMA_Abort>
 80876f8:	b928      	cbnz	r0, 8087706 <HAL_UART_AbortReceive+0x3e>
 80876fa:	2000      	movs	r0, #0
 80876fc:	2320      	movs	r3, #32
 80876fe:	85e0      	strh	r0, [r4, #46]	; 0x2e
 8087700:	f884 303a 	strb.w	r3, [r4, #58]	; 0x3a
 8087704:	bd10      	pop	{r4, pc}
 8087706:	6b60      	ldr	r0, [r4, #52]	; 0x34
 8087708:	f7fa fb54 	bl	8081db4 <HAL_DMA_GetError>
 808770c:	2820      	cmp	r0, #32
 808770e:	d1f4      	bne.n	80876fa <HAL_UART_AbortReceive+0x32>
 8087710:	2310      	movs	r3, #16
 8087712:	63e3      	str	r3, [r4, #60]	; 0x3c
 8087714:	2003      	movs	r0, #3
 8087716:	bd10      	pop	{r4, pc}

08087718 <HAL_UART_TxCpltCallback>:
 8087718:	4770      	bx	lr
 808771a:	bf00      	nop

0808771c <UART_DMATransmitCplt>:
 808771c:	b508      	push	{r3, lr}
 808771e:	6803      	ldr	r3, [r0, #0]
 8087720:	6b80      	ldr	r0, [r0, #56]	; 0x38
 8087722:	681b      	ldr	r3, [r3, #0]
 8087724:	f413 7380 	ands.w	r3, r3, #256	; 0x100
 8087728:	d10a      	bne.n	8087740 <UART_DMATransmitCplt+0x24>
 808772a:	6802      	ldr	r2, [r0, #0]
 808772c:	84c3      	strh	r3, [r0, #38]	; 0x26
 808772e:	6953      	ldr	r3, [r2, #20]
 8087730:	f023 0380 	bic.w	r3, r3, #128	; 0x80
 8087734:	6153      	str	r3, [r2, #20]
 8087736:	68d3      	ldr	r3, [r2, #12]
 8087738:	f043 0340 	orr.w	r3, r3, #64	; 0x40
 808773c:	60d3      	str	r3, [r2, #12]
 808773e:	bd08      	pop	{r3, pc}
 8087740:	f7ff ffea 	bl	8087718 <HAL_UART_TxCpltCallback>
 8087744:	bd08      	pop	{r3, pc}
 8087746:	bf00      	nop

08087748 <HAL_UART_TxHalfCpltCallback>:
 8087748:	4770      	bx	lr
 808774a:	bf00      	nop

0808774c <UART_DMATxHalfCplt>:
 808774c:	b508      	push	{r3, lr}
 808774e:	6b80      	ldr	r0, [r0, #56]	; 0x38
 8087750:	f7ff fffa 	bl	8087748 <HAL_UART_TxHalfCpltCallback>
 8087754:	bd08      	pop	{r3, pc}
 8087756:	bf00      	nop

08087758 <HAL_UART_RxCpltCallback>:
 8087758:	4770      	bx	lr
 808775a:	bf00      	nop

0808775c <UART_DMAReceiveCplt>:
 808775c:	b508      	push	{r3, lr}
 808775e:	6803      	ldr	r3, [r0, #0]
 8087760:	6b80      	ldr	r0, [r0, #56]	; 0x38
 8087762:	681b      	ldr	r3, [r3, #0]
 8087764:	f413 7380 	ands.w	r3, r3, #256	; 0x100
 8087768:	d110      	bne.n	808778c <UART_DMAReceiveCplt+0x30>
 808776a:	6802      	ldr	r2, [r0, #0]
 808776c:	85c3      	strh	r3, [r0, #46]	; 0x2e
 808776e:	68d3      	ldr	r3, [r2, #12]
 8087770:	f423 7380 	bic.w	r3, r3, #256	; 0x100
 8087774:	60d3      	str	r3, [r2, #12]
 8087776:	6953      	ldr	r3, [r2, #20]
 8087778:	f023 0301 	bic.w	r3, r3, #1
 808777c:	6153      	str	r3, [r2, #20]
 808777e:	6953      	ldr	r3, [r2, #20]
 8087780:	2120      	movs	r1, #32
 8087782:	f023 0340 	bic.w	r3, r3, #64	; 0x40
 8087786:	6153      	str	r3, [r2, #20]
 8087788:	f880 103a 	strb.w	r1, [r0, #58]	; 0x3a
 808778c:	f7ff ffe4 	bl	8087758 <HAL_UART_RxCpltCallback>
 8087790:	bd08      	pop	{r3, pc}
 8087792:	bf00      	nop

08087794 <UART_Receive_IT.part.1>:
 8087794:	b510      	push	{r4, lr}
 8087796:	6884      	ldr	r4, [r0, #8]
 8087798:	6901      	ldr	r1, [r0, #16]
 808779a:	6a83      	ldr	r3, [r0, #40]	; 0x28
 808779c:	6802      	ldr	r2, [r0, #0]
 808779e:	f5b4 5f80 	cmp.w	r4, #4096	; 0x1000
 80877a2:	d020      	beq.n	80877e6 <UART_Receive_IT.part.1+0x52>
 80877a4:	1c5c      	adds	r4, r3, #1
 80877a6:	6852      	ldr	r2, [r2, #4]
 80877a8:	6284      	str	r4, [r0, #40]	; 0x28
 80877aa:	b9c9      	cbnz	r1, 80877e0 <UART_Receive_IT.part.1+0x4c>
 80877ac:	701a      	strb	r2, [r3, #0]
 80877ae:	8dc3      	ldrh	r3, [r0, #46]	; 0x2e
 80877b0:	3b01      	subs	r3, #1
 80877b2:	b29b      	uxth	r3, r3
 80877b4:	85c3      	strh	r3, [r0, #46]	; 0x2e
 80877b6:	b98b      	cbnz	r3, 80877dc <UART_Receive_IT.part.1+0x48>
 80877b8:	6802      	ldr	r2, [r0, #0]
 80877ba:	68d1      	ldr	r1, [r2, #12]
 80877bc:	f021 0120 	bic.w	r1, r1, #32
 80877c0:	60d1      	str	r1, [r2, #12]
 80877c2:	68d1      	ldr	r1, [r2, #12]
 80877c4:	f421 7180 	bic.w	r1, r1, #256	; 0x100
 80877c8:	60d1      	str	r1, [r2, #12]
 80877ca:	6951      	ldr	r1, [r2, #20]
 80877cc:	2420      	movs	r4, #32
 80877ce:	f021 0101 	bic.w	r1, r1, #1
 80877d2:	6151      	str	r1, [r2, #20]
 80877d4:	f880 403a 	strb.w	r4, [r0, #58]	; 0x3a
 80877d8:	f7ff ffbe 	bl	8087758 <HAL_UART_RxCpltCallback>
 80877dc:	2000      	movs	r0, #0
 80877de:	bd10      	pop	{r4, pc}
 80877e0:	f002 027f 	and.w	r2, r2, #127	; 0x7f
 80877e4:	e7e2      	b.n	80877ac <UART_Receive_IT.part.1+0x18>
 80877e6:	6852      	ldr	r2, [r2, #4]
 80877e8:	b929      	cbnz	r1, 80877f6 <UART_Receive_IT.part.1+0x62>
 80877ea:	f3c2 0208 	ubfx	r2, r2, #0, #9
 80877ee:	f823 2b02 	strh.w	r2, [r3], #2
 80877f2:	6283      	str	r3, [r0, #40]	; 0x28
 80877f4:	e7db      	b.n	80877ae <UART_Receive_IT.part.1+0x1a>
 80877f6:	b2d2      	uxtb	r2, r2
 80877f8:	f823 2b01 	strh.w	r2, [r3], #1
 80877fc:	6283      	str	r3, [r0, #40]	; 0x28
 80877fe:	e7d6      	b.n	80877ae <UART_Receive_IT.part.1+0x1a>

08087800 <HAL_UART_RxHalfCpltCallback>:
 8087800:	4770      	bx	lr
 8087802:	bf00      	nop

08087804 <UART_DMARxHalfCplt>:
 8087804:	b508      	push	{r3, lr}
 8087806:	6b80      	ldr	r0, [r0, #56]	; 0x38
 8087808:	f7ff fffa 	bl	8087800 <HAL_UART_RxHalfCpltCallback>
 808780c:	bd08      	pop	{r3, pc}
 808780e:	bf00      	nop

08087810 <HAL_UART_ErrorCallback>:
 8087810:	4770      	bx	lr
 8087812:	bf00      	nop

08087814 <UART_DMAError>:
 8087814:	6b80      	ldr	r0, [r0, #56]	; 0x38
 8087816:	b508      	push	{r3, lr}
 8087818:	6803      	ldr	r3, [r0, #0]
 808781a:	6959      	ldr	r1, [r3, #20]
 808781c:	f890 2039 	ldrb.w	r2, [r0, #57]	; 0x39
 8087820:	2a21      	cmp	r2, #33	; 0x21
 8087822:	d01b      	beq.n	808785c <UART_DMAError+0x48>
 8087824:	6959      	ldr	r1, [r3, #20]
 8087826:	f890 203a 	ldrb.w	r2, [r0, #58]	; 0x3a
 808782a:	2a22      	cmp	r2, #34	; 0x22
 808782c:	d006      	beq.n	808783c <UART_DMAError+0x28>
 808782e:	6bc3      	ldr	r3, [r0, #60]	; 0x3c
 8087830:	f043 0310 	orr.w	r3, r3, #16
 8087834:	63c3      	str	r3, [r0, #60]	; 0x3c
 8087836:	f7ff ffeb 	bl	8087810 <HAL_UART_ErrorCallback>
 808783a:	bd08      	pop	{r3, pc}
 808783c:	064a      	lsls	r2, r1, #25
 808783e:	d5f6      	bpl.n	808782e <UART_DMAError+0x1a>
 8087840:	2200      	movs	r2, #0
 8087842:	85c2      	strh	r2, [r0, #46]	; 0x2e
 8087844:	68da      	ldr	r2, [r3, #12]
 8087846:	f422 7290 	bic.w	r2, r2, #288	; 0x120
 808784a:	60da      	str	r2, [r3, #12]
 808784c:	695a      	ldr	r2, [r3, #20]
 808784e:	2120      	movs	r1, #32
 8087850:	f022 0201 	bic.w	r2, r2, #1
 8087854:	615a      	str	r2, [r3, #20]
 8087856:	f880 103a 	strb.w	r1, [r0, #58]	; 0x3a
 808785a:	e7e8      	b.n	808782e <UART_DMAError+0x1a>
 808785c:	0609      	lsls	r1, r1, #24
 808785e:	d5e1      	bpl.n	8087824 <UART_DMAError+0x10>
 8087860:	2200      	movs	r2, #0
 8087862:	84c2      	strh	r2, [r0, #38]	; 0x26
 8087864:	68da      	ldr	r2, [r3, #12]
 8087866:	2120      	movs	r1, #32
 8087868:	f022 02c0 	bic.w	r2, r2, #192	; 0xc0
 808786c:	60da      	str	r2, [r3, #12]
 808786e:	f880 1039 	strb.w	r1, [r0, #57]	; 0x39
 8087872:	e7d7      	b.n	8087824 <UART_DMAError+0x10>

08087874 <HAL_UART_IRQHandler>:
 8087874:	6803      	ldr	r3, [r0, #0]
 8087876:	681a      	ldr	r2, [r3, #0]
 8087878:	b570      	push	{r4, r5, r6, lr}
 808787a:	0716      	lsls	r6, r2, #28
 808787c:	68dd      	ldr	r5, [r3, #12]
 808787e:	6959      	ldr	r1, [r3, #20]
 8087880:	4604      	mov	r4, r0
 8087882:	d049      	beq.n	8087918 <HAL_UART_IRQHandler+0xa4>
 8087884:	f011 0101 	ands.w	r1, r1, #1
 8087888:	d04f      	beq.n	808792a <HAL_UART_IRQHandler+0xb6>
 808788a:	07d6      	lsls	r6, r2, #31
 808788c:	d505      	bpl.n	808789a <HAL_UART_IRQHandler+0x26>
 808788e:	05e8      	lsls	r0, r5, #23
 8087890:	d503      	bpl.n	808789a <HAL_UART_IRQHandler+0x26>
 8087892:	6be0      	ldr	r0, [r4, #60]	; 0x3c
 8087894:	f040 0001 	orr.w	r0, r0, #1
 8087898:	63e0      	str	r0, [r4, #60]	; 0x3c
 808789a:	0756      	lsls	r6, r2, #29
 808789c:	f002 0002 	and.w	r0, r2, #2
 80878a0:	d575      	bpl.n	808798e <HAL_UART_IRQHandler+0x11a>
 80878a2:	b161      	cbz	r1, 80878be <HAL_UART_IRQHandler+0x4a>
 80878a4:	6be1      	ldr	r1, [r4, #60]	; 0x3c
 80878a6:	f041 0102 	orr.w	r1, r1, #2
 80878aa:	63e1      	str	r1, [r4, #60]	; 0x3c
 80878ac:	f002 0608 	and.w	r6, r2, #8
 80878b0:	2800      	cmp	r0, #0
 80878b2:	d171      	bne.n	8087998 <HAL_UART_IRQHandler+0x124>
 80878b4:	b11e      	cbz	r6, 80878be <HAL_UART_IRQHandler+0x4a>
 80878b6:	6be1      	ldr	r1, [r4, #60]	; 0x3c
 80878b8:	f041 0108 	orr.w	r1, r1, #8
 80878bc:	63e1      	str	r1, [r4, #60]	; 0x3c
 80878be:	6be1      	ldr	r1, [r4, #60]	; 0x3c
 80878c0:	2900      	cmp	r1, #0
 80878c2:	d031      	beq.n	8087928 <HAL_UART_IRQHandler+0xb4>
 80878c4:	0696      	lsls	r6, r2, #26
 80878c6:	d501      	bpl.n	80878cc <HAL_UART_IRQHandler+0x58>
 80878c8:	06a8      	lsls	r0, r5, #26
 80878ca:	d473      	bmi.n	80879b4 <HAL_UART_IRQHandler+0x140>
 80878cc:	695d      	ldr	r5, [r3, #20]
 80878ce:	6be1      	ldr	r1, [r4, #60]	; 0x3c
 80878d0:	0709      	lsls	r1, r1, #28
 80878d2:	d402      	bmi.n	80878da <HAL_UART_IRQHandler+0x66>
 80878d4:	f015 0540 	ands.w	r5, r5, #64	; 0x40
 80878d8:	d078      	beq.n	80879cc <HAL_UART_IRQHandler+0x158>
 80878da:	68da      	ldr	r2, [r3, #12]
 80878dc:	f422 7290 	bic.w	r2, r2, #288	; 0x120
 80878e0:	60da      	str	r2, [r3, #12]
 80878e2:	695a      	ldr	r2, [r3, #20]
 80878e4:	2120      	movs	r1, #32
 80878e6:	f022 0201 	bic.w	r2, r2, #1
 80878ea:	615a      	str	r2, [r3, #20]
 80878ec:	f884 103a 	strb.w	r1, [r4, #58]	; 0x3a
 80878f0:	695a      	ldr	r2, [r3, #20]
 80878f2:	0652      	lsls	r2, r2, #25
 80878f4:	d55a      	bpl.n	80879ac <HAL_UART_IRQHandler+0x138>
 80878f6:	695a      	ldr	r2, [r3, #20]
 80878f8:	6b60      	ldr	r0, [r4, #52]	; 0x34
 80878fa:	f022 0240 	bic.w	r2, r2, #64	; 0x40
 80878fe:	615a      	str	r2, [r3, #20]
 8087900:	2800      	cmp	r0, #0
 8087902:	d053      	beq.n	80879ac <HAL_UART_IRQHandler+0x138>
 8087904:	4b3a      	ldr	r3, [pc, #232]	; (80879f0 <HAL_UART_IRQHandler+0x17c>)
 8087906:	6503      	str	r3, [r0, #80]	; 0x50
 8087908:	f7fa f800 	bl	808190c <HAL_DMA_Abort_IT>
 808790c:	b160      	cbz	r0, 8087928 <HAL_UART_IRQHandler+0xb4>
 808790e:	6b60      	ldr	r0, [r4, #52]	; 0x34
 8087910:	e8bd 4070 	ldmia.w	sp!, {r4, r5, r6, lr}
 8087914:	6d03      	ldr	r3, [r0, #80]	; 0x50
 8087916:	4718      	bx	r3
 8087918:	0696      	lsls	r6, r2, #26
 808791a:	d509      	bpl.n	8087930 <HAL_UART_IRQHandler+0xbc>
 808791c:	06a9      	lsls	r1, r5, #26
 808791e:	d507      	bpl.n	8087930 <HAL_UART_IRQHandler+0xbc>
 8087920:	f890 303a 	ldrb.w	r3, [r0, #58]	; 0x3a
 8087924:	2b22      	cmp	r3, #34	; 0x22
 8087926:	d04e      	beq.n	80879c6 <HAL_UART_IRQHandler+0x152>
 8087928:	bd70      	pop	{r4, r5, r6, pc}
 808792a:	f415 7f90 	tst.w	r5, #288	; 0x120
 808792e:	d1ac      	bne.n	808788a <HAL_UART_IRQHandler+0x16>
 8087930:	0616      	lsls	r6, r2, #24
 8087932:	d40e      	bmi.n	8087952 <HAL_UART_IRQHandler+0xde>
 8087934:	0651      	lsls	r1, r2, #25
 8087936:	d5f7      	bpl.n	8087928 <HAL_UART_IRQHandler+0xb4>
 8087938:	066a      	lsls	r2, r5, #25
 808793a:	d5f5      	bpl.n	8087928 <HAL_UART_IRQHandler+0xb4>
 808793c:	68da      	ldr	r2, [r3, #12]
 808793e:	2120      	movs	r1, #32
 8087940:	f022 0240 	bic.w	r2, r2, #64	; 0x40
 8087944:	60da      	str	r2, [r3, #12]
 8087946:	4620      	mov	r0, r4
 8087948:	f884 1039 	strb.w	r1, [r4, #57]	; 0x39
 808794c:	f7ff fee4 	bl	8087718 <HAL_UART_TxCpltCallback>
 8087950:	bd70      	pop	{r4, r5, r6, pc}
 8087952:	0628      	lsls	r0, r5, #24
 8087954:	d5ee      	bpl.n	8087934 <HAL_UART_IRQHandler+0xc0>
 8087956:	f894 2039 	ldrb.w	r2, [r4, #57]	; 0x39
 808795a:	2a21      	cmp	r2, #33	; 0x21
 808795c:	d1e4      	bne.n	8087928 <HAL_UART_IRQHandler+0xb4>
 808795e:	68a1      	ldr	r1, [r4, #8]
 8087960:	6a22      	ldr	r2, [r4, #32]
 8087962:	f5b1 5f80 	cmp.w	r1, #4096	; 0x1000
 8087966:	d036      	beq.n	80879d6 <HAL_UART_IRQHandler+0x162>
 8087968:	1c51      	adds	r1, r2, #1
 808796a:	6221      	str	r1, [r4, #32]
 808796c:	7812      	ldrb	r2, [r2, #0]
 808796e:	605a      	str	r2, [r3, #4]
 8087970:	8ce2      	ldrh	r2, [r4, #38]	; 0x26
 8087972:	3a01      	subs	r2, #1
 8087974:	b292      	uxth	r2, r2
 8087976:	84e2      	strh	r2, [r4, #38]	; 0x26
 8087978:	2a00      	cmp	r2, #0
 808797a:	d1d5      	bne.n	8087928 <HAL_UART_IRQHandler+0xb4>
 808797c:	68da      	ldr	r2, [r3, #12]
 808797e:	f022 0280 	bic.w	r2, r2, #128	; 0x80
 8087982:	60da      	str	r2, [r3, #12]
 8087984:	68da      	ldr	r2, [r3, #12]
 8087986:	f042 0240 	orr.w	r2, r2, #64	; 0x40
 808798a:	60da      	str	r2, [r3, #12]
 808798c:	bd70      	pop	{r4, r5, r6, pc}
 808798e:	b140      	cbz	r0, 80879a2 <HAL_UART_IRQHandler+0x12e>
 8087990:	2900      	cmp	r1, #0
 8087992:	d094      	beq.n	80878be <HAL_UART_IRQHandler+0x4a>
 8087994:	f002 0608 	and.w	r6, r2, #8
 8087998:	6be1      	ldr	r1, [r4, #60]	; 0x3c
 808799a:	f041 0104 	orr.w	r1, r1, #4
 808799e:	63e1      	str	r1, [r4, #60]	; 0x3c
 80879a0:	e788      	b.n	80878b4 <HAL_UART_IRQHandler+0x40>
 80879a2:	0710      	lsls	r0, r2, #28
 80879a4:	d58b      	bpl.n	80878be <HAL_UART_IRQHandler+0x4a>
 80879a6:	2900      	cmp	r1, #0
 80879a8:	d185      	bne.n	80878b6 <HAL_UART_IRQHandler+0x42>
 80879aa:	e788      	b.n	80878be <HAL_UART_IRQHandler+0x4a>
 80879ac:	4620      	mov	r0, r4
 80879ae:	f7ff ff2f 	bl	8087810 <HAL_UART_ErrorCallback>
 80879b2:	bd70      	pop	{r4, r5, r6, pc}
 80879b4:	f894 203a 	ldrb.w	r2, [r4, #58]	; 0x3a
 80879b8:	2a22      	cmp	r2, #34	; 0x22
 80879ba:	d187      	bne.n	80878cc <HAL_UART_IRQHandler+0x58>
 80879bc:	4620      	mov	r0, r4
 80879be:	f7ff fee9 	bl	8087794 <UART_Receive_IT.part.1>
 80879c2:	6823      	ldr	r3, [r4, #0]
 80879c4:	e782      	b.n	80878cc <HAL_UART_IRQHandler+0x58>
 80879c6:	e8bd 4070 	ldmia.w	sp!, {r4, r5, r6, lr}
 80879ca:	e6e3      	b.n	8087794 <UART_Receive_IT.part.1>
 80879cc:	4620      	mov	r0, r4
 80879ce:	f7ff ff1f 	bl	8087810 <HAL_UART_ErrorCallback>
 80879d2:	63e5      	str	r5, [r4, #60]	; 0x3c
 80879d4:	bd70      	pop	{r4, r5, r6, pc}
 80879d6:	8811      	ldrh	r1, [r2, #0]
 80879d8:	6920      	ldr	r0, [r4, #16]
 80879da:	f3c1 0108 	ubfx	r1, r1, #0, #9
 80879de:	6059      	str	r1, [r3, #4]
 80879e0:	b910      	cbnz	r0, 80879e8 <HAL_UART_IRQHandler+0x174>
 80879e2:	3202      	adds	r2, #2
 80879e4:	6222      	str	r2, [r4, #32]
 80879e6:	e7c3      	b.n	8087970 <HAL_UART_IRQHandler+0xfc>
 80879e8:	3201      	adds	r2, #1
 80879ea:	6222      	str	r2, [r4, #32]
 80879ec:	e7c0      	b.n	8087970 <HAL_UART_IRQHandler+0xfc>
 80879ee:	bf00      	nop
 80879f0:	080879f5 	.word	0x080879f5

080879f4 <UART_DMAAbortOnError>:
 80879f4:	b508      	push	{r3, lr}
 80879f6:	6b83      	ldr	r3, [r0, #56]	; 0x38
 80879f8:	2200      	movs	r2, #0
 80879fa:	85da      	strh	r2, [r3, #46]	; 0x2e
 80879fc:	4618      	mov	r0, r3
 80879fe:	84da      	strh	r2, [r3, #38]	; 0x26
 8087a00:	f7ff ff06 	bl	8087810 <HAL_UART_ErrorCallback>
 8087a04:	bd08      	pop	{r3, pc}
 8087a06:	bf00      	nop

08087a08 <HAL_UART_AbortCpltCallback>:
 8087a08:	4770      	bx	lr
 8087a0a:	bf00      	nop

08087a0c <HAL_UART_Abort_IT>:
 8087a0c:	6803      	ldr	r3, [r0, #0]
 8087a0e:	68da      	ldr	r2, [r3, #12]
 8087a10:	f422 72f0 	bic.w	r2, r2, #480	; 0x1e0
 8087a14:	b510      	push	{r4, lr}
 8087a16:	4604      	mov	r4, r0
 8087a18:	6b00      	ldr	r0, [r0, #48]	; 0x30
 8087a1a:	60da      	str	r2, [r3, #12]
 8087a1c:	695a      	ldr	r2, [r3, #20]
 8087a1e:	f022 0201 	bic.w	r2, r2, #1
 8087a22:	615a      	str	r2, [r3, #20]
 8087a24:	b128      	cbz	r0, 8087a32 <HAL_UART_Abort_IT+0x26>
 8087a26:	695a      	ldr	r2, [r3, #20]
 8087a28:	f012 0280 	ands.w	r2, r2, #128	; 0x80
 8087a2c:	bf18      	it	ne
 8087a2e:	4a21      	ldrne	r2, [pc, #132]	; (8087ab4 <HAL_UART_Abort_IT+0xa8>)
 8087a30:	6502      	str	r2, [r0, #80]	; 0x50
 8087a32:	6b61      	ldr	r1, [r4, #52]	; 0x34
 8087a34:	b129      	cbz	r1, 8087a42 <HAL_UART_Abort_IT+0x36>
 8087a36:	695a      	ldr	r2, [r3, #20]
 8087a38:	f012 0240 	ands.w	r2, r2, #64	; 0x40
 8087a3c:	bf18      	it	ne
 8087a3e:	4a1e      	ldrne	r2, [pc, #120]	; (8087ab8 <HAL_UART_Abort_IT+0xac>)
 8087a40:	650a      	str	r2, [r1, #80]	; 0x50
 8087a42:	695a      	ldr	r2, [r3, #20]
 8087a44:	0612      	lsls	r2, r2, #24
 8087a46:	d50b      	bpl.n	8087a60 <HAL_UART_Abort_IT+0x54>
 8087a48:	695a      	ldr	r2, [r3, #20]
 8087a4a:	f022 0280 	bic.w	r2, r2, #128	; 0x80
 8087a4e:	615a      	str	r2, [r3, #20]
 8087a50:	b130      	cbz	r0, 8087a60 <HAL_UART_Abort_IT+0x54>
 8087a52:	f7f9 ff5b 	bl	808190c <HAL_DMA_Abort_IT>
 8087a56:	b300      	cbz	r0, 8087a9a <HAL_UART_Abort_IT+0x8e>
 8087a58:	6b22      	ldr	r2, [r4, #48]	; 0x30
 8087a5a:	6823      	ldr	r3, [r4, #0]
 8087a5c:	2100      	movs	r1, #0
 8087a5e:	6511      	str	r1, [r2, #80]	; 0x50
 8087a60:	695a      	ldr	r2, [r3, #20]
 8087a62:	0652      	lsls	r2, r2, #25
 8087a64:	d50b      	bpl.n	8087a7e <HAL_UART_Abort_IT+0x72>
 8087a66:	695a      	ldr	r2, [r3, #20]
 8087a68:	6b60      	ldr	r0, [r4, #52]	; 0x34
 8087a6a:	f022 0240 	bic.w	r2, r2, #64	; 0x40
 8087a6e:	615a      	str	r2, [r3, #20]
 8087a70:	b128      	cbz	r0, 8087a7e <HAL_UART_Abort_IT+0x72>
 8087a72:	f7f9 ff4b 	bl	808190c <HAL_DMA_Abort_IT>
 8087a76:	b170      	cbz	r0, 8087a96 <HAL_UART_Abort_IT+0x8a>
 8087a78:	6b63      	ldr	r3, [r4, #52]	; 0x34
 8087a7a:	2200      	movs	r2, #0
 8087a7c:	651a      	str	r2, [r3, #80]	; 0x50
 8087a7e:	2300      	movs	r3, #0
 8087a80:	2220      	movs	r2, #32
 8087a82:	84e3      	strh	r3, [r4, #38]	; 0x26
 8087a84:	4620      	mov	r0, r4
 8087a86:	85e3      	strh	r3, [r4, #46]	; 0x2e
 8087a88:	63e3      	str	r3, [r4, #60]	; 0x3c
 8087a8a:	f884 2039 	strb.w	r2, [r4, #57]	; 0x39
 8087a8e:	f884 203a 	strb.w	r2, [r4, #58]	; 0x3a
 8087a92:	f7ff ffb9 	bl	8087a08 <HAL_UART_AbortCpltCallback>
 8087a96:	2000      	movs	r0, #0
 8087a98:	bd10      	pop	{r4, pc}
 8087a9a:	6823      	ldr	r3, [r4, #0]
 8087a9c:	695a      	ldr	r2, [r3, #20]
 8087a9e:	0651      	lsls	r1, r2, #25
 8087aa0:	d5f9      	bpl.n	8087a96 <HAL_UART_Abort_IT+0x8a>
 8087aa2:	695a      	ldr	r2, [r3, #20]
 8087aa4:	6b60      	ldr	r0, [r4, #52]	; 0x34
 8087aa6:	f022 0240 	bic.w	r2, r2, #64	; 0x40
 8087aaa:	615a      	str	r2, [r3, #20]
 8087aac:	2800      	cmp	r0, #0
 8087aae:	d1e0      	bne.n	8087a72 <HAL_UART_Abort_IT+0x66>
 8087ab0:	e7f1      	b.n	8087a96 <HAL_UART_Abort_IT+0x8a>
 8087ab2:	bf00      	nop
 8087ab4:	08087aed 	.word	0x08087aed
 8087ab8:	08087abd 	.word	0x08087abd

08087abc <UART_DMARxAbortCallback>:
 8087abc:	b508      	push	{r3, lr}
 8087abe:	6b83      	ldr	r3, [r0, #56]	; 0x38
 8087ac0:	e9d3 210c 	ldrd	r2, r1, [r3, #48]	; 0x30
 8087ac4:	2000      	movs	r0, #0
 8087ac6:	6508      	str	r0, [r1, #80]	; 0x50
 8087ac8:	b112      	cbz	r2, 8087ad0 <UART_DMARxAbortCallback+0x14>
 8087aca:	6d12      	ldr	r2, [r2, #80]	; 0x50
 8087acc:	b102      	cbz	r2, 8087ad0 <UART_DMARxAbortCallback+0x14>
 8087ace:	bd08      	pop	{r3, pc}
 8087ad0:	2200      	movs	r2, #0
 8087ad2:	2120      	movs	r1, #32
 8087ad4:	84da      	strh	r2, [r3, #38]	; 0x26
 8087ad6:	4618      	mov	r0, r3
 8087ad8:	85da      	strh	r2, [r3, #46]	; 0x2e
 8087ada:	63da      	str	r2, [r3, #60]	; 0x3c
 8087adc:	f883 1039 	strb.w	r1, [r3, #57]	; 0x39
 8087ae0:	f883 103a 	strb.w	r1, [r3, #58]	; 0x3a
 8087ae4:	f7ff ff90 	bl	8087a08 <HAL_UART_AbortCpltCallback>
 8087ae8:	bd08      	pop	{r3, pc}
 8087aea:	bf00      	nop

08087aec <UART_DMATxAbortCallback>:
 8087aec:	b508      	push	{r3, lr}
 8087aee:	6b83      	ldr	r3, [r0, #56]	; 0x38
 8087af0:	e9d3 120c 	ldrd	r1, r2, [r3, #48]	; 0x30
 8087af4:	2000      	movs	r0, #0
 8087af6:	6508      	str	r0, [r1, #80]	; 0x50
 8087af8:	b112      	cbz	r2, 8087b00 <UART_DMATxAbortCallback+0x14>
 8087afa:	6d12      	ldr	r2, [r2, #80]	; 0x50
 8087afc:	b102      	cbz	r2, 8087b00 <UART_DMATxAbortCallback+0x14>
 8087afe:	bd08      	pop	{r3, pc}
 8087b00:	2200      	movs	r2, #0
 8087b02:	2120      	movs	r1, #32
 8087b04:	84da      	strh	r2, [r3, #38]	; 0x26
 8087b06:	4618      	mov	r0, r3
 8087b08:	85da      	strh	r2, [r3, #46]	; 0x2e
 8087b0a:	63da      	str	r2, [r3, #60]	; 0x3c
 8087b0c:	f883 1039 	strb.w	r1, [r3, #57]	; 0x39
 8087b10:	f883 103a 	strb.w	r1, [r3, #58]	; 0x3a
 8087b14:	f7ff ff78 	bl	8087a08 <HAL_UART_AbortCpltCallback>
 8087b18:	bd08      	pop	{r3, pc}
 8087b1a:	bf00      	nop

08087b1c <HAL_UART_AbortTransmitCpltCallback>:
 8087b1c:	4770      	bx	lr
 8087b1e:	bf00      	nop

08087b20 <HAL_UART_AbortTransmit_IT>:
 8087b20:	6803      	ldr	r3, [r0, #0]
 8087b22:	68da      	ldr	r2, [r3, #12]
 8087b24:	f022 02c0 	bic.w	r2, r2, #192	; 0xc0
 8087b28:	b510      	push	{r4, lr}
 8087b2a:	60da      	str	r2, [r3, #12]
 8087b2c:	695a      	ldr	r2, [r3, #20]
 8087b2e:	f012 0280 	ands.w	r2, r2, #128	; 0x80
 8087b32:	4604      	mov	r4, r0
 8087b34:	d010      	beq.n	8087b58 <HAL_UART_AbortTransmit_IT+0x38>
 8087b36:	695a      	ldr	r2, [r3, #20]
 8087b38:	6b01      	ldr	r1, [r0, #48]	; 0x30
 8087b3a:	f022 0280 	bic.w	r2, r2, #128	; 0x80
 8087b3e:	615a      	str	r2, [r3, #20]
 8087b40:	b191      	cbz	r1, 8087b68 <HAL_UART_AbortTransmit_IT+0x48>
 8087b42:	4b0d      	ldr	r3, [pc, #52]	; (8087b78 <HAL_UART_AbortTransmit_IT+0x58>)
 8087b44:	650b      	str	r3, [r1, #80]	; 0x50
 8087b46:	4608      	mov	r0, r1
 8087b48:	f7f9 fee0 	bl	808190c <HAL_DMA_Abort_IT>
 8087b4c:	b110      	cbz	r0, 8087b54 <HAL_UART_AbortTransmit_IT+0x34>
 8087b4e:	6b20      	ldr	r0, [r4, #48]	; 0x30
 8087b50:	6d03      	ldr	r3, [r0, #80]	; 0x50
 8087b52:	4798      	blx	r3
 8087b54:	2000      	movs	r0, #0
 8087b56:	bd10      	pop	{r4, pc}
 8087b58:	2320      	movs	r3, #32
 8087b5a:	84c2      	strh	r2, [r0, #38]	; 0x26
 8087b5c:	f880 3039 	strb.w	r3, [r0, #57]	; 0x39
 8087b60:	f7ff ffdc 	bl	8087b1c <HAL_UART_AbortTransmitCpltCallback>
 8087b64:	2000      	movs	r0, #0
 8087b66:	bd10      	pop	{r4, pc}
 8087b68:	2320      	movs	r3, #32
 8087b6a:	84c1      	strh	r1, [r0, #38]	; 0x26
 8087b6c:	f880 3039 	strb.w	r3, [r0, #57]	; 0x39
 8087b70:	f7ff ffd4 	bl	8087b1c <HAL_UART_AbortTransmitCpltCallback>
 8087b74:	2000      	movs	r0, #0
 8087b76:	bd10      	pop	{r4, pc}
 8087b78:	08087b7d 	.word	0x08087b7d

08087b7c <UART_DMATxOnlyAbortCallback>:
 8087b7c:	b508      	push	{r3, lr}
 8087b7e:	6b83      	ldr	r3, [r0, #56]	; 0x38
 8087b80:	2100      	movs	r1, #0
 8087b82:	2220      	movs	r2, #32
 8087b84:	84d9      	strh	r1, [r3, #38]	; 0x26
 8087b86:	4618      	mov	r0, r3
 8087b88:	f883 2039 	strb.w	r2, [r3, #57]	; 0x39
 8087b8c:	f7ff ffc6 	bl	8087b1c <HAL_UART_AbortTransmitCpltCallback>
 8087b90:	bd08      	pop	{r3, pc}
 8087b92:	bf00      	nop

08087b94 <HAL_UART_AbortReceiveCpltCallback>:
 8087b94:	4770      	bx	lr
 8087b96:	bf00      	nop

08087b98 <HAL_UART_AbortReceive_IT>:
 8087b98:	6803      	ldr	r3, [r0, #0]
 8087b9a:	68da      	ldr	r2, [r3, #12]
 8087b9c:	f422 7290 	bic.w	r2, r2, #288	; 0x120
 8087ba0:	b510      	push	{r4, lr}
 8087ba2:	60da      	str	r2, [r3, #12]
 8087ba4:	695a      	ldr	r2, [r3, #20]
 8087ba6:	f022 0201 	bic.w	r2, r2, #1
 8087baa:	615a      	str	r2, [r3, #20]
 8087bac:	695a      	ldr	r2, [r3, #20]
 8087bae:	f012 0240 	ands.w	r2, r2, #64	; 0x40
 8087bb2:	4604      	mov	r4, r0
 8087bb4:	d010      	beq.n	8087bd8 <HAL_UART_AbortReceive_IT+0x40>
 8087bb6:	695a      	ldr	r2, [r3, #20]
 8087bb8:	6b41      	ldr	r1, [r0, #52]	; 0x34
 8087bba:	f022 0240 	bic.w	r2, r2, #64	; 0x40
 8087bbe:	615a      	str	r2, [r3, #20]
 8087bc0:	b191      	cbz	r1, 8087be8 <HAL_UART_AbortReceive_IT+0x50>
 8087bc2:	4b0d      	ldr	r3, [pc, #52]	; (8087bf8 <HAL_UART_AbortReceive_IT+0x60>)
 8087bc4:	650b      	str	r3, [r1, #80]	; 0x50
 8087bc6:	4608      	mov	r0, r1
 8087bc8:	f7f9 fea0 	bl	808190c <HAL_DMA_Abort_IT>
 8087bcc:	b110      	cbz	r0, 8087bd4 <HAL_UART_AbortReceive_IT+0x3c>
 8087bce:	6b60      	ldr	r0, [r4, #52]	; 0x34
 8087bd0:	6d03      	ldr	r3, [r0, #80]	; 0x50
 8087bd2:	4798      	blx	r3
 8087bd4:	2000      	movs	r0, #0
 8087bd6:	bd10      	pop	{r4, pc}
 8087bd8:	2320      	movs	r3, #32
 8087bda:	85c2      	strh	r2, [r0, #46]	; 0x2e
 8087bdc:	f880 303a 	strb.w	r3, [r0, #58]	; 0x3a
 8087be0:	f7ff ffd8 	bl	8087b94 <HAL_UART_AbortReceiveCpltCallback>
 8087be4:	2000      	movs	r0, #0
 8087be6:	bd10      	pop	{r4, pc}
 8087be8:	2320      	movs	r3, #32
 8087bea:	85c1      	strh	r1, [r0, #46]	; 0x2e
 8087bec:	f880 303a 	strb.w	r3, [r0, #58]	; 0x3a
 8087bf0:	f7ff ffd0 	bl	8087b94 <HAL_UART_AbortReceiveCpltCallback>
 8087bf4:	2000      	movs	r0, #0
 8087bf6:	bd10      	pop	{r4, pc}
 8087bf8:	08087bfd 	.word	0x08087bfd

08087bfc <UART_DMARxOnlyAbortCallback>:
 8087bfc:	b508      	push	{r3, lr}
 8087bfe:	6b83      	ldr	r3, [r0, #56]	; 0x38
 8087c00:	2100      	movs	r1, #0
 8087c02:	2220      	movs	r2, #32
 8087c04:	85d9      	strh	r1, [r3, #46]	; 0x2e
 8087c06:	4618      	mov	r0, r3
 8087c08:	f883 203a 	strb.w	r2, [r3, #58]	; 0x3a
 8087c0c:	f7ff ffc2 	bl	8087b94 <HAL_UART_AbortReceiveCpltCallback>
 8087c10:	bd08      	pop	{r3, pc}
 8087c12:	bf00      	nop

08087c14 <HAL_LIN_SendBreak>:
 8087c14:	f890 2038 	ldrb.w	r2, [r0, #56]	; 0x38
 8087c18:	2a01      	cmp	r2, #1
 8087c1a:	d013      	beq.n	8087c44 <HAL_LIN_SendBreak+0x30>
 8087c1c:	4603      	mov	r3, r0
 8087c1e:	2224      	movs	r2, #36	; 0x24
 8087c20:	6800      	ldr	r0, [r0, #0]
 8087c22:	b410      	push	{r4}
 8087c24:	f883 2039 	strb.w	r2, [r3, #57]	; 0x39
 8087c28:	68c2      	ldr	r2, [r0, #12]
 8087c2a:	2420      	movs	r4, #32
 8087c2c:	2100      	movs	r1, #0
 8087c2e:	f042 0201 	orr.w	r2, r2, #1
 8087c32:	60c2      	str	r2, [r0, #12]
 8087c34:	4608      	mov	r0, r1
 8087c36:	f883 4039 	strb.w	r4, [r3, #57]	; 0x39
 8087c3a:	f883 1038 	strb.w	r1, [r3, #56]	; 0x38
 8087c3e:	f85d 4b04 	ldr.w	r4, [sp], #4
 8087c42:	4770      	bx	lr
 8087c44:	2002      	movs	r0, #2
 8087c46:	4770      	bx	lr

08087c48 <HAL_MultiProcessor_EnterMuteMode>:
 8087c48:	f890 2038 	ldrb.w	r2, [r0, #56]	; 0x38
 8087c4c:	2a01      	cmp	r2, #1
 8087c4e:	d013      	beq.n	8087c78 <HAL_MultiProcessor_EnterMuteMode+0x30>
 8087c50:	4603      	mov	r3, r0
 8087c52:	2224      	movs	r2, #36	; 0x24
 8087c54:	6800      	ldr	r0, [r0, #0]
 8087c56:	b410      	push	{r4}
 8087c58:	f883 2039 	strb.w	r2, [r3, #57]	; 0x39
 8087c5c:	68c2      	ldr	r2, [r0, #12]
 8087c5e:	2420      	movs	r4, #32
 8087c60:	2100      	movs	r1, #0
 8087c62:	f042 0202 	orr.w	r2, r2, #2
 8087c66:	60c2      	str	r2, [r0, #12]
 8087c68:	4608      	mov	r0, r1
 8087c6a:	f883 4039 	strb.w	r4, [r3, #57]	; 0x39
 8087c6e:	f883 1038 	strb.w	r1, [r3, #56]	; 0x38
 8087c72:	f85d 4b04 	ldr.w	r4, [sp], #4
 8087c76:	4770      	bx	lr
 8087c78:	2002      	movs	r0, #2
 8087c7a:	4770      	bx	lr

08087c7c <HAL_MultiProcessor_ExitMuteMode>:
 8087c7c:	f890 2038 	ldrb.w	r2, [r0, #56]	; 0x38
 8087c80:	2a01      	cmp	r2, #1
 8087c82:	d013      	beq.n	8087cac <HAL_MultiProcessor_ExitMuteMode+0x30>
 8087c84:	4603      	mov	r3, r0
 8087c86:	2224      	movs	r2, #36	; 0x24
 8087c88:	6800      	ldr	r0, [r0, #0]
 8087c8a:	b410      	push	{r4}
 8087c8c:	f883 2039 	strb.w	r2, [r3, #57]	; 0x39
 8087c90:	68c2      	ldr	r2, [r0, #12]
 8087c92:	2420      	movs	r4, #32
 8087c94:	2100      	movs	r1, #0
 8087c96:	f022 0202 	bic.w	r2, r2, #2
 8087c9a:	60c2      	str	r2, [r0, #12]
 8087c9c:	4608      	mov	r0, r1
 8087c9e:	f883 4039 	strb.w	r4, [r3, #57]	; 0x39
 8087ca2:	f883 1038 	strb.w	r1, [r3, #56]	; 0x38
 8087ca6:	f85d 4b04 	ldr.w	r4, [sp], #4
 8087caa:	4770      	bx	lr
 8087cac:	2002      	movs	r0, #2
 8087cae:	4770      	bx	lr

08087cb0 <HAL_HalfDuplex_EnableTransmitter>:
 8087cb0:	f890 2038 	ldrb.w	r2, [r0, #56]	; 0x38
 8087cb4:	2a01      	cmp	r2, #1
 8087cb6:	d015      	beq.n	8087ce4 <HAL_HalfDuplex_EnableTransmitter+0x34>
 8087cb8:	4603      	mov	r3, r0
 8087cba:	2224      	movs	r2, #36	; 0x24
 8087cbc:	6800      	ldr	r0, [r0, #0]
 8087cbe:	b410      	push	{r4}
 8087cc0:	f883 2039 	strb.w	r2, [r3, #57]	; 0x39
 8087cc4:	68c2      	ldr	r2, [r0, #12]
 8087cc6:	f022 020c 	bic.w	r2, r2, #12
 8087cca:	2420      	movs	r4, #32
 8087ccc:	2100      	movs	r1, #0
 8087cce:	f042 0208 	orr.w	r2, r2, #8
 8087cd2:	60c2      	str	r2, [r0, #12]
 8087cd4:	4608      	mov	r0, r1
 8087cd6:	f883 4039 	strb.w	r4, [r3, #57]	; 0x39
 8087cda:	f883 1038 	strb.w	r1, [r3, #56]	; 0x38
 8087cde:	f85d 4b04 	ldr.w	r4, [sp], #4
 8087ce2:	4770      	bx	lr
 8087ce4:	2002      	movs	r0, #2
 8087ce6:	4770      	bx	lr

08087ce8 <HAL_HalfDuplex_EnableReceiver>:
 8087ce8:	f890 2038 	ldrb.w	r2, [r0, #56]	; 0x38
 8087cec:	2a01      	cmp	r2, #1
 8087cee:	d015      	beq.n	8087d1c <HAL_HalfDuplex_EnableReceiver+0x34>
 8087cf0:	4603      	mov	r3, r0
 8087cf2:	2224      	movs	r2, #36	; 0x24
 8087cf4:	6800      	ldr	r0, [r0, #0]
 8087cf6:	b410      	push	{r4}
 8087cf8:	f883 2039 	strb.w	r2, [r3, #57]	; 0x39
 8087cfc:	68c2      	ldr	r2, [r0, #12]
 8087cfe:	f022 020c 	bic.w	r2, r2, #12
 8087d02:	2420      	movs	r4, #32
 8087d04:	2100      	movs	r1, #0
 8087d06:	f042 0204 	orr.w	r2, r2, #4
 8087d0a:	60c2      	str	r2, [r0, #12]
 8087d0c:	4608      	mov	r0, r1
 8087d0e:	f883 4039 	strb.w	r4, [r3, #57]	; 0x39
 8087d12:	f883 1038 	strb.w	r1, [r3, #56]	; 0x38
 8087d16:	f85d 4b04 	ldr.w	r4, [sp], #4
 8087d1a:	4770      	bx	lr
 8087d1c:	2002      	movs	r0, #2
 8087d1e:	4770      	bx	lr

08087d20 <HAL_UART_GetState>:
 8087d20:	f890 2039 	ldrb.w	r2, [r0, #57]	; 0x39
 8087d24:	f890 003a 	ldrb.w	r0, [r0, #58]	; 0x3a
 8087d28:	4310      	orrs	r0, r2
 8087d2a:	4770      	bx	lr

08087d2c <HAL_UART_GetError>:
 8087d2c:	6bc0      	ldr	r0, [r0, #60]	; 0x3c
 8087d2e:	4770      	bx	lr

08087d30 <SystemClock_Config>:
 8087d30:	b570      	push	{r4, r5, r6, lr}
 8087d32:	2400      	movs	r4, #0
 8087d34:	b094      	sub	sp, #80	; 0x50
 8087d36:	e9cd 440b 	strd	r4, r4, [sp, #44]	; 0x2c
 8087d3a:	e9cd 4409 	strd	r4, r4, [sp, #36]	; 0x24
 8087d3e:	e9cd 4404 	strd	r4, r4, [sp, #16]
 8087d42:	e9cd 4406 	strd	r4, r4, [sp, #24]
 8087d46:	4b1c      	ldr	r3, [pc, #112]	; (8087db8 <SystemClock_Config+0x88>)
 8087d48:	9401      	str	r4, [sp, #4]
 8087d4a:	940d      	str	r4, [sp, #52]	; 0x34
 8087d4c:	9403      	str	r4, [sp, #12]
 8087d4e:	6c19      	ldr	r1, [r3, #64]	; 0x40
 8087d50:	4a1a      	ldr	r2, [pc, #104]	; (8087dbc <SystemClock_Config+0x8c>)
 8087d52:	f041 5180 	orr.w	r1, r1, #268435456	; 0x10000000
 8087d56:	6419      	str	r1, [r3, #64]	; 0x40
 8087d58:	6c1b      	ldr	r3, [r3, #64]	; 0x40
 8087d5a:	f003 5380 	and.w	r3, r3, #268435456	; 0x10000000
 8087d5e:	9301      	str	r3, [sp, #4]
 8087d60:	9b01      	ldr	r3, [sp, #4]
 8087d62:	9402      	str	r4, [sp, #8]
 8087d64:	6813      	ldr	r3, [r2, #0]
 8087d66:	f423 4340 	bic.w	r3, r3, #49152	; 0xc000
 8087d6a:	f443 4380 	orr.w	r3, r3, #16384	; 0x4000
 8087d6e:	6013      	str	r3, [r2, #0]
 8087d70:	6813      	ldr	r3, [r2, #0]
 8087d72:	940f      	str	r4, [sp, #60]	; 0x3c
 8087d74:	f403 4340 	and.w	r3, r3, #49152	; 0xc000
 8087d78:	9302      	str	r3, [sp, #8]
 8087d7a:	2601      	movs	r6, #1
 8087d7c:	2310      	movs	r3, #16
 8087d7e:	2502      	movs	r5, #2
 8087d80:	2264      	movs	r2, #100	; 0x64
 8087d82:	e9cd 630b 	strd	r6, r3, [sp, #44]	; 0x2c
 8087d86:	9310      	str	r3, [sp, #64]	; 0x40
 8087d88:	a808      	add	r0, sp, #32
 8087d8a:	2304      	movs	r3, #4
 8087d8c:	9902      	ldr	r1, [sp, #8]
 8087d8e:	9211      	str	r2, [sp, #68]	; 0x44
 8087d90:	9313      	str	r3, [sp, #76]	; 0x4c
 8087d92:	9508      	str	r5, [sp, #32]
 8087d94:	950e      	str	r5, [sp, #56]	; 0x38
 8087d96:	9512      	str	r5, [sp, #72]	; 0x48
 8087d98:	f7fa fa40 	bl	808221c <HAL_RCC_OscConfig>
 8087d9c:	220f      	movs	r2, #15
 8087d9e:	f44f 5380 	mov.w	r3, #4096	; 0x1000
 8087da2:	4631      	mov	r1, r6
 8087da4:	a803      	add	r0, sp, #12
 8087da6:	e9cd 5404 	strd	r5, r4, [sp, #16]
 8087daa:	9407      	str	r4, [sp, #28]
 8087dac:	9203      	str	r2, [sp, #12]
 8087dae:	9306      	str	r3, [sp, #24]
 8087db0:	f7fa fc7e 	bl	80826b0 <HAL_RCC_ClockConfig>
 8087db4:	b014      	add	sp, #80	; 0x50
 8087db6:	bd70      	pop	{r4, r5, r6, pc}
 8087db8:	40023800 	.word	0x40023800
 8087dbc:	40007000 	.word	0x40007000

08087dc0 <Error_Handler>:
 8087dc0:	4770      	bx	lr
 8087dc2:	bf00      	nop
	...

08087dd0 <memchr>:
 8087dd0:	f001 01ff 	and.w	r1, r1, #255	; 0xff
 8087dd4:	2a10      	cmp	r2, #16
 8087dd6:	db2b      	blt.n	8087e30 <memchr+0x60>
 8087dd8:	f010 0f07 	tst.w	r0, #7
 8087ddc:	d008      	beq.n	8087df0 <memchr+0x20>
 8087dde:	f810 3b01 	ldrb.w	r3, [r0], #1
 8087de2:	3a01      	subs	r2, #1
 8087de4:	428b      	cmp	r3, r1
 8087de6:	d02d      	beq.n	8087e44 <memchr+0x74>
 8087de8:	f010 0f07 	tst.w	r0, #7
 8087dec:	b342      	cbz	r2, 8087e40 <memchr+0x70>
 8087dee:	d1f6      	bne.n	8087dde <memchr+0xe>
 8087df0:	b4f0      	push	{r4, r5, r6, r7}
 8087df2:	ea41 2101 	orr.w	r1, r1, r1, lsl #8
 8087df6:	ea41 4101 	orr.w	r1, r1, r1, lsl #16
 8087dfa:	f022 0407 	bic.w	r4, r2, #7
 8087dfe:	f07f 0700 	mvns.w	r7, #0
 8087e02:	2300      	movs	r3, #0
 8087e04:	e8f0 5602 	ldrd	r5, r6, [r0], #8
 8087e08:	3c08      	subs	r4, #8
 8087e0a:	ea85 0501 	eor.w	r5, r5, r1
 8087e0e:	ea86 0601 	eor.w	r6, r6, r1
 8087e12:	fa85 f547 	uadd8	r5, r5, r7
 8087e16:	faa3 f587 	sel	r5, r3, r7
 8087e1a:	fa86 f647 	uadd8	r6, r6, r7
 8087e1e:	faa5 f687 	sel	r6, r5, r7
 8087e22:	b98e      	cbnz	r6, 8087e48 <memchr+0x78>
 8087e24:	d1ee      	bne.n	8087e04 <memchr+0x34>
 8087e26:	bcf0      	pop	{r4, r5, r6, r7}
 8087e28:	f001 01ff 	and.w	r1, r1, #255	; 0xff
 8087e2c:	f002 0207 	and.w	r2, r2, #7
 8087e30:	b132      	cbz	r2, 8087e40 <memchr+0x70>
 8087e32:	f810 3b01 	ldrb.w	r3, [r0], #1
 8087e36:	3a01      	subs	r2, #1
 8087e38:	ea83 0301 	eor.w	r3, r3, r1
 8087e3c:	b113      	cbz	r3, 8087e44 <memchr+0x74>
 8087e3e:	d1f8      	bne.n	8087e32 <memchr+0x62>
 8087e40:	2000      	movs	r0, #0
 8087e42:	4770      	bx	lr
 8087e44:	3801      	subs	r0, #1
 8087e46:	4770      	bx	lr
 8087e48:	2d00      	cmp	r5, #0
 8087e4a:	bf06      	itte	eq
 8087e4c:	4635      	moveq	r5, r6
 8087e4e:	3803      	subeq	r0, #3
 8087e50:	3807      	subne	r0, #7
 8087e52:	f015 0f01 	tst.w	r5, #1
 8087e56:	d107      	bne.n	8087e68 <memchr+0x98>
 8087e58:	3001      	adds	r0, #1
 8087e5a:	f415 7f80 	tst.w	r5, #256	; 0x100
 8087e5e:	bf02      	ittt	eq
 8087e60:	3001      	addeq	r0, #1
 8087e62:	f415 3fc0 	tsteq.w	r5, #98304	; 0x18000
 8087e66:	3001      	addeq	r0, #1
 8087e68:	bcf0      	pop	{r4, r5, r6, r7}
 8087e6a:	3801      	subs	r0, #1
 8087e6c:	4770      	bx	lr
 8087e6e:	bf00      	nop

08087e70 <__aeabi_uldivmod>:
 8087e70:	b953      	cbnz	r3, 8087e88 <__aeabi_uldivmod+0x18>
 8087e72:	b94a      	cbnz	r2, 8087e88 <__aeabi_uldivmod+0x18>
 8087e74:	2900      	cmp	r1, #0
 8087e76:	bf08      	it	eq
 8087e78:	2800      	cmpeq	r0, #0
 8087e7a:	bf1c      	itt	ne
 8087e7c:	f04f 31ff 	movne.w	r1, #4294967295	; 0xffffffff
 8087e80:	f04f 30ff 	movne.w	r0, #4294967295	; 0xffffffff
 8087e84:	f000 b972 	b.w	808816c <__aeabi_idiv0>
 8087e88:	f1ad 0c08 	sub.w	ip, sp, #8
 8087e8c:	e96d ce04 	strd	ip, lr, [sp, #-16]!
 8087e90:	f000 f806 	bl	8087ea0 <__udivmoddi4>
 8087e94:	f8dd e004 	ldr.w	lr, [sp, #4]
 8087e98:	e9dd 2302 	ldrd	r2, r3, [sp, #8]
 8087e9c:	b004      	add	sp, #16
 8087e9e:	4770      	bx	lr

08087ea0 <__udivmoddi4>:
 8087ea0:	e92d 47f0 	stmdb	sp!, {r4, r5, r6, r7, r8, r9, sl, lr}
 8087ea4:	9e08      	ldr	r6, [sp, #32]
 8087ea6:	4604      	mov	r4, r0
 8087ea8:	4688      	mov	r8, r1
 8087eaa:	2b00      	cmp	r3, #0
 8087eac:	d14b      	bne.n	8087f46 <__udivmoddi4+0xa6>
 8087eae:	428a      	cmp	r2, r1
 8087eb0:	4615      	mov	r5, r2
 8087eb2:	d967      	bls.n	8087f84 <__udivmoddi4+0xe4>
 8087eb4:	fab2 f282 	clz	r2, r2
 8087eb8:	b14a      	cbz	r2, 8087ece <__udivmoddi4+0x2e>
 8087eba:	f1c2 0720 	rsb	r7, r2, #32
 8087ebe:	fa01 f302 	lsl.w	r3, r1, r2
 8087ec2:	fa20 f707 	lsr.w	r7, r0, r7
 8087ec6:	4095      	lsls	r5, r2
 8087ec8:	ea47 0803 	orr.w	r8, r7, r3
 8087ecc:	4094      	lsls	r4, r2
 8087ece:	ea4f 4e15 	mov.w	lr, r5, lsr #16
 8087ed2:	0c23      	lsrs	r3, r4, #16
 8087ed4:	fbb8 f7fe 	udiv	r7, r8, lr
 8087ed8:	fa1f fc85 	uxth.w	ip, r5
 8087edc:	fb0e 8817 	mls	r8, lr, r7, r8
 8087ee0:	ea43 4308 	orr.w	r3, r3, r8, lsl #16
 8087ee4:	fb07 f10c 	mul.w	r1, r7, ip
 8087ee8:	4299      	cmp	r1, r3
 8087eea:	d909      	bls.n	8087f00 <__udivmoddi4+0x60>
 8087eec:	18eb      	adds	r3, r5, r3
 8087eee:	f107 30ff 	add.w	r0, r7, #4294967295	; 0xffffffff
 8087ef2:	f080 811b 	bcs.w	808812c <__udivmoddi4+0x28c>
 8087ef6:	4299      	cmp	r1, r3
 8087ef8:	f240 8118 	bls.w	808812c <__udivmoddi4+0x28c>
 8087efc:	3f02      	subs	r7, #2
 8087efe:	442b      	add	r3, r5
 8087f00:	1a5b      	subs	r3, r3, r1
 8087f02:	b2a4      	uxth	r4, r4
 8087f04:	fbb3 f0fe 	udiv	r0, r3, lr
 8087f08:	fb0e 3310 	mls	r3, lr, r0, r3
 8087f0c:	ea44 4403 	orr.w	r4, r4, r3, lsl #16
 8087f10:	fb00 fc0c 	mul.w	ip, r0, ip
 8087f14:	45a4      	cmp	ip, r4
 8087f16:	d909      	bls.n	8087f2c <__udivmoddi4+0x8c>
 8087f18:	192c      	adds	r4, r5, r4
 8087f1a:	f100 33ff 	add.w	r3, r0, #4294967295	; 0xffffffff
 8087f1e:	f080 8107 	bcs.w	8088130 <__udivmoddi4+0x290>
 8087f22:	45a4      	cmp	ip, r4
 8087f24:	f240 8104 	bls.w	8088130 <__udivmoddi4+0x290>
 8087f28:	3802      	subs	r0, #2
 8087f2a:	442c      	add	r4, r5
 8087f2c:	ea40 4007 	orr.w	r0, r0, r7, lsl #16
 8087f30:	eba4 040c 	sub.w	r4, r4, ip
 8087f34:	2700      	movs	r7, #0
 8087f36:	b11e      	cbz	r6, 8087f40 <__udivmoddi4+0xa0>
 8087f38:	40d4      	lsrs	r4, r2
 8087f3a:	2300      	movs	r3, #0
 8087f3c:	e9c6 4300 	strd	r4, r3, [r6]
 8087f40:	4639      	mov	r1, r7
 8087f42:	e8bd 87f0 	ldmia.w	sp!, {r4, r5, r6, r7, r8, r9, sl, pc}
 8087f46:	428b      	cmp	r3, r1
 8087f48:	d909      	bls.n	8087f5e <__udivmoddi4+0xbe>
 8087f4a:	2e00      	cmp	r6, #0
 8087f4c:	f000 80eb 	beq.w	8088126 <__udivmoddi4+0x286>
 8087f50:	2700      	movs	r7, #0
 8087f52:	e9c6 0100 	strd	r0, r1, [r6]
 8087f56:	4638      	mov	r0, r7
 8087f58:	4639      	mov	r1, r7
 8087f5a:	e8bd 87f0 	ldmia.w	sp!, {r4, r5, r6, r7, r8, r9, sl, pc}
 8087f5e:	fab3 f783 	clz	r7, r3
 8087f62:	2f00      	cmp	r7, #0
 8087f64:	d147      	bne.n	8087ff6 <__udivmoddi4+0x156>
 8087f66:	428b      	cmp	r3, r1
 8087f68:	d302      	bcc.n	8087f70 <__udivmoddi4+0xd0>
 8087f6a:	4282      	cmp	r2, r0
 8087f6c:	f200 80fa 	bhi.w	8088164 <__udivmoddi4+0x2c4>
 8087f70:	1a84      	subs	r4, r0, r2
 8087f72:	eb61 0303 	sbc.w	r3, r1, r3
 8087f76:	2001      	movs	r0, #1
 8087f78:	4698      	mov	r8, r3
 8087f7a:	2e00      	cmp	r6, #0
 8087f7c:	d0e0      	beq.n	8087f40 <__udivmoddi4+0xa0>
 8087f7e:	e9c6 4800 	strd	r4, r8, [r6]
 8087f82:	e7dd      	b.n	8087f40 <__udivmoddi4+0xa0>
 8087f84:	b902      	cbnz	r2, 8087f88 <__udivmoddi4+0xe8>
 8087f86:	deff      	udf	#255	; 0xff
 8087f88:	fab2 f282 	clz	r2, r2
 8087f8c:	2a00      	cmp	r2, #0
 8087f8e:	f040 808f 	bne.w	80880b0 <__udivmoddi4+0x210>
 8087f92:	1b49      	subs	r1, r1, r5
 8087f94:	ea4f 4e15 	mov.w	lr, r5, lsr #16
 8087f98:	fa1f f885 	uxth.w	r8, r5
 8087f9c:	2701      	movs	r7, #1
 8087f9e:	fbb1 fcfe 	udiv	ip, r1, lr
 8087fa2:	0c23      	lsrs	r3, r4, #16
 8087fa4:	fb0e 111c 	mls	r1, lr, ip, r1
 8087fa8:	ea43 4301 	orr.w	r3, r3, r1, lsl #16
 8087fac:	fb08 f10c 	mul.w	r1, r8, ip
 8087fb0:	4299      	cmp	r1, r3
 8087fb2:	d907      	bls.n	8087fc4 <__udivmoddi4+0x124>
 8087fb4:	18eb      	adds	r3, r5, r3
 8087fb6:	f10c 30ff 	add.w	r0, ip, #4294967295	; 0xffffffff
 8087fba:	d202      	bcs.n	8087fc2 <__udivmoddi4+0x122>
 8087fbc:	4299      	cmp	r1, r3
 8087fbe:	f200 80cd 	bhi.w	808815c <__udivmoddi4+0x2bc>
 8087fc2:	4684      	mov	ip, r0
 8087fc4:	1a59      	subs	r1, r3, r1
 8087fc6:	b2a3      	uxth	r3, r4
 8087fc8:	fbb1 f0fe 	udiv	r0, r1, lr
 8087fcc:	fb0e 1410 	mls	r4, lr, r0, r1
 8087fd0:	ea43 4404 	orr.w	r4, r3, r4, lsl #16
 8087fd4:	fb08 f800 	mul.w	r8, r8, r0
 8087fd8:	45a0      	cmp	r8, r4
 8087fda:	d907      	bls.n	8087fec <__udivmoddi4+0x14c>
 8087fdc:	192c      	adds	r4, r5, r4
 8087fde:	f100 33ff 	add.w	r3, r0, #4294967295	; 0xffffffff
 8087fe2:	d202      	bcs.n	8087fea <__udivmoddi4+0x14a>
 8087fe4:	45a0      	cmp	r8, r4
 8087fe6:	f200 80b6 	bhi.w	8088156 <__udivmoddi4+0x2b6>
 8087fea:	4618      	mov	r0, r3
 8087fec:	eba4 0408 	sub.w	r4, r4, r8
 8087ff0:	ea40 400c 	orr.w	r0, r0, ip, lsl #16
 8087ff4:	e79f      	b.n	8087f36 <__udivmoddi4+0x96>
 8087ff6:	f1c7 0c20 	rsb	ip, r7, #32
 8087ffa:	40bb      	lsls	r3, r7
 8087ffc:	fa22 fe0c 	lsr.w	lr, r2, ip
 8088000:	ea4e 0e03 	orr.w	lr, lr, r3
 8088004:	fa01 f407 	lsl.w	r4, r1, r7
 8088008:	fa20 f50c 	lsr.w	r5, r0, ip
 808800c:	fa21 f30c 	lsr.w	r3, r1, ip
 8088010:	ea4f 481e 	mov.w	r8, lr, lsr #16
 8088014:	4325      	orrs	r5, r4
 8088016:	fbb3 f9f8 	udiv	r9, r3, r8
 808801a:	0c2c      	lsrs	r4, r5, #16
 808801c:	fb08 3319 	mls	r3, r8, r9, r3
 8088020:	fa1f fa8e 	uxth.w	sl, lr
 8088024:	ea44 4303 	orr.w	r3, r4, r3, lsl #16
 8088028:	fb09 f40a 	mul.w	r4, r9, sl
 808802c:	429c      	cmp	r4, r3
 808802e:	fa02 f207 	lsl.w	r2, r2, r7
 8088032:	fa00 f107 	lsl.w	r1, r0, r7
 8088036:	d90b      	bls.n	8088050 <__udivmoddi4+0x1b0>
 8088038:	eb1e 0303 	adds.w	r3, lr, r3
 808803c:	f109 30ff 	add.w	r0, r9, #4294967295	; 0xffffffff
 8088040:	f080 8087 	bcs.w	8088152 <__udivmoddi4+0x2b2>
 8088044:	429c      	cmp	r4, r3
 8088046:	f240 8084 	bls.w	8088152 <__udivmoddi4+0x2b2>
 808804a:	f1a9 0902 	sub.w	r9, r9, #2
 808804e:	4473      	add	r3, lr
 8088050:	1b1b      	subs	r3, r3, r4
 8088052:	b2ad      	uxth	r5, r5
 8088054:	fbb3 f0f8 	udiv	r0, r3, r8
 8088058:	fb08 3310 	mls	r3, r8, r0, r3
 808805c:	ea45 4403 	orr.w	r4, r5, r3, lsl #16
 8088060:	fb00 fa0a 	mul.w	sl, r0, sl
 8088064:	45a2      	cmp	sl, r4
 8088066:	d908      	bls.n	808807a <__udivmoddi4+0x1da>
 8088068:	eb1e 0404 	adds.w	r4, lr, r4
 808806c:	f100 33ff 	add.w	r3, r0, #4294967295	; 0xffffffff
 8088070:	d26b      	bcs.n	808814a <__udivmoddi4+0x2aa>
 8088072:	45a2      	cmp	sl, r4
 8088074:	d969      	bls.n	808814a <__udivmoddi4+0x2aa>
 8088076:	3802      	subs	r0, #2
 8088078:	4474      	add	r4, lr
 808807a:	ea40 4009 	orr.w	r0, r0, r9, lsl #16
 808807e:	fba0 8902 	umull	r8, r9, r0, r2
 8088082:	eba4 040a 	sub.w	r4, r4, sl
 8088086:	454c      	cmp	r4, r9
 8088088:	46c2      	mov	sl, r8
 808808a:	464b      	mov	r3, r9
 808808c:	d354      	bcc.n	8088138 <__udivmoddi4+0x298>
 808808e:	d051      	beq.n	8088134 <__udivmoddi4+0x294>
 8088090:	2e00      	cmp	r6, #0
 8088092:	d069      	beq.n	8088168 <__udivmoddi4+0x2c8>
 8088094:	ebb1 050a 	subs.w	r5, r1, sl
 8088098:	eb64 0403 	sbc.w	r4, r4, r3
 808809c:	fa04 fc0c 	lsl.w	ip, r4, ip
 80880a0:	40fd      	lsrs	r5, r7
 80880a2:	40fc      	lsrs	r4, r7
 80880a4:	ea4c 0505 	orr.w	r5, ip, r5
 80880a8:	e9c6 5400 	strd	r5, r4, [r6]
 80880ac:	2700      	movs	r7, #0
 80880ae:	e747      	b.n	8087f40 <__udivmoddi4+0xa0>
 80880b0:	f1c2 0320 	rsb	r3, r2, #32
 80880b4:	fa20 f703 	lsr.w	r7, r0, r3
 80880b8:	4095      	lsls	r5, r2
 80880ba:	fa01 f002 	lsl.w	r0, r1, r2
 80880be:	fa21 f303 	lsr.w	r3, r1, r3
 80880c2:	ea4f 4e15 	mov.w	lr, r5, lsr #16
 80880c6:	4338      	orrs	r0, r7
 80880c8:	0c01      	lsrs	r1, r0, #16
 80880ca:	fbb3 f7fe 	udiv	r7, r3, lr
 80880ce:	fa1f f885 	uxth.w	r8, r5
 80880d2:	fb0e 3317 	mls	r3, lr, r7, r3
 80880d6:	ea41 4103 	orr.w	r1, r1, r3, lsl #16
 80880da:	fb07 f308 	mul.w	r3, r7, r8
 80880de:	428b      	cmp	r3, r1
 80880e0:	fa04 f402 	lsl.w	r4, r4, r2
 80880e4:	d907      	bls.n	80880f6 <__udivmoddi4+0x256>
 80880e6:	1869      	adds	r1, r5, r1
 80880e8:	f107 3cff 	add.w	ip, r7, #4294967295	; 0xffffffff
 80880ec:	d22f      	bcs.n	808814e <__udivmoddi4+0x2ae>
 80880ee:	428b      	cmp	r3, r1
 80880f0:	d92d      	bls.n	808814e <__udivmoddi4+0x2ae>
 80880f2:	3f02      	subs	r7, #2
 80880f4:	4429      	add	r1, r5
 80880f6:	1acb      	subs	r3, r1, r3
 80880f8:	b281      	uxth	r1, r0
 80880fa:	fbb3 f0fe 	udiv	r0, r3, lr
 80880fe:	fb0e 3310 	mls	r3, lr, r0, r3
 8088102:	ea41 4103 	orr.w	r1, r1, r3, lsl #16
 8088106:	fb00 f308 	mul.w	r3, r0, r8
 808810a:	428b      	cmp	r3, r1
 808810c:	d907      	bls.n	808811e <__udivmoddi4+0x27e>
 808810e:	1869      	adds	r1, r5, r1
 8088110:	f100 3cff 	add.w	ip, r0, #4294967295	; 0xffffffff
 8088114:	d217      	bcs.n	8088146 <__udivmoddi4+0x2a6>
 8088116:	428b      	cmp	r3, r1
 8088118:	d915      	bls.n	8088146 <__udivmoddi4+0x2a6>
 808811a:	3802      	subs	r0, #2
 808811c:	4429      	add	r1, r5
 808811e:	1ac9      	subs	r1, r1, r3
 8088120:	ea40 4707 	orr.w	r7, r0, r7, lsl #16
 8088124:	e73b      	b.n	8087f9e <__udivmoddi4+0xfe>
 8088126:	4637      	mov	r7, r6
 8088128:	4630      	mov	r0, r6
 808812a:	e709      	b.n	8087f40 <__udivmoddi4+0xa0>
 808812c:	4607      	mov	r7, r0
 808812e:	e6e7      	b.n	8087f00 <__udivmoddi4+0x60>
 8088130:	4618      	mov	r0, r3
 8088132:	e6fb      	b.n	8087f2c <__udivmoddi4+0x8c>
 8088134:	4541      	cmp	r1, r8
 8088136:	d2ab      	bcs.n	8088090 <__udivmoddi4+0x1f0>
 8088138:	ebb8 0a02 	subs.w	sl, r8, r2
 808813c:	eb69 020e 	sbc.w	r2, r9, lr
 8088140:	3801      	subs	r0, #1
 8088142:	4613      	mov	r3, r2
 8088144:	e7a4      	b.n	8088090 <__udivmoddi4+0x1f0>
 8088146:	4660      	mov	r0, ip
 8088148:	e7e9      	b.n	808811e <__udivmoddi4+0x27e>
 808814a:	4618      	mov	r0, r3
 808814c:	e795      	b.n	808807a <__udivmoddi4+0x1da>
 808814e:	4667      	mov	r7, ip
 8088150:	e7d1      	b.n	80880f6 <__udivmoddi4+0x256>
 8088152:	4681      	mov	r9, r0
 8088154:	e77c      	b.n	8088050 <__udivmoddi4+0x1b0>
 8088156:	3802      	subs	r0, #2
 8088158:	442c      	add	r4, r5
 808815a:	e747      	b.n	8087fec <__udivmoddi4+0x14c>
 808815c:	f1ac 0c02 	sub.w	ip, ip, #2
 8088160:	442b      	add	r3, r5
 8088162:	e72f      	b.n	8087fc4 <__udivmoddi4+0x124>
 8088164:	4638      	mov	r0, r7
 8088166:	e708      	b.n	8087f7a <__udivmoddi4+0xda>
 8088168:	4637      	mov	r7, r6
 808816a:	e6e9      	b.n	8087f40 <__udivmoddi4+0xa0>

0808816c <__aeabi_idiv0>:
 808816c:	4770      	bx	lr
 808816e:	bf00      	nop

08088170 <main>:
 8088170:	b510      	push	{r4, lr}
 8088172:	b0bc      	sub	sp, #240	; 0xf0
 8088174:	f7f8 fff0 	bl	8081158 <HAL_Init>
 8088178:	f7ff fdda 	bl	8087d30 <SystemClock_Config>
 808817c:	f7f8 f838 	bl	80801f0 <MX_GPIO_Init>
 8088180:	f7f8 ff12 	bl	8080fa8 <MX_USART1_UART_Init>
 8088184:	f7f8 fea6 	bl	8080ed4 <MX_TIM5_Init>
 8088188:	4b20      	ldr	r3, [pc, #128]	; (808820c <main+0x9c>)
 808818a:	4c21      	ldr	r4, [pc, #132]	; (8088210 <main+0xa0>)
 808818c:	4821      	ldr	r0, [pc, #132]	; (8088214 <main+0xa4>)
 808818e:	2200      	movs	r2, #0
 8088190:	9204      	str	r2, [sp, #16]
 8088192:	6c1a      	ldr	r2, [r3, #64]	; 0x40
 8088194:	f042 0208 	orr.w	r2, r2, #8
 8088198:	641a      	str	r2, [r3, #64]	; 0x40
 808819a:	6c1a      	ldr	r2, [r3, #64]	; 0x40
 808819c:	6823      	ldr	r3, [r4, #0]
 808819e:	f002 0208 	and.w	r2, r2, #8
 80881a2:	9204      	str	r2, [sp, #16]
 80881a4:	9a04      	ldr	r2, [sp, #16]
 80881a6:	68da      	ldr	r2, [r3, #12]
 80881a8:	f042 0220 	orr.w	r2, r2, #32
 80881ac:	60da      	str	r2, [r3, #12]
 80881ae:	68da      	ldr	r2, [r3, #12]
 80881b0:	f042 0240 	orr.w	r2, r2, #64	; 0x40
 80881b4:	60da      	str	r2, [r3, #12]
 80881b6:	f7fa fc61 	bl	8082a7c <HAL_TIM_Base_Start>
 80881ba:	4917      	ldr	r1, [pc, #92]	; (8088218 <main+0xa8>)
 80881bc:	a805      	add	r0, sp, #20
 80881be:	f7f8 fc5f 	bl	8080a80 <sha_stream>
 80881c2:	e9dd 0108 	ldrd	r0, r1, [sp, #32]
 80881c6:	9102      	str	r1, [sp, #8]
 80881c8:	9907      	ldr	r1, [sp, #28]
 80881ca:	9001      	str	r0, [sp, #4]
 80881cc:	e9dd 2305 	ldrd	r2, r3, [sp, #20]
 80881d0:	9100      	str	r1, [sp, #0]
 80881d2:	a81c      	add	r0, sp, #112	; 0x70
 80881d4:	4911      	ldr	r1, [pc, #68]	; (808821c <main+0xac>)
 80881d6:	f000 f889 	bl	80882ec <siprintf>
 80881da:	a91c      	add	r1, sp, #112	; 0x70
 80881dc:	f04f 33ff 	mov.w	r3, #4294967295	; 0xffffffff
 80881e0:	2280      	movs	r2, #128	; 0x80
 80881e2:	4620      	mov	r0, r4
 80881e4:	f7fe ff70 	bl	80870c8 <HAL_UART_Transmit>
 80881e8:	f44f 707a 	mov.w	r0, #1000	; 0x3e8
 80881ec:	f7f8 fffe 	bl	80811ec <HAL_Delay>
 80881f0:	4b0b      	ldr	r3, [pc, #44]	; (8088220 <main+0xb0>)
 80881f2:	490c      	ldr	r1, [pc, #48]	; (8088224 <main+0xb4>)
 80881f4:	6a5a      	ldr	r2, [r3, #36]	; 0x24
 80881f6:	a81c      	add	r0, sp, #112	; 0x70
 80881f8:	f000 f878 	bl	80882ec <siprintf>
 80881fc:	a91c      	add	r1, sp, #112	; 0x70
 80881fe:	4620      	mov	r0, r4
 8088200:	f04f 33ff 	mov.w	r3, #4294967295	; 0xffffffff
 8088204:	2280      	movs	r2, #128	; 0x80
 8088206:	f7fe ff5f 	bl	80870c8 <HAL_UART_Transmit>
 808820a:	e7fe      	b.n	808820a <main+0x9a>
 808820c:	40023800 	.word	0x40023800
 8088210:	200190e0 	.word	0x200190e0
 8088214:	200190a0 	.word	0x200190a0
 8088218:	2000000c 	.word	0x2000000c
 808821c:	08088b38 	.word	0x08088b38
 8088220:	40000c00 	.word	0x40000c00
 8088224:	08088b58 	.word	0x08088b58

08088228 <Reset_Handler>:
 8088228:	f8df d034 	ldr.w	sp, [pc, #52]	; 8088260 <LoopFillZerobss+0x14>
 808822c:	2100      	movs	r1, #0
 808822e:	e003      	b.n	8088238 <LoopCopyDataInit>

08088230 <CopyDataInit>:
 8088230:	4b0c      	ldr	r3, [pc, #48]	; (8088264 <LoopFillZerobss+0x18>)
 8088232:	585b      	ldr	r3, [r3, r1]
 8088234:	5043      	str	r3, [r0, r1]
 8088236:	3104      	adds	r1, #4

08088238 <LoopCopyDataInit>:
 8088238:	480b      	ldr	r0, [pc, #44]	; (8088268 <LoopFillZerobss+0x1c>)
 808823a:	4b0c      	ldr	r3, [pc, #48]	; (808826c <LoopFillZerobss+0x20>)
 808823c:	1842      	adds	r2, r0, r1
 808823e:	429a      	cmp	r2, r3
 8088240:	d3f6      	bcc.n	8088230 <CopyDataInit>
 8088242:	4a0b      	ldr	r2, [pc, #44]	; (8088270 <LoopFillZerobss+0x24>)
 8088244:	e002      	b.n	808824c <LoopFillZerobss>

08088246 <FillZerobss>:
 8088246:	2300      	movs	r3, #0
 8088248:	f842 3b04 	str.w	r3, [r2], #4

0808824c <LoopFillZerobss>:
 808824c:	4b09      	ldr	r3, [pc, #36]	; (8088274 <LoopFillZerobss+0x28>)
 808824e:	429a      	cmp	r2, r3
 8088250:	d3f9      	bcc.n	8088246 <FillZerobss>
 8088252:	f7f8 fddf 	bl	8080e14 <SystemInit>
 8088256:	f000 f811 	bl	808827c <__libc_init_array>
 808825a:	f7ff ff89 	bl	8088170 <main>
 808825e:	4770      	bx	lr
 8088260:	20030000 	.word	0x20030000
 8088264:	08088bb4 	.word	0x08088bb4
 8088268:	20000000 	.word	0x20000000
 808826c:	20019074 	.word	0x20019074
 8088270:	20019074 	.word	0x20019074
 8088274:	20019128 	.word	0x20019128

08088278 <ADC_IRQHandler>:
 8088278:	e7fe      	b.n	8088278 <ADC_IRQHandler>
	...

0808827c <__libc_init_array>:
 808827c:	b570      	push	{r4, r5, r6, lr}
 808827e:	4e0d      	ldr	r6, [pc, #52]	; (80882b4 <__libc_init_array+0x38>)
 8088280:	4c0d      	ldr	r4, [pc, #52]	; (80882b8 <__libc_init_array+0x3c>)
 8088282:	1ba4      	subs	r4, r4, r6
 8088284:	10a4      	asrs	r4, r4, #2
 8088286:	2500      	movs	r5, #0
 8088288:	42a5      	cmp	r5, r4
 808828a:	d109      	bne.n	80882a0 <__libc_init_array+0x24>
 808828c:	4e0b      	ldr	r6, [pc, #44]	; (80882bc <__libc_init_array+0x40>)
 808828e:	4c0c      	ldr	r4, [pc, #48]	; (80882c0 <__libc_init_array+0x44>)
 8088290:	f000 fc36 	bl	8088b00 <_init>
 8088294:	1ba4      	subs	r4, r4, r6
 8088296:	10a4      	asrs	r4, r4, #2
 8088298:	2500      	movs	r5, #0
 808829a:	42a5      	cmp	r5, r4
 808829c:	d105      	bne.n	80882aa <__libc_init_array+0x2e>
 808829e:	bd70      	pop	{r4, r5, r6, pc}
 80882a0:	f856 3025 	ldr.w	r3, [r6, r5, lsl #2]
 80882a4:	4798      	blx	r3
 80882a6:	3501      	adds	r5, #1
 80882a8:	e7ee      	b.n	8088288 <__libc_init_array+0xc>
 80882aa:	f856 3025 	ldr.w	r3, [r6, r5, lsl #2]
 80882ae:	4798      	blx	r3
 80882b0:	3501      	adds	r5, #1
 80882b2:	e7f2      	b.n	808829a <__libc_init_array+0x1e>
 80882b4:	08088bac 	.word	0x08088bac
 80882b8:	08088bac 	.word	0x08088bac
 80882bc:	08088bac 	.word	0x08088bac
 80882c0:	08088bb0 	.word	0x08088bb0

080882c4 <memcpy>:
 80882c4:	b510      	push	{r4, lr}
 80882c6:	1e43      	subs	r3, r0, #1
 80882c8:	440a      	add	r2, r1
 80882ca:	4291      	cmp	r1, r2
 80882cc:	d100      	bne.n	80882d0 <memcpy+0xc>
 80882ce:	bd10      	pop	{r4, pc}
 80882d0:	f811 4b01 	ldrb.w	r4, [r1], #1
 80882d4:	f803 4f01 	strb.w	r4, [r3, #1]!
 80882d8:	e7f7      	b.n	80882ca <memcpy+0x6>

080882da <memset>:
 80882da:	4402      	add	r2, r0
 80882dc:	4603      	mov	r3, r0
 80882de:	4293      	cmp	r3, r2
 80882e0:	d100      	bne.n	80882e4 <memset+0xa>
 80882e2:	4770      	bx	lr
 80882e4:	f803 1b01 	strb.w	r1, [r3], #1
 80882e8:	e7f9      	b.n	80882de <memset+0x4>
	...

080882ec <siprintf>:
 80882ec:	b40e      	push	{r1, r2, r3}
 80882ee:	b500      	push	{lr}
 80882f0:	b09c      	sub	sp, #112	; 0x70
 80882f2:	ab1d      	add	r3, sp, #116	; 0x74
 80882f4:	9002      	str	r0, [sp, #8]
 80882f6:	9006      	str	r0, [sp, #24]
 80882f8:	f06f 4100 	mvn.w	r1, #2147483648	; 0x80000000
 80882fc:	4809      	ldr	r0, [pc, #36]	; (8088324 <siprintf+0x38>)
 80882fe:	9107      	str	r1, [sp, #28]
 8088300:	9104      	str	r1, [sp, #16]
 8088302:	4909      	ldr	r1, [pc, #36]	; (8088328 <siprintf+0x3c>)
 8088304:	f853 2b04 	ldr.w	r2, [r3], #4
 8088308:	9105      	str	r1, [sp, #20]
 808830a:	6800      	ldr	r0, [r0, #0]
 808830c:	9301      	str	r3, [sp, #4]
 808830e:	a902      	add	r1, sp, #8
 8088310:	f000 f866 	bl	80883e0 <_svfiprintf_r>
 8088314:	9b02      	ldr	r3, [sp, #8]
 8088316:	2200      	movs	r2, #0
 8088318:	701a      	strb	r2, [r3, #0]
 808831a:	b01c      	add	sp, #112	; 0x70
 808831c:	f85d eb04 	ldr.w	lr, [sp], #4
 8088320:	b003      	add	sp, #12
 8088322:	4770      	bx	lr
 8088324:	20019010 	.word	0x20019010
 8088328:	ffff0208 	.word	0xffff0208

0808832c <__ssputs_r>:
 808832c:	e92d 47f0 	stmdb	sp!, {r4, r5, r6, r7, r8, r9, sl, lr}
 8088330:	688e      	ldr	r6, [r1, #8]
 8088332:	429e      	cmp	r6, r3
 8088334:	4682      	mov	sl, r0
 8088336:	460c      	mov	r4, r1
 8088338:	4690      	mov	r8, r2
 808833a:	4699      	mov	r9, r3
 808833c:	d837      	bhi.n	80883ae <__ssputs_r+0x82>
 808833e:	898a      	ldrh	r2, [r1, #12]
 8088340:	f412 6f90 	tst.w	r2, #1152	; 0x480
 8088344:	d031      	beq.n	80883aa <__ssputs_r+0x7e>
 8088346:	6825      	ldr	r5, [r4, #0]
 8088348:	6909      	ldr	r1, [r1, #16]
 808834a:	1a6f      	subs	r7, r5, r1
 808834c:	6965      	ldr	r5, [r4, #20]
 808834e:	2302      	movs	r3, #2
 8088350:	eb05 0545 	add.w	r5, r5, r5, lsl #1
 8088354:	fb95 f5f3 	sdiv	r5, r5, r3
 8088358:	f109 0301 	add.w	r3, r9, #1
 808835c:	443b      	add	r3, r7
 808835e:	429d      	cmp	r5, r3
 8088360:	bf38      	it	cc
 8088362:	461d      	movcc	r5, r3
 8088364:	0553      	lsls	r3, r2, #21
 8088366:	d530      	bpl.n	80883ca <__ssputs_r+0x9e>
 8088368:	4629      	mov	r1, r5
 808836a:	f000 fb21 	bl	80889b0 <_malloc_r>
 808836e:	4606      	mov	r6, r0
 8088370:	b950      	cbnz	r0, 8088388 <__ssputs_r+0x5c>
 8088372:	230c      	movs	r3, #12
 8088374:	f8ca 3000 	str.w	r3, [sl]
 8088378:	89a3      	ldrh	r3, [r4, #12]
 808837a:	f043 0340 	orr.w	r3, r3, #64	; 0x40
 808837e:	81a3      	strh	r3, [r4, #12]
 8088380:	f04f 30ff 	mov.w	r0, #4294967295	; 0xffffffff
 8088384:	e8bd 87f0 	ldmia.w	sp!, {r4, r5, r6, r7, r8, r9, sl, pc}
 8088388:	463a      	mov	r2, r7
 808838a:	6921      	ldr	r1, [r4, #16]
 808838c:	f7ff ff9a 	bl	80882c4 <memcpy>
 8088390:	89a3      	ldrh	r3, [r4, #12]
 8088392:	f423 6390 	bic.w	r3, r3, #1152	; 0x480
 8088396:	f043 0380 	orr.w	r3, r3, #128	; 0x80
 808839a:	81a3      	strh	r3, [r4, #12]
 808839c:	6126      	str	r6, [r4, #16]
 808839e:	6165      	str	r5, [r4, #20]
 80883a0:	443e      	add	r6, r7
 80883a2:	1bed      	subs	r5, r5, r7
 80883a4:	6026      	str	r6, [r4, #0]
 80883a6:	60a5      	str	r5, [r4, #8]
 80883a8:	464e      	mov	r6, r9
 80883aa:	454e      	cmp	r6, r9
 80883ac:	d900      	bls.n	80883b0 <__ssputs_r+0x84>
 80883ae:	464e      	mov	r6, r9
 80883b0:	4632      	mov	r2, r6
 80883b2:	4641      	mov	r1, r8
 80883b4:	6820      	ldr	r0, [r4, #0]
 80883b6:	f000 fa93 	bl	80888e0 <memmove>
 80883ba:	68a3      	ldr	r3, [r4, #8]
 80883bc:	1b9b      	subs	r3, r3, r6
 80883be:	60a3      	str	r3, [r4, #8]
 80883c0:	6823      	ldr	r3, [r4, #0]
 80883c2:	441e      	add	r6, r3
 80883c4:	6026      	str	r6, [r4, #0]
 80883c6:	2000      	movs	r0, #0
 80883c8:	e7dc      	b.n	8088384 <__ssputs_r+0x58>
 80883ca:	462a      	mov	r2, r5
 80883cc:	f000 fb4a 	bl	8088a64 <_realloc_r>
 80883d0:	4606      	mov	r6, r0
 80883d2:	2800      	cmp	r0, #0
 80883d4:	d1e2      	bne.n	808839c <__ssputs_r+0x70>
 80883d6:	6921      	ldr	r1, [r4, #16]
 80883d8:	4650      	mov	r0, sl
 80883da:	f000 fa9b 	bl	8088914 <_free_r>
 80883de:	e7c8      	b.n	8088372 <__ssputs_r+0x46>

080883e0 <_svfiprintf_r>:
 80883e0:	e92d 4ff0 	stmdb	sp!, {r4, r5, r6, r7, r8, r9, sl, fp, lr}
 80883e4:	461d      	mov	r5, r3
 80883e6:	898b      	ldrh	r3, [r1, #12]
 80883e8:	061f      	lsls	r7, r3, #24
 80883ea:	b09d      	sub	sp, #116	; 0x74
 80883ec:	4680      	mov	r8, r0
 80883ee:	460c      	mov	r4, r1
 80883f0:	4616      	mov	r6, r2
 80883f2:	d50f      	bpl.n	8088414 <_svfiprintf_r+0x34>
 80883f4:	690b      	ldr	r3, [r1, #16]
 80883f6:	b96b      	cbnz	r3, 8088414 <_svfiprintf_r+0x34>
 80883f8:	2140      	movs	r1, #64	; 0x40
 80883fa:	f000 fad9 	bl	80889b0 <_malloc_r>
 80883fe:	6020      	str	r0, [r4, #0]
 8088400:	6120      	str	r0, [r4, #16]
 8088402:	b928      	cbnz	r0, 8088410 <_svfiprintf_r+0x30>
 8088404:	230c      	movs	r3, #12
 8088406:	f8c8 3000 	str.w	r3, [r8]
 808840a:	f04f 30ff 	mov.w	r0, #4294967295	; 0xffffffff
 808840e:	e0c8      	b.n	80885a2 <_svfiprintf_r+0x1c2>
 8088410:	2340      	movs	r3, #64	; 0x40
 8088412:	6163      	str	r3, [r4, #20]
 8088414:	2300      	movs	r3, #0
 8088416:	9309      	str	r3, [sp, #36]	; 0x24
 8088418:	2320      	movs	r3, #32
 808841a:	f88d 3029 	strb.w	r3, [sp, #41]	; 0x29
 808841e:	2330      	movs	r3, #48	; 0x30
 8088420:	f88d 302a 	strb.w	r3, [sp, #42]	; 0x2a
 8088424:	9503      	str	r5, [sp, #12]
 8088426:	f04f 0b01 	mov.w	fp, #1
 808842a:	4637      	mov	r7, r6
 808842c:	463d      	mov	r5, r7
 808842e:	f815 3b01 	ldrb.w	r3, [r5], #1
 8088432:	b10b      	cbz	r3, 8088438 <_svfiprintf_r+0x58>
 8088434:	2b25      	cmp	r3, #37	; 0x25
 8088436:	d13e      	bne.n	80884b6 <_svfiprintf_r+0xd6>
 8088438:	ebb7 0a06 	subs.w	sl, r7, r6
 808843c:	d00b      	beq.n	8088456 <_svfiprintf_r+0x76>
 808843e:	4653      	mov	r3, sl
 8088440:	4632      	mov	r2, r6
 8088442:	4621      	mov	r1, r4
 8088444:	4640      	mov	r0, r8
 8088446:	f7ff ff71 	bl	808832c <__ssputs_r>
 808844a:	3001      	adds	r0, #1
 808844c:	f000 80a4 	beq.w	8088598 <_svfiprintf_r+0x1b8>
 8088450:	9b09      	ldr	r3, [sp, #36]	; 0x24
 8088452:	4453      	add	r3, sl
 8088454:	9309      	str	r3, [sp, #36]	; 0x24
 8088456:	783b      	ldrb	r3, [r7, #0]
 8088458:	2b00      	cmp	r3, #0
 808845a:	f000 809d 	beq.w	8088598 <_svfiprintf_r+0x1b8>
 808845e:	2300      	movs	r3, #0
 8088460:	f04f 32ff 	mov.w	r2, #4294967295	; 0xffffffff
 8088464:	e9cd 2305 	strd	r2, r3, [sp, #20]
 8088468:	9304      	str	r3, [sp, #16]
 808846a:	9307      	str	r3, [sp, #28]
 808846c:	f88d 3053 	strb.w	r3, [sp, #83]	; 0x53
 8088470:	931a      	str	r3, [sp, #104]	; 0x68
 8088472:	462f      	mov	r7, r5
 8088474:	2205      	movs	r2, #5
 8088476:	f817 1b01 	ldrb.w	r1, [r7], #1
 808847a:	4850      	ldr	r0, [pc, #320]	; (80885bc <_svfiprintf_r+0x1dc>)
 808847c:	f7ff fca8 	bl	8087dd0 <memchr>
 8088480:	9b04      	ldr	r3, [sp, #16]
 8088482:	b9d0      	cbnz	r0, 80884ba <_svfiprintf_r+0xda>
 8088484:	06d9      	lsls	r1, r3, #27
 8088486:	bf44      	itt	mi
 8088488:	2220      	movmi	r2, #32
 808848a:	f88d 2053 	strbmi.w	r2, [sp, #83]	; 0x53
 808848e:	071a      	lsls	r2, r3, #28
 8088490:	bf44      	itt	mi
 8088492:	222b      	movmi	r2, #43	; 0x2b
 8088494:	f88d 2053 	strbmi.w	r2, [sp, #83]	; 0x53
 8088498:	782a      	ldrb	r2, [r5, #0]
 808849a:	2a2a      	cmp	r2, #42	; 0x2a
 808849c:	d015      	beq.n	80884ca <_svfiprintf_r+0xea>
 808849e:	9a07      	ldr	r2, [sp, #28]
 80884a0:	462f      	mov	r7, r5
 80884a2:	2000      	movs	r0, #0
 80884a4:	250a      	movs	r5, #10
 80884a6:	4639      	mov	r1, r7
 80884a8:	f811 3b01 	ldrb.w	r3, [r1], #1
 80884ac:	3b30      	subs	r3, #48	; 0x30
 80884ae:	2b09      	cmp	r3, #9
 80884b0:	d94d      	bls.n	808854e <_svfiprintf_r+0x16e>
 80884b2:	b1b8      	cbz	r0, 80884e4 <_svfiprintf_r+0x104>
 80884b4:	e00f      	b.n	80884d6 <_svfiprintf_r+0xf6>
 80884b6:	462f      	mov	r7, r5
 80884b8:	e7b8      	b.n	808842c <_svfiprintf_r+0x4c>
 80884ba:	4a40      	ldr	r2, [pc, #256]	; (80885bc <_svfiprintf_r+0x1dc>)
 80884bc:	1a80      	subs	r0, r0, r2
 80884be:	fa0b f000 	lsl.w	r0, fp, r0
 80884c2:	4318      	orrs	r0, r3
 80884c4:	9004      	str	r0, [sp, #16]
 80884c6:	463d      	mov	r5, r7
 80884c8:	e7d3      	b.n	8088472 <_svfiprintf_r+0x92>
 80884ca:	9a03      	ldr	r2, [sp, #12]
 80884cc:	1d11      	adds	r1, r2, #4
 80884ce:	6812      	ldr	r2, [r2, #0]
 80884d0:	9103      	str	r1, [sp, #12]
 80884d2:	2a00      	cmp	r2, #0
 80884d4:	db01      	blt.n	80884da <_svfiprintf_r+0xfa>
 80884d6:	9207      	str	r2, [sp, #28]
 80884d8:	e004      	b.n	80884e4 <_svfiprintf_r+0x104>
 80884da:	4252      	negs	r2, r2
 80884dc:	f043 0302 	orr.w	r3, r3, #2
 80884e0:	9207      	str	r2, [sp, #28]
 80884e2:	9304      	str	r3, [sp, #16]
 80884e4:	783b      	ldrb	r3, [r7, #0]
 80884e6:	2b2e      	cmp	r3, #46	; 0x2e
 80884e8:	d10c      	bne.n	8088504 <_svfiprintf_r+0x124>
 80884ea:	787b      	ldrb	r3, [r7, #1]
 80884ec:	2b2a      	cmp	r3, #42	; 0x2a
 80884ee:	d133      	bne.n	8088558 <_svfiprintf_r+0x178>
 80884f0:	9b03      	ldr	r3, [sp, #12]
 80884f2:	1d1a      	adds	r2, r3, #4
 80884f4:	681b      	ldr	r3, [r3, #0]
 80884f6:	9203      	str	r2, [sp, #12]
 80884f8:	2b00      	cmp	r3, #0
 80884fa:	bfb8      	it	lt
 80884fc:	f04f 33ff 	movlt.w	r3, #4294967295	; 0xffffffff
 8088500:	3702      	adds	r7, #2
 8088502:	9305      	str	r3, [sp, #20]
 8088504:	4d2e      	ldr	r5, [pc, #184]	; (80885c0 <_svfiprintf_r+0x1e0>)
 8088506:	7839      	ldrb	r1, [r7, #0]
 8088508:	2203      	movs	r2, #3
 808850a:	4628      	mov	r0, r5
 808850c:	f7ff fc60 	bl	8087dd0 <memchr>
 8088510:	b138      	cbz	r0, 8088522 <_svfiprintf_r+0x142>
 8088512:	2340      	movs	r3, #64	; 0x40
 8088514:	1b40      	subs	r0, r0, r5
 8088516:	fa03 f000 	lsl.w	r0, r3, r0
 808851a:	9b04      	ldr	r3, [sp, #16]
 808851c:	4303      	orrs	r3, r0
 808851e:	3701      	adds	r7, #1
 8088520:	9304      	str	r3, [sp, #16]
 8088522:	7839      	ldrb	r1, [r7, #0]
 8088524:	4827      	ldr	r0, [pc, #156]	; (80885c4 <_svfiprintf_r+0x1e4>)
 8088526:	f88d 1028 	strb.w	r1, [sp, #40]	; 0x28
 808852a:	2206      	movs	r2, #6
 808852c:	1c7e      	adds	r6, r7, #1
 808852e:	f7ff fc4f 	bl	8087dd0 <memchr>
 8088532:	2800      	cmp	r0, #0
 8088534:	d038      	beq.n	80885a8 <_svfiprintf_r+0x1c8>
 8088536:	4b24      	ldr	r3, [pc, #144]	; (80885c8 <_svfiprintf_r+0x1e8>)
 8088538:	bb13      	cbnz	r3, 8088580 <_svfiprintf_r+0x1a0>
 808853a:	9b03      	ldr	r3, [sp, #12]
 808853c:	3307      	adds	r3, #7
 808853e:	f023 0307 	bic.w	r3, r3, #7
 8088542:	3308      	adds	r3, #8
 8088544:	9303      	str	r3, [sp, #12]
 8088546:	9b09      	ldr	r3, [sp, #36]	; 0x24
 8088548:	444b      	add	r3, r9
 808854a:	9309      	str	r3, [sp, #36]	; 0x24
 808854c:	e76d      	b.n	808842a <_svfiprintf_r+0x4a>
 808854e:	fb05 3202 	mla	r2, r5, r2, r3
 8088552:	2001      	movs	r0, #1
 8088554:	460f      	mov	r7, r1
 8088556:	e7a6      	b.n	80884a6 <_svfiprintf_r+0xc6>
 8088558:	2300      	movs	r3, #0
 808855a:	3701      	adds	r7, #1
 808855c:	9305      	str	r3, [sp, #20]
 808855e:	4619      	mov	r1, r3
 8088560:	250a      	movs	r5, #10
 8088562:	4638      	mov	r0, r7
 8088564:	f810 2b01 	ldrb.w	r2, [r0], #1
 8088568:	3a30      	subs	r2, #48	; 0x30
 808856a:	2a09      	cmp	r2, #9
 808856c:	d903      	bls.n	8088576 <_svfiprintf_r+0x196>
 808856e:	2b00      	cmp	r3, #0
 8088570:	d0c8      	beq.n	8088504 <_svfiprintf_r+0x124>
 8088572:	9105      	str	r1, [sp, #20]
 8088574:	e7c6      	b.n	8088504 <_svfiprintf_r+0x124>
 8088576:	fb05 2101 	mla	r1, r5, r1, r2
 808857a:	2301      	movs	r3, #1
 808857c:	4607      	mov	r7, r0
 808857e:	e7f0      	b.n	8088562 <_svfiprintf_r+0x182>
 8088580:	ab03      	add	r3, sp, #12
 8088582:	9300      	str	r3, [sp, #0]
 8088584:	4622      	mov	r2, r4
 8088586:	4b11      	ldr	r3, [pc, #68]	; (80885cc <_svfiprintf_r+0x1ec>)
 8088588:	a904      	add	r1, sp, #16
 808858a:	4640      	mov	r0, r8
 808858c:	f3af 8000 	nop.w
 8088590:	f1b0 3fff 	cmp.w	r0, #4294967295	; 0xffffffff
 8088594:	4681      	mov	r9, r0
 8088596:	d1d6      	bne.n	8088546 <_svfiprintf_r+0x166>
 8088598:	89a3      	ldrh	r3, [r4, #12]
 808859a:	065b      	lsls	r3, r3, #25
 808859c:	f53f af35 	bmi.w	808840a <_svfiprintf_r+0x2a>
 80885a0:	9809      	ldr	r0, [sp, #36]	; 0x24
 80885a2:	b01d      	add	sp, #116	; 0x74
 80885a4:	e8bd 8ff0 	ldmia.w	sp!, {r4, r5, r6, r7, r8, r9, sl, fp, pc}
 80885a8:	ab03      	add	r3, sp, #12
 80885aa:	9300      	str	r3, [sp, #0]
 80885ac:	4622      	mov	r2, r4
 80885ae:	4b07      	ldr	r3, [pc, #28]	; (80885cc <_svfiprintf_r+0x1ec>)
 80885b0:	a904      	add	r1, sp, #16
 80885b2:	4640      	mov	r0, r8
 80885b4:	f000 f882 	bl	80886bc <_printf_i>
 80885b8:	e7ea      	b.n	8088590 <_svfiprintf_r+0x1b0>
 80885ba:	bf00      	nop
 80885bc:	08088b70 	.word	0x08088b70
 80885c0:	08088b76 	.word	0x08088b76
 80885c4:	08088b7a 	.word	0x08088b7a
 80885c8:	00000000 	.word	0x00000000
 80885cc:	0808832d 	.word	0x0808832d

080885d0 <_printf_common>:
 80885d0:	e92d 47f0 	stmdb	sp!, {r4, r5, r6, r7, r8, r9, sl, lr}
 80885d4:	4691      	mov	r9, r2
 80885d6:	461f      	mov	r7, r3
 80885d8:	688a      	ldr	r2, [r1, #8]
 80885da:	690b      	ldr	r3, [r1, #16]
 80885dc:	f8dd 8020 	ldr.w	r8, [sp, #32]
 80885e0:	4293      	cmp	r3, r2
 80885e2:	bfb8      	it	lt
 80885e4:	4613      	movlt	r3, r2
 80885e6:	f8c9 3000 	str.w	r3, [r9]
 80885ea:	f891 2043 	ldrb.w	r2, [r1, #67]	; 0x43
 80885ee:	4606      	mov	r6, r0
 80885f0:	460c      	mov	r4, r1
 80885f2:	b112      	cbz	r2, 80885fa <_printf_common+0x2a>
 80885f4:	3301      	adds	r3, #1
 80885f6:	f8c9 3000 	str.w	r3, [r9]
 80885fa:	6823      	ldr	r3, [r4, #0]
 80885fc:	0699      	lsls	r1, r3, #26
 80885fe:	bf42      	ittt	mi
 8088600:	f8d9 3000 	ldrmi.w	r3, [r9]
 8088604:	3302      	addmi	r3, #2
 8088606:	f8c9 3000 	strmi.w	r3, [r9]
 808860a:	6825      	ldr	r5, [r4, #0]
 808860c:	f015 0506 	ands.w	r5, r5, #6
 8088610:	d107      	bne.n	8088622 <_printf_common+0x52>
 8088612:	f104 0a19 	add.w	sl, r4, #25
 8088616:	68e3      	ldr	r3, [r4, #12]
 8088618:	f8d9 2000 	ldr.w	r2, [r9]
 808861c:	1a9b      	subs	r3, r3, r2
 808861e:	42ab      	cmp	r3, r5
 8088620:	dc28      	bgt.n	8088674 <_printf_common+0xa4>
 8088622:	f894 3043 	ldrb.w	r3, [r4, #67]	; 0x43
 8088626:	6822      	ldr	r2, [r4, #0]
 8088628:	3300      	adds	r3, #0
 808862a:	bf18      	it	ne
 808862c:	2301      	movne	r3, #1
 808862e:	0692      	lsls	r2, r2, #26
 8088630:	d42d      	bmi.n	808868e <_printf_common+0xbe>
 8088632:	f104 0243 	add.w	r2, r4, #67	; 0x43
 8088636:	4639      	mov	r1, r7
 8088638:	4630      	mov	r0, r6
 808863a:	47c0      	blx	r8
 808863c:	3001      	adds	r0, #1
 808863e:	d020      	beq.n	8088682 <_printf_common+0xb2>
 8088640:	6823      	ldr	r3, [r4, #0]
 8088642:	68e5      	ldr	r5, [r4, #12]
 8088644:	f8d9 2000 	ldr.w	r2, [r9]
 8088648:	f003 0306 	and.w	r3, r3, #6
 808864c:	2b04      	cmp	r3, #4
 808864e:	bf08      	it	eq
 8088650:	1aad      	subeq	r5, r5, r2
 8088652:	68a3      	ldr	r3, [r4, #8]
 8088654:	6922      	ldr	r2, [r4, #16]
 8088656:	bf0c      	ite	eq
 8088658:	ea25 75e5 	biceq.w	r5, r5, r5, asr #31
 808865c:	2500      	movne	r5, #0
 808865e:	4293      	cmp	r3, r2
 8088660:	bfc4      	itt	gt
 8088662:	1a9b      	subgt	r3, r3, r2
 8088664:	18ed      	addgt	r5, r5, r3
 8088666:	f04f 0900 	mov.w	r9, #0
 808866a:	341a      	adds	r4, #26
 808866c:	454d      	cmp	r5, r9
 808866e:	d11a      	bne.n	80886a6 <_printf_common+0xd6>
 8088670:	2000      	movs	r0, #0
 8088672:	e008      	b.n	8088686 <_printf_common+0xb6>
 8088674:	2301      	movs	r3, #1
 8088676:	4652      	mov	r2, sl
 8088678:	4639      	mov	r1, r7
 808867a:	4630      	mov	r0, r6
 808867c:	47c0      	blx	r8
 808867e:	3001      	adds	r0, #1
 8088680:	d103      	bne.n	808868a <_printf_common+0xba>
 8088682:	f04f 30ff 	mov.w	r0, #4294967295	; 0xffffffff
 8088686:	e8bd 87f0 	ldmia.w	sp!, {r4, r5, r6, r7, r8, r9, sl, pc}
 808868a:	3501      	adds	r5, #1
 808868c:	e7c3      	b.n	8088616 <_printf_common+0x46>
 808868e:	18e1      	adds	r1, r4, r3
 8088690:	1c5a      	adds	r2, r3, #1
 8088692:	2030      	movs	r0, #48	; 0x30
 8088694:	f881 0043 	strb.w	r0, [r1, #67]	; 0x43
 8088698:	4422      	add	r2, r4
 808869a:	f894 1045 	ldrb.w	r1, [r4, #69]	; 0x45
 808869e:	f882 1043 	strb.w	r1, [r2, #67]	; 0x43
 80886a2:	3302      	adds	r3, #2
 80886a4:	e7c5      	b.n	8088632 <_printf_common+0x62>
 80886a6:	2301      	movs	r3, #1
 80886a8:	4622      	mov	r2, r4
 80886aa:	4639      	mov	r1, r7
 80886ac:	4630      	mov	r0, r6
 80886ae:	47c0      	blx	r8
 80886b0:	3001      	adds	r0, #1
 80886b2:	d0e6      	beq.n	8088682 <_printf_common+0xb2>
 80886b4:	f109 0901 	add.w	r9, r9, #1
 80886b8:	e7d8      	b.n	808866c <_printf_common+0x9c>
	...

080886bc <_printf_i>:
 80886bc:	e92d 43f0 	stmdb	sp!, {r4, r5, r6, r7, r8, r9, lr}
 80886c0:	f101 0c43 	add.w	ip, r1, #67	; 0x43
 80886c4:	460c      	mov	r4, r1
 80886c6:	7e09      	ldrb	r1, [r1, #24]
 80886c8:	b085      	sub	sp, #20
 80886ca:	296e      	cmp	r1, #110	; 0x6e
 80886cc:	4617      	mov	r7, r2
 80886ce:	4606      	mov	r6, r0
 80886d0:	4698      	mov	r8, r3
 80886d2:	9a0c      	ldr	r2, [sp, #48]	; 0x30
 80886d4:	f000 80b3 	beq.w	808883e <_printf_i+0x182>
 80886d8:	d822      	bhi.n	8088720 <_printf_i+0x64>
 80886da:	2963      	cmp	r1, #99	; 0x63
 80886dc:	d036      	beq.n	808874c <_printf_i+0x90>
 80886de:	d80a      	bhi.n	80886f6 <_printf_i+0x3a>
 80886e0:	2900      	cmp	r1, #0
 80886e2:	f000 80b9 	beq.w	8088858 <_printf_i+0x19c>
 80886e6:	2958      	cmp	r1, #88	; 0x58
 80886e8:	f000 8083 	beq.w	80887f2 <_printf_i+0x136>
 80886ec:	f104 0542 	add.w	r5, r4, #66	; 0x42
 80886f0:	f884 1042 	strb.w	r1, [r4, #66]	; 0x42
 80886f4:	e032      	b.n	808875c <_printf_i+0xa0>
 80886f6:	2964      	cmp	r1, #100	; 0x64
 80886f8:	d001      	beq.n	80886fe <_printf_i+0x42>
 80886fa:	2969      	cmp	r1, #105	; 0x69
 80886fc:	d1f6      	bne.n	80886ec <_printf_i+0x30>
 80886fe:	6820      	ldr	r0, [r4, #0]
 8088700:	6813      	ldr	r3, [r2, #0]
 8088702:	0605      	lsls	r5, r0, #24
 8088704:	f103 0104 	add.w	r1, r3, #4
 8088708:	d52a      	bpl.n	8088760 <_printf_i+0xa4>
 808870a:	681b      	ldr	r3, [r3, #0]
 808870c:	6011      	str	r1, [r2, #0]
 808870e:	2b00      	cmp	r3, #0
 8088710:	da03      	bge.n	808871a <_printf_i+0x5e>
 8088712:	222d      	movs	r2, #45	; 0x2d
 8088714:	425b      	negs	r3, r3
 8088716:	f884 2043 	strb.w	r2, [r4, #67]	; 0x43
 808871a:	486f      	ldr	r0, [pc, #444]	; (80888d8 <_printf_i+0x21c>)
 808871c:	220a      	movs	r2, #10
 808871e:	e039      	b.n	8088794 <_printf_i+0xd8>
 8088720:	2973      	cmp	r1, #115	; 0x73
 8088722:	f000 809d 	beq.w	8088860 <_printf_i+0x1a4>
 8088726:	d808      	bhi.n	808873a <_printf_i+0x7e>
 8088728:	296f      	cmp	r1, #111	; 0x6f
 808872a:	d020      	beq.n	808876e <_printf_i+0xb2>
 808872c:	2970      	cmp	r1, #112	; 0x70
 808872e:	d1dd      	bne.n	80886ec <_printf_i+0x30>
 8088730:	6823      	ldr	r3, [r4, #0]
 8088732:	f043 0320 	orr.w	r3, r3, #32
 8088736:	6023      	str	r3, [r4, #0]
 8088738:	e003      	b.n	8088742 <_printf_i+0x86>
 808873a:	2975      	cmp	r1, #117	; 0x75
 808873c:	d017      	beq.n	808876e <_printf_i+0xb2>
 808873e:	2978      	cmp	r1, #120	; 0x78
 8088740:	d1d4      	bne.n	80886ec <_printf_i+0x30>
 8088742:	2378      	movs	r3, #120	; 0x78
 8088744:	f884 3045 	strb.w	r3, [r4, #69]	; 0x45
 8088748:	4864      	ldr	r0, [pc, #400]	; (80888dc <_printf_i+0x220>)
 808874a:	e055      	b.n	80887f8 <_printf_i+0x13c>
 808874c:	6813      	ldr	r3, [r2, #0]
 808874e:	1d19      	adds	r1, r3, #4
 8088750:	681b      	ldr	r3, [r3, #0]
 8088752:	6011      	str	r1, [r2, #0]
 8088754:	f104 0542 	add.w	r5, r4, #66	; 0x42
 8088758:	f884 3042 	strb.w	r3, [r4, #66]	; 0x42
 808875c:	2301      	movs	r3, #1
 808875e:	e08c      	b.n	808887a <_printf_i+0x1be>
 8088760:	681b      	ldr	r3, [r3, #0]
 8088762:	6011      	str	r1, [r2, #0]
 8088764:	f010 0f40 	tst.w	r0, #64	; 0x40
 8088768:	bf18      	it	ne
 808876a:	b21b      	sxthne	r3, r3
 808876c:	e7cf      	b.n	808870e <_printf_i+0x52>
 808876e:	6813      	ldr	r3, [r2, #0]
 8088770:	6825      	ldr	r5, [r4, #0]
 8088772:	1d18      	adds	r0, r3, #4
 8088774:	6010      	str	r0, [r2, #0]
 8088776:	0628      	lsls	r0, r5, #24
 8088778:	d501      	bpl.n	808877e <_printf_i+0xc2>
 808877a:	681b      	ldr	r3, [r3, #0]
 808877c:	e002      	b.n	8088784 <_printf_i+0xc8>
 808877e:	0668      	lsls	r0, r5, #25
 8088780:	d5fb      	bpl.n	808877a <_printf_i+0xbe>
 8088782:	881b      	ldrh	r3, [r3, #0]
 8088784:	4854      	ldr	r0, [pc, #336]	; (80888d8 <_printf_i+0x21c>)
 8088786:	296f      	cmp	r1, #111	; 0x6f
 8088788:	bf14      	ite	ne
 808878a:	220a      	movne	r2, #10
 808878c:	2208      	moveq	r2, #8
 808878e:	2100      	movs	r1, #0
 8088790:	f884 1043 	strb.w	r1, [r4, #67]	; 0x43
 8088794:	6865      	ldr	r5, [r4, #4]
 8088796:	60a5      	str	r5, [r4, #8]
 8088798:	2d00      	cmp	r5, #0
 808879a:	f2c0 8095 	blt.w	80888c8 <_printf_i+0x20c>
 808879e:	6821      	ldr	r1, [r4, #0]
 80887a0:	f021 0104 	bic.w	r1, r1, #4
 80887a4:	6021      	str	r1, [r4, #0]
 80887a6:	2b00      	cmp	r3, #0
 80887a8:	d13d      	bne.n	8088826 <_printf_i+0x16a>
 80887aa:	2d00      	cmp	r5, #0
 80887ac:	f040 808e 	bne.w	80888cc <_printf_i+0x210>
 80887b0:	4665      	mov	r5, ip
 80887b2:	2a08      	cmp	r2, #8
 80887b4:	d10b      	bne.n	80887ce <_printf_i+0x112>
 80887b6:	6823      	ldr	r3, [r4, #0]
 80887b8:	07db      	lsls	r3, r3, #31
 80887ba:	d508      	bpl.n	80887ce <_printf_i+0x112>
 80887bc:	6923      	ldr	r3, [r4, #16]
 80887be:	6862      	ldr	r2, [r4, #4]
 80887c0:	429a      	cmp	r2, r3
 80887c2:	bfde      	ittt	le
 80887c4:	2330      	movle	r3, #48	; 0x30
 80887c6:	f805 3c01 	strble.w	r3, [r5, #-1]
 80887ca:	f105 35ff 	addle.w	r5, r5, #4294967295	; 0xffffffff
 80887ce:	ebac 0305 	sub.w	r3, ip, r5
 80887d2:	6123      	str	r3, [r4, #16]
 80887d4:	f8cd 8000 	str.w	r8, [sp]
 80887d8:	463b      	mov	r3, r7
 80887da:	aa03      	add	r2, sp, #12
 80887dc:	4621      	mov	r1, r4
 80887de:	4630      	mov	r0, r6
 80887e0:	f7ff fef6 	bl	80885d0 <_printf_common>
 80887e4:	3001      	adds	r0, #1
 80887e6:	d14d      	bne.n	8088884 <_printf_i+0x1c8>
 80887e8:	f04f 30ff 	mov.w	r0, #4294967295	; 0xffffffff
 80887ec:	b005      	add	sp, #20
 80887ee:	e8bd 83f0 	ldmia.w	sp!, {r4, r5, r6, r7, r8, r9, pc}
 80887f2:	4839      	ldr	r0, [pc, #228]	; (80888d8 <_printf_i+0x21c>)
 80887f4:	f884 1045 	strb.w	r1, [r4, #69]	; 0x45
 80887f8:	6813      	ldr	r3, [r2, #0]
 80887fa:	6821      	ldr	r1, [r4, #0]
 80887fc:	1d1d      	adds	r5, r3, #4
 80887fe:	681b      	ldr	r3, [r3, #0]
 8088800:	6015      	str	r5, [r2, #0]
 8088802:	060a      	lsls	r2, r1, #24
 8088804:	d50b      	bpl.n	808881e <_printf_i+0x162>
 8088806:	07ca      	lsls	r2, r1, #31
 8088808:	bf44      	itt	mi
 808880a:	f041 0120 	orrmi.w	r1, r1, #32
 808880e:	6021      	strmi	r1, [r4, #0]
 8088810:	b91b      	cbnz	r3, 808881a <_printf_i+0x15e>
 8088812:	6822      	ldr	r2, [r4, #0]
 8088814:	f022 0220 	bic.w	r2, r2, #32
 8088818:	6022      	str	r2, [r4, #0]
 808881a:	2210      	movs	r2, #16
 808881c:	e7b7      	b.n	808878e <_printf_i+0xd2>
 808881e:	064d      	lsls	r5, r1, #25
 8088820:	bf48      	it	mi
 8088822:	b29b      	uxthmi	r3, r3
 8088824:	e7ef      	b.n	8088806 <_printf_i+0x14a>
 8088826:	4665      	mov	r5, ip
 8088828:	fbb3 f1f2 	udiv	r1, r3, r2
 808882c:	fb02 3311 	mls	r3, r2, r1, r3
 8088830:	5cc3      	ldrb	r3, [r0, r3]
 8088832:	f805 3d01 	strb.w	r3, [r5, #-1]!
 8088836:	460b      	mov	r3, r1
 8088838:	2900      	cmp	r1, #0
 808883a:	d1f5      	bne.n	8088828 <_printf_i+0x16c>
 808883c:	e7b9      	b.n	80887b2 <_printf_i+0xf6>
 808883e:	6813      	ldr	r3, [r2, #0]
 8088840:	6825      	ldr	r5, [r4, #0]
 8088842:	6961      	ldr	r1, [r4, #20]
 8088844:	1d18      	adds	r0, r3, #4
 8088846:	6010      	str	r0, [r2, #0]
 8088848:	0628      	lsls	r0, r5, #24
 808884a:	681b      	ldr	r3, [r3, #0]
 808884c:	d501      	bpl.n	8088852 <_printf_i+0x196>
 808884e:	6019      	str	r1, [r3, #0]
 8088850:	e002      	b.n	8088858 <_printf_i+0x19c>
 8088852:	066a      	lsls	r2, r5, #25
 8088854:	d5fb      	bpl.n	808884e <_printf_i+0x192>
 8088856:	8019      	strh	r1, [r3, #0]
 8088858:	2300      	movs	r3, #0
 808885a:	6123      	str	r3, [r4, #16]
 808885c:	4665      	mov	r5, ip
 808885e:	e7b9      	b.n	80887d4 <_printf_i+0x118>
 8088860:	6813      	ldr	r3, [r2, #0]
 8088862:	1d19      	adds	r1, r3, #4
 8088864:	6011      	str	r1, [r2, #0]
 8088866:	681d      	ldr	r5, [r3, #0]
 8088868:	6862      	ldr	r2, [r4, #4]
 808886a:	2100      	movs	r1, #0
 808886c:	4628      	mov	r0, r5
 808886e:	f7ff faaf 	bl	8087dd0 <memchr>
 8088872:	b108      	cbz	r0, 8088878 <_printf_i+0x1bc>
 8088874:	1b40      	subs	r0, r0, r5
 8088876:	6060      	str	r0, [r4, #4]
 8088878:	6863      	ldr	r3, [r4, #4]
 808887a:	6123      	str	r3, [r4, #16]
 808887c:	2300      	movs	r3, #0
 808887e:	f884 3043 	strb.w	r3, [r4, #67]	; 0x43
 8088882:	e7a7      	b.n	80887d4 <_printf_i+0x118>
 8088884:	6923      	ldr	r3, [r4, #16]
 8088886:	462a      	mov	r2, r5
 8088888:	4639      	mov	r1, r7
 808888a:	4630      	mov	r0, r6
 808888c:	47c0      	blx	r8
 808888e:	3001      	adds	r0, #1
 8088890:	d0aa      	beq.n	80887e8 <_printf_i+0x12c>
 8088892:	6823      	ldr	r3, [r4, #0]
 8088894:	079b      	lsls	r3, r3, #30
 8088896:	d413      	bmi.n	80888c0 <_printf_i+0x204>
 8088898:	68e0      	ldr	r0, [r4, #12]
 808889a:	9b03      	ldr	r3, [sp, #12]
 808889c:	4298      	cmp	r0, r3
 808889e:	bfb8      	it	lt
 80888a0:	4618      	movlt	r0, r3
 80888a2:	e7a3      	b.n	80887ec <_printf_i+0x130>
 80888a4:	2301      	movs	r3, #1
 80888a6:	464a      	mov	r2, r9
 80888a8:	4639      	mov	r1, r7
 80888aa:	4630      	mov	r0, r6
 80888ac:	47c0      	blx	r8
 80888ae:	3001      	adds	r0, #1
 80888b0:	d09a      	beq.n	80887e8 <_printf_i+0x12c>
 80888b2:	3501      	adds	r5, #1
 80888b4:	68e3      	ldr	r3, [r4, #12]
 80888b6:	9a03      	ldr	r2, [sp, #12]
 80888b8:	1a9b      	subs	r3, r3, r2
 80888ba:	42ab      	cmp	r3, r5
 80888bc:	dcf2      	bgt.n	80888a4 <_printf_i+0x1e8>
 80888be:	e7eb      	b.n	8088898 <_printf_i+0x1dc>
 80888c0:	2500      	movs	r5, #0
 80888c2:	f104 0919 	add.w	r9, r4, #25
 80888c6:	e7f5      	b.n	80888b4 <_printf_i+0x1f8>
 80888c8:	2b00      	cmp	r3, #0
 80888ca:	d1ac      	bne.n	8088826 <_printf_i+0x16a>
 80888cc:	7803      	ldrb	r3, [r0, #0]
 80888ce:	f884 3042 	strb.w	r3, [r4, #66]	; 0x42
 80888d2:	f104 0542 	add.w	r5, r4, #66	; 0x42
 80888d6:	e76c      	b.n	80887b2 <_printf_i+0xf6>
 80888d8:	08088b81 	.word	0x08088b81
 80888dc:	08088b92 	.word	0x08088b92

080888e0 <memmove>:
 80888e0:	4288      	cmp	r0, r1
 80888e2:	b510      	push	{r4, lr}
 80888e4:	eb01 0302 	add.w	r3, r1, r2
 80888e8:	d807      	bhi.n	80888fa <memmove+0x1a>
 80888ea:	1e42      	subs	r2, r0, #1
 80888ec:	4299      	cmp	r1, r3
 80888ee:	d00a      	beq.n	8088906 <memmove+0x26>
 80888f0:	f811 4b01 	ldrb.w	r4, [r1], #1
 80888f4:	f802 4f01 	strb.w	r4, [r2, #1]!
 80888f8:	e7f8      	b.n	80888ec <memmove+0xc>
 80888fa:	4283      	cmp	r3, r0
 80888fc:	d9f5      	bls.n	80888ea <memmove+0xa>
 80888fe:	1881      	adds	r1, r0, r2
 8088900:	1ad2      	subs	r2, r2, r3
 8088902:	42d3      	cmn	r3, r2
 8088904:	d100      	bne.n	8088908 <memmove+0x28>
 8088906:	bd10      	pop	{r4, pc}
 8088908:	f813 4d01 	ldrb.w	r4, [r3, #-1]!
 808890c:	f801 4d01 	strb.w	r4, [r1, #-1]!
 8088910:	e7f7      	b.n	8088902 <memmove+0x22>
	...

08088914 <_free_r>:
 8088914:	b538      	push	{r3, r4, r5, lr}
 8088916:	4605      	mov	r5, r0
 8088918:	2900      	cmp	r1, #0
 808891a:	d045      	beq.n	80889a8 <_free_r+0x94>
 808891c:	f851 3c04 	ldr.w	r3, [r1, #-4]
 8088920:	1f0c      	subs	r4, r1, #4
 8088922:	2b00      	cmp	r3, #0
 8088924:	bfb8      	it	lt
 8088926:	18e4      	addlt	r4, r4, r3
 8088928:	f000 f8d2 	bl	8088ad0 <__malloc_lock>
 808892c:	4a1f      	ldr	r2, [pc, #124]	; (80889ac <_free_r+0x98>)
 808892e:	6813      	ldr	r3, [r2, #0]
 8088930:	4610      	mov	r0, r2
 8088932:	b933      	cbnz	r3, 8088942 <_free_r+0x2e>
 8088934:	6063      	str	r3, [r4, #4]
 8088936:	6014      	str	r4, [r2, #0]
 8088938:	4628      	mov	r0, r5
 808893a:	e8bd 4038 	ldmia.w	sp!, {r3, r4, r5, lr}
 808893e:	f000 b8c8 	b.w	8088ad2 <__malloc_unlock>
 8088942:	42a3      	cmp	r3, r4
 8088944:	d90c      	bls.n	8088960 <_free_r+0x4c>
 8088946:	6821      	ldr	r1, [r4, #0]
 8088948:	1862      	adds	r2, r4, r1
 808894a:	4293      	cmp	r3, r2
 808894c:	bf04      	itt	eq
 808894e:	681a      	ldreq	r2, [r3, #0]
 8088950:	685b      	ldreq	r3, [r3, #4]
 8088952:	6063      	str	r3, [r4, #4]
 8088954:	bf04      	itt	eq
 8088956:	1852      	addeq	r2, r2, r1
 8088958:	6022      	streq	r2, [r4, #0]
 808895a:	6004      	str	r4, [r0, #0]
 808895c:	e7ec      	b.n	8088938 <_free_r+0x24>
 808895e:	4613      	mov	r3, r2
 8088960:	685a      	ldr	r2, [r3, #4]
 8088962:	b10a      	cbz	r2, 8088968 <_free_r+0x54>
 8088964:	42a2      	cmp	r2, r4
 8088966:	d9fa      	bls.n	808895e <_free_r+0x4a>
 8088968:	6819      	ldr	r1, [r3, #0]
 808896a:	1858      	adds	r0, r3, r1
 808896c:	42a0      	cmp	r0, r4
 808896e:	d10b      	bne.n	8088988 <_free_r+0x74>
 8088970:	6820      	ldr	r0, [r4, #0]
 8088972:	4401      	add	r1, r0
 8088974:	1858      	adds	r0, r3, r1
 8088976:	4282      	cmp	r2, r0
 8088978:	6019      	str	r1, [r3, #0]
 808897a:	d1dd      	bne.n	8088938 <_free_r+0x24>
 808897c:	6810      	ldr	r0, [r2, #0]
 808897e:	6852      	ldr	r2, [r2, #4]
 8088980:	605a      	str	r2, [r3, #4]
 8088982:	4401      	add	r1, r0
 8088984:	6019      	str	r1, [r3, #0]
 8088986:	e7d7      	b.n	8088938 <_free_r+0x24>
 8088988:	d902      	bls.n	8088990 <_free_r+0x7c>
 808898a:	230c      	movs	r3, #12
 808898c:	602b      	str	r3, [r5, #0]
 808898e:	e7d3      	b.n	8088938 <_free_r+0x24>
 8088990:	6820      	ldr	r0, [r4, #0]
 8088992:	1821      	adds	r1, r4, r0
 8088994:	428a      	cmp	r2, r1
 8088996:	bf04      	itt	eq
 8088998:	6811      	ldreq	r1, [r2, #0]
 808899a:	6852      	ldreq	r2, [r2, #4]
 808899c:	6062      	str	r2, [r4, #4]
 808899e:	bf04      	itt	eq
 80889a0:	1809      	addeq	r1, r1, r0
 80889a2:	6021      	streq	r1, [r4, #0]
 80889a4:	605c      	str	r4, [r3, #4]
 80889a6:	e7c7      	b.n	8088938 <_free_r+0x24>
 80889a8:	bd38      	pop	{r3, r4, r5, pc}
 80889aa:	bf00      	nop
 80889ac:	20019094 	.word	0x20019094

080889b0 <_malloc_r>:
 80889b0:	b570      	push	{r4, r5, r6, lr}
 80889b2:	1ccd      	adds	r5, r1, #3
 80889b4:	f025 0503 	bic.w	r5, r5, #3
 80889b8:	3508      	adds	r5, #8
 80889ba:	2d0c      	cmp	r5, #12
 80889bc:	bf38      	it	cc
 80889be:	250c      	movcc	r5, #12
 80889c0:	2d00      	cmp	r5, #0
 80889c2:	4606      	mov	r6, r0
 80889c4:	db01      	blt.n	80889ca <_malloc_r+0x1a>
 80889c6:	42a9      	cmp	r1, r5
 80889c8:	d903      	bls.n	80889d2 <_malloc_r+0x22>
 80889ca:	230c      	movs	r3, #12
 80889cc:	6033      	str	r3, [r6, #0]
 80889ce:	2000      	movs	r0, #0
 80889d0:	bd70      	pop	{r4, r5, r6, pc}
 80889d2:	f000 f87d 	bl	8088ad0 <__malloc_lock>
 80889d6:	4a21      	ldr	r2, [pc, #132]	; (8088a5c <_malloc_r+0xac>)
 80889d8:	6814      	ldr	r4, [r2, #0]
 80889da:	4621      	mov	r1, r4
 80889dc:	b991      	cbnz	r1, 8088a04 <_malloc_r+0x54>
 80889de:	4c20      	ldr	r4, [pc, #128]	; (8088a60 <_malloc_r+0xb0>)
 80889e0:	6823      	ldr	r3, [r4, #0]
 80889e2:	b91b      	cbnz	r3, 80889ec <_malloc_r+0x3c>
 80889e4:	4630      	mov	r0, r6
 80889e6:	f000 f863 	bl	8088ab0 <_sbrk_r>
 80889ea:	6020      	str	r0, [r4, #0]
 80889ec:	4629      	mov	r1, r5
 80889ee:	4630      	mov	r0, r6
 80889f0:	f000 f85e 	bl	8088ab0 <_sbrk_r>
 80889f4:	1c43      	adds	r3, r0, #1
 80889f6:	d124      	bne.n	8088a42 <_malloc_r+0x92>
 80889f8:	230c      	movs	r3, #12
 80889fa:	6033      	str	r3, [r6, #0]
 80889fc:	4630      	mov	r0, r6
 80889fe:	f000 f868 	bl	8088ad2 <__malloc_unlock>
 8088a02:	e7e4      	b.n	80889ce <_malloc_r+0x1e>
 8088a04:	680b      	ldr	r3, [r1, #0]
 8088a06:	1b5b      	subs	r3, r3, r5
 8088a08:	d418      	bmi.n	8088a3c <_malloc_r+0x8c>
 8088a0a:	2b0b      	cmp	r3, #11
 8088a0c:	d90f      	bls.n	8088a2e <_malloc_r+0x7e>
 8088a0e:	600b      	str	r3, [r1, #0]
 8088a10:	50cd      	str	r5, [r1, r3]
 8088a12:	18cc      	adds	r4, r1, r3
 8088a14:	4630      	mov	r0, r6
 8088a16:	f000 f85c 	bl	8088ad2 <__malloc_unlock>
 8088a1a:	f104 000b 	add.w	r0, r4, #11
 8088a1e:	1d23      	adds	r3, r4, #4
 8088a20:	f020 0007 	bic.w	r0, r0, #7
 8088a24:	1ac3      	subs	r3, r0, r3
 8088a26:	d0d3      	beq.n	80889d0 <_malloc_r+0x20>
 8088a28:	425a      	negs	r2, r3
 8088a2a:	50e2      	str	r2, [r4, r3]
 8088a2c:	e7d0      	b.n	80889d0 <_malloc_r+0x20>
 8088a2e:	428c      	cmp	r4, r1
 8088a30:	684b      	ldr	r3, [r1, #4]
 8088a32:	bf16      	itet	ne
 8088a34:	6063      	strne	r3, [r4, #4]
 8088a36:	6013      	streq	r3, [r2, #0]
 8088a38:	460c      	movne	r4, r1
 8088a3a:	e7eb      	b.n	8088a14 <_malloc_r+0x64>
 8088a3c:	460c      	mov	r4, r1
 8088a3e:	6849      	ldr	r1, [r1, #4]
 8088a40:	e7cc      	b.n	80889dc <_malloc_r+0x2c>
 8088a42:	1cc4      	adds	r4, r0, #3
 8088a44:	f024 0403 	bic.w	r4, r4, #3
 8088a48:	42a0      	cmp	r0, r4
 8088a4a:	d005      	beq.n	8088a58 <_malloc_r+0xa8>
 8088a4c:	1a21      	subs	r1, r4, r0
 8088a4e:	4630      	mov	r0, r6
 8088a50:	f000 f82e 	bl	8088ab0 <_sbrk_r>
 8088a54:	3001      	adds	r0, #1
 8088a56:	d0cf      	beq.n	80889f8 <_malloc_r+0x48>
 8088a58:	6025      	str	r5, [r4, #0]
 8088a5a:	e7db      	b.n	8088a14 <_malloc_r+0x64>
 8088a5c:	20019094 	.word	0x20019094
 8088a60:	20019098 	.word	0x20019098

08088a64 <_realloc_r>:
 8088a64:	b5f8      	push	{r3, r4, r5, r6, r7, lr}
 8088a66:	4607      	mov	r7, r0
 8088a68:	4614      	mov	r4, r2
 8088a6a:	460e      	mov	r6, r1
 8088a6c:	b921      	cbnz	r1, 8088a78 <_realloc_r+0x14>
 8088a6e:	4611      	mov	r1, r2
 8088a70:	e8bd 40f8 	ldmia.w	sp!, {r3, r4, r5, r6, r7, lr}
 8088a74:	f7ff bf9c 	b.w	80889b0 <_malloc_r>
 8088a78:	b922      	cbnz	r2, 8088a84 <_realloc_r+0x20>
 8088a7a:	f7ff ff4b 	bl	8088914 <_free_r>
 8088a7e:	4625      	mov	r5, r4
 8088a80:	4628      	mov	r0, r5
 8088a82:	bdf8      	pop	{r3, r4, r5, r6, r7, pc}
 8088a84:	f000 f826 	bl	8088ad4 <_malloc_usable_size_r>
 8088a88:	42a0      	cmp	r0, r4
 8088a8a:	d20f      	bcs.n	8088aac <_realloc_r+0x48>
 8088a8c:	4621      	mov	r1, r4
 8088a8e:	4638      	mov	r0, r7
 8088a90:	f7ff ff8e 	bl	80889b0 <_malloc_r>
 8088a94:	4605      	mov	r5, r0
 8088a96:	2800      	cmp	r0, #0
 8088a98:	d0f2      	beq.n	8088a80 <_realloc_r+0x1c>
 8088a9a:	4631      	mov	r1, r6
 8088a9c:	4622      	mov	r2, r4
 8088a9e:	f7ff fc11 	bl	80882c4 <memcpy>
 8088aa2:	4631      	mov	r1, r6
 8088aa4:	4638      	mov	r0, r7
 8088aa6:	f7ff ff35 	bl	8088914 <_free_r>
 8088aaa:	e7e9      	b.n	8088a80 <_realloc_r+0x1c>
 8088aac:	4635      	mov	r5, r6
 8088aae:	e7e7      	b.n	8088a80 <_realloc_r+0x1c>

08088ab0 <_sbrk_r>:
 8088ab0:	b538      	push	{r3, r4, r5, lr}
 8088ab2:	4c06      	ldr	r4, [pc, #24]	; (8088acc <_sbrk_r+0x1c>)
 8088ab4:	2300      	movs	r3, #0
 8088ab6:	4605      	mov	r5, r0
 8088ab8:	4608      	mov	r0, r1
 8088aba:	6023      	str	r3, [r4, #0]
 8088abc:	f000 f812 	bl	8088ae4 <_sbrk>
 8088ac0:	1c43      	adds	r3, r0, #1
 8088ac2:	d102      	bne.n	8088aca <_sbrk_r+0x1a>
 8088ac4:	6823      	ldr	r3, [r4, #0]
 8088ac6:	b103      	cbz	r3, 8088aca <_sbrk_r+0x1a>
 8088ac8:	602b      	str	r3, [r5, #0]
 8088aca:	bd38      	pop	{r3, r4, r5, pc}
 8088acc:	20019124 	.word	0x20019124

08088ad0 <__malloc_lock>:
 8088ad0:	4770      	bx	lr

08088ad2 <__malloc_unlock>:
 8088ad2:	4770      	bx	lr

08088ad4 <_malloc_usable_size_r>:
 8088ad4:	f851 3c04 	ldr.w	r3, [r1, #-4]
 8088ad8:	1f18      	subs	r0, r3, #4
 8088ada:	2b00      	cmp	r3, #0
 8088adc:	bfbc      	itt	lt
 8088ade:	580b      	ldrlt	r3, [r1, r0]
 8088ae0:	18c0      	addlt	r0, r0, r3
 8088ae2:	4770      	bx	lr

08088ae4 <_sbrk>:
 8088ae4:	4b04      	ldr	r3, [pc, #16]	; (8088af8 <_sbrk+0x14>)
 8088ae6:	6819      	ldr	r1, [r3, #0]
 8088ae8:	4602      	mov	r2, r0
 8088aea:	b909      	cbnz	r1, 8088af0 <_sbrk+0xc>
 8088aec:	4903      	ldr	r1, [pc, #12]	; (8088afc <_sbrk+0x18>)
 8088aee:	6019      	str	r1, [r3, #0]
 8088af0:	6818      	ldr	r0, [r3, #0]
 8088af2:	4402      	add	r2, r0
 8088af4:	601a      	str	r2, [r3, #0]
 8088af6:	4770      	bx	lr
 8088af8:	2001909c 	.word	0x2001909c
 8088afc:	20019128 	.word	0x20019128

08088b00 <_init>:
 8088b00:	b5f8      	push	{r3, r4, r5, r6, r7, lr}
 8088b02:	bf00      	nop
 8088b04:	bcf8      	pop	{r3, r4, r5, r6, r7}
 8088b06:	bc08      	pop	{r3}
 8088b08:	469e      	mov	lr, r3
 8088b0a:	4770      	bx	lr

08088b0c <_fini>:
 8088b0c:	b5f8      	push	{r3, r4, r5, r6, r7, lr}
 8088b0e:	bf00      	nop
 8088b10:	bcf8      	pop	{r3, r4, r5, r6, r7}
 8088b12:	bc08      	pop	{r3}
 8088b14:	469e      	mov	lr, r3
 8088b16:	4770      	bx	lr
