
./riscv32-benchmarks-customtoolchain/src/minver/minver:     file format elf32-littleriscv


Disassembly of section .text:

00010094 <exit>:
   10094:	ff010113          	addi	sp,sp,-16
   10098:	00000593          	li	a1,0
   1009c:	00812423          	sw	s0,8(sp)
   100a0:	00112623          	sw	ra,12(sp)
   100a4:	00050413          	mv	s0,a0
   100a8:	5b9020ef          	jal	ra,12e60 <__call_exitprocs>
   100ac:	cb81a503          	lw	a0,-840(gp) # 146e0 <_global_impure_ptr>
   100b0:	03c52783          	lw	a5,60(a0)
   100b4:	00078463          	beqz	a5,100bc <exit+0x28>
   100b8:	000780e7          	jalr	a5
   100bc:	00040513          	mv	a0,s0
   100c0:	7c9020ef          	jal	ra,13088 <_exit>

000100c4 <register_fini>:
   100c4:	00000793          	li	a5,0
   100c8:	00078863          	beqz	a5,100d8 <register_fini+0x14>
   100cc:	00013537          	lui	a0,0x13
   100d0:	f8050513          	addi	a0,a0,-128 # 12f80 <__libc_fini_array>
   100d4:	7090206f          	j	12fdc <atexit>
   100d8:	00008067          	ret

000100dc <_start>:
   100dc:	00005197          	auipc	gp,0x5
   100e0:	94c18193          	addi	gp,gp,-1716 # 14a28 <__global_pointer$>
   100e4:	cc018513          	addi	a0,gp,-832 # 146e8 <completed.1>
   100e8:	d4c18613          	addi	a2,gp,-692 # 14774 <__BSS_END__>
   100ec:	40a60633          	sub	a2,a2,a0
   100f0:	00000593          	li	a1,0
   100f4:	491020ef          	jal	ra,12d84 <memset>
   100f8:	00003517          	auipc	a0,0x3
   100fc:	ee450513          	addi	a0,a0,-284 # 12fdc <atexit>
   10100:	00050863          	beqz	a0,10110 <_start+0x34>
   10104:	00003517          	auipc	a0,0x3
   10108:	e7c50513          	addi	a0,a0,-388 # 12f80 <__libc_fini_array>
   1010c:	6d1020ef          	jal	ra,12fdc <atexit>
   10110:	3d9020ef          	jal	ra,12ce8 <__libc_init_array>
   10114:	00012503          	lw	a0,0(sp)
   10118:	00410593          	addi	a1,sp,4
   1011c:	00000613          	li	a2,0
   10120:	6dd000ef          	jal	ra,10ffc <main>
   10124:	f71ff06f          	j	10094 <exit>

00010128 <__do_global_dtors_aux>:
   10128:	ff010113          	addi	sp,sp,-16
   1012c:	00812423          	sw	s0,8(sp)
   10130:	cc01c783          	lbu	a5,-832(gp) # 146e8 <completed.1>
   10134:	00112623          	sw	ra,12(sp)
   10138:	02079263          	bnez	a5,1015c <__do_global_dtors_aux+0x34>
   1013c:	00000793          	li	a5,0
   10140:	00078a63          	beqz	a5,10154 <__do_global_dtors_aux+0x2c>
   10144:	00014537          	lui	a0,0x14
   10148:	21450513          	addi	a0,a0,532 # 14214 <__FRAME_END__>
   1014c:	00000097          	auipc	ra,0x0
   10150:	000000e7          	jalr	zero # 0 <exit-0x10094>
   10154:	00100793          	li	a5,1
   10158:	ccf18023          	sb	a5,-832(gp) # 146e8 <completed.1>
   1015c:	00c12083          	lw	ra,12(sp)
   10160:	00812403          	lw	s0,8(sp)
   10164:	01010113          	addi	sp,sp,16
   10168:	00008067          	ret

0001016c <frame_dummy>:
   1016c:	00000793          	li	a5,0
   10170:	00078c63          	beqz	a5,10188 <frame_dummy+0x1c>
   10174:	00014537          	lui	a0,0x14
   10178:	cc418593          	addi	a1,gp,-828 # 146ec <object.0>
   1017c:	21450513          	addi	a0,a0,532 # 14214 <__FRAME_END__>
   10180:	00000317          	auipc	t1,0x0
   10184:	00000067          	jr	zero # 0 <exit-0x10094>
   10188:	00008067          	ret

0001018c <minver_fabs>:
   1018c:	fd010113          	addi	sp,sp,-48
   10190:	02112623          	sw	ra,44(sp)
   10194:	02812423          	sw	s0,40(sp)
   10198:	03010413          	addi	s0,sp,48
   1019c:	fca42e23          	sw	a0,-36(s0)
   101a0:	00000593          	li	a1,0
   101a4:	fdc42503          	lw	a0,-36(s0)
   101a8:	771010ef          	jal	ra,12118 <__gesf2>
   101ac:	00050793          	mv	a5,a0
   101b0:	0007c863          	bltz	a5,101c0 <minver_fabs+0x34>
   101b4:	fdc42783          	lw	a5,-36(s0)
   101b8:	fef42623          	sw	a5,-20(s0)
   101bc:	0140006f          	j	101d0 <minver_fabs+0x44>
   101c0:	fdc42703          	lw	a4,-36(s0)
   101c4:	800007b7          	lui	a5,0x80000
   101c8:	00f747b3          	xor	a5,a4,a5
   101cc:	fef42623          	sw	a5,-20(s0)
   101d0:	fec42783          	lw	a5,-20(s0)
   101d4:	00078513          	mv	a0,a5
   101d8:	02c12083          	lw	ra,44(sp)
   101dc:	02812403          	lw	s0,40(sp)
   101e0:	03010113          	addi	sp,sp,48
   101e4:	00008067          	ret

000101e8 <mmul>:
   101e8:	fc010113          	addi	sp,sp,-64
   101ec:	02112e23          	sw	ra,60(sp)
   101f0:	02812c23          	sw	s0,56(sp)
   101f4:	04010413          	addi	s0,sp,64
   101f8:	fca42623          	sw	a0,-52(s0)
   101fc:	fcb42423          	sw	a1,-56(s0)
   10200:	fcc42223          	sw	a2,-60(s0)
   10204:	fcd42023          	sw	a3,-64(s0)
   10208:	fcc42783          	lw	a5,-52(s0)
   1020c:	fcf42e23          	sw	a5,-36(s0)
   10210:	fc042783          	lw	a5,-64(s0)
   10214:	fcf42c23          	sw	a5,-40(s0)
   10218:	fdc42783          	lw	a5,-36(s0)
   1021c:	02f05063          	blez	a5,1023c <mmul+0x54>
   10220:	fc442783          	lw	a5,-60(s0)
   10224:	00f05c63          	blez	a5,1023c <mmul+0x54>
   10228:	fd842783          	lw	a5,-40(s0)
   1022c:	00f05863          	blez	a5,1023c <mmul+0x54>
   10230:	fc842703          	lw	a4,-56(s0)
   10234:	fc442783          	lw	a5,-60(s0)
   10238:	00f70663          	beq	a4,a5,10244 <mmul+0x5c>
   1023c:	3e700793          	li	a5,999
   10240:	1140006f          	j	10354 <mmul+0x16c>
   10244:	fe042623          	sw	zero,-20(s0)
   10248:	0fc0006f          	j	10344 <mmul+0x15c>
   1024c:	fe042423          	sw	zero,-24(s0)
   10250:	0dc0006f          	j	1032c <mmul+0x144>
   10254:	00000793          	li	a5,0
   10258:	fef42023          	sw	a5,-32(s0)
   1025c:	fe042223          	sw	zero,-28(s0)
   10260:	0880006f          	j	102e8 <mmul+0x100>
   10264:	cdc18693          	addi	a3,gp,-804 # 14704 <a>
   10268:	fec42703          	lw	a4,-20(s0)
   1026c:	00070793          	mv	a5,a4
   10270:	00179793          	slli	a5,a5,0x1
   10274:	00e787b3          	add	a5,a5,a4
   10278:	fe442703          	lw	a4,-28(s0)
   1027c:	00e787b3          	add	a5,a5,a4
   10280:	00279793          	slli	a5,a5,0x2
   10284:	00f687b3          	add	a5,a3,a5
   10288:	0007a603          	lw	a2,0(a5) # 80000000 <__global_pointer$+0x7ffeb5d8>
   1028c:	000147b7          	lui	a5,0x14
   10290:	24c78693          	addi	a3,a5,588 # 1424c <b>
   10294:	fe442703          	lw	a4,-28(s0)
   10298:	00070793          	mv	a5,a4
   1029c:	00179793          	slli	a5,a5,0x1
   102a0:	00e787b3          	add	a5,a5,a4
   102a4:	fe842703          	lw	a4,-24(s0)
   102a8:	00e787b3          	add	a5,a5,a4
   102ac:	00279793          	slli	a5,a5,0x2
   102b0:	00f687b3          	add	a5,a3,a5
   102b4:	0007a783          	lw	a5,0(a5)
   102b8:	00078593          	mv	a1,a5
   102bc:	00060513          	mv	a0,a2
   102c0:	7c9010ef          	jal	ra,12288 <__mulsf3>
   102c4:	00050793          	mv	a5,a0
   102c8:	00078593          	mv	a1,a5
   102cc:	fe042503          	lw	a0,-32(s0)
   102d0:	658010ef          	jal	ra,11928 <__addsf3>
   102d4:	00050793          	mv	a5,a0
   102d8:	fef42023          	sw	a5,-32(s0)
   102dc:	fe442783          	lw	a5,-28(s0)
   102e0:	00178793          	addi	a5,a5,1
   102e4:	fef42223          	sw	a5,-28(s0)
   102e8:	fe442703          	lw	a4,-28(s0)
   102ec:	fc442783          	lw	a5,-60(s0)
   102f0:	f6f74ae3          	blt	a4,a5,10264 <mmul+0x7c>
   102f4:	d0018693          	addi	a3,gp,-768 # 14728 <c>
   102f8:	fec42703          	lw	a4,-20(s0)
   102fc:	00070793          	mv	a5,a4
   10300:	00179793          	slli	a5,a5,0x1
   10304:	00e787b3          	add	a5,a5,a4
   10308:	fe842703          	lw	a4,-24(s0)
   1030c:	00e787b3          	add	a5,a5,a4
   10310:	00279793          	slli	a5,a5,0x2
   10314:	00f687b3          	add	a5,a3,a5
   10318:	fe042703          	lw	a4,-32(s0)
   1031c:	00e7a023          	sw	a4,0(a5)
   10320:	fe842783          	lw	a5,-24(s0)
   10324:	00178793          	addi	a5,a5,1
   10328:	fef42423          	sw	a5,-24(s0)
   1032c:	fe842703          	lw	a4,-24(s0)
   10330:	fd842783          	lw	a5,-40(s0)
   10334:	f2f740e3          	blt	a4,a5,10254 <mmul+0x6c>
   10338:	fec42783          	lw	a5,-20(s0)
   1033c:	00178793          	addi	a5,a5,1
   10340:	fef42623          	sw	a5,-20(s0)
   10344:	fec42703          	lw	a4,-20(s0)
   10348:	fdc42783          	lw	a5,-36(s0)
   1034c:	f0f740e3          	blt	a4,a5,1024c <mmul+0x64>
   10350:	00000793          	li	a5,0
   10354:	00078513          	mv	a0,a5
   10358:	03c12083          	lw	ra,60(sp)
   1035c:	03812403          	lw	s0,56(sp)
   10360:	04010113          	addi	sp,sp,64
   10364:	00008067          	ret

00010368 <minver>:
   10368:	81010113          	addi	sp,sp,-2032
   1036c:	7e112623          	sw	ra,2028(sp)
   10370:	7e812423          	sw	s0,2024(sp)
   10374:	7e912223          	sw	s1,2020(sp)
   10378:	7f010413          	addi	s0,sp,2032
   1037c:	fd010113          	addi	sp,sp,-48
   10380:	fffff7b7          	lui	a5,0xfffff
   10384:	ff078793          	addi	a5,a5,-16 # ffffeff0 <__global_pointer$+0xfffea5c8>
   10388:	008787b3          	add	a5,a5,s0
   1038c:	7ea7ae23          	sw	a0,2044(a5)
   10390:	fffff7b7          	lui	a5,0xfffff
   10394:	ff078793          	addi	a5,a5,-16 # ffffeff0 <__global_pointer$+0xfffea5c8>
   10398:	008787b3          	add	a5,a5,s0
   1039c:	7eb7ac23          	sw	a1,2040(a5)
   103a0:	fffff7b7          	lui	a5,0xfffff
   103a4:	ff078793          	addi	a5,a5,-16 # ffffeff0 <__global_pointer$+0xfffea5c8>
   103a8:	008787b3          	add	a5,a5,s0
   103ac:	7ec7aa23          	sw	a2,2036(a5)
   103b0:	00000793          	li	a5,0
   103b4:	fcf42e23          	sw	a5,-36(s0)
   103b8:	fe042023          	sw	zero,-32(s0)
   103bc:	fffff7b7          	lui	a5,0xfffff
   103c0:	ff078793          	addi	a5,a5,-16 # ffffeff0 <__global_pointer$+0xfffea5c8>
   103c4:	008787b3          	add	a5,a5,s0
   103c8:	7fc7a703          	lw	a4,2044(a5)
   103cc:	00100793          	li	a5,1
   103d0:	02e7de63          	bge	a5,a4,1040c <minver+0xa4>
   103d4:	fffff7b7          	lui	a5,0xfffff
   103d8:	ff078793          	addi	a5,a5,-16 # ffffeff0 <__global_pointer$+0xfffea5c8>
   103dc:	008787b3          	add	a5,a5,s0
   103e0:	7fc7a703          	lw	a4,2044(a5)
   103e4:	1f400793          	li	a5,500
   103e8:	02e7c263          	blt	a5,a4,1040c <minver+0xa4>
   103ec:	fffff7b7          	lui	a5,0xfffff
   103f0:	ff078793          	addi	a5,a5,-16 # ffffeff0 <__global_pointer$+0xfffea5c8>
   103f4:	008787b3          	add	a5,a5,s0
   103f8:	00000593          	li	a1,0
   103fc:	7f47a503          	lw	a0,2036(a5)
   10400:	5d1010ef          	jal	ra,121d0 <__lesf2>
   10404:	00050793          	mv	a5,a0
   10408:	00f04663          	bgtz	a5,10414 <minver+0xac>
   1040c:	3e700793          	li	a5,999
   10410:	6fc0006f          	j	10b0c <minver+0x7a4>
   10414:	000137b7          	lui	a5,0x13
   10418:	0c07a783          	lw	a5,192(a5) # 130c0 <__errno+0x8>
   1041c:	fcf42a23          	sw	a5,-44(s0)
   10420:	fe042623          	sw	zero,-20(s0)
   10424:	0280006f          	j	1044c <minver+0xe4>
   10428:	fec42783          	lw	a5,-20(s0)
   1042c:	00279793          	slli	a5,a5,0x2
   10430:	ff078793          	addi	a5,a5,-16
   10434:	008787b3          	add	a5,a5,s0
   10438:	fec42703          	lw	a4,-20(s0)
   1043c:	80e7a023          	sw	a4,-2048(a5)
   10440:	fec42783          	lw	a5,-20(s0)
   10444:	00178793          	addi	a5,a5,1
   10448:	fef42623          	sw	a5,-20(s0)
   1044c:	fffff7b7          	lui	a5,0xfffff
   10450:	ff078793          	addi	a5,a5,-16 # ffffeff0 <__global_pointer$+0xfffea5c8>
   10454:	008787b3          	add	a5,a5,s0
   10458:	fec42703          	lw	a4,-20(s0)
   1045c:	7fc7a783          	lw	a5,2044(a5)
   10460:	fcf744e3          	blt	a4,a5,10428 <minver+0xc0>
   10464:	fe042223          	sw	zero,-28(s0)
   10468:	5080006f          	j	10970 <minver+0x608>
   1046c:	00000793          	li	a5,0
   10470:	fcf42c23          	sw	a5,-40(s0)
   10474:	fe442783          	lw	a5,-28(s0)
   10478:	fef42623          	sw	a5,-20(s0)
   1047c:	0680006f          	j	104e4 <minver+0x17c>
   10480:	cdc18693          	addi	a3,gp,-804 # 14704 <a>
   10484:	fec42703          	lw	a4,-20(s0)
   10488:	00070793          	mv	a5,a4
   1048c:	00179793          	slli	a5,a5,0x1
   10490:	00e787b3          	add	a5,a5,a4
   10494:	fe442703          	lw	a4,-28(s0)
   10498:	00e787b3          	add	a5,a5,a4
   1049c:	00279793          	slli	a5,a5,0x2
   104a0:	00f687b3          	add	a5,a3,a5
   104a4:	0007a783          	lw	a5,0(a5)
   104a8:	00078513          	mv	a0,a5
   104ac:	ce1ff0ef          	jal	ra,1018c <minver_fabs>
   104b0:	fca42e23          	sw	a0,-36(s0)
   104b4:	fd842583          	lw	a1,-40(s0)
   104b8:	fdc42503          	lw	a0,-36(s0)
   104bc:	45d010ef          	jal	ra,12118 <__gesf2>
   104c0:	00050793          	mv	a5,a0
   104c4:	00f05a63          	blez	a5,104d8 <minver+0x170>
   104c8:	fdc42783          	lw	a5,-36(s0)
   104cc:	fcf42c23          	sw	a5,-40(s0)
   104d0:	fec42783          	lw	a5,-20(s0)
   104d4:	fef42023          	sw	a5,-32(s0)
   104d8:	fec42783          	lw	a5,-20(s0)
   104dc:	00178793          	addi	a5,a5,1
   104e0:	fef42623          	sw	a5,-20(s0)
   104e4:	fffff7b7          	lui	a5,0xfffff
   104e8:	ff078793          	addi	a5,a5,-16 # ffffeff0 <__global_pointer$+0xfffea5c8>
   104ec:	008787b3          	add	a5,a5,s0
   104f0:	fec42703          	lw	a4,-20(s0)
   104f4:	7fc7a783          	lw	a5,2044(a5)
   104f8:	f8f744e3          	blt	a4,a5,10480 <minver+0x118>
   104fc:	cdc18693          	addi	a3,gp,-804 # 14704 <a>
   10500:	fe042703          	lw	a4,-32(s0)
   10504:	00070793          	mv	a5,a4
   10508:	00179793          	slli	a5,a5,0x1
   1050c:	00e787b3          	add	a5,a5,a4
   10510:	fe442703          	lw	a4,-28(s0)
   10514:	00e787b3          	add	a5,a5,a4
   10518:	00279793          	slli	a5,a5,0x2
   1051c:	00f687b3          	add	a5,a3,a5
   10520:	0007a783          	lw	a5,0(a5)
   10524:	fcf42423          	sw	a5,-56(s0)
   10528:	fc842503          	lw	a0,-56(s0)
   1052c:	c61ff0ef          	jal	ra,1018c <minver_fabs>
   10530:	fca42223          	sw	a0,-60(s0)
   10534:	fffff7b7          	lui	a5,0xfffff
   10538:	ff078793          	addi	a5,a5,-16 # ffffeff0 <__global_pointer$+0xfffea5c8>
   1053c:	008787b3          	add	a5,a5,s0
   10540:	7f47a583          	lw	a1,2036(a5)
   10544:	fc442503          	lw	a0,-60(s0)
   10548:	489010ef          	jal	ra,121d0 <__lesf2>
   1054c:	00050793          	mv	a5,a0
   10550:	00f04a63          	bgtz	a5,10564 <minver+0x1fc>
   10554:	fd442703          	lw	a4,-44(s0)
   10558:	d4e1a423          	sw	a4,-696(gp) # 14770 <det>
   1055c:	00100793          	li	a5,1
   10560:	5ac0006f          	j	10b0c <minver+0x7a4>
   10564:	fc842583          	lw	a1,-56(s0)
   10568:	fd442503          	lw	a0,-44(s0)
   1056c:	51d010ef          	jal	ra,12288 <__mulsf3>
   10570:	00050793          	mv	a5,a0
   10574:	fcf42a23          	sw	a5,-44(s0)
   10578:	fffff7b7          	lui	a5,0xfffff
   1057c:	ff078793          	addi	a5,a5,-16 # ffffeff0 <__global_pointer$+0xfffea5c8>
   10580:	008787b3          	add	a5,a5,s0
   10584:	fe442703          	lw	a4,-28(s0)
   10588:	7f87a783          	lw	a5,2040(a5)
   1058c:	02f707b3          	mul	a5,a4,a5
   10590:	fcf42623          	sw	a5,-52(s0)
   10594:	fffff7b7          	lui	a5,0xfffff
   10598:	ff078793          	addi	a5,a5,-16 # ffffeff0 <__global_pointer$+0xfffea5c8>
   1059c:	008787b3          	add	a5,a5,s0
   105a0:	fe042703          	lw	a4,-32(s0)
   105a4:	7f87a783          	lw	a5,2040(a5)
   105a8:	02f707b3          	mul	a5,a4,a5
   105ac:	fcf42023          	sw	a5,-64(s0)
   105b0:	fe042703          	lw	a4,-32(s0)
   105b4:	fe442783          	lw	a5,-28(s0)
   105b8:	14f70063          	beq	a4,a5,106f8 <minver+0x390>
   105bc:	fdc42703          	lw	a4,-36(s0)
   105c0:	800007b7          	lui	a5,0x80000
   105c4:	00f747b3          	xor	a5,a4,a5
   105c8:	fcf42a23          	sw	a5,-44(s0)
   105cc:	fe442783          	lw	a5,-28(s0)
   105d0:	00279793          	slli	a5,a5,0x2
   105d4:	ff078793          	addi	a5,a5,-16 # 7ffffff0 <__global_pointer$+0x7ffeb5c8>
   105d8:	008787b3          	add	a5,a5,s0
   105dc:	8007a783          	lw	a5,-2048(a5)
   105e0:	fcf42823          	sw	a5,-48(s0)
   105e4:	fe042783          	lw	a5,-32(s0)
   105e8:	00279793          	slli	a5,a5,0x2
   105ec:	ff078793          	addi	a5,a5,-16
   105f0:	008787b3          	add	a5,a5,s0
   105f4:	8007a703          	lw	a4,-2048(a5)
   105f8:	fe442783          	lw	a5,-28(s0)
   105fc:	00279793          	slli	a5,a5,0x2
   10600:	ff078793          	addi	a5,a5,-16
   10604:	008787b3          	add	a5,a5,s0
   10608:	80e7a023          	sw	a4,-2048(a5)
   1060c:	fe042783          	lw	a5,-32(s0)
   10610:	00279793          	slli	a5,a5,0x2
   10614:	ff078793          	addi	a5,a5,-16
   10618:	008787b3          	add	a5,a5,s0
   1061c:	fd042703          	lw	a4,-48(s0)
   10620:	80e7a023          	sw	a4,-2048(a5)
   10624:	fe042423          	sw	zero,-24(s0)
   10628:	0b80006f          	j	106e0 <minver+0x378>
   1062c:	cdc18693          	addi	a3,gp,-804 # 14704 <a>
   10630:	fe442703          	lw	a4,-28(s0)
   10634:	00070793          	mv	a5,a4
   10638:	00179793          	slli	a5,a5,0x1
   1063c:	00e787b3          	add	a5,a5,a4
   10640:	fe842703          	lw	a4,-24(s0)
   10644:	00e787b3          	add	a5,a5,a4
   10648:	00279793          	slli	a5,a5,0x2
   1064c:	00f687b3          	add	a5,a3,a5
   10650:	0007a783          	lw	a5,0(a5)
   10654:	fcf42e23          	sw	a5,-36(s0)
   10658:	cdc18693          	addi	a3,gp,-804 # 14704 <a>
   1065c:	fe042703          	lw	a4,-32(s0)
   10660:	00070793          	mv	a5,a4
   10664:	00179793          	slli	a5,a5,0x1
   10668:	00e787b3          	add	a5,a5,a4
   1066c:	fe842703          	lw	a4,-24(s0)
   10670:	00e787b3          	add	a5,a5,a4
   10674:	00279793          	slli	a5,a5,0x2
   10678:	00f687b3          	add	a5,a3,a5
   1067c:	0007a683          	lw	a3,0(a5)
   10680:	cdc18613          	addi	a2,gp,-804 # 14704 <a>
   10684:	fe442703          	lw	a4,-28(s0)
   10688:	00070793          	mv	a5,a4
   1068c:	00179793          	slli	a5,a5,0x1
   10690:	00e787b3          	add	a5,a5,a4
   10694:	fe842703          	lw	a4,-24(s0)
   10698:	00e787b3          	add	a5,a5,a4
   1069c:	00279793          	slli	a5,a5,0x2
   106a0:	00f607b3          	add	a5,a2,a5
   106a4:	00d7a023          	sw	a3,0(a5)
   106a8:	cdc18693          	addi	a3,gp,-804 # 14704 <a>
   106ac:	fe042703          	lw	a4,-32(s0)
   106b0:	00070793          	mv	a5,a4
   106b4:	00179793          	slli	a5,a5,0x1
   106b8:	00e787b3          	add	a5,a5,a4
   106bc:	fe842703          	lw	a4,-24(s0)
   106c0:	00e787b3          	add	a5,a5,a4
   106c4:	00279793          	slli	a5,a5,0x2
   106c8:	00f687b3          	add	a5,a3,a5
   106cc:	fdc42703          	lw	a4,-36(s0)
   106d0:	00e7a023          	sw	a4,0(a5)
   106d4:	fe842783          	lw	a5,-24(s0)
   106d8:	00178793          	addi	a5,a5,1
   106dc:	fef42423          	sw	a5,-24(s0)
   106e0:	fffff7b7          	lui	a5,0xfffff
   106e4:	ff078793          	addi	a5,a5,-16 # ffffeff0 <__global_pointer$+0xfffea5c8>
   106e8:	008787b3          	add	a5,a5,s0
   106ec:	fe842703          	lw	a4,-24(s0)
   106f0:	7fc7a783          	lw	a5,2044(a5)
   106f4:	f2f74ce3          	blt	a4,a5,1062c <minver+0x2c4>
   106f8:	fe042623          	sw	zero,-20(s0)
   106fc:	0740006f          	j	10770 <minver+0x408>
   10700:	cdc18693          	addi	a3,gp,-804 # 14704 <a>
   10704:	fe442703          	lw	a4,-28(s0)
   10708:	00070793          	mv	a5,a4
   1070c:	00179793          	slli	a5,a5,0x1
   10710:	00e787b3          	add	a5,a5,a4
   10714:	fec42703          	lw	a4,-20(s0)
   10718:	00e787b3          	add	a5,a5,a4
   1071c:	00279793          	slli	a5,a5,0x2
   10720:	00f687b3          	add	a5,a3,a5
   10724:	0007a783          	lw	a5,0(a5)
   10728:	fc842583          	lw	a1,-56(s0)
   1072c:	00078513          	mv	a0,a5
   10730:	64c010ef          	jal	ra,11d7c <__divsf3>
   10734:	00050793          	mv	a5,a0
   10738:	00078613          	mv	a2,a5
   1073c:	cdc18693          	addi	a3,gp,-804 # 14704 <a>
   10740:	fe442703          	lw	a4,-28(s0)
   10744:	00070793          	mv	a5,a4
   10748:	00179793          	slli	a5,a5,0x1
   1074c:	00e787b3          	add	a5,a5,a4
   10750:	fec42703          	lw	a4,-20(s0)
   10754:	00e787b3          	add	a5,a5,a4
   10758:	00279793          	slli	a5,a5,0x2
   1075c:	00f687b3          	add	a5,a3,a5
   10760:	00c7a023          	sw	a2,0(a5)
   10764:	fec42783          	lw	a5,-20(s0)
   10768:	00178793          	addi	a5,a5,1
   1076c:	fef42623          	sw	a5,-20(s0)
   10770:	fffff7b7          	lui	a5,0xfffff
   10774:	ff078793          	addi	a5,a5,-16 # ffffeff0 <__global_pointer$+0xfffea5c8>
   10778:	008787b3          	add	a5,a5,s0
   1077c:	fec42703          	lw	a4,-20(s0)
   10780:	7fc7a783          	lw	a5,2044(a5)
   10784:	f6f74ee3          	blt	a4,a5,10700 <minver+0x398>
   10788:	fe042623          	sw	zero,-20(s0)
   1078c:	1940006f          	j	10920 <minver+0x5b8>
   10790:	fec42703          	lw	a4,-20(s0)
   10794:	fe442783          	lw	a5,-28(s0)
   10798:	16f70e63          	beq	a4,a5,10914 <minver+0x5ac>
   1079c:	fffff7b7          	lui	a5,0xfffff
   107a0:	ff078793          	addi	a5,a5,-16 # ffffeff0 <__global_pointer$+0xfffea5c8>
   107a4:	008787b3          	add	a5,a5,s0
   107a8:	fec42703          	lw	a4,-20(s0)
   107ac:	7f87a783          	lw	a5,2040(a5)
   107b0:	02f707b3          	mul	a5,a4,a5
   107b4:	fcf42023          	sw	a5,-64(s0)
   107b8:	cdc18693          	addi	a3,gp,-804 # 14704 <a>
   107bc:	fec42703          	lw	a4,-20(s0)
   107c0:	00070793          	mv	a5,a4
   107c4:	00179793          	slli	a5,a5,0x1
   107c8:	00e787b3          	add	a5,a5,a4
   107cc:	fe442703          	lw	a4,-28(s0)
   107d0:	00e787b3          	add	a5,a5,a4
   107d4:	00279793          	slli	a5,a5,0x2
   107d8:	00f687b3          	add	a5,a3,a5
   107dc:	0007a783          	lw	a5,0(a5)
   107e0:	fcf42e23          	sw	a5,-36(s0)
   107e4:	00000593          	li	a1,0
   107e8:	fdc42503          	lw	a0,-36(s0)
   107ec:	0c5010ef          	jal	ra,120b0 <__eqsf2>
   107f0:	00050793          	mv	a5,a0
   107f4:	12078063          	beqz	a5,10914 <minver+0x5ac>
   107f8:	fe042423          	sw	zero,-24(s0)
   107fc:	0b80006f          	j	108b4 <minver+0x54c>
   10800:	fe842703          	lw	a4,-24(s0)
   10804:	fe442783          	lw	a5,-28(s0)
   10808:	0af70063          	beq	a4,a5,108a8 <minver+0x540>
   1080c:	cdc18693          	addi	a3,gp,-804 # 14704 <a>
   10810:	fec42703          	lw	a4,-20(s0)
   10814:	00070793          	mv	a5,a4
   10818:	00179793          	slli	a5,a5,0x1
   1081c:	00e787b3          	add	a5,a5,a4
   10820:	fe842703          	lw	a4,-24(s0)
   10824:	00e787b3          	add	a5,a5,a4
   10828:	00279793          	slli	a5,a5,0x2
   1082c:	00f687b3          	add	a5,a3,a5
   10830:	0007a483          	lw	s1,0(a5)
   10834:	cdc18693          	addi	a3,gp,-804 # 14704 <a>
   10838:	fe442703          	lw	a4,-28(s0)
   1083c:	00070793          	mv	a5,a4
   10840:	00179793          	slli	a5,a5,0x1
   10844:	00e787b3          	add	a5,a5,a4
   10848:	fe842703          	lw	a4,-24(s0)
   1084c:	00e787b3          	add	a5,a5,a4
   10850:	00279793          	slli	a5,a5,0x2
   10854:	00f687b3          	add	a5,a3,a5
   10858:	0007a783          	lw	a5,0(a5)
   1085c:	fdc42583          	lw	a1,-36(s0)
   10860:	00078513          	mv	a0,a5
   10864:	225010ef          	jal	ra,12288 <__mulsf3>
   10868:	00050793          	mv	a5,a0
   1086c:	00078593          	mv	a1,a5
   10870:	00048513          	mv	a0,s1
   10874:	55d010ef          	jal	ra,125d0 <__subsf3>
   10878:	00050793          	mv	a5,a0
   1087c:	00078613          	mv	a2,a5
   10880:	cdc18693          	addi	a3,gp,-804 # 14704 <a>
   10884:	fec42703          	lw	a4,-20(s0)
   10888:	00070793          	mv	a5,a4
   1088c:	00179793          	slli	a5,a5,0x1
   10890:	00e787b3          	add	a5,a5,a4
   10894:	fe842703          	lw	a4,-24(s0)
   10898:	00e787b3          	add	a5,a5,a4
   1089c:	00279793          	slli	a5,a5,0x2
   108a0:	00f687b3          	add	a5,a3,a5
   108a4:	00c7a023          	sw	a2,0(a5)
   108a8:	fe842783          	lw	a5,-24(s0)
   108ac:	00178793          	addi	a5,a5,1
   108b0:	fef42423          	sw	a5,-24(s0)
   108b4:	fffff7b7          	lui	a5,0xfffff
   108b8:	ff078793          	addi	a5,a5,-16 # ffffeff0 <__global_pointer$+0xfffea5c8>
   108bc:	008787b3          	add	a5,a5,s0
   108c0:	fe842703          	lw	a4,-24(s0)
   108c4:	7fc7a783          	lw	a5,2044(a5)
   108c8:	f2f74ce3          	blt	a4,a5,10800 <minver+0x498>
   108cc:	fdc42703          	lw	a4,-36(s0)
   108d0:	800007b7          	lui	a5,0x80000
   108d4:	00f747b3          	xor	a5,a4,a5
   108d8:	fc842583          	lw	a1,-56(s0)
   108dc:	00078513          	mv	a0,a5
   108e0:	49c010ef          	jal	ra,11d7c <__divsf3>
   108e4:	00050793          	mv	a5,a0
   108e8:	00078613          	mv	a2,a5
   108ec:	cdc18693          	addi	a3,gp,-804 # 14704 <a>
   108f0:	fec42703          	lw	a4,-20(s0)
   108f4:	00070793          	mv	a5,a4
   108f8:	00179793          	slli	a5,a5,0x1
   108fc:	00e787b3          	add	a5,a5,a4
   10900:	fe442703          	lw	a4,-28(s0)
   10904:	00e787b3          	add	a5,a5,a4
   10908:	00279793          	slli	a5,a5,0x2
   1090c:	00f687b3          	add	a5,a3,a5
   10910:	00c7a023          	sw	a2,0(a5) # 80000000 <__global_pointer$+0x7ffeb5d8>
   10914:	fec42783          	lw	a5,-20(s0)
   10918:	00178793          	addi	a5,a5,1
   1091c:	fef42623          	sw	a5,-20(s0)
   10920:	fffff7b7          	lui	a5,0xfffff
   10924:	ff078793          	addi	a5,a5,-16 # ffffeff0 <__global_pointer$+0xfffea5c8>
   10928:	008787b3          	add	a5,a5,s0
   1092c:	fec42703          	lw	a4,-20(s0)
   10930:	7fc7a783          	lw	a5,2044(a5)
   10934:	e4f74ee3          	blt	a4,a5,10790 <minver+0x428>
   10938:	000137b7          	lui	a5,0x13
   1093c:	fc842583          	lw	a1,-56(s0)
   10940:	0c07a503          	lw	a0,192(a5) # 130c0 <__errno+0x8>
   10944:	438010ef          	jal	ra,11d7c <__divsf3>
   10948:	00050793          	mv	a5,a0
   1094c:	00078693          	mv	a3,a5
   10950:	cdc18713          	addi	a4,gp,-804 # 14704 <a>
   10954:	fe442783          	lw	a5,-28(s0)
   10958:	00479793          	slli	a5,a5,0x4
   1095c:	00f707b3          	add	a5,a4,a5
   10960:	00d7a023          	sw	a3,0(a5)
   10964:	fe442783          	lw	a5,-28(s0)
   10968:	00178793          	addi	a5,a5,1
   1096c:	fef42223          	sw	a5,-28(s0)
   10970:	fffff7b7          	lui	a5,0xfffff
   10974:	ff078793          	addi	a5,a5,-16 # ffffeff0 <__global_pointer$+0xfffea5c8>
   10978:	008787b3          	add	a5,a5,s0
   1097c:	fe442703          	lw	a4,-28(s0)
   10980:	7fc7a783          	lw	a5,2044(a5)
   10984:	aef744e3          	blt	a4,a5,1046c <minver+0x104>
   10988:	fe042623          	sw	zero,-20(s0)
   1098c:	15c0006f          	j	10ae8 <minver+0x780>
   10990:	fec42783          	lw	a5,-20(s0)
   10994:	00279793          	slli	a5,a5,0x2
   10998:	ff078793          	addi	a5,a5,-16
   1099c:	008787b3          	add	a5,a5,s0
   109a0:	8007a783          	lw	a5,-2048(a5)
   109a4:	fef42223          	sw	a5,-28(s0)
   109a8:	fe442703          	lw	a4,-28(s0)
   109ac:	fec42783          	lw	a5,-20(s0)
   109b0:	12f70463          	beq	a4,a5,10ad8 <minver+0x770>
   109b4:	fe442783          	lw	a5,-28(s0)
   109b8:	00279793          	slli	a5,a5,0x2
   109bc:	ff078793          	addi	a5,a5,-16
   109c0:	008787b3          	add	a5,a5,s0
   109c4:	8007a783          	lw	a5,-2048(a5)
   109c8:	fcf42823          	sw	a5,-48(s0)
   109cc:	fec42783          	lw	a5,-20(s0)
   109d0:	00279793          	slli	a5,a5,0x2
   109d4:	ff078793          	addi	a5,a5,-16
   109d8:	008787b3          	add	a5,a5,s0
   109dc:	8007a703          	lw	a4,-2048(a5)
   109e0:	fe442783          	lw	a5,-28(s0)
   109e4:	00279793          	slli	a5,a5,0x2
   109e8:	ff078793          	addi	a5,a5,-16
   109ec:	008787b3          	add	a5,a5,s0
   109f0:	80e7a023          	sw	a4,-2048(a5)
   109f4:	fec42783          	lw	a5,-20(s0)
   109f8:	00279793          	slli	a5,a5,0x2
   109fc:	ff078793          	addi	a5,a5,-16
   10a00:	008787b3          	add	a5,a5,s0
   10a04:	fd042703          	lw	a4,-48(s0)
   10a08:	80e7a023          	sw	a4,-2048(a5)
   10a0c:	fe042423          	sw	zero,-24(s0)
   10a10:	0ac0006f          	j	10abc <minver+0x754>
   10a14:	fffff7b7          	lui	a5,0xfffff
   10a18:	ff078793          	addi	a5,a5,-16 # ffffeff0 <__global_pointer$+0xfffea5c8>
   10a1c:	008787b3          	add	a5,a5,s0
   10a20:	fe842703          	lw	a4,-24(s0)
   10a24:	7f87a783          	lw	a5,2040(a5)
   10a28:	02f707b3          	mul	a5,a4,a5
   10a2c:	fcf42623          	sw	a5,-52(s0)
   10a30:	cdc18693          	addi	a3,gp,-804 # 14704 <a>
   10a34:	fe442703          	lw	a4,-28(s0)
   10a38:	00070793          	mv	a5,a4
   10a3c:	00179793          	slli	a5,a5,0x1
   10a40:	00e787b3          	add	a5,a5,a4
   10a44:	fec42703          	lw	a4,-20(s0)
   10a48:	00e787b3          	add	a5,a5,a4
   10a4c:	00279793          	slli	a5,a5,0x2
   10a50:	00f687b3          	add	a5,a3,a5
   10a54:	0007a783          	lw	a5,0(a5)
   10a58:	fcf42e23          	sw	a5,-36(s0)
   10a5c:	cdc18713          	addi	a4,gp,-804 # 14704 <a>
   10a60:	fe442783          	lw	a5,-28(s0)
   10a64:	00479793          	slli	a5,a5,0x4
   10a68:	00f707b3          	add	a5,a4,a5
   10a6c:	0007a683          	lw	a3,0(a5)
   10a70:	cdc18613          	addi	a2,gp,-804 # 14704 <a>
   10a74:	fe442703          	lw	a4,-28(s0)
   10a78:	00070793          	mv	a5,a4
   10a7c:	00179793          	slli	a5,a5,0x1
   10a80:	00e787b3          	add	a5,a5,a4
   10a84:	fec42703          	lw	a4,-20(s0)
   10a88:	00e787b3          	add	a5,a5,a4
   10a8c:	00279793          	slli	a5,a5,0x2
   10a90:	00f607b3          	add	a5,a2,a5
   10a94:	00d7a023          	sw	a3,0(a5)
   10a98:	cdc18713          	addi	a4,gp,-804 # 14704 <a>
   10a9c:	fe442783          	lw	a5,-28(s0)
   10aa0:	00479793          	slli	a5,a5,0x4
   10aa4:	00f707b3          	add	a5,a4,a5
   10aa8:	fdc42703          	lw	a4,-36(s0)
   10aac:	00e7a023          	sw	a4,0(a5)
   10ab0:	fe842783          	lw	a5,-24(s0)
   10ab4:	00178793          	addi	a5,a5,1
   10ab8:	fef42423          	sw	a5,-24(s0)
   10abc:	fffff7b7          	lui	a5,0xfffff
   10ac0:	ff078793          	addi	a5,a5,-16 # ffffeff0 <__global_pointer$+0xfffea5c8>
   10ac4:	008787b3          	add	a5,a5,s0
   10ac8:	fe842703          	lw	a4,-24(s0)
   10acc:	7fc7a783          	lw	a5,2044(a5)
   10ad0:	f4f742e3          	blt	a4,a5,10a14 <minver+0x6ac>
   10ad4:	ebdff06f          	j	10990 <minver+0x628>
   10ad8:	00000013          	nop
   10adc:	fec42783          	lw	a5,-20(s0)
   10ae0:	00178793          	addi	a5,a5,1
   10ae4:	fef42623          	sw	a5,-20(s0)
   10ae8:	fffff7b7          	lui	a5,0xfffff
   10aec:	ff078793          	addi	a5,a5,-16 # ffffeff0 <__global_pointer$+0xfffea5c8>
   10af0:	008787b3          	add	a5,a5,s0
   10af4:	fec42703          	lw	a4,-20(s0)
   10af8:	7fc7a783          	lw	a5,2044(a5)
   10afc:	e8f74ae3          	blt	a4,a5,10990 <minver+0x628>
   10b00:	fd442703          	lw	a4,-44(s0)
   10b04:	d4e1a423          	sw	a4,-696(gp) # 14770 <det>
   10b08:	00000793          	li	a5,0
   10b0c:	00078513          	mv	a0,a5
   10b10:	03010113          	addi	sp,sp,48
   10b14:	7ec12083          	lw	ra,2028(sp)
   10b18:	7e812403          	lw	s0,2024(sp)
   10b1c:	7e412483          	lw	s1,2020(sp)
   10b20:	7f010113          	addi	sp,sp,2032
   10b24:	00008067          	ret

00010b28 <verify_benchmark>:
   10b28:	fd010113          	addi	sp,sp,-48
   10b2c:	02112623          	sw	ra,44(sp)
   10b30:	02812423          	sw	s0,40(sp)
   10b34:	02912223          	sw	s1,36(sp)
   10b38:	03010413          	addi	s0,sp,48
   10b3c:	fca42e23          	sw	a0,-36(s0)
   10b40:	000137b7          	lui	a5,0x13
   10b44:	0c47a783          	lw	a5,196(a5) # 130c4 <__errno+0xc>
   10b48:	fef42223          	sw	a5,-28(s0)
   10b4c:	fe042623          	sw	zero,-20(s0)
   10b50:	1a80006f          	j	10cf8 <verify_benchmark+0x1d0>
   10b54:	fe042423          	sw	zero,-24(s0)
   10b58:	1880006f          	j	10ce0 <verify_benchmark+0x1b8>
   10b5c:	d0018693          	addi	a3,gp,-768 # 14728 <c>
   10b60:	fec42703          	lw	a4,-20(s0)
   10b64:	00070793          	mv	a5,a4
   10b68:	00179793          	slli	a5,a5,0x1
   10b6c:	00e787b3          	add	a5,a5,a4
   10b70:	fe842703          	lw	a4,-24(s0)
   10b74:	00e787b3          	add	a5,a5,a4
   10b78:	00279793          	slli	a5,a5,0x2
   10b7c:	00f687b3          	add	a5,a3,a5
   10b80:	0007a603          	lw	a2,0(a5)
   10b84:	84818693          	addi	a3,gp,-1976 # 14270 <c_exp.1>
   10b88:	fec42703          	lw	a4,-20(s0)
   10b8c:	00070793          	mv	a5,a4
   10b90:	00179793          	slli	a5,a5,0x1
   10b94:	00e787b3          	add	a5,a5,a4
   10b98:	fe842703          	lw	a4,-24(s0)
   10b9c:	00e787b3          	add	a5,a5,a4
   10ba0:	00279793          	slli	a5,a5,0x2
   10ba4:	00f687b3          	add	a5,a3,a5
   10ba8:	0007a783          	lw	a5,0(a5)
   10bac:	00078593          	mv	a1,a5
   10bb0:	00060513          	mv	a0,a2
   10bb4:	21d010ef          	jal	ra,125d0 <__subsf3>
   10bb8:	00050793          	mv	a5,a0
   10bbc:	00078713          	mv	a4,a5
   10bc0:	800007b7          	lui	a5,0x80000
   10bc4:	fff7c793          	not	a5,a5
   10bc8:	00f777b3          	and	a5,a4,a5
   10bcc:	00078513          	mv	a0,a5
   10bd0:	66d010ef          	jal	ra,12a3c <__extendsfdf2>
   10bd4:	00050713          	mv	a4,a0
   10bd8:	00058793          	mv	a5,a1
   10bdc:	00100493          	li	s1,1
   10be0:	000136b7          	lui	a3,0x13
   10be4:	0c86a603          	lw	a2,200(a3) # 130c8 <__errno+0x10>
   10be8:	0cc6a683          	lw	a3,204(a3)
   10bec:	00070513          	mv	a0,a4
   10bf0:	00078593          	mv	a1,a5
   10bf4:	451000ef          	jal	ra,11844 <__ledf2>
   10bf8:	00050793          	mv	a5,a0
   10bfc:	0007c463          	bltz	a5,10c04 <verify_benchmark+0xdc>
   10c00:	00000493          	li	s1,0
   10c04:	0ff4f793          	zext.b	a5,s1
   10c08:	0017c793          	xori	a5,a5,1
   10c0c:	0ff7f793          	zext.b	a5,a5
   10c10:	0a079e63          	bnez	a5,10ccc <verify_benchmark+0x1a4>
   10c14:	d2418693          	addi	a3,gp,-732 # 1474c <d>
   10c18:	fec42703          	lw	a4,-20(s0)
   10c1c:	00070793          	mv	a5,a4
   10c20:	00179793          	slli	a5,a5,0x1
   10c24:	00e787b3          	add	a5,a5,a4
   10c28:	fe842703          	lw	a4,-24(s0)
   10c2c:	00e787b3          	add	a5,a5,a4
   10c30:	00279793          	slli	a5,a5,0x2
   10c34:	00f687b3          	add	a5,a3,a5
   10c38:	0007a603          	lw	a2,0(a5) # 80000000 <__global_pointer$+0x7ffeb5d8>
   10c3c:	86c18693          	addi	a3,gp,-1940 # 14294 <d_exp.0>
   10c40:	fec42703          	lw	a4,-20(s0)
   10c44:	00070793          	mv	a5,a4
   10c48:	00179793          	slli	a5,a5,0x1
   10c4c:	00e787b3          	add	a5,a5,a4
   10c50:	fe842703          	lw	a4,-24(s0)
   10c54:	00e787b3          	add	a5,a5,a4
   10c58:	00279793          	slli	a5,a5,0x2
   10c5c:	00f687b3          	add	a5,a3,a5
   10c60:	0007a783          	lw	a5,0(a5)
   10c64:	00078593          	mv	a1,a5
   10c68:	00060513          	mv	a0,a2
   10c6c:	165010ef          	jal	ra,125d0 <__subsf3>
   10c70:	00050793          	mv	a5,a0
   10c74:	00078713          	mv	a4,a5
   10c78:	800007b7          	lui	a5,0x80000
   10c7c:	fff7c793          	not	a5,a5
   10c80:	00f777b3          	and	a5,a4,a5
   10c84:	00078513          	mv	a0,a5
   10c88:	5b5010ef          	jal	ra,12a3c <__extendsfdf2>
   10c8c:	00050713          	mv	a4,a0
   10c90:	00058793          	mv	a5,a1
   10c94:	00100493          	li	s1,1
   10c98:	000136b7          	lui	a3,0x13
   10c9c:	0c86a603          	lw	a2,200(a3) # 130c8 <__errno+0x10>
   10ca0:	0cc6a683          	lw	a3,204(a3)
   10ca4:	00070513          	mv	a0,a4
   10ca8:	00078593          	mv	a1,a5
   10cac:	399000ef          	jal	ra,11844 <__ledf2>
   10cb0:	00050793          	mv	a5,a0
   10cb4:	0007c463          	bltz	a5,10cbc <verify_benchmark+0x194>
   10cb8:	00000493          	li	s1,0
   10cbc:	0ff4f793          	zext.b	a5,s1
   10cc0:	0017c793          	xori	a5,a5,1
   10cc4:	0ff7f793          	zext.b	a5,a5
   10cc8:	00078663          	beqz	a5,10cd4 <verify_benchmark+0x1ac>
   10ccc:	00000793          	li	a5,0
   10cd0:	0c00006f          	j	10d90 <verify_benchmark+0x268>
   10cd4:	fe842783          	lw	a5,-24(s0)
   10cd8:	00178793          	addi	a5,a5,1 # 80000001 <__global_pointer$+0x7ffeb5d9>
   10cdc:	fef42423          	sw	a5,-24(s0)
   10ce0:	fe842703          	lw	a4,-24(s0)
   10ce4:	00200793          	li	a5,2
   10ce8:	e6e7dae3          	bge	a5,a4,10b5c <verify_benchmark+0x34>
   10cec:	fec42783          	lw	a5,-20(s0)
   10cf0:	00178793          	addi	a5,a5,1
   10cf4:	fef42623          	sw	a5,-20(s0)
   10cf8:	fec42703          	lw	a4,-20(s0)
   10cfc:	00200793          	li	a5,2
   10d00:	e4e7dae3          	bge	a5,a4,10b54 <verify_benchmark+0x2c>
   10d04:	d481a783          	lw	a5,-696(gp) # 14770 <det>
   10d08:	00078513          	mv	a0,a5
   10d0c:	531010ef          	jal	ra,12a3c <__extendsfdf2>
   10d10:	00050713          	mv	a4,a0
   10d14:	00058793          	mv	a5,a1
   10d18:	000136b7          	lui	a3,0x13
   10d1c:	0d06a603          	lw	a2,208(a3) # 130d0 <__errno+0x18>
   10d20:	0d46a683          	lw	a3,212(a3)
   10d24:	00070513          	mv	a0,a4
   10d28:	00078593          	mv	a1,a5
   10d2c:	33c000ef          	jal	ra,11068 <__adddf3>
   10d30:	00050713          	mv	a4,a0
   10d34:	00058793          	mv	a5,a1
   10d38:	00070513          	mv	a0,a4
   10d3c:	00078593          	mv	a1,a5
   10d40:	5d9010ef          	jal	ra,12b18 <__truncdfsf2>
   10d44:	00050713          	mv	a4,a0
   10d48:	800007b7          	lui	a5,0x80000
   10d4c:	fff7c793          	not	a5,a5
   10d50:	00f777b3          	and	a5,a4,a5
   10d54:	00078513          	mv	a0,a5
   10d58:	4e5010ef          	jal	ra,12a3c <__extendsfdf2>
   10d5c:	00050713          	mv	a4,a0
   10d60:	00058793          	mv	a5,a1
   10d64:	00100493          	li	s1,1
   10d68:	000136b7          	lui	a3,0x13
   10d6c:	0c86a603          	lw	a2,200(a3) # 130c8 <__errno+0x10>
   10d70:	0cc6a683          	lw	a3,204(a3)
   10d74:	00070513          	mv	a0,a4
   10d78:	00078593          	mv	a1,a5
   10d7c:	2c9000ef          	jal	ra,11844 <__ledf2>
   10d80:	00050793          	mv	a5,a0
   10d84:	0007c463          	bltz	a5,10d8c <verify_benchmark+0x264>
   10d88:	00000493          	li	s1,0
   10d8c:	0ff4f793          	zext.b	a5,s1
   10d90:	00078513          	mv	a0,a5
   10d94:	02c12083          	lw	ra,44(sp)
   10d98:	02812403          	lw	s0,40(sp)
   10d9c:	02412483          	lw	s1,36(sp)
   10da0:	03010113          	addi	sp,sp,48
   10da4:	00008067          	ret

00010da8 <initialise_benchmark>:
   10da8:	ff010113          	addi	sp,sp,-16
   10dac:	00812623          	sw	s0,12(sp)
   10db0:	01010413          	addi	s0,sp,16
   10db4:	00000013          	nop
   10db8:	00c12403          	lw	s0,12(sp)
   10dbc:	01010113          	addi	sp,sp,16
   10dc0:	00008067          	ret

00010dc4 <warm_caches>:
   10dc4:	fd010113          	addi	sp,sp,-48
   10dc8:	02112623          	sw	ra,44(sp)
   10dcc:	02812423          	sw	s0,40(sp)
   10dd0:	03010413          	addi	s0,sp,48
   10dd4:	fca42e23          	sw	a0,-36(s0)
   10dd8:	fdc42503          	lw	a0,-36(s0)
   10ddc:	04c000ef          	jal	ra,10e28 <benchmark_body>
   10de0:	fea42623          	sw	a0,-20(s0)
   10de4:	00000013          	nop
   10de8:	02c12083          	lw	ra,44(sp)
   10dec:	02812403          	lw	s0,40(sp)
   10df0:	03010113          	addi	sp,sp,48
   10df4:	00008067          	ret

00010df8 <benchmark>:
   10df8:	ff010113          	addi	sp,sp,-16
   10dfc:	00112623          	sw	ra,12(sp)
   10e00:	00812423          	sw	s0,8(sp)
   10e04:	01010413          	addi	s0,sp,16
   10e08:	22b00513          	li	a0,555
   10e0c:	01c000ef          	jal	ra,10e28 <benchmark_body>
   10e10:	00050793          	mv	a5,a0
   10e14:	00078513          	mv	a0,a5
   10e18:	00c12083          	lw	ra,12(sp)
   10e1c:	00812403          	lw	s0,8(sp)
   10e20:	01010113          	addi	sp,sp,16
   10e24:	00008067          	ret

00010e28 <benchmark_body>:
   10e28:	fd010113          	addi	sp,sp,-48
   10e2c:	02112623          	sw	ra,44(sp)
   10e30:	02812423          	sw	s0,40(sp)
   10e34:	03010413          	addi	s0,sp,48
   10e38:	fca42e23          	sw	a0,-36(s0)
   10e3c:	fe042623          	sw	zero,-20(s0)
   10e40:	1380006f          	j	10f78 <benchmark_body+0x150>
   10e44:	000137b7          	lui	a5,0x13
   10e48:	0c47a783          	lw	a5,196(a5) # 130c4 <__errno+0xc>
   10e4c:	fef42423          	sw	a5,-24(s0)
   10e50:	cdc18793          	addi	a5,gp,-804 # 14704 <a>
   10e54:	00014737          	lui	a4,0x14
   10e58:	22870713          	addi	a4,a4,552 # 14228 <a_ref>
   10e5c:	00072e03          	lw	t3,0(a4)
   10e60:	00472303          	lw	t1,4(a4)
   10e64:	00872883          	lw	a7,8(a4)
   10e68:	00c72803          	lw	a6,12(a4)
   10e6c:	01072503          	lw	a0,16(a4)
   10e70:	01472583          	lw	a1,20(a4)
   10e74:	01872603          	lw	a2,24(a4)
   10e78:	01c72683          	lw	a3,28(a4)
   10e7c:	02072703          	lw	a4,32(a4)
   10e80:	01c7a023          	sw	t3,0(a5)
   10e84:	0067a223          	sw	t1,4(a5)
   10e88:	0117a423          	sw	a7,8(a5)
   10e8c:	0107a623          	sw	a6,12(a5)
   10e90:	00a7a823          	sw	a0,16(a5)
   10e94:	00b7aa23          	sw	a1,20(a5)
   10e98:	00c7ac23          	sw	a2,24(a5)
   10e9c:	00d7ae23          	sw	a3,28(a5)
   10ea0:	02e7a023          	sw	a4,32(a5)
   10ea4:	fe842603          	lw	a2,-24(s0)
   10ea8:	00300593          	li	a1,3
   10eac:	00300513          	li	a0,3
   10eb0:	cb8ff0ef          	jal	ra,10368 <minver>
   10eb4:	d2418793          	addi	a5,gp,-732 # 1474c <d>
   10eb8:	cdc18713          	addi	a4,gp,-804 # 14704 <a>
   10ebc:	00072e03          	lw	t3,0(a4)
   10ec0:	00472303          	lw	t1,4(a4)
   10ec4:	00872883          	lw	a7,8(a4)
   10ec8:	00c72803          	lw	a6,12(a4)
   10ecc:	01072503          	lw	a0,16(a4)
   10ed0:	01472583          	lw	a1,20(a4)
   10ed4:	01872603          	lw	a2,24(a4)
   10ed8:	01c72683          	lw	a3,28(a4)
   10edc:	02072703          	lw	a4,32(a4)
   10ee0:	01c7a023          	sw	t3,0(a5)
   10ee4:	0067a223          	sw	t1,4(a5)
   10ee8:	0117a423          	sw	a7,8(a5)
   10eec:	0107a623          	sw	a6,12(a5)
   10ef0:	00a7a823          	sw	a0,16(a5)
   10ef4:	00b7aa23          	sw	a1,20(a5)
   10ef8:	00c7ac23          	sw	a2,24(a5)
   10efc:	00d7ae23          	sw	a3,28(a5)
   10f00:	02e7a023          	sw	a4,32(a5)
   10f04:	cdc18793          	addi	a5,gp,-804 # 14704 <a>
   10f08:	00014737          	lui	a4,0x14
   10f0c:	22870713          	addi	a4,a4,552 # 14228 <a_ref>
   10f10:	00072e03          	lw	t3,0(a4)
   10f14:	00472303          	lw	t1,4(a4)
   10f18:	00872883          	lw	a7,8(a4)
   10f1c:	00c72803          	lw	a6,12(a4)
   10f20:	01072503          	lw	a0,16(a4)
   10f24:	01472583          	lw	a1,20(a4)
   10f28:	01872603          	lw	a2,24(a4)
   10f2c:	01c72683          	lw	a3,28(a4)
   10f30:	02072703          	lw	a4,32(a4)
   10f34:	01c7a023          	sw	t3,0(a5)
   10f38:	0067a223          	sw	t1,4(a5)
   10f3c:	0117a423          	sw	a7,8(a5)
   10f40:	0107a623          	sw	a6,12(a5)
   10f44:	00a7a823          	sw	a0,16(a5)
   10f48:	00b7aa23          	sw	a1,20(a5)
   10f4c:	00c7ac23          	sw	a2,24(a5)
   10f50:	00d7ae23          	sw	a3,28(a5)
   10f54:	02e7a023          	sw	a4,32(a5)
   10f58:	00300693          	li	a3,3
   10f5c:	00300613          	li	a2,3
   10f60:	00300593          	li	a1,3
   10f64:	00300513          	li	a0,3
   10f68:	a80ff0ef          	jal	ra,101e8 <mmul>
   10f6c:	fec42783          	lw	a5,-20(s0)
   10f70:	00178793          	addi	a5,a5,1
   10f74:	fef42623          	sw	a5,-20(s0)
   10f78:	fec42703          	lw	a4,-20(s0)
   10f7c:	fdc42783          	lw	a5,-36(s0)
   10f80:	ecf742e3          	blt	a4,a5,10e44 <benchmark_body+0x1c>
   10f84:	00000793          	li	a5,0
   10f88:	00078513          	mv	a0,a5
   10f8c:	02c12083          	lw	ra,44(sp)
   10f90:	02812403          	lw	s0,40(sp)
   10f94:	03010113          	addi	sp,sp,48
   10f98:	00008067          	ret

00010f9c <initialise_board>:
   10f9c:	ff010113          	addi	sp,sp,-16
   10fa0:	00812623          	sw	s0,12(sp)
   10fa4:	01010413          	addi	s0,sp,16
   10fa8:	00000513          	li	a0,0
   10fac:	00000013          	nop
   10fb0:	00c12403          	lw	s0,12(sp)
   10fb4:	01010113          	addi	sp,sp,16
   10fb8:	00008067          	ret

00010fbc <start_trigger>:
   10fbc:	ff010113          	addi	sp,sp,-16
   10fc0:	00812623          	sw	s0,12(sp)
   10fc4:	01010413          	addi	s0,sp,16
   10fc8:	00000513          	li	a0,0
   10fcc:	00000013          	nop
   10fd0:	00c12403          	lw	s0,12(sp)
   10fd4:	01010113          	addi	sp,sp,16
   10fd8:	00008067          	ret

00010fdc <stop_trigger>:
   10fdc:	ff010113          	addi	sp,sp,-16
   10fe0:	00812623          	sw	s0,12(sp)
   10fe4:	01010413          	addi	s0,sp,16
   10fe8:	00000513          	li	a0,0
   10fec:	00000013          	nop
   10ff0:	00c12403          	lw	s0,12(sp)
   10ff4:	01010113          	addi	sp,sp,16
   10ff8:	00008067          	ret

00010ffc <main>:
   10ffc:	fd010113          	addi	sp,sp,-48
   11000:	02112623          	sw	ra,44(sp)
   11004:	02812423          	sw	s0,40(sp)
   11008:	03010413          	addi	s0,sp,48
   1100c:	fca42e23          	sw	a0,-36(s0)
   11010:	fcb42c23          	sw	a1,-40(s0)
   11014:	f89ff0ef          	jal	ra,10f9c <initialise_board>
   11018:	d91ff0ef          	jal	ra,10da8 <initialise_benchmark>
   1101c:	00100513          	li	a0,1
   11020:	da5ff0ef          	jal	ra,10dc4 <warm_caches>
   11024:	f99ff0ef          	jal	ra,10fbc <start_trigger>
   11028:	dd1ff0ef          	jal	ra,10df8 <benchmark>
   1102c:	00050793          	mv	a5,a0
   11030:	fef42423          	sw	a5,-24(s0)
   11034:	fa9ff0ef          	jal	ra,10fdc <stop_trigger>
   11038:	fe842783          	lw	a5,-24(s0)
   1103c:	00078513          	mv	a0,a5
   11040:	ae9ff0ef          	jal	ra,10b28 <verify_benchmark>
   11044:	fea42623          	sw	a0,-20(s0)
   11048:	fec42783          	lw	a5,-20(s0)
   1104c:	0017b793          	seqz	a5,a5
   11050:	0ff7f793          	zext.b	a5,a5
   11054:	00078513          	mv	a0,a5
   11058:	02c12083          	lw	ra,44(sp)
   1105c:	02812403          	lw	s0,40(sp)
   11060:	03010113          	addi	sp,sp,48
   11064:	00008067          	ret

00011068 <__adddf3>:
   11068:	00100837          	lui	a6,0x100
   1106c:	fff80813          	addi	a6,a6,-1 # fffff <__global_pointer$+0xeb5d7>
   11070:	fe010113          	addi	sp,sp,-32
   11074:	00b878b3          	and	a7,a6,a1
   11078:	0145d713          	srli	a4,a1,0x14
   1107c:	01d55793          	srli	a5,a0,0x1d
   11080:	00d87833          	and	a6,a6,a3
   11084:	00812c23          	sw	s0,24(sp)
   11088:	7ff77413          	andi	s0,a4,2047
   1108c:	00389713          	slli	a4,a7,0x3
   11090:	0146d893          	srli	a7,a3,0x14
   11094:	00381813          	slli	a6,a6,0x3
   11098:	00912a23          	sw	s1,20(sp)
   1109c:	00e7e7b3          	or	a5,a5,a4
   110a0:	7ff8f893          	andi	a7,a7,2047
   110a4:	01d65713          	srli	a4,a2,0x1d
   110a8:	00112e23          	sw	ra,28(sp)
   110ac:	01212823          	sw	s2,16(sp)
   110b0:	01312623          	sw	s3,12(sp)
   110b4:	01f5d493          	srli	s1,a1,0x1f
   110b8:	01f6d693          	srli	a3,a3,0x1f
   110bc:	01076733          	or	a4,a4,a6
   110c0:	00351513          	slli	a0,a0,0x3
   110c4:	00361613          	slli	a2,a2,0x3
   110c8:	41140833          	sub	a6,s0,a7
   110cc:	2cd49863          	bne	s1,a3,1139c <__adddf3+0x334>
   110d0:	13005063          	blez	a6,111f0 <__adddf3+0x188>
   110d4:	04089063          	bnez	a7,11114 <__adddf3+0xac>
   110d8:	00c766b3          	or	a3,a4,a2
   110dc:	70068e63          	beqz	a3,117f8 <__adddf3+0x790>
   110e0:	fff80593          	addi	a1,a6,-1
   110e4:	02059063          	bnez	a1,11104 <__adddf3+0x9c>
   110e8:	00c50633          	add	a2,a0,a2
   110ec:	00e78733          	add	a4,a5,a4
   110f0:	00a637b3          	sltu	a5,a2,a0
   110f4:	00f707b3          	add	a5,a4,a5
   110f8:	00060513          	mv	a0,a2
   110fc:	00100413          	li	s0,1
   11100:	0700006f          	j	11170 <__adddf3+0x108>
   11104:	7ff00693          	li	a3,2047
   11108:	02d81063          	bne	a6,a3,11128 <__adddf3+0xc0>
   1110c:	7ff00413          	li	s0,2047
   11110:	2140006f          	j	11324 <__adddf3+0x2bc>
   11114:	7ff00693          	li	a3,2047
   11118:	20d40663          	beq	s0,a3,11324 <__adddf3+0x2bc>
   1111c:	008006b7          	lui	a3,0x800
   11120:	00d76733          	or	a4,a4,a3
   11124:	00080593          	mv	a1,a6
   11128:	03800693          	li	a3,56
   1112c:	0ab6cc63          	blt	a3,a1,111e4 <__adddf3+0x17c>
   11130:	01f00693          	li	a3,31
   11134:	06b6ce63          	blt	a3,a1,111b0 <__adddf3+0x148>
   11138:	02000813          	li	a6,32
   1113c:	40b80833          	sub	a6,a6,a1
   11140:	010716b3          	sll	a3,a4,a6
   11144:	00b658b3          	srl	a7,a2,a1
   11148:	01061833          	sll	a6,a2,a6
   1114c:	0116e6b3          	or	a3,a3,a7
   11150:	01003833          	snez	a6,a6
   11154:	0106e6b3          	or	a3,a3,a6
   11158:	00b755b3          	srl	a1,a4,a1
   1115c:	00a686b3          	add	a3,a3,a0
   11160:	00f585b3          	add	a1,a1,a5
   11164:	00a6b7b3          	sltu	a5,a3,a0
   11168:	00f587b3          	add	a5,a1,a5
   1116c:	00068513          	mv	a0,a3
   11170:	00800737          	lui	a4,0x800
   11174:	00e7f733          	and	a4,a5,a4
   11178:	1a070663          	beqz	a4,11324 <__adddf3+0x2bc>
   1117c:	00140413          	addi	s0,s0,1
   11180:	7ff00713          	li	a4,2047
   11184:	5ce40a63          	beq	s0,a4,11758 <__adddf3+0x6f0>
   11188:	ff800737          	lui	a4,0xff800
   1118c:	fff70713          	addi	a4,a4,-1 # ff7fffff <__global_pointer$+0xff7eb5d7>
   11190:	00e7f7b3          	and	a5,a5,a4
   11194:	00155713          	srli	a4,a0,0x1
   11198:	00157513          	andi	a0,a0,1
   1119c:	00a76733          	or	a4,a4,a0
   111a0:	01f79513          	slli	a0,a5,0x1f
   111a4:	00e56533          	or	a0,a0,a4
   111a8:	0017d793          	srli	a5,a5,0x1
   111ac:	1780006f          	j	11324 <__adddf3+0x2bc>
   111b0:	fe058693          	addi	a3,a1,-32
   111b4:	02000893          	li	a7,32
   111b8:	00d756b3          	srl	a3,a4,a3
   111bc:	00000813          	li	a6,0
   111c0:	01158863          	beq	a1,a7,111d0 <__adddf3+0x168>
   111c4:	04000813          	li	a6,64
   111c8:	40b80833          	sub	a6,a6,a1
   111cc:	01071833          	sll	a6,a4,a6
   111d0:	00c86833          	or	a6,a6,a2
   111d4:	01003833          	snez	a6,a6
   111d8:	0106e6b3          	or	a3,a3,a6
   111dc:	00000593          	li	a1,0
   111e0:	f7dff06f          	j	1115c <__adddf3+0xf4>
   111e4:	00c766b3          	or	a3,a4,a2
   111e8:	00d036b3          	snez	a3,a3
   111ec:	ff1ff06f          	j	111dc <__adddf3+0x174>
   111f0:	0e080263          	beqz	a6,112d4 <__adddf3+0x26c>
   111f4:	408885b3          	sub	a1,a7,s0
   111f8:	02041e63          	bnez	s0,11234 <__adddf3+0x1cc>
   111fc:	00a7e6b3          	or	a3,a5,a0
   11200:	52068c63          	beqz	a3,11738 <__adddf3+0x6d0>
   11204:	fff58693          	addi	a3,a1,-1
   11208:	00069c63          	bnez	a3,11220 <__adddf3+0x1b8>
   1120c:	00c50533          	add	a0,a0,a2
   11210:	00e78733          	add	a4,a5,a4
   11214:	00c53633          	sltu	a2,a0,a2
   11218:	00c707b3          	add	a5,a4,a2
   1121c:	ee1ff06f          	j	110fc <__adddf3+0x94>
   11220:	7ff00813          	li	a6,2047
   11224:	03059263          	bne	a1,a6,11248 <__adddf3+0x1e0>
   11228:	00070793          	mv	a5,a4
   1122c:	00060513          	mv	a0,a2
   11230:	eddff06f          	j	1110c <__adddf3+0xa4>
   11234:	7ff00693          	li	a3,2047
   11238:	fed888e3          	beq	a7,a3,11228 <__adddf3+0x1c0>
   1123c:	008006b7          	lui	a3,0x800
   11240:	00d7e7b3          	or	a5,a5,a3
   11244:	00058693          	mv	a3,a1
   11248:	03800593          	li	a1,56
   1124c:	06d5ce63          	blt	a1,a3,112c8 <__adddf3+0x260>
   11250:	01f00593          	li	a1,31
   11254:	04d5c063          	blt	a1,a3,11294 <__adddf3+0x22c>
   11258:	02000813          	li	a6,32
   1125c:	40d80833          	sub	a6,a6,a3
   11260:	010795b3          	sll	a1,a5,a6
   11264:	00d55333          	srl	t1,a0,a3
   11268:	01051833          	sll	a6,a0,a6
   1126c:	0065e5b3          	or	a1,a1,t1
   11270:	01003833          	snez	a6,a6
   11274:	0105e5b3          	or	a1,a1,a6
   11278:	00d7d6b3          	srl	a3,a5,a3
   1127c:	00c58533          	add	a0,a1,a2
   11280:	00e686b3          	add	a3,a3,a4
   11284:	00c53633          	sltu	a2,a0,a2
   11288:	00c687b3          	add	a5,a3,a2
   1128c:	00088413          	mv	s0,a7
   11290:	ee1ff06f          	j	11170 <__adddf3+0x108>
   11294:	fe068593          	addi	a1,a3,-32 # 7fffe0 <__global_pointer$+0x7eb5b8>
   11298:	02000313          	li	t1,32
   1129c:	00b7d5b3          	srl	a1,a5,a1
   112a0:	00000813          	li	a6,0
   112a4:	00668863          	beq	a3,t1,112b4 <__adddf3+0x24c>
   112a8:	04000813          	li	a6,64
   112ac:	40d80833          	sub	a6,a6,a3
   112b0:	01079833          	sll	a6,a5,a6
   112b4:	00a86833          	or	a6,a6,a0
   112b8:	01003833          	snez	a6,a6
   112bc:	0105e5b3          	or	a1,a1,a6
   112c0:	00000693          	li	a3,0
   112c4:	fb9ff06f          	j	1127c <__adddf3+0x214>
   112c8:	00a7e5b3          	or	a1,a5,a0
   112cc:	00b035b3          	snez	a1,a1
   112d0:	ff1ff06f          	j	112c0 <__adddf3+0x258>
   112d4:	00140693          	addi	a3,s0,1
   112d8:	7fe6f593          	andi	a1,a3,2046
   112dc:	08059863          	bnez	a1,1136c <__adddf3+0x304>
   112e0:	00a7e6b3          	or	a3,a5,a0
   112e4:	06041463          	bnez	s0,1134c <__adddf3+0x2e4>
   112e8:	46068063          	beqz	a3,11748 <__adddf3+0x6e0>
   112ec:	00c766b3          	or	a3,a4,a2
   112f0:	02068a63          	beqz	a3,11324 <__adddf3+0x2bc>
   112f4:	00c50633          	add	a2,a0,a2
   112f8:	00e78733          	add	a4,a5,a4
   112fc:	00a637b3          	sltu	a5,a2,a0
   11300:	00f707b3          	add	a5,a4,a5
   11304:	00800737          	lui	a4,0x800
   11308:	00e7f733          	and	a4,a5,a4
   1130c:	00060513          	mv	a0,a2
   11310:	00070a63          	beqz	a4,11324 <__adddf3+0x2bc>
   11314:	ff800737          	lui	a4,0xff800
   11318:	fff70713          	addi	a4,a4,-1 # ff7fffff <__global_pointer$+0xff7eb5d7>
   1131c:	00e7f7b3          	and	a5,a5,a4
   11320:	00100413          	li	s0,1
   11324:	00757713          	andi	a4,a0,7
   11328:	42070c63          	beqz	a4,11760 <__adddf3+0x6f8>
   1132c:	00f57713          	andi	a4,a0,15
   11330:	00400693          	li	a3,4
   11334:	42d70663          	beq	a4,a3,11760 <__adddf3+0x6f8>
   11338:	00450713          	addi	a4,a0,4
   1133c:	00a73533          	sltu	a0,a4,a0
   11340:	00a787b3          	add	a5,a5,a0
   11344:	00070513          	mv	a0,a4
   11348:	4180006f          	j	11760 <__adddf3+0x6f8>
   1134c:	ec068ee3          	beqz	a3,11228 <__adddf3+0x1c0>
   11350:	00c76733          	or	a4,a4,a2
   11354:	da070ce3          	beqz	a4,1110c <__adddf3+0xa4>
   11358:	00000493          	li	s1,0
   1135c:	004007b7          	lui	a5,0x400
   11360:	00000513          	li	a0,0
   11364:	7ff00413          	li	s0,2047
   11368:	3f80006f          	j	11760 <__adddf3+0x6f8>
   1136c:	7ff00593          	li	a1,2047
   11370:	3eb68263          	beq	a3,a1,11754 <__adddf3+0x6ec>
   11374:	00c50633          	add	a2,a0,a2
   11378:	00a63533          	sltu	a0,a2,a0
   1137c:	00e78733          	add	a4,a5,a4
   11380:	00a70733          	add	a4,a4,a0
   11384:	01f71513          	slli	a0,a4,0x1f
   11388:	00165613          	srli	a2,a2,0x1
   1138c:	00c56533          	or	a0,a0,a2
   11390:	00175793          	srli	a5,a4,0x1
   11394:	00068413          	mv	s0,a3
   11398:	f8dff06f          	j	11324 <__adddf3+0x2bc>
   1139c:	0f005c63          	blez	a6,11494 <__adddf3+0x42c>
   113a0:	08089e63          	bnez	a7,1143c <__adddf3+0x3d4>
   113a4:	00c766b3          	or	a3,a4,a2
   113a8:	44068863          	beqz	a3,117f8 <__adddf3+0x790>
   113ac:	fff80593          	addi	a1,a6,-1
   113b0:	02059063          	bnez	a1,113d0 <__adddf3+0x368>
   113b4:	40c50633          	sub	a2,a0,a2
   113b8:	40e78733          	sub	a4,a5,a4
   113bc:	00c537b3          	sltu	a5,a0,a2
   113c0:	40f707b3          	sub	a5,a4,a5
   113c4:	00060513          	mv	a0,a2
   113c8:	00100413          	li	s0,1
   113cc:	0540006f          	j	11420 <__adddf3+0x3b8>
   113d0:	7ff00693          	li	a3,2047
   113d4:	d2d80ce3          	beq	a6,a3,1110c <__adddf3+0xa4>
   113d8:	03800693          	li	a3,56
   113dc:	0ab6c663          	blt	a3,a1,11488 <__adddf3+0x420>
   113e0:	01f00693          	li	a3,31
   113e4:	06b6c863          	blt	a3,a1,11454 <__adddf3+0x3ec>
   113e8:	02000813          	li	a6,32
   113ec:	40b80833          	sub	a6,a6,a1
   113f0:	010716b3          	sll	a3,a4,a6
   113f4:	00b658b3          	srl	a7,a2,a1
   113f8:	01061833          	sll	a6,a2,a6
   113fc:	0116e6b3          	or	a3,a3,a7
   11400:	01003833          	snez	a6,a6
   11404:	0106e6b3          	or	a3,a3,a6
   11408:	00b755b3          	srl	a1,a4,a1
   1140c:	40d506b3          	sub	a3,a0,a3
   11410:	40b785b3          	sub	a1,a5,a1
   11414:	00d537b3          	sltu	a5,a0,a3
   11418:	40f587b3          	sub	a5,a1,a5
   1141c:	00068513          	mv	a0,a3
   11420:	00800937          	lui	s2,0x800
   11424:	0127f733          	and	a4,a5,s2
   11428:	ee070ee3          	beqz	a4,11324 <__adddf3+0x2bc>
   1142c:	fff90913          	addi	s2,s2,-1 # 7fffff <__global_pointer$+0x7eb5d7>
   11430:	0127f933          	and	s2,a5,s2
   11434:	00050993          	mv	s3,a0
   11438:	2140006f          	j	1164c <__adddf3+0x5e4>
   1143c:	7ff00693          	li	a3,2047
   11440:	eed402e3          	beq	s0,a3,11324 <__adddf3+0x2bc>
   11444:	008006b7          	lui	a3,0x800
   11448:	00d76733          	or	a4,a4,a3
   1144c:	00080593          	mv	a1,a6
   11450:	f89ff06f          	j	113d8 <__adddf3+0x370>
   11454:	fe058693          	addi	a3,a1,-32
   11458:	02000893          	li	a7,32
   1145c:	00d756b3          	srl	a3,a4,a3
   11460:	00000813          	li	a6,0
   11464:	01158863          	beq	a1,a7,11474 <__adddf3+0x40c>
   11468:	04000813          	li	a6,64
   1146c:	40b80833          	sub	a6,a6,a1
   11470:	01071833          	sll	a6,a4,a6
   11474:	00c86833          	or	a6,a6,a2
   11478:	01003833          	snez	a6,a6
   1147c:	0106e6b3          	or	a3,a3,a6
   11480:	00000593          	li	a1,0
   11484:	f89ff06f          	j	1140c <__adddf3+0x3a4>
   11488:	00c766b3          	or	a3,a4,a2
   1148c:	00d036b3          	snez	a3,a3
   11490:	ff1ff06f          	j	11480 <__adddf3+0x418>
   11494:	0e080863          	beqz	a6,11584 <__adddf3+0x51c>
   11498:	40888833          	sub	a6,a7,s0
   1149c:	04041263          	bnez	s0,114e0 <__adddf3+0x478>
   114a0:	00a7e5b3          	or	a1,a5,a0
   114a4:	34058e63          	beqz	a1,11800 <__adddf3+0x798>
   114a8:	fff80593          	addi	a1,a6,-1
   114ac:	00059e63          	bnez	a1,114c8 <__adddf3+0x460>
   114b0:	40a60533          	sub	a0,a2,a0
   114b4:	40f70733          	sub	a4,a4,a5
   114b8:	00a63633          	sltu	a2,a2,a0
   114bc:	40c707b3          	sub	a5,a4,a2
   114c0:	00068493          	mv	s1,a3
   114c4:	f05ff06f          	j	113c8 <__adddf3+0x360>
   114c8:	7ff00313          	li	t1,2047
   114cc:	02681463          	bne	a6,t1,114f4 <__adddf3+0x48c>
   114d0:	00070793          	mv	a5,a4
   114d4:	00060513          	mv	a0,a2
   114d8:	7ff00413          	li	s0,2047
   114dc:	0d00006f          	j	115ac <__adddf3+0x544>
   114e0:	7ff00593          	li	a1,2047
   114e4:	feb886e3          	beq	a7,a1,114d0 <__adddf3+0x468>
   114e8:	008005b7          	lui	a1,0x800
   114ec:	00b7e7b3          	or	a5,a5,a1
   114f0:	00080593          	mv	a1,a6
   114f4:	03800813          	li	a6,56
   114f8:	08b84063          	blt	a6,a1,11578 <__adddf3+0x510>
   114fc:	01f00813          	li	a6,31
   11500:	04b84263          	blt	a6,a1,11544 <__adddf3+0x4dc>
   11504:	02000313          	li	t1,32
   11508:	40b30333          	sub	t1,t1,a1
   1150c:	00b55e33          	srl	t3,a0,a1
   11510:	00679833          	sll	a6,a5,t1
   11514:	00651333          	sll	t1,a0,t1
   11518:	01c86833          	or	a6,a6,t3
   1151c:	00603333          	snez	t1,t1
   11520:	00686533          	or	a0,a6,t1
   11524:	00b7d5b3          	srl	a1,a5,a1
   11528:	40a60533          	sub	a0,a2,a0
   1152c:	40b705b3          	sub	a1,a4,a1
   11530:	00a63633          	sltu	a2,a2,a0
   11534:	40c587b3          	sub	a5,a1,a2
   11538:	00088413          	mv	s0,a7
   1153c:	00068493          	mv	s1,a3
   11540:	ee1ff06f          	j	11420 <__adddf3+0x3b8>
   11544:	fe058813          	addi	a6,a1,-32 # 7fffe0 <__global_pointer$+0x7eb5b8>
   11548:	02000e13          	li	t3,32
   1154c:	0107d833          	srl	a6,a5,a6
   11550:	00000313          	li	t1,0
   11554:	01c58863          	beq	a1,t3,11564 <__adddf3+0x4fc>
   11558:	04000313          	li	t1,64
   1155c:	40b30333          	sub	t1,t1,a1
   11560:	00679333          	sll	t1,a5,t1
   11564:	00a36333          	or	t1,t1,a0
   11568:	00603333          	snez	t1,t1
   1156c:	00686533          	or	a0,a6,t1
   11570:	00000593          	li	a1,0
   11574:	fb5ff06f          	j	11528 <__adddf3+0x4c0>
   11578:	00a7e533          	or	a0,a5,a0
   1157c:	00a03533          	snez	a0,a0
   11580:	ff1ff06f          	j	11570 <__adddf3+0x508>
   11584:	00140593          	addi	a1,s0,1
   11588:	7fe5f593          	andi	a1,a1,2046
   1158c:	08059863          	bnez	a1,1161c <__adddf3+0x5b4>
   11590:	00a7e833          	or	a6,a5,a0
   11594:	00c765b3          	or	a1,a4,a2
   11598:	06041263          	bnez	s0,115fc <__adddf3+0x594>
   1159c:	00081c63          	bnez	a6,115b4 <__adddf3+0x54c>
   115a0:	26058863          	beqz	a1,11810 <__adddf3+0x7a8>
   115a4:	00070793          	mv	a5,a4
   115a8:	00060513          	mv	a0,a2
   115ac:	00068493          	mv	s1,a3
   115b0:	d75ff06f          	j	11324 <__adddf3+0x2bc>
   115b4:	d60588e3          	beqz	a1,11324 <__adddf3+0x2bc>
   115b8:	40c50833          	sub	a6,a0,a2
   115bc:	010538b3          	sltu	a7,a0,a6
   115c0:	40e785b3          	sub	a1,a5,a4
   115c4:	411585b3          	sub	a1,a1,a7
   115c8:	008008b7          	lui	a7,0x800
   115cc:	0115f8b3          	and	a7,a1,a7
   115d0:	00088c63          	beqz	a7,115e8 <__adddf3+0x580>
   115d4:	40a60533          	sub	a0,a2,a0
   115d8:	40f70733          	sub	a4,a4,a5
   115dc:	00a63633          	sltu	a2,a2,a0
   115e0:	40c707b3          	sub	a5,a4,a2
   115e4:	fc9ff06f          	j	115ac <__adddf3+0x544>
   115e8:	00b86533          	or	a0,a6,a1
   115ec:	22050a63          	beqz	a0,11820 <__adddf3+0x7b8>
   115f0:	00058793          	mv	a5,a1
   115f4:	00080513          	mv	a0,a6
   115f8:	d2dff06f          	j	11324 <__adddf3+0x2bc>
   115fc:	00081c63          	bnez	a6,11614 <__adddf3+0x5ac>
   11600:	22058463          	beqz	a1,11828 <__adddf3+0x7c0>
   11604:	00070793          	mv	a5,a4
   11608:	00060513          	mv	a0,a2
   1160c:	00068493          	mv	s1,a3
   11610:	afdff06f          	j	1110c <__adddf3+0xa4>
   11614:	ae058ce3          	beqz	a1,1110c <__adddf3+0xa4>
   11618:	d41ff06f          	j	11358 <__adddf3+0x2f0>
   1161c:	40c509b3          	sub	s3,a0,a2
   11620:	013535b3          	sltu	a1,a0,s3
   11624:	40e78933          	sub	s2,a5,a4
   11628:	40b90933          	sub	s2,s2,a1
   1162c:	008005b7          	lui	a1,0x800
   11630:	00b975b3          	and	a1,s2,a1
   11634:	08058463          	beqz	a1,116bc <__adddf3+0x654>
   11638:	40a609b3          	sub	s3,a2,a0
   1163c:	40f70933          	sub	s2,a4,a5
   11640:	01363633          	sltu	a2,a2,s3
   11644:	40c90933          	sub	s2,s2,a2
   11648:	00068493          	mv	s1,a3
   1164c:	08090263          	beqz	s2,116d0 <__adddf3+0x668>
   11650:	00090513          	mv	a0,s2
   11654:	648010ef          	jal	ra,12c9c <__clzsi2>
   11658:	ff850713          	addi	a4,a0,-8
   1165c:	01f00793          	li	a5,31
   11660:	08e7c063          	blt	a5,a4,116e0 <__adddf3+0x678>
   11664:	02000793          	li	a5,32
   11668:	40e787b3          	sub	a5,a5,a4
   1166c:	00e91933          	sll	s2,s2,a4
   11670:	00f9d7b3          	srl	a5,s3,a5
   11674:	0127e7b3          	or	a5,a5,s2
   11678:	00e99533          	sll	a0,s3,a4
   1167c:	0a874463          	blt	a4,s0,11724 <__adddf3+0x6bc>
   11680:	40870733          	sub	a4,a4,s0
   11684:	00170613          	addi	a2,a4,1
   11688:	01f00693          	li	a3,31
   1168c:	06c6c263          	blt	a3,a2,116f0 <__adddf3+0x688>
   11690:	02000713          	li	a4,32
   11694:	40c70733          	sub	a4,a4,a2
   11698:	00e796b3          	sll	a3,a5,a4
   1169c:	00c555b3          	srl	a1,a0,a2
   116a0:	00e51733          	sll	a4,a0,a4
   116a4:	00b6e6b3          	or	a3,a3,a1
   116a8:	00e03733          	snez	a4,a4
   116ac:	00e6e533          	or	a0,a3,a4
   116b0:	00c7d7b3          	srl	a5,a5,a2
   116b4:	00000413          	li	s0,0
   116b8:	c6dff06f          	j	11324 <__adddf3+0x2bc>
   116bc:	0129e533          	or	a0,s3,s2
   116c0:	f80516e3          	bnez	a0,1164c <__adddf3+0x5e4>
   116c4:	00000793          	li	a5,0
   116c8:	00000413          	li	s0,0
   116cc:	14c0006f          	j	11818 <__adddf3+0x7b0>
   116d0:	00098513          	mv	a0,s3
   116d4:	5c8010ef          	jal	ra,12c9c <__clzsi2>
   116d8:	02050513          	addi	a0,a0,32
   116dc:	f7dff06f          	j	11658 <__adddf3+0x5f0>
   116e0:	fd850793          	addi	a5,a0,-40
   116e4:	00f997b3          	sll	a5,s3,a5
   116e8:	00000513          	li	a0,0
   116ec:	f91ff06f          	j	1167c <__adddf3+0x614>
   116f0:	fe170713          	addi	a4,a4,-31
   116f4:	02000593          	li	a1,32
   116f8:	00e7d733          	srl	a4,a5,a4
   116fc:	00000693          	li	a3,0
   11700:	00b60863          	beq	a2,a1,11710 <__adddf3+0x6a8>
   11704:	04000693          	li	a3,64
   11708:	40c686b3          	sub	a3,a3,a2
   1170c:	00d796b3          	sll	a3,a5,a3
   11710:	00d566b3          	or	a3,a0,a3
   11714:	00d036b3          	snez	a3,a3
   11718:	00d76533          	or	a0,a4,a3
   1171c:	00000793          	li	a5,0
   11720:	f95ff06f          	j	116b4 <__adddf3+0x64c>
   11724:	40e40433          	sub	s0,s0,a4
   11728:	ff800737          	lui	a4,0xff800
   1172c:	fff70713          	addi	a4,a4,-1 # ff7fffff <__global_pointer$+0xff7eb5d7>
   11730:	00e7f7b3          	and	a5,a5,a4
   11734:	bf1ff06f          	j	11324 <__adddf3+0x2bc>
   11738:	00070793          	mv	a5,a4
   1173c:	00060513          	mv	a0,a2
   11740:	00058413          	mv	s0,a1
   11744:	be1ff06f          	j	11324 <__adddf3+0x2bc>
   11748:	00070793          	mv	a5,a4
   1174c:	00060513          	mv	a0,a2
   11750:	bd5ff06f          	j	11324 <__adddf3+0x2bc>
   11754:	7ff00413          	li	s0,2047
   11758:	00000793          	li	a5,0
   1175c:	00000513          	li	a0,0
   11760:	00800737          	lui	a4,0x800
   11764:	00e7f733          	and	a4,a5,a4
   11768:	00070e63          	beqz	a4,11784 <__adddf3+0x71c>
   1176c:	00140413          	addi	s0,s0,1
   11770:	7ff00713          	li	a4,2047
   11774:	0ce40263          	beq	s0,a4,11838 <__adddf3+0x7d0>
   11778:	ff800737          	lui	a4,0xff800
   1177c:	fff70713          	addi	a4,a4,-1 # ff7fffff <__global_pointer$+0xff7eb5d7>
   11780:	00e7f7b3          	and	a5,a5,a4
   11784:	01d79693          	slli	a3,a5,0x1d
   11788:	00355513          	srli	a0,a0,0x3
   1178c:	7ff00713          	li	a4,2047
   11790:	00a6e6b3          	or	a3,a3,a0
   11794:	0037d793          	srli	a5,a5,0x3
   11798:	00e41e63          	bne	s0,a4,117b4 <__adddf3+0x74c>
   1179c:	00f6e6b3          	or	a3,a3,a5
   117a0:	00000793          	li	a5,0
   117a4:	00068863          	beqz	a3,117b4 <__adddf3+0x74c>
   117a8:	000807b7          	lui	a5,0x80
   117ac:	00000693          	li	a3,0
   117b0:	00000493          	li	s1,0
   117b4:	01441713          	slli	a4,s0,0x14
   117b8:	7ff00637          	lui	a2,0x7ff00
   117bc:	00c79793          	slli	a5,a5,0xc
   117c0:	01c12083          	lw	ra,28(sp)
   117c4:	01812403          	lw	s0,24(sp)
   117c8:	00c77733          	and	a4,a4,a2
   117cc:	00c7d793          	srli	a5,a5,0xc
   117d0:	01f49493          	slli	s1,s1,0x1f
   117d4:	00f767b3          	or	a5,a4,a5
   117d8:	0097e733          	or	a4,a5,s1
   117dc:	01012903          	lw	s2,16(sp)
   117e0:	01412483          	lw	s1,20(sp)
   117e4:	00c12983          	lw	s3,12(sp)
   117e8:	00068513          	mv	a0,a3
   117ec:	00070593          	mv	a1,a4
   117f0:	02010113          	addi	sp,sp,32
   117f4:	00008067          	ret
   117f8:	00080413          	mv	s0,a6
   117fc:	b29ff06f          	j	11324 <__adddf3+0x2bc>
   11800:	00070793          	mv	a5,a4
   11804:	00060513          	mv	a0,a2
   11808:	00080413          	mv	s0,a6
   1180c:	da1ff06f          	j	115ac <__adddf3+0x544>
   11810:	00000793          	li	a5,0
   11814:	00000513          	li	a0,0
   11818:	00000493          	li	s1,0
   1181c:	f45ff06f          	j	11760 <__adddf3+0x6f8>
   11820:	00000793          	li	a5,0
   11824:	ff5ff06f          	j	11818 <__adddf3+0x7b0>
   11828:	00000513          	li	a0,0
   1182c:	00000493          	li	s1,0
   11830:	004007b7          	lui	a5,0x400
   11834:	b31ff06f          	j	11364 <__adddf3+0x2fc>
   11838:	00000793          	li	a5,0
   1183c:	00000513          	li	a0,0
   11840:	f45ff06f          	j	11784 <__adddf3+0x71c>

00011844 <__ledf2>:
   11844:	00100737          	lui	a4,0x100
   11848:	fff70713          	addi	a4,a4,-1 # fffff <__global_pointer$+0xeb5d7>
   1184c:	0145d813          	srli	a6,a1,0x14
   11850:	00b778b3          	and	a7,a4,a1
   11854:	00050793          	mv	a5,a0
   11858:	00050313          	mv	t1,a0
   1185c:	7ff87813          	andi	a6,a6,2047
   11860:	01f5d513          	srli	a0,a1,0x1f
   11864:	7ff00e93          	li	t4,2047
   11868:	0146d593          	srli	a1,a3,0x14
   1186c:	00d77733          	and	a4,a4,a3
   11870:	00060e13          	mv	t3,a2
   11874:	7ff5f593          	andi	a1,a1,2047
   11878:	01f6d693          	srli	a3,a3,0x1f
   1187c:	01d81a63          	bne	a6,t4,11890 <__ledf2+0x4c>
   11880:	00f8eeb3          	or	t4,a7,a5
   11884:	080e8a63          	beqz	t4,11918 <__ledf2+0xd4>
   11888:	00200513          	li	a0,2
   1188c:	00008067          	ret
   11890:	01d59663          	bne	a1,t4,1189c <__ledf2+0x58>
   11894:	00c76eb3          	or	t4,a4,a2
   11898:	fe0e98e3          	bnez	t4,11888 <__ledf2+0x44>
   1189c:	08081063          	bnez	a6,1191c <__ledf2+0xd8>
   118a0:	00f8e7b3          	or	a5,a7,a5
   118a4:	0017b793          	seqz	a5,a5
   118a8:	00059663          	bnez	a1,118b4 <__ledf2+0x70>
   118ac:	00c76633          	or	a2,a4,a2
   118b0:	04060c63          	beqz	a2,11908 <__ledf2+0xc4>
   118b4:	00079c63          	bnez	a5,118cc <__ledf2+0x88>
   118b8:	00d51463          	bne	a0,a3,118c0 <__ledf2+0x7c>
   118bc:	0305d063          	bge	a1,a6,118dc <__ledf2+0x98>
   118c0:	04050063          	beqz	a0,11900 <__ledf2+0xbc>
   118c4:	fff00513          	li	a0,-1
   118c8:	00008067          	ret
   118cc:	fff00513          	li	a0,-1
   118d0:	00068a63          	beqz	a3,118e4 <__ledf2+0xa0>
   118d4:	00068513          	mv	a0,a3
   118d8:	00008067          	ret
   118dc:	00b85663          	bge	a6,a1,118e8 <__ledf2+0xa4>
   118e0:	fe0502e3          	beqz	a0,118c4 <__ledf2+0x80>
   118e4:	00008067          	ret
   118e8:	fd176ce3          	bltu	a4,a7,118c0 <__ledf2+0x7c>
   118ec:	02e89263          	bne	a7,a4,11910 <__ledf2+0xcc>
   118f0:	fc6e68e3          	bltu	t3,t1,118c0 <__ledf2+0x7c>
   118f4:	ffc366e3          	bltu	t1,t3,118e0 <__ledf2+0x9c>
   118f8:	00000513          	li	a0,0
   118fc:	00008067          	ret
   11900:	00100513          	li	a0,1
   11904:	00008067          	ret
   11908:	fe0798e3          	bnez	a5,118f8 <__ledf2+0xb4>
   1190c:	fb5ff06f          	j	118c0 <__ledf2+0x7c>
   11910:	fce8e8e3          	bltu	a7,a4,118e0 <__ledf2+0x9c>
   11914:	fe5ff06f          	j	118f8 <__ledf2+0xb4>
   11918:	f7058ee3          	beq	a1,a6,11894 <__ledf2+0x50>
   1191c:	f8059ee3          	bnez	a1,118b8 <__ledf2+0x74>
   11920:	00000793          	li	a5,0
   11924:	f89ff06f          	j	118ac <__ledf2+0x68>

00011928 <__addsf3>:
   11928:	00800737          	lui	a4,0x800
   1192c:	ff010113          	addi	sp,sp,-16
   11930:	fff70713          	addi	a4,a4,-1 # 7fffff <__global_pointer$+0x7eb5d7>
   11934:	00a777b3          	and	a5,a4,a0
   11938:	00812423          	sw	s0,8(sp)
   1193c:	00912223          	sw	s1,4(sp)
   11940:	01755413          	srli	s0,a0,0x17
   11944:	01f55493          	srli	s1,a0,0x1f
   11948:	0175d513          	srli	a0,a1,0x17
   1194c:	00b77733          	and	a4,a4,a1
   11950:	0ff47413          	zext.b	s0,s0
   11954:	0ff57513          	zext.b	a0,a0
   11958:	00112623          	sw	ra,12(sp)
   1195c:	01212023          	sw	s2,0(sp)
   11960:	01f5d593          	srli	a1,a1,0x1f
   11964:	00379793          	slli	a5,a5,0x3
   11968:	00371713          	slli	a4,a4,0x3
   1196c:	40a406b3          	sub	a3,s0,a0
   11970:	18b49663          	bne	s1,a1,11afc <__addsf3+0x1d4>
   11974:	0ad05863          	blez	a3,11a24 <__addsf3+0xfc>
   11978:	04051063          	bnez	a0,119b8 <__addsf3+0x90>
   1197c:	02070063          	beqz	a4,1199c <__addsf3+0x74>
   11980:	fff40693          	addi	a3,s0,-1
   11984:	00069863          	bnez	a3,11994 <__addsf3+0x6c>
   11988:	00e787b3          	add	a5,a5,a4
   1198c:	00100413          	li	s0,1
   11990:	0600006f          	j	119f0 <__addsf3+0xc8>
   11994:	0ff00613          	li	a2,255
   11998:	02c41863          	bne	s0,a2,119c8 <__addsf3+0xa0>
   1199c:	0077f713          	andi	a4,a5,7
   119a0:	34070a63          	beqz	a4,11cf4 <__addsf3+0x3cc>
   119a4:	00f7f713          	andi	a4,a5,15
   119a8:	00400693          	li	a3,4
   119ac:	34d70463          	beq	a4,a3,11cf4 <__addsf3+0x3cc>
   119b0:	00478793          	addi	a5,a5,4 # 400004 <__global_pointer$+0x3eb5dc>
   119b4:	3400006f          	j	11cf4 <__addsf3+0x3cc>
   119b8:	0ff00613          	li	a2,255
   119bc:	fec400e3          	beq	s0,a2,1199c <__addsf3+0x74>
   119c0:	04000637          	lui	a2,0x4000
   119c4:	00c76733          	or	a4,a4,a2
   119c8:	01b00593          	li	a1,27
   119cc:	00100613          	li	a2,1
   119d0:	00d5ce63          	blt	a1,a3,119ec <__addsf3+0xc4>
   119d4:	02000613          	li	a2,32
   119d8:	00d755b3          	srl	a1,a4,a3
   119dc:	40d606b3          	sub	a3,a2,a3
   119e0:	00d71733          	sll	a4,a4,a3
   119e4:	00e03733          	snez	a4,a4
   119e8:	00e5e633          	or	a2,a1,a4
   119ec:	00c787b3          	add	a5,a5,a2
   119f0:	04000737          	lui	a4,0x4000
   119f4:	00e7f733          	and	a4,a5,a4
   119f8:	fa0702e3          	beqz	a4,1199c <__addsf3+0x74>
   119fc:	00140413          	addi	s0,s0,1
   11a00:	0ff00713          	li	a4,255
   11a04:	2ee40663          	beq	s0,a4,11cf0 <__addsf3+0x3c8>
   11a08:	7e000737          	lui	a4,0x7e000
   11a0c:	0017f693          	andi	a3,a5,1
   11a10:	fff70713          	addi	a4,a4,-1 # 7dffffff <__global_pointer$+0x7dfeb5d7>
   11a14:	0017d793          	srli	a5,a5,0x1
   11a18:	00e7f7b3          	and	a5,a5,a4
   11a1c:	00d7e7b3          	or	a5,a5,a3
   11a20:	f7dff06f          	j	1199c <__addsf3+0x74>
   11a24:	06068663          	beqz	a3,11a90 <__addsf3+0x168>
   11a28:	408506b3          	sub	a3,a0,s0
   11a2c:	02041063          	bnez	s0,11a4c <__addsf3+0x124>
   11a30:	2a078663          	beqz	a5,11cdc <__addsf3+0x3b4>
   11a34:	fff68613          	addi	a2,a3,-1 # 7fffff <__global_pointer$+0x7eb5d7>
   11a38:	f40608e3          	beqz	a2,11988 <__addsf3+0x60>
   11a3c:	0ff00593          	li	a1,255
   11a40:	02b69063          	bne	a3,a1,11a60 <__addsf3+0x138>
   11a44:	00070793          	mv	a5,a4
   11a48:	2100006f          	j	11c58 <__addsf3+0x330>
   11a4c:	0ff00613          	li	a2,255
   11a50:	fec50ae3          	beq	a0,a2,11a44 <__addsf3+0x11c>
   11a54:	04000637          	lui	a2,0x4000
   11a58:	00c7e7b3          	or	a5,a5,a2
   11a5c:	00068613          	mv	a2,a3
   11a60:	01b00593          	li	a1,27
   11a64:	00100693          	li	a3,1
   11a68:	00c5ce63          	blt	a1,a2,11a84 <__addsf3+0x15c>
   11a6c:	02000693          	li	a3,32
   11a70:	40c686b3          	sub	a3,a3,a2
   11a74:	00c7d5b3          	srl	a1,a5,a2
   11a78:	00d797b3          	sll	a5,a5,a3
   11a7c:	00f037b3          	snez	a5,a5
   11a80:	00f5e6b3          	or	a3,a1,a5
   11a84:	00e687b3          	add	a5,a3,a4
   11a88:	00050413          	mv	s0,a0
   11a8c:	f65ff06f          	j	119f0 <__addsf3+0xc8>
   11a90:	00140693          	addi	a3,s0,1
   11a94:	0fe6f613          	andi	a2,a3,254
   11a98:	04061663          	bnez	a2,11ae4 <__addsf3+0x1bc>
   11a9c:	02041863          	bnez	s0,11acc <__addsf3+0x1a4>
   11aa0:	24078263          	beqz	a5,11ce4 <__addsf3+0x3bc>
   11aa4:	ee070ce3          	beqz	a4,1199c <__addsf3+0x74>
   11aa8:	00e787b3          	add	a5,a5,a4
   11aac:	04000737          	lui	a4,0x4000
   11ab0:	00e7f733          	and	a4,a5,a4
   11ab4:	ee0704e3          	beqz	a4,1199c <__addsf3+0x74>
   11ab8:	fc000737          	lui	a4,0xfc000
   11abc:	fff70713          	addi	a4,a4,-1 # fbffffff <__global_pointer$+0xfbfeb5d7>
   11ac0:	00e7f7b3          	and	a5,a5,a4
   11ac4:	00100413          	li	s0,1
   11ac8:	ed5ff06f          	j	1199c <__addsf3+0x74>
   11acc:	f6078ce3          	beqz	a5,11a44 <__addsf3+0x11c>
   11ad0:	18070463          	beqz	a4,11c58 <__addsf3+0x330>
   11ad4:	00000493          	li	s1,0
   11ad8:	020007b7          	lui	a5,0x2000
   11adc:	0ff00413          	li	s0,255
   11ae0:	2140006f          	j	11cf4 <__addsf3+0x3cc>
   11ae4:	0ff00613          	li	a2,255
   11ae8:	20c68263          	beq	a3,a2,11cec <__addsf3+0x3c4>
   11aec:	00e78733          	add	a4,a5,a4
   11af0:	00175793          	srli	a5,a4,0x1
   11af4:	00068413          	mv	s0,a3
   11af8:	ea5ff06f          	j	1199c <__addsf3+0x74>
   11afc:	06d05e63          	blez	a3,11b78 <__addsf3+0x250>
   11b00:	06051263          	bnez	a0,11b64 <__addsf3+0x23c>
   11b04:	e8070ce3          	beqz	a4,1199c <__addsf3+0x74>
   11b08:	fff40693          	addi	a3,s0,-1
   11b0c:	00069863          	bnez	a3,11b1c <__addsf3+0x1f4>
   11b10:	40e787b3          	sub	a5,a5,a4
   11b14:	00100413          	li	s0,1
   11b18:	0340006f          	j	11b4c <__addsf3+0x224>
   11b1c:	0ff00613          	li	a2,255
   11b20:	e6c40ee3          	beq	s0,a2,1199c <__addsf3+0x74>
   11b24:	01b00593          	li	a1,27
   11b28:	00100613          	li	a2,1
   11b2c:	00d5ce63          	blt	a1,a3,11b48 <__addsf3+0x220>
   11b30:	02000613          	li	a2,32
   11b34:	00d755b3          	srl	a1,a4,a3
   11b38:	40d606b3          	sub	a3,a2,a3
   11b3c:	00d71733          	sll	a4,a4,a3
   11b40:	00e03733          	snez	a4,a4
   11b44:	00e5e633          	or	a2,a1,a4
   11b48:	40c787b3          	sub	a5,a5,a2
   11b4c:	04000937          	lui	s2,0x4000
   11b50:	0127f733          	and	a4,a5,s2
   11b54:	e40704e3          	beqz	a4,1199c <__addsf3+0x74>
   11b58:	fff90913          	addi	s2,s2,-1 # 3ffffff <__global_pointer$+0x3feb5d7>
   11b5c:	0127f933          	and	s2,a5,s2
   11b60:	1180006f          	j	11c78 <__addsf3+0x350>
   11b64:	0ff00613          	li	a2,255
   11b68:	e2c40ae3          	beq	s0,a2,1199c <__addsf3+0x74>
   11b6c:	04000637          	lui	a2,0x4000
   11b70:	00c76733          	or	a4,a4,a2
   11b74:	fb1ff06f          	j	11b24 <__addsf3+0x1fc>
   11b78:	08068063          	beqz	a3,11bf8 <__addsf3+0x2d0>
   11b7c:	408506b3          	sub	a3,a0,s0
   11b80:	02041863          	bnez	s0,11bb0 <__addsf3+0x288>
   11b84:	1e078263          	beqz	a5,11d68 <__addsf3+0x440>
   11b88:	fff68613          	addi	a2,a3,-1
   11b8c:	00061863          	bnez	a2,11b9c <__addsf3+0x274>
   11b90:	40f707b3          	sub	a5,a4,a5
   11b94:	00058493          	mv	s1,a1
   11b98:	f7dff06f          	j	11b14 <__addsf3+0x1ec>
   11b9c:	0ff00813          	li	a6,255
   11ba0:	03069263          	bne	a3,a6,11bc4 <__addsf3+0x29c>
   11ba4:	00070793          	mv	a5,a4
   11ba8:	0ff00413          	li	s0,255
   11bac:	06c0006f          	j	11c18 <__addsf3+0x2f0>
   11bb0:	0ff00613          	li	a2,255
   11bb4:	fec508e3          	beq	a0,a2,11ba4 <__addsf3+0x27c>
   11bb8:	04000637          	lui	a2,0x4000
   11bbc:	00c7e7b3          	or	a5,a5,a2
   11bc0:	00068613          	mv	a2,a3
   11bc4:	01b00813          	li	a6,27
   11bc8:	00100693          	li	a3,1
   11bcc:	00c84e63          	blt	a6,a2,11be8 <__addsf3+0x2c0>
   11bd0:	02000693          	li	a3,32
   11bd4:	40c686b3          	sub	a3,a3,a2
   11bd8:	00c7d833          	srl	a6,a5,a2
   11bdc:	00d797b3          	sll	a5,a5,a3
   11be0:	00f037b3          	snez	a5,a5
   11be4:	00f866b3          	or	a3,a6,a5
   11be8:	40d707b3          	sub	a5,a4,a3
   11bec:	00050413          	mv	s0,a0
   11bf0:	00058493          	mv	s1,a1
   11bf4:	f59ff06f          	j	11b4c <__addsf3+0x224>
   11bf8:	00140693          	addi	a3,s0,1
   11bfc:	0fe6f693          	andi	a3,a3,254
   11c00:	06069063          	bnez	a3,11c60 <__addsf3+0x338>
   11c04:	04041263          	bnez	s0,11c48 <__addsf3+0x320>
   11c08:	00079c63          	bnez	a5,11c20 <__addsf3+0x2f8>
   11c0c:	00000493          	li	s1,0
   11c10:	0e070263          	beqz	a4,11cf4 <__addsf3+0x3cc>
   11c14:	00070793          	mv	a5,a4
   11c18:	00058493          	mv	s1,a1
   11c1c:	d81ff06f          	j	1199c <__addsf3+0x74>
   11c20:	d6070ee3          	beqz	a4,1199c <__addsf3+0x74>
   11c24:	40e786b3          	sub	a3,a5,a4
   11c28:	04000637          	lui	a2,0x4000
   11c2c:	00c6f633          	and	a2,a3,a2
   11c30:	40f707b3          	sub	a5,a4,a5
   11c34:	fe0612e3          	bnez	a2,11c18 <__addsf3+0x2f0>
   11c38:	00000793          	li	a5,0
   11c3c:	08068263          	beqz	a3,11cc0 <__addsf3+0x398>
   11c40:	00068793          	mv	a5,a3
   11c44:	d59ff06f          	j	1199c <__addsf3+0x74>
   11c48:	e80794e3          	bnez	a5,11ad0 <__addsf3+0x1a8>
   11c4c:	e80704e3          	beqz	a4,11ad4 <__addsf3+0x1ac>
   11c50:	00070793          	mv	a5,a4
   11c54:	00058493          	mv	s1,a1
   11c58:	0ff00413          	li	s0,255
   11c5c:	d41ff06f          	j	1199c <__addsf3+0x74>
   11c60:	40e78933          	sub	s2,a5,a4
   11c64:	040006b7          	lui	a3,0x4000
   11c68:	00d976b3          	and	a3,s2,a3
   11c6c:	04068463          	beqz	a3,11cb4 <__addsf3+0x38c>
   11c70:	40f70933          	sub	s2,a4,a5
   11c74:	00058493          	mv	s1,a1
   11c78:	00090513          	mv	a0,s2
   11c7c:	020010ef          	jal	ra,12c9c <__clzsi2>
   11c80:	ffb50513          	addi	a0,a0,-5
   11c84:	00a91933          	sll	s2,s2,a0
   11c88:	04854063          	blt	a0,s0,11cc8 <__addsf3+0x3a0>
   11c8c:	40850533          	sub	a0,a0,s0
   11c90:	00150513          	addi	a0,a0,1
   11c94:	02000713          	li	a4,32
   11c98:	40a70733          	sub	a4,a4,a0
   11c9c:	00a957b3          	srl	a5,s2,a0
   11ca0:	00e91933          	sll	s2,s2,a4
   11ca4:	01203933          	snez	s2,s2
   11ca8:	0127e7b3          	or	a5,a5,s2
   11cac:	00000413          	li	s0,0
   11cb0:	cedff06f          	j	1199c <__addsf3+0x74>
   11cb4:	fc0912e3          	bnez	s2,11c78 <__addsf3+0x350>
   11cb8:	00000793          	li	a5,0
   11cbc:	00000413          	li	s0,0
   11cc0:	00000493          	li	s1,0
   11cc4:	0300006f          	j	11cf4 <__addsf3+0x3cc>
   11cc8:	fc0007b7          	lui	a5,0xfc000
   11ccc:	fff78793          	addi	a5,a5,-1 # fbffffff <__global_pointer$+0xfbfeb5d7>
   11cd0:	40a40433          	sub	s0,s0,a0
   11cd4:	00f977b3          	and	a5,s2,a5
   11cd8:	cc5ff06f          	j	1199c <__addsf3+0x74>
   11cdc:	00070793          	mv	a5,a4
   11ce0:	e15ff06f          	j	11af4 <__addsf3+0x1cc>
   11ce4:	00070793          	mv	a5,a4
   11ce8:	cb5ff06f          	j	1199c <__addsf3+0x74>
   11cec:	0ff00413          	li	s0,255
   11cf0:	00000793          	li	a5,0
   11cf4:	04000737          	lui	a4,0x4000
   11cf8:	00e7f733          	and	a4,a5,a4
   11cfc:	00070e63          	beqz	a4,11d18 <__addsf3+0x3f0>
   11d00:	00140413          	addi	s0,s0,1
   11d04:	0ff00713          	li	a4,255
   11d08:	06e40663          	beq	s0,a4,11d74 <__addsf3+0x44c>
   11d0c:	fc000737          	lui	a4,0xfc000
   11d10:	fff70713          	addi	a4,a4,-1 # fbffffff <__global_pointer$+0xfbfeb5d7>
   11d14:	00e7f7b3          	and	a5,a5,a4
   11d18:	0ff00713          	li	a4,255
   11d1c:	0037d793          	srli	a5,a5,0x3
   11d20:	00e41863          	bne	s0,a4,11d30 <__addsf3+0x408>
   11d24:	00078663          	beqz	a5,11d30 <__addsf3+0x408>
   11d28:	004007b7          	lui	a5,0x400
   11d2c:	00000493          	li	s1,0
   11d30:	01741413          	slli	s0,s0,0x17
   11d34:	7f800737          	lui	a4,0x7f800
   11d38:	00979793          	slli	a5,a5,0x9
   11d3c:	00e47433          	and	s0,s0,a4
   11d40:	0097d793          	srli	a5,a5,0x9
   11d44:	00f46433          	or	s0,s0,a5
   11d48:	01f49513          	slli	a0,s1,0x1f
   11d4c:	00c12083          	lw	ra,12(sp)
   11d50:	00a46533          	or	a0,s0,a0
   11d54:	00812403          	lw	s0,8(sp)
   11d58:	00412483          	lw	s1,4(sp)
   11d5c:	00012903          	lw	s2,0(sp)
   11d60:	01010113          	addi	sp,sp,16
   11d64:	00008067          	ret
   11d68:	00070793          	mv	a5,a4
   11d6c:	00068413          	mv	s0,a3
   11d70:	ea9ff06f          	j	11c18 <__addsf3+0x2f0>
   11d74:	00000793          	li	a5,0
   11d78:	fa1ff06f          	j	11d18 <__addsf3+0x3f0>

00011d7c <__divsf3>:
   11d7c:	fe010113          	addi	sp,sp,-32
   11d80:	00912a23          	sw	s1,20(sp)
   11d84:	01755493          	srli	s1,a0,0x17
   11d88:	01212823          	sw	s2,16(sp)
   11d8c:	01312623          	sw	s3,12(sp)
   11d90:	01412423          	sw	s4,8(sp)
   11d94:	00951993          	slli	s3,a0,0x9
   11d98:	00112e23          	sw	ra,28(sp)
   11d9c:	00812c23          	sw	s0,24(sp)
   11da0:	01512223          	sw	s5,4(sp)
   11da4:	0ff4f493          	zext.b	s1,s1
   11da8:	00058a13          	mv	s4,a1
   11dac:	0099d993          	srli	s3,s3,0x9
   11db0:	01f55913          	srli	s2,a0,0x1f
   11db4:	08048463          	beqz	s1,11e3c <__divsf3+0xc0>
   11db8:	0ff00793          	li	a5,255
   11dbc:	0af48063          	beq	s1,a5,11e5c <__divsf3+0xe0>
   11dc0:	00399993          	slli	s3,s3,0x3
   11dc4:	040007b7          	lui	a5,0x4000
   11dc8:	00f9e9b3          	or	s3,s3,a5
   11dcc:	f8148493          	addi	s1,s1,-127
   11dd0:	00000a93          	li	s5,0
   11dd4:	017a5793          	srli	a5,s4,0x17
   11dd8:	009a1413          	slli	s0,s4,0x9
   11ddc:	0ff7f793          	zext.b	a5,a5
   11de0:	00945413          	srli	s0,s0,0x9
   11de4:	01fa5a13          	srli	s4,s4,0x1f
   11de8:	08078a63          	beqz	a5,11e7c <__divsf3+0x100>
   11dec:	0ff00713          	li	a4,255
   11df0:	0ae78663          	beq	a5,a4,11e9c <__divsf3+0x120>
   11df4:	00341413          	slli	s0,s0,0x3
   11df8:	04000737          	lui	a4,0x4000
   11dfc:	00e46433          	or	s0,s0,a4
   11e00:	f8178793          	addi	a5,a5,-127 # 3ffff81 <__global_pointer$+0x3feb559>
   11e04:	00000713          	li	a4,0
   11e08:	40f484b3          	sub	s1,s1,a5
   11e0c:	002a9793          	slli	a5,s5,0x2
   11e10:	00e7e7b3          	or	a5,a5,a4
   11e14:	fff78793          	addi	a5,a5,-1
   11e18:	00e00613          	li	a2,14
   11e1c:	014946b3          	xor	a3,s2,s4
   11e20:	08f66e63          	bltu	a2,a5,11ebc <__divsf3+0x140>
   11e24:	00013637          	lui	a2,0x13
   11e28:	00279793          	slli	a5,a5,0x2
   11e2c:	0d860613          	addi	a2,a2,216 # 130d8 <__errno+0x20>
   11e30:	00c787b3          	add	a5,a5,a2
   11e34:	0007a783          	lw	a5,0(a5)
   11e38:	00078067          	jr	a5
   11e3c:	02098a63          	beqz	s3,11e70 <__divsf3+0xf4>
   11e40:	00098513          	mv	a0,s3
   11e44:	659000ef          	jal	ra,12c9c <__clzsi2>
   11e48:	ffb50793          	addi	a5,a0,-5
   11e4c:	f8a00493          	li	s1,-118
   11e50:	00f999b3          	sll	s3,s3,a5
   11e54:	40a484b3          	sub	s1,s1,a0
   11e58:	f79ff06f          	j	11dd0 <__divsf3+0x54>
   11e5c:	0ff00493          	li	s1,255
   11e60:	00200a93          	li	s5,2
   11e64:	f60988e3          	beqz	s3,11dd4 <__divsf3+0x58>
   11e68:	00300a93          	li	s5,3
   11e6c:	f69ff06f          	j	11dd4 <__divsf3+0x58>
   11e70:	00000493          	li	s1,0
   11e74:	00100a93          	li	s5,1
   11e78:	f5dff06f          	j	11dd4 <__divsf3+0x58>
   11e7c:	02040a63          	beqz	s0,11eb0 <__divsf3+0x134>
   11e80:	00040513          	mv	a0,s0
   11e84:	619000ef          	jal	ra,12c9c <__clzsi2>
   11e88:	ffb50793          	addi	a5,a0,-5
   11e8c:	00f41433          	sll	s0,s0,a5
   11e90:	f8a00793          	li	a5,-118
   11e94:	40a787b3          	sub	a5,a5,a0
   11e98:	f6dff06f          	j	11e04 <__divsf3+0x88>
   11e9c:	0ff00793          	li	a5,255
   11ea0:	00200713          	li	a4,2
   11ea4:	f60402e3          	beqz	s0,11e08 <__divsf3+0x8c>
   11ea8:	00300713          	li	a4,3
   11eac:	f5dff06f          	j	11e08 <__divsf3+0x8c>
   11eb0:	00000793          	li	a5,0
   11eb4:	00100713          	li	a4,1
   11eb8:	f51ff06f          	j	11e08 <__divsf3+0x8c>
   11ebc:	00541613          	slli	a2,s0,0x5
   11ec0:	1289f463          	bgeu	s3,s0,11fe8 <__divsf3+0x26c>
   11ec4:	fff48493          	addi	s1,s1,-1
   11ec8:	00000793          	li	a5,0
   11ecc:	01065593          	srli	a1,a2,0x10
   11ed0:	02b9d833          	divu	a6,s3,a1
   11ed4:	00010737          	lui	a4,0x10
   11ed8:	fff70713          	addi	a4,a4,-1 # ffff <exit-0x95>
   11edc:	00e67733          	and	a4,a2,a4
   11ee0:	0107d793          	srli	a5,a5,0x10
   11ee4:	02b9f9b3          	remu	s3,s3,a1
   11ee8:	00080413          	mv	s0,a6
   11eec:	03070533          	mul	a0,a4,a6
   11ef0:	01099993          	slli	s3,s3,0x10
   11ef4:	0137e7b3          	or	a5,a5,s3
   11ef8:	00a7fe63          	bgeu	a5,a0,11f14 <__divsf3+0x198>
   11efc:	00c787b3          	add	a5,a5,a2
   11f00:	fff80413          	addi	s0,a6,-1
   11f04:	00c7e863          	bltu	a5,a2,11f14 <__divsf3+0x198>
   11f08:	00a7f663          	bgeu	a5,a0,11f14 <__divsf3+0x198>
   11f0c:	ffe80413          	addi	s0,a6,-2
   11f10:	00c787b3          	add	a5,a5,a2
   11f14:	40a787b3          	sub	a5,a5,a0
   11f18:	02b7d533          	divu	a0,a5,a1
   11f1c:	02b7f7b3          	remu	a5,a5,a1
   11f20:	00050593          	mv	a1,a0
   11f24:	02a70733          	mul	a4,a4,a0
   11f28:	01079793          	slli	a5,a5,0x10
   11f2c:	00e7fe63          	bgeu	a5,a4,11f48 <__divsf3+0x1cc>
   11f30:	00c787b3          	add	a5,a5,a2
   11f34:	fff50593          	addi	a1,a0,-1
   11f38:	00c7e863          	bltu	a5,a2,11f48 <__divsf3+0x1cc>
   11f3c:	00e7f663          	bgeu	a5,a4,11f48 <__divsf3+0x1cc>
   11f40:	ffe50593          	addi	a1,a0,-2
   11f44:	00c787b3          	add	a5,a5,a2
   11f48:	01041413          	slli	s0,s0,0x10
   11f4c:	40e787b3          	sub	a5,a5,a4
   11f50:	00b46433          	or	s0,s0,a1
   11f54:	00f037b3          	snez	a5,a5
   11f58:	00f46433          	or	s0,s0,a5
   11f5c:	07f48713          	addi	a4,s1,127
   11f60:	0ce05e63          	blez	a4,1203c <__divsf3+0x2c0>
   11f64:	00747793          	andi	a5,s0,7
   11f68:	00078a63          	beqz	a5,11f7c <__divsf3+0x200>
   11f6c:	00f47793          	andi	a5,s0,15
   11f70:	00400613          	li	a2,4
   11f74:	00c78463          	beq	a5,a2,11f7c <__divsf3+0x200>
   11f78:	00440413          	addi	s0,s0,4
   11f7c:	080007b7          	lui	a5,0x8000
   11f80:	00f477b3          	and	a5,s0,a5
   11f84:	00078a63          	beqz	a5,11f98 <__divsf3+0x21c>
   11f88:	f80007b7          	lui	a5,0xf8000
   11f8c:	fff78793          	addi	a5,a5,-1 # f7ffffff <__global_pointer$+0xf7feb5d7>
   11f90:	00f47433          	and	s0,s0,a5
   11f94:	08048713          	addi	a4,s1,128
   11f98:	0fe00793          	li	a5,254
   11f9c:	06e7ce63          	blt	a5,a4,12018 <__divsf3+0x29c>
   11fa0:	00345793          	srli	a5,s0,0x3
   11fa4:	01c12083          	lw	ra,28(sp)
   11fa8:	01812403          	lw	s0,24(sp)
   11fac:	01771713          	slli	a4,a4,0x17
   11fb0:	7f800637          	lui	a2,0x7f800
   11fb4:	00979793          	slli	a5,a5,0x9
   11fb8:	00c77733          	and	a4,a4,a2
   11fbc:	0097d793          	srli	a5,a5,0x9
   11fc0:	00f76733          	or	a4,a4,a5
   11fc4:	01f69513          	slli	a0,a3,0x1f
   11fc8:	01412483          	lw	s1,20(sp)
   11fcc:	01012903          	lw	s2,16(sp)
   11fd0:	00c12983          	lw	s3,12(sp)
   11fd4:	00812a03          	lw	s4,8(sp)
   11fd8:	00412a83          	lw	s5,4(sp)
   11fdc:	00a76533          	or	a0,a4,a0
   11fe0:	02010113          	addi	sp,sp,32
   11fe4:	00008067          	ret
   11fe8:	01f99793          	slli	a5,s3,0x1f
   11fec:	0019d993          	srli	s3,s3,0x1
   11ff0:	eddff06f          	j	11ecc <__divsf3+0x150>
   11ff4:	00090693          	mv	a3,s2
   11ff8:	00098413          	mv	s0,s3
   11ffc:	000a8713          	mv	a4,s5
   12000:	00300793          	li	a5,3
   12004:	08f70863          	beq	a4,a5,12094 <__divsf3+0x318>
   12008:	00100793          	li	a5,1
   1200c:	08f70c63          	beq	a4,a5,120a4 <__divsf3+0x328>
   12010:	00200793          	li	a5,2
   12014:	f4f714e3          	bne	a4,a5,11f5c <__divsf3+0x1e0>
   12018:	00000793          	li	a5,0
   1201c:	0ff00713          	li	a4,255
   12020:	f85ff06f          	j	11fa4 <__divsf3+0x228>
   12024:	000a0693          	mv	a3,s4
   12028:	fd9ff06f          	j	12000 <__divsf3+0x284>
   1202c:	00400437          	lui	s0,0x400
   12030:	00000693          	li	a3,0
   12034:	00300713          	li	a4,3
   12038:	fc9ff06f          	j	12000 <__divsf3+0x284>
   1203c:	00100793          	li	a5,1
   12040:	40e787b3          	sub	a5,a5,a4
   12044:	01b00713          	li	a4,27
   12048:	04f74e63          	blt	a4,a5,120a4 <__divsf3+0x328>
   1204c:	09e48493          	addi	s1,s1,158
   12050:	00f457b3          	srl	a5,s0,a5
   12054:	00941433          	sll	s0,s0,s1
   12058:	00803433          	snez	s0,s0
   1205c:	0087e7b3          	or	a5,a5,s0
   12060:	0077f713          	andi	a4,a5,7
   12064:	00070a63          	beqz	a4,12078 <__divsf3+0x2fc>
   12068:	00f7f713          	andi	a4,a5,15
   1206c:	00400613          	li	a2,4
   12070:	00c70463          	beq	a4,a2,12078 <__divsf3+0x2fc>
   12074:	00478793          	addi	a5,a5,4
   12078:	04000737          	lui	a4,0x4000
   1207c:	00e7f733          	and	a4,a5,a4
   12080:	0037d793          	srli	a5,a5,0x3
   12084:	f20700e3          	beqz	a4,11fa4 <__divsf3+0x228>
   12088:	00000793          	li	a5,0
   1208c:	00100713          	li	a4,1
   12090:	f15ff06f          	j	11fa4 <__divsf3+0x228>
   12094:	004007b7          	lui	a5,0x400
   12098:	0ff00713          	li	a4,255
   1209c:	00000693          	li	a3,0
   120a0:	f05ff06f          	j	11fa4 <__divsf3+0x228>
   120a4:	00000793          	li	a5,0
   120a8:	00000713          	li	a4,0
   120ac:	ef9ff06f          	j	11fa4 <__divsf3+0x228>

000120b0 <__eqsf2>:
   120b0:	01755693          	srli	a3,a0,0x17
   120b4:	008007b7          	lui	a5,0x800
   120b8:	fff78793          	addi	a5,a5,-1 # 7fffff <__global_pointer$+0x7eb5d7>
   120bc:	0175d613          	srli	a2,a1,0x17
   120c0:	0ff6f693          	zext.b	a3,a3
   120c4:	0ff00893          	li	a7,255
   120c8:	00a7f833          	and	a6,a5,a0
   120cc:	01f55713          	srli	a4,a0,0x1f
   120d0:	00b7f7b3          	and	a5,a5,a1
   120d4:	0ff67613          	zext.b	a2,a2
   120d8:	01f5d593          	srli	a1,a1,0x1f
   120dc:	00100513          	li	a0,1
   120e0:	01169a63          	bne	a3,a7,120f4 <__eqsf2+0x44>
   120e4:	00081663          	bnez	a6,120f0 <__eqsf2+0x40>
   120e8:	00d61463          	bne	a2,a3,120f0 <__eqsf2+0x40>
   120ec:	00078a63          	beqz	a5,12100 <__eqsf2+0x50>
   120f0:	00008067          	ret
   120f4:	ff160ee3          	beq	a2,a7,120f0 <__eqsf2+0x40>
   120f8:	fec69ce3          	bne	a3,a2,120f0 <__eqsf2+0x40>
   120fc:	fef81ae3          	bne	a6,a5,120f0 <__eqsf2+0x40>
   12100:	00000513          	li	a0,0
   12104:	feb706e3          	beq	a4,a1,120f0 <__eqsf2+0x40>
   12108:	00100513          	li	a0,1
   1210c:	fe0692e3          	bnez	a3,120f0 <__eqsf2+0x40>
   12110:	01003533          	snez	a0,a6
   12114:	00008067          	ret

00012118 <__gesf2>:
   12118:	00800737          	lui	a4,0x800
   1211c:	fff70713          	addi	a4,a4,-1 # 7fffff <__global_pointer$+0x7eb5d7>
   12120:	01755693          	srli	a3,a0,0x17
   12124:	00a77633          	and	a2,a4,a0
   12128:	01f55793          	srli	a5,a0,0x1f
   1212c:	0ff6f693          	zext.b	a3,a3
   12130:	0175d513          	srli	a0,a1,0x17
   12134:	0ff00813          	li	a6,255
   12138:	00b77733          	and	a4,a4,a1
   1213c:	0ff57513          	zext.b	a0,a0
   12140:	01f5d593          	srli	a1,a1,0x1f
   12144:	01069863          	bne	a3,a6,12154 <__gesf2+0x3c>
   12148:	06060c63          	beqz	a2,121c0 <__gesf2+0xa8>
   1214c:	ffe00513          	li	a0,-2
   12150:	00008067          	ret
   12154:	01051463          	bne	a0,a6,1215c <__gesf2+0x44>
   12158:	fe071ae3          	bnez	a4,1214c <__gesf2+0x34>
   1215c:	06069463          	bnez	a3,121c4 <__gesf2+0xac>
   12160:	00051463          	bnez	a0,12168 <__gesf2+0x50>
   12164:	04070a63          	beqz	a4,121b8 <__gesf2+0xa0>
   12168:	00060e63          	beqz	a2,12184 <__gesf2+0x6c>
   1216c:	00b79463          	bne	a5,a1,12174 <__gesf2+0x5c>
   12170:	02d55263          	bge	a0,a3,12194 <__gesf2+0x7c>
   12174:	00100513          	li	a0,1
   12178:	02078e63          	beqz	a5,121b4 <__gesf2+0x9c>
   1217c:	fff00513          	li	a0,-1
   12180:	00008067          	ret
   12184:	fff00513          	li	a0,-1
   12188:	02058663          	beqz	a1,121b4 <__gesf2+0x9c>
   1218c:	00058513          	mv	a0,a1
   12190:	00008067          	ret
   12194:	00a6da63          	bge	a3,a0,121a8 <__gesf2+0x90>
   12198:	fff00513          	li	a0,-1
   1219c:	00078c63          	beqz	a5,121b4 <__gesf2+0x9c>
   121a0:	00078513          	mv	a0,a5
   121a4:	00008067          	ret
   121a8:	fcc766e3          	bltu	a4,a2,12174 <__gesf2+0x5c>
   121ac:	00000513          	li	a0,0
   121b0:	fee664e3          	bltu	a2,a4,12198 <__gesf2+0x80>
   121b4:	00008067          	ret
   121b8:	fe060ee3          	beqz	a2,121b4 <__gesf2+0x9c>
   121bc:	fb9ff06f          	j	12174 <__gesf2+0x5c>
   121c0:	f8d50ce3          	beq	a0,a3,12158 <__gesf2+0x40>
   121c4:	fa0514e3          	bnez	a0,1216c <__gesf2+0x54>
   121c8:	fa0706e3          	beqz	a4,12174 <__gesf2+0x5c>
   121cc:	fa1ff06f          	j	1216c <__gesf2+0x54>

000121d0 <__lesf2>:
   121d0:	00800737          	lui	a4,0x800
   121d4:	fff70713          	addi	a4,a4,-1 # 7fffff <__global_pointer$+0x7eb5d7>
   121d8:	01755693          	srli	a3,a0,0x17
   121dc:	00a77633          	and	a2,a4,a0
   121e0:	01f55793          	srli	a5,a0,0x1f
   121e4:	0ff6f693          	zext.b	a3,a3
   121e8:	0175d513          	srli	a0,a1,0x17
   121ec:	0ff00813          	li	a6,255
   121f0:	00b77733          	and	a4,a4,a1
   121f4:	0ff57513          	zext.b	a0,a0
   121f8:	01f5d593          	srli	a1,a1,0x1f
   121fc:	01069863          	bne	a3,a6,1220c <__lesf2+0x3c>
   12200:	06060c63          	beqz	a2,12278 <__lesf2+0xa8>
   12204:	00200513          	li	a0,2
   12208:	00008067          	ret
   1220c:	01051463          	bne	a0,a6,12214 <__lesf2+0x44>
   12210:	fe071ae3          	bnez	a4,12204 <__lesf2+0x34>
   12214:	06069463          	bnez	a3,1227c <__lesf2+0xac>
   12218:	00051463          	bnez	a0,12220 <__lesf2+0x50>
   1221c:	04070a63          	beqz	a4,12270 <__lesf2+0xa0>
   12220:	00060e63          	beqz	a2,1223c <__lesf2+0x6c>
   12224:	00b79463          	bne	a5,a1,1222c <__lesf2+0x5c>
   12228:	02d55263          	bge	a0,a3,1224c <__lesf2+0x7c>
   1222c:	00100513          	li	a0,1
   12230:	02078e63          	beqz	a5,1226c <__lesf2+0x9c>
   12234:	fff00513          	li	a0,-1
   12238:	00008067          	ret
   1223c:	fff00513          	li	a0,-1
   12240:	02058663          	beqz	a1,1226c <__lesf2+0x9c>
   12244:	00058513          	mv	a0,a1
   12248:	00008067          	ret
   1224c:	00a6da63          	bge	a3,a0,12260 <__lesf2+0x90>
   12250:	fff00513          	li	a0,-1
   12254:	00078c63          	beqz	a5,1226c <__lesf2+0x9c>
   12258:	00078513          	mv	a0,a5
   1225c:	00008067          	ret
   12260:	fcc766e3          	bltu	a4,a2,1222c <__lesf2+0x5c>
   12264:	00000513          	li	a0,0
   12268:	fee664e3          	bltu	a2,a4,12250 <__lesf2+0x80>
   1226c:	00008067          	ret
   12270:	fe060ee3          	beqz	a2,1226c <__lesf2+0x9c>
   12274:	fb9ff06f          	j	1222c <__lesf2+0x5c>
   12278:	f8d50ce3          	beq	a0,a3,12210 <__lesf2+0x40>
   1227c:	fa0514e3          	bnez	a0,12224 <__lesf2+0x54>
   12280:	fa0706e3          	beqz	a4,1222c <__lesf2+0x5c>
   12284:	fa1ff06f          	j	12224 <__lesf2+0x54>

00012288 <__mulsf3>:
   12288:	fe010113          	addi	sp,sp,-32
   1228c:	01212823          	sw	s2,16(sp)
   12290:	01755913          	srli	s2,a0,0x17
   12294:	00912a23          	sw	s1,20(sp)
   12298:	01312623          	sw	s3,12(sp)
   1229c:	01512223          	sw	s5,4(sp)
   122a0:	00951493          	slli	s1,a0,0x9
   122a4:	00112e23          	sw	ra,28(sp)
   122a8:	00812c23          	sw	s0,24(sp)
   122ac:	01412423          	sw	s4,8(sp)
   122b0:	0ff97913          	zext.b	s2,s2
   122b4:	00058a93          	mv	s5,a1
   122b8:	0094d493          	srli	s1,s1,0x9
   122bc:	01f55993          	srli	s3,a0,0x1f
   122c0:	18090a63          	beqz	s2,12454 <__mulsf3+0x1cc>
   122c4:	0ff00793          	li	a5,255
   122c8:	1af90663          	beq	s2,a5,12474 <__mulsf3+0x1ec>
   122cc:	00349493          	slli	s1,s1,0x3
   122d0:	040007b7          	lui	a5,0x4000
   122d4:	00f4e4b3          	or	s1,s1,a5
   122d8:	f8190913          	addi	s2,s2,-127
   122dc:	00000a13          	li	s4,0
   122e0:	017ad793          	srli	a5,s5,0x17
   122e4:	009a9413          	slli	s0,s5,0x9
   122e8:	0ff7f793          	zext.b	a5,a5
   122ec:	00945413          	srli	s0,s0,0x9
   122f0:	01fada93          	srli	s5,s5,0x1f
   122f4:	1a078063          	beqz	a5,12494 <__mulsf3+0x20c>
   122f8:	0ff00713          	li	a4,255
   122fc:	1ae78c63          	beq	a5,a4,124b4 <__mulsf3+0x22c>
   12300:	00341413          	slli	s0,s0,0x3
   12304:	04000737          	lui	a4,0x4000
   12308:	00e46433          	or	s0,s0,a4
   1230c:	f8178793          	addi	a5,a5,-127 # 3ffff81 <__global_pointer$+0x3feb559>
   12310:	00000693          	li	a3,0
   12314:	00f90933          	add	s2,s2,a5
   12318:	002a1793          	slli	a5,s4,0x2
   1231c:	00d7e7b3          	or	a5,a5,a3
   12320:	00a00713          	li	a4,10
   12324:	0159c533          	xor	a0,s3,s5
   12328:	00190613          	addi	a2,s2,1
   1232c:	1ef74c63          	blt	a4,a5,12524 <__mulsf3+0x29c>
   12330:	00200713          	li	a4,2
   12334:	1af74063          	blt	a4,a5,124d4 <__mulsf3+0x24c>
   12338:	fff78793          	addi	a5,a5,-1
   1233c:	00100713          	li	a4,1
   12340:	1af77c63          	bgeu	a4,a5,124f8 <__mulsf3+0x270>
   12344:	000108b7          	lui	a7,0x10
   12348:	fff88813          	addi	a6,a7,-1 # ffff <exit-0x95>
   1234c:	0104d713          	srli	a4,s1,0x10
   12350:	01045793          	srli	a5,s0,0x10
   12354:	010476b3          	and	a3,s0,a6
   12358:	0104f4b3          	and	s1,s1,a6
   1235c:	029685b3          	mul	a1,a3,s1
   12360:	02d706b3          	mul	a3,a4,a3
   12364:	0105d413          	srli	s0,a1,0x10
   12368:	02f70733          	mul	a4,a4,a5
   1236c:	029787b3          	mul	a5,a5,s1
   12370:	00d787b3          	add	a5,a5,a3
   12374:	00f40433          	add	s0,s0,a5
   12378:	00d47463          	bgeu	s0,a3,12380 <__mulsf3+0xf8>
   1237c:	01170733          	add	a4,a4,a7
   12380:	010477b3          	and	a5,s0,a6
   12384:	01079793          	slli	a5,a5,0x10
   12388:	0105f5b3          	and	a1,a1,a6
   1238c:	00b787b3          	add	a5,a5,a1
   12390:	00679693          	slli	a3,a5,0x6
   12394:	01045413          	srli	s0,s0,0x10
   12398:	00d036b3          	snez	a3,a3
   1239c:	01a7d793          	srli	a5,a5,0x1a
   123a0:	00e40433          	add	s0,s0,a4
   123a4:	00f6e7b3          	or	a5,a3,a5
   123a8:	00641413          	slli	s0,s0,0x6
   123ac:	00f46433          	or	s0,s0,a5
   123b0:	080007b7          	lui	a5,0x8000
   123b4:	00f477b3          	and	a5,s0,a5
   123b8:	18078e63          	beqz	a5,12554 <__mulsf3+0x2cc>
   123bc:	00145793          	srli	a5,s0,0x1
   123c0:	00147413          	andi	s0,s0,1
   123c4:	0087e433          	or	s0,a5,s0
   123c8:	07f60713          	addi	a4,a2,127 # 7f80007f <__global_pointer$+0x7f7eb657>
   123cc:	18e05863          	blez	a4,1255c <__mulsf3+0x2d4>
   123d0:	00747793          	andi	a5,s0,7
   123d4:	00078a63          	beqz	a5,123e8 <__mulsf3+0x160>
   123d8:	00f47793          	andi	a5,s0,15
   123dc:	00400693          	li	a3,4
   123e0:	00d78463          	beq	a5,a3,123e8 <__mulsf3+0x160>
   123e4:	00440413          	addi	s0,s0,4 # 400004 <__global_pointer$+0x3eb5dc>
   123e8:	080007b7          	lui	a5,0x8000
   123ec:	00f477b3          	and	a5,s0,a5
   123f0:	00078a63          	beqz	a5,12404 <__mulsf3+0x17c>
   123f4:	f80007b7          	lui	a5,0xf8000
   123f8:	fff78793          	addi	a5,a5,-1 # f7ffffff <__global_pointer$+0xf7feb5d7>
   123fc:	00f47433          	and	s0,s0,a5
   12400:	08060713          	addi	a4,a2,128
   12404:	0fe00793          	li	a5,254
   12408:	1ae7ce63          	blt	a5,a4,125c4 <__mulsf3+0x33c>
   1240c:	00345793          	srli	a5,s0,0x3
   12410:	01c12083          	lw	ra,28(sp)
   12414:	01812403          	lw	s0,24(sp)
   12418:	01771713          	slli	a4,a4,0x17
   1241c:	7f8006b7          	lui	a3,0x7f800
   12420:	00979793          	slli	a5,a5,0x9
   12424:	00d77733          	and	a4,a4,a3
   12428:	0097d793          	srli	a5,a5,0x9
   1242c:	00f76733          	or	a4,a4,a5
   12430:	01f51513          	slli	a0,a0,0x1f
   12434:	01412483          	lw	s1,20(sp)
   12438:	01012903          	lw	s2,16(sp)
   1243c:	00c12983          	lw	s3,12(sp)
   12440:	00812a03          	lw	s4,8(sp)
   12444:	00412a83          	lw	s5,4(sp)
   12448:	00a76533          	or	a0,a4,a0
   1244c:	02010113          	addi	sp,sp,32
   12450:	00008067          	ret
   12454:	02048a63          	beqz	s1,12488 <__mulsf3+0x200>
   12458:	00048513          	mv	a0,s1
   1245c:	041000ef          	jal	ra,12c9c <__clzsi2>
   12460:	ffb50793          	addi	a5,a0,-5
   12464:	f8a00913          	li	s2,-118
   12468:	00f494b3          	sll	s1,s1,a5
   1246c:	40a90933          	sub	s2,s2,a0
   12470:	e6dff06f          	j	122dc <__mulsf3+0x54>
   12474:	0ff00913          	li	s2,255
   12478:	00200a13          	li	s4,2
   1247c:	e60482e3          	beqz	s1,122e0 <__mulsf3+0x58>
   12480:	00300a13          	li	s4,3
   12484:	e5dff06f          	j	122e0 <__mulsf3+0x58>
   12488:	00000913          	li	s2,0
   1248c:	00100a13          	li	s4,1
   12490:	e51ff06f          	j	122e0 <__mulsf3+0x58>
   12494:	02040a63          	beqz	s0,124c8 <__mulsf3+0x240>
   12498:	00040513          	mv	a0,s0
   1249c:	001000ef          	jal	ra,12c9c <__clzsi2>
   124a0:	ffb50793          	addi	a5,a0,-5
   124a4:	00f41433          	sll	s0,s0,a5
   124a8:	f8a00793          	li	a5,-118
   124ac:	40a787b3          	sub	a5,a5,a0
   124b0:	e61ff06f          	j	12310 <__mulsf3+0x88>
   124b4:	0ff00793          	li	a5,255
   124b8:	00200693          	li	a3,2
   124bc:	e4040ce3          	beqz	s0,12314 <__mulsf3+0x8c>
   124c0:	00300693          	li	a3,3
   124c4:	e51ff06f          	j	12314 <__mulsf3+0x8c>
   124c8:	00000793          	li	a5,0
   124cc:	00100693          	li	a3,1
   124d0:	e45ff06f          	j	12314 <__mulsf3+0x8c>
   124d4:	00100713          	li	a4,1
   124d8:	00f717b3          	sll	a5,a4,a5
   124dc:	5307f713          	andi	a4,a5,1328
   124e0:	04071c63          	bnez	a4,12538 <__mulsf3+0x2b0>
   124e4:	2407f713          	andi	a4,a5,576
   124e8:	0c071663          	bnez	a4,125b4 <__mulsf3+0x32c>
   124ec:	0887f793          	andi	a5,a5,136
   124f0:	e4078ae3          	beqz	a5,12344 <__mulsf3+0xbc>
   124f4:	000a8513          	mv	a0,s5
   124f8:	00200593          	li	a1,2
   124fc:	00000793          	li	a5,0
   12500:	0ff00713          	li	a4,255
   12504:	f0b686e3          	beq	a3,a1,12410 <__mulsf3+0x188>
   12508:	00300793          	li	a5,3
   1250c:	0af68463          	beq	a3,a5,125b4 <__mulsf3+0x32c>
   12510:	00100793          	li	a5,1
   12514:	eaf69ae3          	bne	a3,a5,123c8 <__mulsf3+0x140>
   12518:	00000793          	li	a5,0
   1251c:	00000713          	li	a4,0
   12520:	ef1ff06f          	j	12410 <__mulsf3+0x188>
   12524:	00f00713          	li	a4,15
   12528:	00e78e63          	beq	a5,a4,12544 <__mulsf3+0x2bc>
   1252c:	00b00713          	li	a4,11
   12530:	fce782e3          	beq	a5,a4,124f4 <__mulsf3+0x26c>
   12534:	00098513          	mv	a0,s3
   12538:	00048413          	mv	s0,s1
   1253c:	000a0693          	mv	a3,s4
   12540:	fb9ff06f          	j	124f8 <__mulsf3+0x270>
   12544:	00400437          	lui	s0,0x400
   12548:	00000513          	li	a0,0
   1254c:	00300693          	li	a3,3
   12550:	fb9ff06f          	j	12508 <__mulsf3+0x280>
   12554:	00090613          	mv	a2,s2
   12558:	e71ff06f          	j	123c8 <__mulsf3+0x140>
   1255c:	00100793          	li	a5,1
   12560:	40e787b3          	sub	a5,a5,a4
   12564:	01b00713          	li	a4,27
   12568:	faf748e3          	blt	a4,a5,12518 <__mulsf3+0x290>
   1256c:	09e60613          	addi	a2,a2,158
   12570:	00f457b3          	srl	a5,s0,a5
   12574:	00c41433          	sll	s0,s0,a2
   12578:	00803433          	snez	s0,s0
   1257c:	0087e7b3          	or	a5,a5,s0
   12580:	0077f713          	andi	a4,a5,7
   12584:	00070a63          	beqz	a4,12598 <__mulsf3+0x310>
   12588:	00f7f713          	andi	a4,a5,15
   1258c:	00400693          	li	a3,4
   12590:	00d70463          	beq	a4,a3,12598 <__mulsf3+0x310>
   12594:	00478793          	addi	a5,a5,4
   12598:	04000737          	lui	a4,0x4000
   1259c:	00e7f733          	and	a4,a5,a4
   125a0:	0037d793          	srli	a5,a5,0x3
   125a4:	e60706e3          	beqz	a4,12410 <__mulsf3+0x188>
   125a8:	00000793          	li	a5,0
   125ac:	00100713          	li	a4,1
   125b0:	e61ff06f          	j	12410 <__mulsf3+0x188>
   125b4:	004007b7          	lui	a5,0x400
   125b8:	0ff00713          	li	a4,255
   125bc:	00000513          	li	a0,0
   125c0:	e51ff06f          	j	12410 <__mulsf3+0x188>
   125c4:	00000793          	li	a5,0
   125c8:	0ff00713          	li	a4,255
   125cc:	e45ff06f          	j	12410 <__mulsf3+0x188>

000125d0 <__subsf3>:
   125d0:	00800737          	lui	a4,0x800
   125d4:	ff010113          	addi	sp,sp,-16
   125d8:	fff70713          	addi	a4,a4,-1 # 7fffff <__global_pointer$+0x7eb5d7>
   125dc:	0175d613          	srli	a2,a1,0x17
   125e0:	00a777b3          	and	a5,a4,a0
   125e4:	00812423          	sw	s0,8(sp)
   125e8:	00b77733          	and	a4,a4,a1
   125ec:	00912223          	sw	s1,4(sp)
   125f0:	01755413          	srli	s0,a0,0x17
   125f4:	00112623          	sw	ra,12(sp)
   125f8:	01212023          	sw	s2,0(sp)
   125fc:	0ff67613          	zext.b	a2,a2
   12600:	0ff00693          	li	a3,255
   12604:	0ff47413          	zext.b	s0,s0
   12608:	01f55493          	srli	s1,a0,0x1f
   1260c:	00379793          	slli	a5,a5,0x3
   12610:	01f5d593          	srli	a1,a1,0x1f
   12614:	00371713          	slli	a4,a4,0x3
   12618:	00d61463          	bne	a2,a3,12620 <__subsf3+0x50>
   1261c:	00071463          	bnez	a4,12624 <__subsf3+0x54>
   12620:	0015c593          	xori	a1,a1,1
   12624:	40c406b3          	sub	a3,s0,a2
   12628:	18959a63          	bne	a1,s1,127bc <__subsf3+0x1ec>
   1262c:	0ad05063          	blez	a3,126cc <__subsf3+0xfc>
   12630:	02061663          	bnez	a2,1265c <__subsf3+0x8c>
   12634:	18070063          	beqz	a4,127b4 <__subsf3+0x1e4>
   12638:	fff68613          	addi	a2,a3,-1 # 7f7fffff <__global_pointer$+0x7f7eb5d7>
   1263c:	00061863          	bnez	a2,1264c <__subsf3+0x7c>
   12640:	00e787b3          	add	a5,a5,a4
   12644:	00100413          	li	s0,1
   12648:	0500006f          	j	12698 <__subsf3+0xc8>
   1264c:	0ff00593          	li	a1,255
   12650:	02b69063          	bne	a3,a1,12670 <__subsf3+0xa0>
   12654:	0ff00413          	li	s0,255
   12658:	1180006f          	j	12770 <__subsf3+0x1a0>
   1265c:	0ff00613          	li	a2,255
   12660:	10c40863          	beq	s0,a2,12770 <__subsf3+0x1a0>
   12664:	04000637          	lui	a2,0x4000
   12668:	00c76733          	or	a4,a4,a2
   1266c:	00068613          	mv	a2,a3
   12670:	01b00593          	li	a1,27
   12674:	00100693          	li	a3,1
   12678:	00c5ce63          	blt	a1,a2,12694 <__subsf3+0xc4>
   1267c:	02000693          	li	a3,32
   12680:	40c686b3          	sub	a3,a3,a2
   12684:	00c755b3          	srl	a1,a4,a2
   12688:	00d71733          	sll	a4,a4,a3
   1268c:	00e03733          	snez	a4,a4
   12690:	00e5e6b3          	or	a3,a1,a4
   12694:	00d787b3          	add	a5,a5,a3
   12698:	04000737          	lui	a4,0x4000
   1269c:	00e7f733          	and	a4,a5,a4
   126a0:	0c070863          	beqz	a4,12770 <__subsf3+0x1a0>
   126a4:	00140413          	addi	s0,s0,1 # 400001 <__global_pointer$+0x3eb5d9>
   126a8:	0ff00713          	li	a4,255
   126ac:	30e40263          	beq	s0,a4,129b0 <__subsf3+0x3e0>
   126b0:	7e000737          	lui	a4,0x7e000
   126b4:	0017f693          	andi	a3,a5,1
   126b8:	fff70713          	addi	a4,a4,-1 # 7dffffff <__global_pointer$+0x7dfeb5d7>
   126bc:	0017d793          	srli	a5,a5,0x1
   126c0:	00e7f7b3          	and	a5,a5,a4
   126c4:	00d7e7b3          	or	a5,a5,a3
   126c8:	0a80006f          	j	12770 <__subsf3+0x1a0>
   126cc:	06068663          	beqz	a3,12738 <__subsf3+0x168>
   126d0:	408606b3          	sub	a3,a2,s0
   126d4:	02041063          	bnez	s0,126f4 <__subsf3+0x124>
   126d8:	2c078263          	beqz	a5,1299c <__subsf3+0x3cc>
   126dc:	fff68593          	addi	a1,a3,-1
   126e0:	f60580e3          	beqz	a1,12640 <__subsf3+0x70>
   126e4:	0ff00513          	li	a0,255
   126e8:	02a69063          	bne	a3,a0,12708 <__subsf3+0x138>
   126ec:	00070793          	mv	a5,a4
   126f0:	f65ff06f          	j	12654 <__subsf3+0x84>
   126f4:	0ff00593          	li	a1,255
   126f8:	feb60ae3          	beq	a2,a1,126ec <__subsf3+0x11c>
   126fc:	040005b7          	lui	a1,0x4000
   12700:	00b7e7b3          	or	a5,a5,a1
   12704:	00068593          	mv	a1,a3
   12708:	01b00513          	li	a0,27
   1270c:	00100693          	li	a3,1
   12710:	00b54e63          	blt	a0,a1,1272c <__subsf3+0x15c>
   12714:	02000693          	li	a3,32
   12718:	40b686b3          	sub	a3,a3,a1
   1271c:	00b7d533          	srl	a0,a5,a1
   12720:	00d797b3          	sll	a5,a5,a3
   12724:	00f037b3          	snez	a5,a5
   12728:	00f566b3          	or	a3,a0,a5
   1272c:	00e687b3          	add	a5,a3,a4
   12730:	00060413          	mv	s0,a2
   12734:	f65ff06f          	j	12698 <__subsf3+0xc8>
   12738:	00140693          	addi	a3,s0,1
   1273c:	0fe6f613          	andi	a2,a3,254
   12740:	06061263          	bnez	a2,127a4 <__subsf3+0x1d4>
   12744:	04041463          	bnez	s0,1278c <__subsf3+0x1bc>
   12748:	24078e63          	beqz	a5,129a4 <__subsf3+0x3d4>
   1274c:	02070263          	beqz	a4,12770 <__subsf3+0x1a0>
   12750:	00e787b3          	add	a5,a5,a4
   12754:	04000737          	lui	a4,0x4000
   12758:	00e7f733          	and	a4,a5,a4
   1275c:	00070a63          	beqz	a4,12770 <__subsf3+0x1a0>
   12760:	fc000737          	lui	a4,0xfc000
   12764:	fff70713          	addi	a4,a4,-1 # fbffffff <__global_pointer$+0xfbfeb5d7>
   12768:	00e7f7b3          	and	a5,a5,a4
   1276c:	00100413          	li	s0,1
   12770:	0077f713          	andi	a4,a5,7
   12774:	24070063          	beqz	a4,129b4 <__subsf3+0x3e4>
   12778:	00f7f713          	andi	a4,a5,15
   1277c:	00400693          	li	a3,4
   12780:	22d70a63          	beq	a4,a3,129b4 <__subsf3+0x3e4>
   12784:	00478793          	addi	a5,a5,4 # 400004 <__global_pointer$+0x3eb5dc>
   12788:	22c0006f          	j	129b4 <__subsf3+0x3e4>
   1278c:	f60780e3          	beqz	a5,126ec <__subsf3+0x11c>
   12790:	ec0702e3          	beqz	a4,12654 <__subsf3+0x84>
   12794:	00000493          	li	s1,0
   12798:	020007b7          	lui	a5,0x2000
   1279c:	0ff00413          	li	s0,255
   127a0:	2140006f          	j	129b4 <__subsf3+0x3e4>
   127a4:	0ff00613          	li	a2,255
   127a8:	20c68263          	beq	a3,a2,129ac <__subsf3+0x3dc>
   127ac:	00e78733          	add	a4,a5,a4
   127b0:	00175793          	srli	a5,a4,0x1
   127b4:	00068413          	mv	s0,a3
   127b8:	fb9ff06f          	j	12770 <__subsf3+0x1a0>
   127bc:	08d05063          	blez	a3,1283c <__subsf3+0x26c>
   127c0:	06061263          	bnez	a2,12824 <__subsf3+0x254>
   127c4:	fe0708e3          	beqz	a4,127b4 <__subsf3+0x1e4>
   127c8:	fff68613          	addi	a2,a3,-1
   127cc:	00061863          	bnez	a2,127dc <__subsf3+0x20c>
   127d0:	40e787b3          	sub	a5,a5,a4
   127d4:	00100413          	li	s0,1
   127d8:	0340006f          	j	1280c <__subsf3+0x23c>
   127dc:	0ff00593          	li	a1,255
   127e0:	e6b68ae3          	beq	a3,a1,12654 <__subsf3+0x84>
   127e4:	01b00593          	li	a1,27
   127e8:	00100693          	li	a3,1
   127ec:	00c5ce63          	blt	a1,a2,12808 <__subsf3+0x238>
   127f0:	02000693          	li	a3,32
   127f4:	40c686b3          	sub	a3,a3,a2
   127f8:	00c755b3          	srl	a1,a4,a2
   127fc:	00d71733          	sll	a4,a4,a3
   12800:	00e03733          	snez	a4,a4
   12804:	00e5e6b3          	or	a3,a1,a4
   12808:	40d787b3          	sub	a5,a5,a3
   1280c:	04000937          	lui	s2,0x4000
   12810:	0127f733          	and	a4,a5,s2
   12814:	f4070ee3          	beqz	a4,12770 <__subsf3+0x1a0>
   12818:	fff90913          	addi	s2,s2,-1 # 3ffffff <__global_pointer$+0x3feb5d7>
   1281c:	0127f933          	and	s2,a5,s2
   12820:	1180006f          	j	12938 <__subsf3+0x368>
   12824:	0ff00613          	li	a2,255
   12828:	f4c404e3          	beq	s0,a2,12770 <__subsf3+0x1a0>
   1282c:	04000637          	lui	a2,0x4000
   12830:	00c76733          	or	a4,a4,a2
   12834:	00068613          	mv	a2,a3
   12838:	fadff06f          	j	127e4 <__subsf3+0x214>
   1283c:	08068063          	beqz	a3,128bc <__subsf3+0x2ec>
   12840:	408606b3          	sub	a3,a2,s0
   12844:	02041863          	bnez	s0,12874 <__subsf3+0x2a4>
   12848:	1e078063          	beqz	a5,12a28 <__subsf3+0x458>
   1284c:	fff68513          	addi	a0,a3,-1
   12850:	00051863          	bnez	a0,12860 <__subsf3+0x290>
   12854:	40f707b3          	sub	a5,a4,a5
   12858:	00058493          	mv	s1,a1
   1285c:	f79ff06f          	j	127d4 <__subsf3+0x204>
   12860:	0ff00813          	li	a6,255
   12864:	03069263          	bne	a3,a6,12888 <__subsf3+0x2b8>
   12868:	00070793          	mv	a5,a4
   1286c:	0ff00413          	li	s0,255
   12870:	06c0006f          	j	128dc <__subsf3+0x30c>
   12874:	0ff00513          	li	a0,255
   12878:	fea608e3          	beq	a2,a0,12868 <__subsf3+0x298>
   1287c:	04000537          	lui	a0,0x4000
   12880:	00a7e7b3          	or	a5,a5,a0
   12884:	00068513          	mv	a0,a3
   12888:	01b00813          	li	a6,27
   1288c:	00100693          	li	a3,1
   12890:	00a84e63          	blt	a6,a0,128ac <__subsf3+0x2dc>
   12894:	02000693          	li	a3,32
   12898:	40a686b3          	sub	a3,a3,a0
   1289c:	00a7d833          	srl	a6,a5,a0
   128a0:	00d797b3          	sll	a5,a5,a3
   128a4:	00f037b3          	snez	a5,a5
   128a8:	00f866b3          	or	a3,a6,a5
   128ac:	40d707b3          	sub	a5,a4,a3
   128b0:	00060413          	mv	s0,a2
   128b4:	00058493          	mv	s1,a1
   128b8:	f55ff06f          	j	1280c <__subsf3+0x23c>
   128bc:	00140693          	addi	a3,s0,1
   128c0:	0fe6f693          	andi	a3,a3,254
   128c4:	04069e63          	bnez	a3,12920 <__subsf3+0x350>
   128c8:	04041263          	bnez	s0,1290c <__subsf3+0x33c>
   128cc:	00079c63          	bnez	a5,128e4 <__subsf3+0x314>
   128d0:	00000493          	li	s1,0
   128d4:	0e070063          	beqz	a4,129b4 <__subsf3+0x3e4>
   128d8:	00070793          	mv	a5,a4
   128dc:	00058493          	mv	s1,a1
   128e0:	e91ff06f          	j	12770 <__subsf3+0x1a0>
   128e4:	e80706e3          	beqz	a4,12770 <__subsf3+0x1a0>
   128e8:	40e786b3          	sub	a3,a5,a4
   128ec:	04000637          	lui	a2,0x4000
   128f0:	00c6f633          	and	a2,a3,a2
   128f4:	40f707b3          	sub	a5,a4,a5
   128f8:	fe0612e3          	bnez	a2,128dc <__subsf3+0x30c>
   128fc:	00000793          	li	a5,0
   12900:	08068063          	beqz	a3,12980 <__subsf3+0x3b0>
   12904:	00068793          	mv	a5,a3
   12908:	e69ff06f          	j	12770 <__subsf3+0x1a0>
   1290c:	e80792e3          	bnez	a5,12790 <__subsf3+0x1c0>
   12910:	e80702e3          	beqz	a4,12794 <__subsf3+0x1c4>
   12914:	00070793          	mv	a5,a4
   12918:	00058493          	mv	s1,a1
   1291c:	d39ff06f          	j	12654 <__subsf3+0x84>
   12920:	40e78933          	sub	s2,a5,a4
   12924:	040006b7          	lui	a3,0x4000
   12928:	00d976b3          	and	a3,s2,a3
   1292c:	04068463          	beqz	a3,12974 <__subsf3+0x3a4>
   12930:	40f70933          	sub	s2,a4,a5
   12934:	00058493          	mv	s1,a1
   12938:	00090513          	mv	a0,s2
   1293c:	360000ef          	jal	ra,12c9c <__clzsi2>
   12940:	ffb50513          	addi	a0,a0,-5 # 3fffffb <__global_pointer$+0x3feb5d3>
   12944:	00a91933          	sll	s2,s2,a0
   12948:	04854063          	blt	a0,s0,12988 <__subsf3+0x3b8>
   1294c:	40850533          	sub	a0,a0,s0
   12950:	00150513          	addi	a0,a0,1
   12954:	02000713          	li	a4,32
   12958:	40a70733          	sub	a4,a4,a0
   1295c:	00a957b3          	srl	a5,s2,a0
   12960:	00e91933          	sll	s2,s2,a4
   12964:	01203933          	snez	s2,s2
   12968:	0127e7b3          	or	a5,a5,s2
   1296c:	00000413          	li	s0,0
   12970:	e01ff06f          	j	12770 <__subsf3+0x1a0>
   12974:	fc0912e3          	bnez	s2,12938 <__subsf3+0x368>
   12978:	00000793          	li	a5,0
   1297c:	00000413          	li	s0,0
   12980:	00000493          	li	s1,0
   12984:	0300006f          	j	129b4 <__subsf3+0x3e4>
   12988:	fc0007b7          	lui	a5,0xfc000
   1298c:	fff78793          	addi	a5,a5,-1 # fbffffff <__global_pointer$+0xfbfeb5d7>
   12990:	40a40433          	sub	s0,s0,a0
   12994:	00f977b3          	and	a5,s2,a5
   12998:	dd9ff06f          	j	12770 <__subsf3+0x1a0>
   1299c:	00070793          	mv	a5,a4
   129a0:	e15ff06f          	j	127b4 <__subsf3+0x1e4>
   129a4:	00070793          	mv	a5,a4
   129a8:	dc9ff06f          	j	12770 <__subsf3+0x1a0>
   129ac:	0ff00413          	li	s0,255
   129b0:	00000793          	li	a5,0
   129b4:	04000737          	lui	a4,0x4000
   129b8:	00e7f733          	and	a4,a5,a4
   129bc:	00070e63          	beqz	a4,129d8 <__subsf3+0x408>
   129c0:	00140413          	addi	s0,s0,1
   129c4:	0ff00713          	li	a4,255
   129c8:	06e40663          	beq	s0,a4,12a34 <__subsf3+0x464>
   129cc:	fc000737          	lui	a4,0xfc000
   129d0:	fff70713          	addi	a4,a4,-1 # fbffffff <__global_pointer$+0xfbfeb5d7>
   129d4:	00e7f7b3          	and	a5,a5,a4
   129d8:	0ff00713          	li	a4,255
   129dc:	0037d793          	srli	a5,a5,0x3
   129e0:	00e41863          	bne	s0,a4,129f0 <__subsf3+0x420>
   129e4:	00078663          	beqz	a5,129f0 <__subsf3+0x420>
   129e8:	004007b7          	lui	a5,0x400
   129ec:	00000493          	li	s1,0
   129f0:	01741413          	slli	s0,s0,0x17
   129f4:	7f800737          	lui	a4,0x7f800
   129f8:	00979793          	slli	a5,a5,0x9
   129fc:	00e47433          	and	s0,s0,a4
   12a00:	0097d793          	srli	a5,a5,0x9
   12a04:	00f46433          	or	s0,s0,a5
   12a08:	01f49513          	slli	a0,s1,0x1f
   12a0c:	00c12083          	lw	ra,12(sp)
   12a10:	00a46533          	or	a0,s0,a0
   12a14:	00812403          	lw	s0,8(sp)
   12a18:	00412483          	lw	s1,4(sp)
   12a1c:	00012903          	lw	s2,0(sp)
   12a20:	01010113          	addi	sp,sp,16
   12a24:	00008067          	ret
   12a28:	00070793          	mv	a5,a4
   12a2c:	00068413          	mv	s0,a3
   12a30:	eadff06f          	j	128dc <__subsf3+0x30c>
   12a34:	00000793          	li	a5,0
   12a38:	fa1ff06f          	j	129d8 <__subsf3+0x408>

00012a3c <__extendsfdf2>:
   12a3c:	01755713          	srli	a4,a0,0x17
   12a40:	0ff77713          	zext.b	a4,a4
   12a44:	ff010113          	addi	sp,sp,-16
   12a48:	00170793          	addi	a5,a4,1 # 7f800001 <__global_pointer$+0x7f7eb5d9>
   12a4c:	00812423          	sw	s0,8(sp)
   12a50:	00912223          	sw	s1,4(sp)
   12a54:	00951413          	slli	s0,a0,0x9
   12a58:	00112623          	sw	ra,12(sp)
   12a5c:	0fe7f793          	andi	a5,a5,254
   12a60:	00945413          	srli	s0,s0,0x9
   12a64:	01f55493          	srli	s1,a0,0x1f
   12a68:	04078263          	beqz	a5,12aac <__extendsfdf2+0x70>
   12a6c:	00345793          	srli	a5,s0,0x3
   12a70:	38070713          	addi	a4,a4,896
   12a74:	01d41413          	slli	s0,s0,0x1d
   12a78:	00c79793          	slli	a5,a5,0xc
   12a7c:	00c7d793          	srli	a5,a5,0xc
   12a80:	01471713          	slli	a4,a4,0x14
   12a84:	01f49513          	slli	a0,s1,0x1f
   12a88:	00f76733          	or	a4,a4,a5
   12a8c:	00c12083          	lw	ra,12(sp)
   12a90:	00a767b3          	or	a5,a4,a0
   12a94:	00040513          	mv	a0,s0
   12a98:	00812403          	lw	s0,8(sp)
   12a9c:	00412483          	lw	s1,4(sp)
   12aa0:	00078593          	mv	a1,a5
   12aa4:	01010113          	addi	sp,sp,16
   12aa8:	00008067          	ret
   12aac:	04071663          	bnez	a4,12af8 <__extendsfdf2+0xbc>
   12ab0:	00000793          	li	a5,0
   12ab4:	fc0402e3          	beqz	s0,12a78 <__extendsfdf2+0x3c>
   12ab8:	00040513          	mv	a0,s0
   12abc:	1e0000ef          	jal	ra,12c9c <__clzsi2>
   12ac0:	00a00793          	li	a5,10
   12ac4:	02a7c263          	blt	a5,a0,12ae8 <__extendsfdf2+0xac>
   12ac8:	00b00793          	li	a5,11
   12acc:	40a787b3          	sub	a5,a5,a0
   12ad0:	01550713          	addi	a4,a0,21
   12ad4:	00f457b3          	srl	a5,s0,a5
   12ad8:	00e41433          	sll	s0,s0,a4
   12adc:	38900713          	li	a4,905
   12ae0:	40a70733          	sub	a4,a4,a0
   12ae4:	f95ff06f          	j	12a78 <__extendsfdf2+0x3c>
   12ae8:	ff550793          	addi	a5,a0,-11
   12aec:	00f417b3          	sll	a5,s0,a5
   12af0:	00000413          	li	s0,0
   12af4:	fe9ff06f          	j	12adc <__extendsfdf2+0xa0>
   12af8:	00000793          	li	a5,0
   12afc:	00040a63          	beqz	s0,12b10 <__extendsfdf2+0xd4>
   12b00:	00345793          	srli	a5,s0,0x3
   12b04:	00080737          	lui	a4,0x80
   12b08:	01d41413          	slli	s0,s0,0x1d
   12b0c:	00e7e7b3          	or	a5,a5,a4
   12b10:	7ff00713          	li	a4,2047
   12b14:	f65ff06f          	j	12a78 <__extendsfdf2+0x3c>

00012b18 <__truncdfsf2>:
   12b18:	0145d613          	srli	a2,a1,0x14
   12b1c:	7ff67613          	andi	a2,a2,2047
   12b20:	00c59793          	slli	a5,a1,0xc
   12b24:	00160713          	addi	a4,a2,1 # 4000001 <__global_pointer$+0x3feb5d9>
   12b28:	0097d793          	srli	a5,a5,0x9
   12b2c:	01d55693          	srli	a3,a0,0x1d
   12b30:	7fe77713          	andi	a4,a4,2046
   12b34:	00f6e6b3          	or	a3,a3,a5
   12b38:	01f5d593          	srli	a1,a1,0x1f
   12b3c:	00351793          	slli	a5,a0,0x3
   12b40:	0a070663          	beqz	a4,12bec <__truncdfsf2+0xd4>
   12b44:	c8060713          	addi	a4,a2,-896
   12b48:	0fe00813          	li	a6,254
   12b4c:	0ce84263          	blt	a6,a4,12c10 <__truncdfsf2+0xf8>
   12b50:	08e04063          	bgtz	a4,12bd0 <__truncdfsf2+0xb8>
   12b54:	fe900513          	li	a0,-23
   12b58:	12a74063          	blt	a4,a0,12c78 <__truncdfsf2+0x160>
   12b5c:	00800537          	lui	a0,0x800
   12b60:	00a6e6b3          	or	a3,a3,a0
   12b64:	01e00513          	li	a0,30
   12b68:	40e50533          	sub	a0,a0,a4
   12b6c:	01f00813          	li	a6,31
   12b70:	02a84863          	blt	a6,a0,12ba0 <__truncdfsf2+0x88>
   12b74:	c8260613          	addi	a2,a2,-894
   12b78:	00a7d533          	srl	a0,a5,a0
   12b7c:	00c797b3          	sll	a5,a5,a2
   12b80:	00f037b3          	snez	a5,a5
   12b84:	00c696b3          	sll	a3,a3,a2
   12b88:	00d7e7b3          	or	a5,a5,a3
   12b8c:	00f567b3          	or	a5,a0,a5
   12b90:	00000713          	li	a4,0
   12b94:	0077f693          	andi	a3,a5,7
   12b98:	08068063          	beqz	a3,12c18 <__truncdfsf2+0x100>
   12b9c:	0e40006f          	j	12c80 <__truncdfsf2+0x168>
   12ba0:	ffe00813          	li	a6,-2
   12ba4:	40e80833          	sub	a6,a6,a4
   12ba8:	02000893          	li	a7,32
   12bac:	0106d833          	srl	a6,a3,a6
   12bb0:	00000713          	li	a4,0
   12bb4:	01150663          	beq	a0,a7,12bc0 <__truncdfsf2+0xa8>
   12bb8:	ca260613          	addi	a2,a2,-862
   12bbc:	00c69733          	sll	a4,a3,a2
   12bc0:	00f76733          	or	a4,a4,a5
   12bc4:	00e03733          	snez	a4,a4
   12bc8:	00e867b3          	or	a5,a6,a4
   12bcc:	fc5ff06f          	j	12b90 <__truncdfsf2+0x78>
   12bd0:	00651513          	slli	a0,a0,0x6
   12bd4:	00a03533          	snez	a0,a0
   12bd8:	00369693          	slli	a3,a3,0x3
   12bdc:	01d7d793          	srli	a5,a5,0x1d
   12be0:	00d566b3          	or	a3,a0,a3
   12be4:	00f6e7b3          	or	a5,a3,a5
   12be8:	fadff06f          	j	12b94 <__truncdfsf2+0x7c>
   12bec:	00f6e7b3          	or	a5,a3,a5
   12bf0:	00061663          	bnez	a2,12bfc <__truncdfsf2+0xe4>
   12bf4:	00f037b3          	snez	a5,a5
   12bf8:	f99ff06f          	j	12b90 <__truncdfsf2+0x78>
   12bfc:	0ff00713          	li	a4,255
   12c00:	00078c63          	beqz	a5,12c18 <__truncdfsf2+0x100>
   12c04:	00369693          	slli	a3,a3,0x3
   12c08:	020007b7          	lui	a5,0x2000
   12c0c:	fd9ff06f          	j	12be4 <__truncdfsf2+0xcc>
   12c10:	00000793          	li	a5,0
   12c14:	0ff00713          	li	a4,255
   12c18:	040006b7          	lui	a3,0x4000
   12c1c:	00d7f6b3          	and	a3,a5,a3
   12c20:	00068e63          	beqz	a3,12c3c <__truncdfsf2+0x124>
   12c24:	00170713          	addi	a4,a4,1 # 80001 <__global_pointer$+0x6b5d9>
   12c28:	0ff00693          	li	a3,255
   12c2c:	06d70463          	beq	a4,a3,12c94 <__truncdfsf2+0x17c>
   12c30:	fc0006b7          	lui	a3,0xfc000
   12c34:	fff68693          	addi	a3,a3,-1 # fbffffff <__global_pointer$+0xfbfeb5d7>
   12c38:	00d7f7b3          	and	a5,a5,a3
   12c3c:	0ff00693          	li	a3,255
   12c40:	0037d793          	srli	a5,a5,0x3
   12c44:	00d71863          	bne	a4,a3,12c54 <__truncdfsf2+0x13c>
   12c48:	00078663          	beqz	a5,12c54 <__truncdfsf2+0x13c>
   12c4c:	004007b7          	lui	a5,0x400
   12c50:	00000593          	li	a1,0
   12c54:	7f8006b7          	lui	a3,0x7f800
   12c58:	01771713          	slli	a4,a4,0x17
   12c5c:	00979793          	slli	a5,a5,0x9
   12c60:	00d77733          	and	a4,a4,a3
   12c64:	0097d793          	srli	a5,a5,0x9
   12c68:	00f76733          	or	a4,a4,a5
   12c6c:	01f59513          	slli	a0,a1,0x1f
   12c70:	00a76533          	or	a0,a4,a0
   12c74:	00008067          	ret
   12c78:	00100793          	li	a5,1
   12c7c:	00000713          	li	a4,0
   12c80:	00f7f693          	andi	a3,a5,15
   12c84:	00400613          	li	a2,4
   12c88:	f8c688e3          	beq	a3,a2,12c18 <__truncdfsf2+0x100>
   12c8c:	00478793          	addi	a5,a5,4 # 400004 <__global_pointer$+0x3eb5dc>
   12c90:	f89ff06f          	j	12c18 <__truncdfsf2+0x100>
   12c94:	00000793          	li	a5,0
   12c98:	fa5ff06f          	j	12c3c <__truncdfsf2+0x124>

00012c9c <__clzsi2>:
   12c9c:	000107b7          	lui	a5,0x10
   12ca0:	02f57a63          	bgeu	a0,a5,12cd4 <__clzsi2+0x38>
   12ca4:	10053793          	sltiu	a5,a0,256
   12ca8:	0017c793          	xori	a5,a5,1
   12cac:	00379793          	slli	a5,a5,0x3
   12cb0:	00013737          	lui	a4,0x13
   12cb4:	02000693          	li	a3,32
   12cb8:	40f686b3          	sub	a3,a3,a5
   12cbc:	00f55533          	srl	a0,a0,a5
   12cc0:	11470793          	addi	a5,a4,276 # 13114 <__clz_tab>
   12cc4:	00a787b3          	add	a5,a5,a0
   12cc8:	0007c503          	lbu	a0,0(a5) # 10000 <exit-0x94>
   12ccc:	40a68533          	sub	a0,a3,a0
   12cd0:	00008067          	ret
   12cd4:	01000737          	lui	a4,0x1000
   12cd8:	01000793          	li	a5,16
   12cdc:	fce56ae3          	bltu	a0,a4,12cb0 <__clzsi2+0x14>
   12ce0:	01800793          	li	a5,24
   12ce4:	fcdff06f          	j	12cb0 <__clzsi2+0x14>

00012ce8 <__libc_init_array>:
   12ce8:	ff010113          	addi	sp,sp,-16
   12cec:	00812423          	sw	s0,8(sp)
   12cf0:	01212023          	sw	s2,0(sp)
   12cf4:	00014437          	lui	s0,0x14
   12cf8:	00014937          	lui	s2,0x14
   12cfc:	21840793          	addi	a5,s0,536 # 14218 <__init_array_start>
   12d00:	21890913          	addi	s2,s2,536 # 14218 <__init_array_start>
   12d04:	40f90933          	sub	s2,s2,a5
   12d08:	00112623          	sw	ra,12(sp)
   12d0c:	00912223          	sw	s1,4(sp)
   12d10:	40295913          	srai	s2,s2,0x2
   12d14:	02090063          	beqz	s2,12d34 <__libc_init_array+0x4c>
   12d18:	21840413          	addi	s0,s0,536
   12d1c:	00000493          	li	s1,0
   12d20:	00042783          	lw	a5,0(s0)
   12d24:	00148493          	addi	s1,s1,1
   12d28:	00440413          	addi	s0,s0,4
   12d2c:	000780e7          	jalr	a5
   12d30:	fe9918e3          	bne	s2,s1,12d20 <__libc_init_array+0x38>
   12d34:	00014437          	lui	s0,0x14
   12d38:	00014937          	lui	s2,0x14
   12d3c:	21840793          	addi	a5,s0,536 # 14218 <__init_array_start>
   12d40:	22090913          	addi	s2,s2,544 # 14220 <__do_global_dtors_aux_fini_array_entry>
   12d44:	40f90933          	sub	s2,s2,a5
   12d48:	40295913          	srai	s2,s2,0x2
   12d4c:	02090063          	beqz	s2,12d6c <__libc_init_array+0x84>
   12d50:	21840413          	addi	s0,s0,536
   12d54:	00000493          	li	s1,0
   12d58:	00042783          	lw	a5,0(s0)
   12d5c:	00148493          	addi	s1,s1,1
   12d60:	00440413          	addi	s0,s0,4
   12d64:	000780e7          	jalr	a5
   12d68:	fe9918e3          	bne	s2,s1,12d58 <__libc_init_array+0x70>
   12d6c:	00c12083          	lw	ra,12(sp)
   12d70:	00812403          	lw	s0,8(sp)
   12d74:	00412483          	lw	s1,4(sp)
   12d78:	00012903          	lw	s2,0(sp)
   12d7c:	01010113          	addi	sp,sp,16
   12d80:	00008067          	ret

00012d84 <memset>:
   12d84:	00f00313          	li	t1,15
   12d88:	00050713          	mv	a4,a0
   12d8c:	02c37e63          	bgeu	t1,a2,12dc8 <memset+0x44>
   12d90:	00f77793          	andi	a5,a4,15
   12d94:	0a079063          	bnez	a5,12e34 <memset+0xb0>
   12d98:	08059263          	bnez	a1,12e1c <memset+0x98>
   12d9c:	ff067693          	andi	a3,a2,-16
   12da0:	00f67613          	andi	a2,a2,15
   12da4:	00e686b3          	add	a3,a3,a4
   12da8:	00b72023          	sw	a1,0(a4) # 1000000 <__global_pointer$+0xfeb5d8>
   12dac:	00b72223          	sw	a1,4(a4)
   12db0:	00b72423          	sw	a1,8(a4)
   12db4:	00b72623          	sw	a1,12(a4)
   12db8:	01070713          	addi	a4,a4,16
   12dbc:	fed766e3          	bltu	a4,a3,12da8 <memset+0x24>
   12dc0:	00061463          	bnez	a2,12dc8 <memset+0x44>
   12dc4:	00008067          	ret
   12dc8:	40c306b3          	sub	a3,t1,a2
   12dcc:	00269693          	slli	a3,a3,0x2
   12dd0:	00000297          	auipc	t0,0x0
   12dd4:	005686b3          	add	a3,a3,t0
   12dd8:	00c68067          	jr	12(a3) # 7f80000c <__global_pointer$+0x7f7eb5e4>
   12ddc:	00b70723          	sb	a1,14(a4)
   12de0:	00b706a3          	sb	a1,13(a4)
   12de4:	00b70623          	sb	a1,12(a4)
   12de8:	00b705a3          	sb	a1,11(a4)
   12dec:	00b70523          	sb	a1,10(a4)
   12df0:	00b704a3          	sb	a1,9(a4)
   12df4:	00b70423          	sb	a1,8(a4)
   12df8:	00b703a3          	sb	a1,7(a4)
   12dfc:	00b70323          	sb	a1,6(a4)
   12e00:	00b702a3          	sb	a1,5(a4)
   12e04:	00b70223          	sb	a1,4(a4)
   12e08:	00b701a3          	sb	a1,3(a4)
   12e0c:	00b70123          	sb	a1,2(a4)
   12e10:	00b700a3          	sb	a1,1(a4)
   12e14:	00b70023          	sb	a1,0(a4)
   12e18:	00008067          	ret
   12e1c:	0ff5f593          	zext.b	a1,a1
   12e20:	00859693          	slli	a3,a1,0x8
   12e24:	00d5e5b3          	or	a1,a1,a3
   12e28:	01059693          	slli	a3,a1,0x10
   12e2c:	00d5e5b3          	or	a1,a1,a3
   12e30:	f6dff06f          	j	12d9c <memset+0x18>
   12e34:	00279693          	slli	a3,a5,0x2
   12e38:	00000297          	auipc	t0,0x0
   12e3c:	005686b3          	add	a3,a3,t0
   12e40:	00008293          	mv	t0,ra
   12e44:	fa0680e7          	jalr	-96(a3)
   12e48:	00028093          	mv	ra,t0
   12e4c:	ff078793          	addi	a5,a5,-16
   12e50:	40f70733          	sub	a4,a4,a5
   12e54:	00f60633          	add	a2,a2,a5
   12e58:	f6c378e3          	bgeu	t1,a2,12dc8 <memset+0x44>
   12e5c:	f3dff06f          	j	12d98 <memset+0x14>

00012e60 <__call_exitprocs>:
   12e60:	fd010113          	addi	sp,sp,-48
   12e64:	01412c23          	sw	s4,24(sp)
   12e68:	cb81aa03          	lw	s4,-840(gp) # 146e0 <_global_impure_ptr>
   12e6c:	03212023          	sw	s2,32(sp)
   12e70:	02112623          	sw	ra,44(sp)
   12e74:	148a2903          	lw	s2,328(s4)
   12e78:	02812423          	sw	s0,40(sp)
   12e7c:	02912223          	sw	s1,36(sp)
   12e80:	01312e23          	sw	s3,28(sp)
   12e84:	01512a23          	sw	s5,20(sp)
   12e88:	01612823          	sw	s6,16(sp)
   12e8c:	01712623          	sw	s7,12(sp)
   12e90:	01812423          	sw	s8,8(sp)
   12e94:	04090063          	beqz	s2,12ed4 <__call_exitprocs+0x74>
   12e98:	00050b13          	mv	s6,a0
   12e9c:	00058b93          	mv	s7,a1
   12ea0:	00100a93          	li	s5,1
   12ea4:	fff00993          	li	s3,-1
   12ea8:	00492483          	lw	s1,4(s2)
   12eac:	fff48413          	addi	s0,s1,-1
   12eb0:	02044263          	bltz	s0,12ed4 <__call_exitprocs+0x74>
   12eb4:	00249493          	slli	s1,s1,0x2
   12eb8:	009904b3          	add	s1,s2,s1
   12ebc:	040b8463          	beqz	s7,12f04 <__call_exitprocs+0xa4>
   12ec0:	1044a783          	lw	a5,260(s1)
   12ec4:	05778063          	beq	a5,s7,12f04 <__call_exitprocs+0xa4>
   12ec8:	fff40413          	addi	s0,s0,-1
   12ecc:	ffc48493          	addi	s1,s1,-4
   12ed0:	ff3416e3          	bne	s0,s3,12ebc <__call_exitprocs+0x5c>
   12ed4:	02c12083          	lw	ra,44(sp)
   12ed8:	02812403          	lw	s0,40(sp)
   12edc:	02412483          	lw	s1,36(sp)
   12ee0:	02012903          	lw	s2,32(sp)
   12ee4:	01c12983          	lw	s3,28(sp)
   12ee8:	01812a03          	lw	s4,24(sp)
   12eec:	01412a83          	lw	s5,20(sp)
   12ef0:	01012b03          	lw	s6,16(sp)
   12ef4:	00c12b83          	lw	s7,12(sp)
   12ef8:	00812c03          	lw	s8,8(sp)
   12efc:	03010113          	addi	sp,sp,48
   12f00:	00008067          	ret
   12f04:	00492783          	lw	a5,4(s2)
   12f08:	0044a683          	lw	a3,4(s1)
   12f0c:	fff78793          	addi	a5,a5,-1
   12f10:	04878e63          	beq	a5,s0,12f6c <__call_exitprocs+0x10c>
   12f14:	0004a223          	sw	zero,4(s1)
   12f18:	fa0688e3          	beqz	a3,12ec8 <__call_exitprocs+0x68>
   12f1c:	18892783          	lw	a5,392(s2)
   12f20:	008a9733          	sll	a4,s5,s0
   12f24:	00492c03          	lw	s8,4(s2)
   12f28:	00f777b3          	and	a5,a4,a5
   12f2c:	02079263          	bnez	a5,12f50 <__call_exitprocs+0xf0>
   12f30:	000680e7          	jalr	a3
   12f34:	00492703          	lw	a4,4(s2)
   12f38:	148a2783          	lw	a5,328(s4)
   12f3c:	01871463          	bne	a4,s8,12f44 <__call_exitprocs+0xe4>
   12f40:	f92784e3          	beq	a5,s2,12ec8 <__call_exitprocs+0x68>
   12f44:	f80788e3          	beqz	a5,12ed4 <__call_exitprocs+0x74>
   12f48:	00078913          	mv	s2,a5
   12f4c:	f5dff06f          	j	12ea8 <__call_exitprocs+0x48>
   12f50:	18c92783          	lw	a5,396(s2)
   12f54:	0844a583          	lw	a1,132(s1)
   12f58:	00f77733          	and	a4,a4,a5
   12f5c:	00071c63          	bnez	a4,12f74 <__call_exitprocs+0x114>
   12f60:	000b0513          	mv	a0,s6
   12f64:	000680e7          	jalr	a3
   12f68:	fcdff06f          	j	12f34 <__call_exitprocs+0xd4>
   12f6c:	00892223          	sw	s0,4(s2)
   12f70:	fa9ff06f          	j	12f18 <__call_exitprocs+0xb8>
   12f74:	00058513          	mv	a0,a1
   12f78:	000680e7          	jalr	a3
   12f7c:	fb9ff06f          	j	12f34 <__call_exitprocs+0xd4>

00012f80 <__libc_fini_array>:
   12f80:	ff010113          	addi	sp,sp,-16
   12f84:	00812423          	sw	s0,8(sp)
   12f88:	000147b7          	lui	a5,0x14
   12f8c:	00014437          	lui	s0,0x14
   12f90:	22078793          	addi	a5,a5,544 # 14220 <__do_global_dtors_aux_fini_array_entry>
   12f94:	22440413          	addi	s0,s0,548 # 14224 <__fini_array_end>
   12f98:	40f40433          	sub	s0,s0,a5
   12f9c:	00912223          	sw	s1,4(sp)
   12fa0:	00112623          	sw	ra,12(sp)
   12fa4:	40245493          	srai	s1,s0,0x2
   12fa8:	02048063          	beqz	s1,12fc8 <__libc_fini_array+0x48>
   12fac:	ffc40413          	addi	s0,s0,-4
   12fb0:	00f40433          	add	s0,s0,a5
   12fb4:	00042783          	lw	a5,0(s0)
   12fb8:	fff48493          	addi	s1,s1,-1
   12fbc:	ffc40413          	addi	s0,s0,-4
   12fc0:	000780e7          	jalr	a5
   12fc4:	fe0498e3          	bnez	s1,12fb4 <__libc_fini_array+0x34>
   12fc8:	00c12083          	lw	ra,12(sp)
   12fcc:	00812403          	lw	s0,8(sp)
   12fd0:	00412483          	lw	s1,4(sp)
   12fd4:	01010113          	addi	sp,sp,16
   12fd8:	00008067          	ret

00012fdc <atexit>:
   12fdc:	00050593          	mv	a1,a0
   12fe0:	00000693          	li	a3,0
   12fe4:	00000613          	li	a2,0
   12fe8:	00000513          	li	a0,0
   12fec:	0040006f          	j	12ff0 <__register_exitproc>

00012ff0 <__register_exitproc>:
   12ff0:	cb81a703          	lw	a4,-840(gp) # 146e0 <_global_impure_ptr>
   12ff4:	14872783          	lw	a5,328(a4)
   12ff8:	04078c63          	beqz	a5,13050 <__register_exitproc+0x60>
   12ffc:	0047a703          	lw	a4,4(a5)
   13000:	01f00813          	li	a6,31
   13004:	06e84e63          	blt	a6,a4,13080 <__register_exitproc+0x90>
   13008:	00271813          	slli	a6,a4,0x2
   1300c:	02050663          	beqz	a0,13038 <__register_exitproc+0x48>
   13010:	01078333          	add	t1,a5,a6
   13014:	08c32423          	sw	a2,136(t1) # 10208 <mmul+0x20>
   13018:	1887a883          	lw	a7,392(a5)
   1301c:	00100613          	li	a2,1
   13020:	00e61633          	sll	a2,a2,a4
   13024:	00c8e8b3          	or	a7,a7,a2
   13028:	1917a423          	sw	a7,392(a5)
   1302c:	10d32423          	sw	a3,264(t1)
   13030:	00200693          	li	a3,2
   13034:	02d50463          	beq	a0,a3,1305c <__register_exitproc+0x6c>
   13038:	00170713          	addi	a4,a4,1
   1303c:	00e7a223          	sw	a4,4(a5)
   13040:	010787b3          	add	a5,a5,a6
   13044:	00b7a423          	sw	a1,8(a5)
   13048:	00000513          	li	a0,0
   1304c:	00008067          	ret
   13050:	14c70793          	addi	a5,a4,332
   13054:	14f72423          	sw	a5,328(a4)
   13058:	fa5ff06f          	j	12ffc <__register_exitproc+0xc>
   1305c:	18c7a683          	lw	a3,396(a5)
   13060:	00170713          	addi	a4,a4,1
   13064:	00e7a223          	sw	a4,4(a5)
   13068:	00c6e6b3          	or	a3,a3,a2
   1306c:	18d7a623          	sw	a3,396(a5)
   13070:	010787b3          	add	a5,a5,a6
   13074:	00b7a423          	sw	a1,8(a5)
   13078:	00000513          	li	a0,0
   1307c:	00008067          	ret
   13080:	fff00513          	li	a0,-1
   13084:	00008067          	ret

00013088 <_exit>:
   13088:	05d00893          	li	a7,93
   1308c:	00000073          	ecall
   13090:	00054463          	bltz	a0,13098 <_exit+0x10>
   13094:	0000006f          	j	13094 <_exit+0xc>
   13098:	ff010113          	addi	sp,sp,-16
   1309c:	00812423          	sw	s0,8(sp)
   130a0:	00050413          	mv	s0,a0
   130a4:	00112623          	sw	ra,12(sp)
   130a8:	40800433          	neg	s0,s0
   130ac:	00c000ef          	jal	ra,130b8 <__errno>
   130b0:	00852023          	sw	s0,0(a0) # 800000 <__global_pointer$+0x7eb5d8>
   130b4:	0000006f          	j	130b4 <_exit+0x2c>

000130b8 <__errno>:
   130b8:	cbc1a503          	lw	a0,-836(gp) # 146e4 <_impure_ptr>
   130bc:	00008067          	ret
