
./arm-benchmarks/src/cubic/cubic:     file format elf32-littlearm


Disassembly of section .init:

00008000 <_init>:
    8000:	b5f8      	push	{r3, r4, r5, r6, r7, lr}
    8002:	bf00      	nop
    8004:	bcf8      	pop	{r3, r4, r5, r6, r7}
    8006:	bc08      	pop	{r3}
    8008:	469e      	mov	lr, r3
    800a:	4770      	bx	lr

Disassembly of section .text:

00008010 <exit>:
    8010:	b508      	push	{r3, lr}
    8012:	2100      	movs	r1, #0
    8014:	4604      	mov	r4, r0
    8016:	f003 fd71 	bl	bafc <__call_exitprocs>
    801a:	4b04      	ldr	r3, [pc, #16]	; (802c <exit+0x1c>)
    801c:	6818      	ldr	r0, [r3, #0]
    801e:	6bc3      	ldr	r3, [r0, #60]	; 0x3c
    8020:	b103      	cbz	r3, 8024 <exit+0x14>
    8022:	4798      	blx	r3
    8024:	4620      	mov	r0, r4
    8026:	f003 fe31 	bl	bc8c <_exit>
    802a:	bf00      	nop
    802c:	0000be98 	.word	0x0000be98

00008030 <register_fini>:
    8030:	4b02      	ldr	r3, [pc, #8]	; (803c <register_fini+0xc>)
    8032:	b113      	cbz	r3, 803a <register_fini+0xa>
    8034:	4802      	ldr	r0, [pc, #8]	; (8040 <register_fini+0x10>)
    8036:	f003 bdc3 	b.w	bbc0 <atexit>
    803a:	4770      	bx	lr
    803c:	00000000 	.word	0x00000000
    8040:	0000bbcd 	.word	0x0000bbcd

00008044 <__do_global_dtors_aux>:
    8044:	b510      	push	{r4, lr}
    8046:	4c05      	ldr	r4, [pc, #20]	; (805c <__do_global_dtors_aux+0x18>)
    8048:	7823      	ldrb	r3, [r4, #0]
    804a:	b933      	cbnz	r3, 805a <__do_global_dtors_aux+0x16>
    804c:	4b04      	ldr	r3, [pc, #16]	; (8060 <__do_global_dtors_aux+0x1c>)
    804e:	b113      	cbz	r3, 8056 <__do_global_dtors_aux+0x12>
    8050:	4804      	ldr	r0, [pc, #16]	; (8064 <__do_global_dtors_aux+0x20>)
    8052:	f3af 8000 	nop.w
    8056:	2301      	movs	r3, #1
    8058:	7023      	strb	r3, [r4, #0]
    805a:	bd10      	pop	{r4, pc}
    805c:	0001c2f0 	.word	0x0001c2f0
    8060:	00000000 	.word	0x00000000
    8064:	0000bea4 	.word	0x0000bea4

00008068 <frame_dummy>:
    8068:	b508      	push	{r3, lr}
    806a:	4b03      	ldr	r3, [pc, #12]	; (8078 <frame_dummy+0x10>)
    806c:	b11b      	cbz	r3, 8076 <frame_dummy+0xe>
    806e:	4903      	ldr	r1, [pc, #12]	; (807c <frame_dummy+0x14>)
    8070:	4803      	ldr	r0, [pc, #12]	; (8080 <frame_dummy+0x18>)
    8072:	f3af 8000 	nop.w
    8076:	bd08      	pop	{r3, pc}
    8078:	00000000 	.word	0x00000000
    807c:	0001c2f4 	.word	0x0001c2f4
    8080:	0000bea4 	.word	0x0000bea4

00008084 <_stack_init>:
    8084:	f5a3 3a80 	sub.w	sl, r3, #65536	; 0x10000
    8088:	4770      	bx	lr
    808a:	bf00      	nop

0000808c <_mainCRTStartup>:
    808c:	4b17      	ldr	r3, [pc, #92]	; (80ec <_mainCRTStartup+0x60>)
    808e:	2b00      	cmp	r3, #0
    8090:	bf08      	it	eq
    8092:	4b13      	ldreq	r3, [pc, #76]	; (80e0 <_mainCRTStartup+0x54>)
    8094:	469d      	mov	sp, r3
    8096:	f7ff fff5 	bl	8084 <_stack_init>
    809a:	2100      	movs	r1, #0
    809c:	468b      	mov	fp, r1
    809e:	460f      	mov	r7, r1
    80a0:	4813      	ldr	r0, [pc, #76]	; (80f0 <_mainCRTStartup+0x64>)
    80a2:	4a14      	ldr	r2, [pc, #80]	; (80f4 <_mainCRTStartup+0x68>)
    80a4:	1a12      	subs	r2, r2, r0
    80a6:	f003 fcd7 	bl	ba58 <memset>
    80aa:	4b0e      	ldr	r3, [pc, #56]	; (80e4 <_mainCRTStartup+0x58>)
    80ac:	2b00      	cmp	r3, #0
    80ae:	d000      	beq.n	80b2 <_mainCRTStartup+0x26>
    80b0:	4798      	blx	r3
    80b2:	4b0d      	ldr	r3, [pc, #52]	; (80e8 <_mainCRTStartup+0x5c>)
    80b4:	2b00      	cmp	r3, #0
    80b6:	d000      	beq.n	80ba <_mainCRTStartup+0x2e>
    80b8:	4798      	blx	r3
    80ba:	2000      	movs	r0, #0
    80bc:	2100      	movs	r1, #0
    80be:	0004      	movs	r4, r0
    80c0:	000d      	movs	r5, r1
    80c2:	480d      	ldr	r0, [pc, #52]	; (80f8 <_mainCRTStartup+0x6c>)
    80c4:	2800      	cmp	r0, #0
    80c6:	d002      	beq.n	80ce <_mainCRTStartup+0x42>
    80c8:	480c      	ldr	r0, [pc, #48]	; (80fc <_mainCRTStartup+0x70>)
    80ca:	f003 fd79 	bl	bbc0 <atexit>
    80ce:	f003 fc9f 	bl	ba10 <__libc_init_array>
    80d2:	0020      	movs	r0, r4
    80d4:	0029      	movs	r1, r5
    80d6:	f000 fccb 	bl	8a70 <main>
    80da:	f7ff ff99 	bl	8010 <exit>
    80de:	bf00      	nop
    80e0:	00080000 	.word	0x00080000
    80e4:	00000000 	.word	0x00000000
    80e8:	00000000 	.word	0x00000000
    80ec:	00000000 	.word	0x00000000
    80f0:	0001c2ec 	.word	0x0001c2ec
    80f4:	0001c33c 	.word	0x0001c33c
    80f8:	0000bbc1 	.word	0x0000bbc1
    80fc:	0000bbcd 	.word	0x0000bbcd

00008100 <verify_benchmark>:
    8100:	e92d 4fb0 	stmdb	sp!, {r4, r5, r7, r8, r9, sl, fp, lr}
    8104:	b086      	sub	sp, #24
    8106:	af00      	add	r7, sp, #0
    8108:	60f8      	str	r0, [r7, #12]
    810a:	f04f 0200 	mov.w	r2, #0
    810e:	4b3a      	ldr	r3, [pc, #232]	; (81f8 <verify_benchmark+0xf8>)
    8110:	e9c7 2304 	strd	r2, r3, [r7, #16]
    8114:	4b39      	ldr	r3, [pc, #228]	; (81fc <verify_benchmark+0xfc>)
    8116:	681b      	ldr	r3, [r3, #0]
    8118:	2b03      	cmp	r3, #3
    811a:	d161      	bne.n	81e0 <verify_benchmark+0xe0>
    811c:	4b38      	ldr	r3, [pc, #224]	; (8200 <verify_benchmark+0x100>)
    811e:	e9d3 0100 	ldrd	r0, r1, [r3]
    8122:	4b38      	ldr	r3, [pc, #224]	; (8204 <verify_benchmark+0x104>)
    8124:	e9d3 2300 	ldrd	r2, r3, [r3]
    8128:	f002 ffdc 	bl	b0e4 <__aeabi_dsub>
    812c:	4602      	mov	r2, r0
    812e:	460b      	mov	r3, r1
    8130:	603a      	str	r2, [r7, #0]
    8132:	f023 4300 	bic.w	r3, r3, #2147483648	; 0x80000000
    8136:	607b      	str	r3, [r7, #4]
    8138:	a32d      	add	r3, pc, #180	; (adr r3, 81f0 <verify_benchmark+0xf0>)
    813a:	e9d3 2300 	ldrd	r2, r3, [r3]
    813e:	e9d7 0100 	ldrd	r0, r1, [r7]
    8142:	f003 fbf9 	bl	b938 <__aeabi_dcmplt>
    8146:	4603      	mov	r3, r0
    8148:	2b00      	cmp	r3, #0
    814a:	d049      	beq.n	81e0 <verify_benchmark+0xe0>
    814c:	4b2c      	ldr	r3, [pc, #176]	; (8200 <verify_benchmark+0x100>)
    814e:	e9d3 0102 	ldrd	r0, r1, [r3, #8]
    8152:	4b2c      	ldr	r3, [pc, #176]	; (8204 <verify_benchmark+0x104>)
    8154:	e9d3 2302 	ldrd	r2, r3, [r3, #8]
    8158:	f002 ffc4 	bl	b0e4 <__aeabi_dsub>
    815c:	4602      	mov	r2, r0
    815e:	460b      	mov	r3, r1
    8160:	4692      	mov	sl, r2
    8162:	f023 4b00 	bic.w	fp, r3, #2147483648	; 0x80000000
    8166:	a322      	add	r3, pc, #136	; (adr r3, 81f0 <verify_benchmark+0xf0>)
    8168:	e9d3 2300 	ldrd	r2, r3, [r3]
    816c:	4650      	mov	r0, sl
    816e:	4659      	mov	r1, fp
    8170:	f003 fbe2 	bl	b938 <__aeabi_dcmplt>
    8174:	4603      	mov	r3, r0
    8176:	2b00      	cmp	r3, #0
    8178:	d032      	beq.n	81e0 <verify_benchmark+0xe0>
    817a:	4b21      	ldr	r3, [pc, #132]	; (8200 <verify_benchmark+0x100>)
    817c:	e9d3 0104 	ldrd	r0, r1, [r3, #16]
    8180:	4b20      	ldr	r3, [pc, #128]	; (8204 <verify_benchmark+0x104>)
    8182:	e9d3 2304 	ldrd	r2, r3, [r3, #16]
    8186:	f002 ffad 	bl	b0e4 <__aeabi_dsub>
    818a:	4602      	mov	r2, r0
    818c:	460b      	mov	r3, r1
    818e:	4690      	mov	r8, r2
    8190:	f023 4900 	bic.w	r9, r3, #2147483648	; 0x80000000
    8194:	a316      	add	r3, pc, #88	; (adr r3, 81f0 <verify_benchmark+0xf0>)
    8196:	e9d3 2300 	ldrd	r2, r3, [r3]
    819a:	4640      	mov	r0, r8
    819c:	4649      	mov	r1, r9
    819e:	f003 fbcb 	bl	b938 <__aeabi_dcmplt>
    81a2:	4603      	mov	r3, r0
    81a4:	2b00      	cmp	r3, #0
    81a6:	d01b      	beq.n	81e0 <verify_benchmark+0xe0>
    81a8:	4b17      	ldr	r3, [pc, #92]	; (8208 <verify_benchmark+0x108>)
    81aa:	681b      	ldr	r3, [r3, #0]
    81ac:	2b01      	cmp	r3, #1
    81ae:	d117      	bne.n	81e0 <verify_benchmark+0xe0>
    81b0:	4b16      	ldr	r3, [pc, #88]	; (820c <verify_benchmark+0x10c>)
    81b2:	e9d3 2300 	ldrd	r2, r3, [r3]
    81b6:	e9d7 0104 	ldrd	r0, r1, [r7, #16]
    81ba:	f002 ff93 	bl	b0e4 <__aeabi_dsub>
    81be:	4602      	mov	r2, r0
    81c0:	460b      	mov	r3, r1
    81c2:	4614      	mov	r4, r2
    81c4:	f023 4500 	bic.w	r5, r3, #2147483648	; 0x80000000
    81c8:	a309      	add	r3, pc, #36	; (adr r3, 81f0 <verify_benchmark+0xf0>)
    81ca:	e9d3 2300 	ldrd	r2, r3, [r3]
    81ce:	4620      	mov	r0, r4
    81d0:	4629      	mov	r1, r5
    81d2:	f003 fbb1 	bl	b938 <__aeabi_dcmplt>
    81d6:	4603      	mov	r3, r0
    81d8:	2b00      	cmp	r3, #0
    81da:	d001      	beq.n	81e0 <verify_benchmark+0xe0>
    81dc:	2301      	movs	r3, #1
    81de:	e000      	b.n	81e2 <verify_benchmark+0xe2>
    81e0:	2300      	movs	r3, #0
    81e2:	4618      	mov	r0, r3
    81e4:	3718      	adds	r7, #24
    81e6:	46bd      	mov	sp, r7
    81e8:	e8bd 8fb0 	ldmia.w	sp!, {r4, r5, r7, r8, r9, sl, fp, pc}
    81ec:	f3af 8000 	nop.w
    81f0:	68497682 	.word	0x68497682
    81f4:	3d3c25c2 	.word	0x3d3c25c2
    81f8:	40040000 	.word	0x40040000
    81fc:	0001c310 	.word	0x0001c310
    8200:	0000bca0 	.word	0x0000bca0
    8204:	0001c318 	.word	0x0001c318
    8208:	0001c314 	.word	0x0001c314
    820c:	0001c330 	.word	0x0001c330

00008210 <initialise_benchmark>:
    8210:	b480      	push	{r7}
    8212:	af00      	add	r7, sp, #0
    8214:	bf00      	nop
    8216:	46bd      	mov	sp, r7
    8218:	bc80      	pop	{r7}
    821a:	4770      	bx	lr

0000821c <warm_caches>:
    821c:	b580      	push	{r7, lr}
    821e:	b084      	sub	sp, #16
    8220:	af00      	add	r7, sp, #0
    8222:	6078      	str	r0, [r7, #4]
    8224:	6878      	ldr	r0, [r7, #4]
    8226:	f000 f80f 	bl	8248 <benchmark_body>
    822a:	60f8      	str	r0, [r7, #12]
    822c:	bf00      	nop
    822e:	3710      	adds	r7, #16
    8230:	46bd      	mov	sp, r7
    8232:	bd80      	pop	{r7, pc}

00008234 <benchmark>:
    8234:	b580      	push	{r7, lr}
    8236:	af00      	add	r7, sp, #0
    8238:	200a      	movs	r0, #10
    823a:	f000 f805 	bl	8248 <benchmark_body>
    823e:	4603      	mov	r3, r0
    8240:	4618      	mov	r0, r3
    8242:	bd80      	pop	{r7, pc}
    8244:	0000      	movs	r0, r0
    8246:	0000      	movs	r0, r0

00008248 <benchmark_body>:
    8248:	b5b0      	push	{r4, r5, r7, lr}
    824a:	f5ad 7d0c 	sub.w	sp, sp, #560	; 0x230
    824e:	af06      	add	r7, sp, #24
    8250:	f507 7306 	add.w	r3, r7, #536	; 0x218
    8254:	f5a3 7305 	sub.w	r3, r3, #532	; 0x214
    8258:	6018      	str	r0, [r3, #0]
    825a:	2300      	movs	r3, #0
    825c:	f8c7 3214 	str.w	r3, [r7, #532]	; 0x214
    8260:	e17b      	b.n	855a <benchmark_body+0x312>
    8262:	f04f 0200 	mov.w	r2, #0
    8266:	4b74      	ldr	r3, [pc, #464]	; (8438 <benchmark_body+0x1f0>)
    8268:	e9c7 2382 	strd	r2, r3, [r7, #520]	; 0x208
    826c:	f04f 0200 	mov.w	r2, #0
    8270:	4b72      	ldr	r3, [pc, #456]	; (843c <benchmark_body+0x1f4>)
    8272:	e9c7 2380 	strd	r2, r3, [r7, #512]	; 0x200
    8276:	f04f 0200 	mov.w	r2, #0
    827a:	4b71      	ldr	r3, [pc, #452]	; (8440 <benchmark_body+0x1f8>)
    827c:	e9c7 237e 	strd	r2, r3, [r7, #504]	; 0x1f8
    8280:	f04f 0200 	mov.w	r2, #0
    8284:	4b6f      	ldr	r3, [pc, #444]	; (8444 <benchmark_body+0x1fc>)
    8286:	e9c7 237c 	strd	r2, r3, [r7, #496]	; 0x1f0
    828a:	f04f 0200 	mov.w	r2, #0
    828e:	4b6a      	ldr	r3, [pc, #424]	; (8438 <benchmark_body+0x1f0>)
    8290:	e9c7 237a 	strd	r2, r3, [r7, #488]	; 0x1e8
    8294:	f04f 0200 	mov.w	r2, #0
    8298:	4b6b      	ldr	r3, [pc, #428]	; (8448 <benchmark_body+0x200>)
    829a:	e9c7 2378 	strd	r2, r3, [r7, #480]	; 0x1e0
    829e:	f04f 0200 	mov.w	r2, #0
    82a2:	4b6a      	ldr	r3, [pc, #424]	; (844c <benchmark_body+0x204>)
    82a4:	e9c7 2376 	strd	r2, r3, [r7, #472]	; 0x1d8
    82a8:	f04f 0200 	mov.w	r2, #0
    82ac:	4b65      	ldr	r3, [pc, #404]	; (8444 <benchmark_body+0x1fc>)
    82ae:	e9c7 2374 	strd	r2, r3, [r7, #464]	; 0x1d0
    82b2:	f04f 0200 	mov.w	r2, #0
    82b6:	4b60      	ldr	r3, [pc, #384]	; (8438 <benchmark_body+0x1f0>)
    82b8:	e9c7 2372 	strd	r2, r3, [r7, #456]	; 0x1c8
    82bc:	f04f 0200 	mov.w	r2, #0
    82c0:	4b63      	ldr	r3, [pc, #396]	; (8450 <benchmark_body+0x208>)
    82c2:	e9c7 2370 	strd	r2, r3, [r7, #448]	; 0x1c0
    82c6:	f04f 0200 	mov.w	r2, #0
    82ca:	4b62      	ldr	r3, [pc, #392]	; (8454 <benchmark_body+0x20c>)
    82cc:	e9c7 236e 	strd	r2, r3, [r7, #440]	; 0x1b8
    82d0:	f04f 0200 	mov.w	r2, #0
    82d4:	4b60      	ldr	r3, [pc, #384]	; (8458 <benchmark_body+0x210>)
    82d6:	e9c7 236c 	strd	r2, r3, [r7, #432]	; 0x1b0
    82da:	f04f 0200 	mov.w	r2, #0
    82de:	4b56      	ldr	r3, [pc, #344]	; (8438 <benchmark_body+0x1f0>)
    82e0:	e9c7 236a 	strd	r2, r3, [r7, #424]	; 0x1a8
    82e4:	a352      	add	r3, pc, #328	; (adr r3, 8430 <benchmark_body+0x1e8>)
    82e6:	e9d3 2300 	ldrd	r2, r3, [r3]
    82ea:	e9c7 2368 	strd	r2, r3, [r7, #416]	; 0x1a0
    82ee:	f04f 0200 	mov.w	r2, #0
    82f2:	4b51      	ldr	r3, [pc, #324]	; (8438 <benchmark_body+0x1f0>)
    82f4:	e9c7 2366 	strd	r2, r3, [r7, #408]	; 0x198
    82f8:	f04f 0200 	mov.w	r2, #0
    82fc:	4b57      	ldr	r3, [pc, #348]	; (845c <benchmark_body+0x214>)
    82fe:	e9c7 2364 	strd	r2, r3, [r7, #400]	; 0x190
    8302:	f507 7306 	add.w	r3, r7, #536	; 0x218
    8306:	f5a3 7304 	sub.w	r3, r3, #528	; 0x210
    830a:	4618      	mov	r0, r3
    830c:	f44f 73c0 	mov.w	r3, #384	; 0x180
    8310:	461a      	mov	r2, r3
    8312:	2100      	movs	r1, #0
    8314:	f003 fba0 	bl	ba58 <memset>
    8318:	f107 0308 	add.w	r3, r7, #8
    831c:	f8c7 318c 	str.w	r3, [r7, #396]	; 0x18c
    8320:	f107 0308 	add.w	r3, r7, #8
    8324:	9305      	str	r3, [sp, #20]
    8326:	f507 73c4 	add.w	r3, r7, #392	; 0x188
    832a:	9304      	str	r3, [sp, #16]
    832c:	e9d7 237c 	ldrd	r2, r3, [r7, #496]	; 0x1f0
    8330:	e9cd 2302 	strd	r2, r3, [sp, #8]
    8334:	e9d7 237e 	ldrd	r2, r3, [r7, #504]	; 0x1f8
    8338:	e9cd 2300 	strd	r2, r3, [sp]
    833c:	e9d7 2380 	ldrd	r2, r3, [r7, #512]	; 0x200
    8340:	e9d7 0182 	ldrd	r0, r1, [r7, #520]	; 0x208
    8344:	f000 f928 	bl	8598 <SolveCubic>
    8348:	f8d7 3188 	ldr.w	r3, [r7, #392]	; 0x188
    834c:	4a44      	ldr	r2, [pc, #272]	; (8460 <benchmark_body+0x218>)
    834e:	6013      	str	r3, [r2, #0]
    8350:	4a44      	ldr	r2, [pc, #272]	; (8464 <benchmark_body+0x21c>)
    8352:	f507 7306 	add.w	r3, r7, #536	; 0x218
    8356:	f5a3 7304 	sub.w	r3, r3, #528	; 0x210
    835a:	4614      	mov	r4, r2
    835c:	461d      	mov	r5, r3
    835e:	cd0f      	ldmia	r5!, {r0, r1, r2, r3}
    8360:	c40f      	stmia	r4!, {r0, r1, r2, r3}
    8362:	e895 0003 	ldmia.w	r5, {r0, r1}
    8366:	e884 0003 	stmia.w	r4, {r0, r1}
    836a:	f107 0308 	add.w	r3, r7, #8
    836e:	9305      	str	r3, [sp, #20]
    8370:	f507 73c4 	add.w	r3, r7, #392	; 0x188
    8374:	9304      	str	r3, [sp, #16]
    8376:	e9d7 2374 	ldrd	r2, r3, [r7, #464]	; 0x1d0
    837a:	e9cd 2302 	strd	r2, r3, [sp, #8]
    837e:	e9d7 2376 	ldrd	r2, r3, [r7, #472]	; 0x1d8
    8382:	e9cd 2300 	strd	r2, r3, [sp]
    8386:	e9d7 2378 	ldrd	r2, r3, [r7, #480]	; 0x1e0
    838a:	e9d7 017a 	ldrd	r0, r1, [r7, #488]	; 0x1e8
    838e:	f000 f903 	bl	8598 <SolveCubic>
    8392:	f8d7 3188 	ldr.w	r3, [r7, #392]	; 0x188
    8396:	4a34      	ldr	r2, [pc, #208]	; (8468 <benchmark_body+0x220>)
    8398:	6013      	str	r3, [r2, #0]
    839a:	f507 7306 	add.w	r3, r7, #536	; 0x218
    839e:	f5a3 7304 	sub.w	r3, r3, #528	; 0x210
    83a2:	e9d3 2300 	ldrd	r2, r3, [r3]
    83a6:	4931      	ldr	r1, [pc, #196]	; (846c <benchmark_body+0x224>)
    83a8:	e9c1 2300 	strd	r2, r3, [r1]
    83ac:	f107 0308 	add.w	r3, r7, #8
    83b0:	9305      	str	r3, [sp, #20]
    83b2:	f507 73c4 	add.w	r3, r7, #392	; 0x188
    83b6:	9304      	str	r3, [sp, #16]
    83b8:	e9d7 236c 	ldrd	r2, r3, [r7, #432]	; 0x1b0
    83bc:	e9cd 2302 	strd	r2, r3, [sp, #8]
    83c0:	e9d7 236e 	ldrd	r2, r3, [r7, #440]	; 0x1b8
    83c4:	e9cd 2300 	strd	r2, r3, [sp]
    83c8:	e9d7 2370 	ldrd	r2, r3, [r7, #448]	; 0x1c0
    83cc:	e9d7 0172 	ldrd	r0, r1, [r7, #456]	; 0x1c8
    83d0:	f000 f8e2 	bl	8598 <SolveCubic>
    83d4:	f107 0308 	add.w	r3, r7, #8
    83d8:	9305      	str	r3, [sp, #20]
    83da:	f507 73c4 	add.w	r3, r7, #392	; 0x188
    83de:	9304      	str	r3, [sp, #16]
    83e0:	e9d7 2364 	ldrd	r2, r3, [r7, #400]	; 0x190
    83e4:	e9cd 2302 	strd	r2, r3, [sp, #8]
    83e8:	e9d7 2366 	ldrd	r2, r3, [r7, #408]	; 0x198
    83ec:	e9cd 2300 	strd	r2, r3, [sp]
    83f0:	e9d7 2368 	ldrd	r2, r3, [r7, #416]	; 0x1a0
    83f4:	e9d7 016a 	ldrd	r0, r1, [r7, #424]	; 0x1a8
    83f8:	f000 f8ce 	bl	8598 <SolveCubic>
    83fc:	f04f 0200 	mov.w	r2, #0
    8400:	4b0d      	ldr	r3, [pc, #52]	; (8438 <benchmark_body+0x1f0>)
    8402:	e9c7 2382 	strd	r2, r3, [r7, #520]	; 0x208
    8406:	e098      	b.n	853a <benchmark_body+0x2f2>
    8408:	f04f 0200 	mov.w	r2, #0
    840c:	4b18      	ldr	r3, [pc, #96]	; (8470 <benchmark_body+0x228>)
    840e:	e9c7 2380 	strd	r2, r3, [r7, #512]	; 0x200
    8412:	e07c      	b.n	850e <benchmark_body+0x2c6>
    8414:	f04f 0200 	mov.w	r2, #0
    8418:	4b16      	ldr	r3, [pc, #88]	; (8474 <benchmark_body+0x22c>)
    841a:	e9c7 237e 	strd	r2, r3, [r7, #504]	; 0x1f8
    841e:	e061      	b.n	84e4 <benchmark_body+0x29c>
    8420:	f04f 0200 	mov.w	r2, #0
    8424:	4b14      	ldr	r3, [pc, #80]	; (8478 <benchmark_body+0x230>)
    8426:	e9c7 237c 	strd	r2, r3, [r7, #496]	; 0x1f0
    842a:	e046      	b.n	84ba <benchmark_body+0x272>
    842c:	f3af 8000 	nop.w
    8430:	66666666 	.word	0x66666666
    8434:	c02b6666 	.word	0xc02b6666
    8438:	3ff00000 	.word	0x3ff00000
    843c:	c0250000 	.word	0xc0250000
    8440:	40400000 	.word	0x40400000
    8444:	c03e0000 	.word	0xc03e0000
    8448:	c0120000 	.word	0xc0120000
    844c:	40310000 	.word	0x40310000
    8450:	c00c0000 	.word	0xc00c0000
    8454:	40360000 	.word	0x40360000
    8458:	c03f0000 	.word	0xc03f0000
    845c:	c0418000 	.word	0xc0418000
    8460:	0001c310 	.word	0x0001c310
    8464:	0001c318 	.word	0x0001c318
    8468:	0001c314 	.word	0x0001c314
    846c:	0001c330 	.word	0x0001c330
    8470:	40240000 	.word	0x40240000
    8474:	40140000 	.word	0x40140000
    8478:	bff00000 	.word	0xbff00000
    847c:	f8d7 318c 	ldr.w	r3, [r7, #396]	; 0x18c
    8480:	9305      	str	r3, [sp, #20]
    8482:	f507 73c4 	add.w	r3, r7, #392	; 0x188
    8486:	9304      	str	r3, [sp, #16]
    8488:	e9d7 237c 	ldrd	r2, r3, [r7, #496]	; 0x1f0
    848c:	e9cd 2302 	strd	r2, r3, [sp, #8]
    8490:	e9d7 237e 	ldrd	r2, r3, [r7, #504]	; 0x1f8
    8494:	e9cd 2300 	strd	r2, r3, [sp]
    8498:	e9d7 2380 	ldrd	r2, r3, [r7, #512]	; 0x200
    849c:	e9d7 0182 	ldrd	r0, r1, [r7, #520]	; 0x208
    84a0:	f000 f87a 	bl	8598 <SolveCubic>
    84a4:	f04f 0200 	mov.w	r2, #0
    84a8:	4b34      	ldr	r3, [pc, #208]	; (857c <benchmark_body+0x334>)
    84aa:	e9d7 017c 	ldrd	r0, r1, [r7, #496]	; 0x1f0
    84ae:	f002 fe19 	bl	b0e4 <__aeabi_dsub>
    84b2:	4602      	mov	r2, r0
    84b4:	460b      	mov	r3, r1
    84b6:	e9c7 237c 	strd	r2, r3, [r7, #496]	; 0x1f0
    84ba:	f04f 0200 	mov.w	r2, #0
    84be:	4b30      	ldr	r3, [pc, #192]	; (8580 <benchmark_body+0x338>)
    84c0:	e9d7 017c 	ldrd	r0, r1, [r7, #496]	; 0x1f0
    84c4:	f003 fa56 	bl	b974 <__aeabi_dcmpgt>
    84c8:	4603      	mov	r3, r0
    84ca:	2b00      	cmp	r3, #0
    84cc:	d1d6      	bne.n	847c <benchmark_body+0x234>
    84ce:	f04f 0200 	mov.w	r2, #0
    84d2:	4b2c      	ldr	r3, [pc, #176]	; (8584 <benchmark_body+0x33c>)
    84d4:	e9d7 017e 	ldrd	r0, r1, [r7, #504]	; 0x1f8
    84d8:	f002 fe06 	bl	b0e8 <__adddf3>
    84dc:	4602      	mov	r2, r0
    84de:	460b      	mov	r3, r1
    84e0:	e9c7 237e 	strd	r2, r3, [r7, #504]	; 0x1f8
    84e4:	f04f 0200 	mov.w	r2, #0
    84e8:	4b27      	ldr	r3, [pc, #156]	; (8588 <benchmark_body+0x340>)
    84ea:	e9d7 017e 	ldrd	r0, r1, [r7, #504]	; 0x1f8
    84ee:	f003 fa23 	bl	b938 <__aeabi_dcmplt>
    84f2:	4603      	mov	r3, r0
    84f4:	2b00      	cmp	r3, #0
    84f6:	d193      	bne.n	8420 <benchmark_body+0x1d8>
    84f8:	f04f 0200 	mov.w	r2, #0
    84fc:	4b1f      	ldr	r3, [pc, #124]	; (857c <benchmark_body+0x334>)
    84fe:	e9d7 0180 	ldrd	r0, r1, [r7, #512]	; 0x200
    8502:	f002 fdef 	bl	b0e4 <__aeabi_dsub>
    8506:	4602      	mov	r2, r0
    8508:	460b      	mov	r3, r1
    850a:	e9c7 2380 	strd	r2, r3, [r7, #512]	; 0x200
    850e:	f04f 0200 	mov.w	r2, #0
    8512:	4b1e      	ldr	r3, [pc, #120]	; (858c <benchmark_body+0x344>)
    8514:	e9d7 0180 	ldrd	r0, r1, [r7, #512]	; 0x200
    8518:	f003 fa2c 	bl	b974 <__aeabi_dcmpgt>
    851c:	4603      	mov	r3, r0
    851e:	2b00      	cmp	r3, #0
    8520:	f47f af78 	bne.w	8414 <benchmark_body+0x1cc>
    8524:	f04f 0200 	mov.w	r2, #0
    8528:	4b14      	ldr	r3, [pc, #80]	; (857c <benchmark_body+0x334>)
    852a:	e9d7 0182 	ldrd	r0, r1, [r7, #520]	; 0x208
    852e:	f002 fddb 	bl	b0e8 <__adddf3>
    8532:	4602      	mov	r2, r0
    8534:	460b      	mov	r3, r1
    8536:	e9c7 2382 	strd	r2, r3, [r7, #520]	; 0x208
    853a:	f04f 0200 	mov.w	r2, #0
    853e:	4b14      	ldr	r3, [pc, #80]	; (8590 <benchmark_body+0x348>)
    8540:	e9d7 0182 	ldrd	r0, r1, [r7, #520]	; 0x208
    8544:	f003 f9f8 	bl	b938 <__aeabi_dcmplt>
    8548:	4603      	mov	r3, r0
    854a:	2b00      	cmp	r3, #0
    854c:	f47f af5c 	bne.w	8408 <benchmark_body+0x1c0>
    8550:	f8d7 3214 	ldr.w	r3, [r7, #532]	; 0x214
    8554:	3301      	adds	r3, #1
    8556:	f8c7 3214 	str.w	r3, [r7, #532]	; 0x214
    855a:	f507 7306 	add.w	r3, r7, #536	; 0x218
    855e:	f5a3 7305 	sub.w	r3, r3, #532	; 0x214
    8562:	f8d7 2214 	ldr.w	r2, [r7, #532]	; 0x214
    8566:	681b      	ldr	r3, [r3, #0]
    8568:	429a      	cmp	r2, r3
    856a:	f6ff ae7a 	blt.w	8262 <benchmark_body+0x1a>
    856e:	2300      	movs	r3, #0
    8570:	4618      	mov	r0, r3
    8572:	f507 7706 	add.w	r7, r7, #536	; 0x218
    8576:	46bd      	mov	sp, r7
    8578:	bdb0      	pop	{r4, r5, r7, pc}
    857a:	bf00      	nop
    857c:	3ff00000 	.word	0x3ff00000
    8580:	c0080000 	.word	0xc0080000
    8584:	3fe00000 	.word	0x3fe00000
    8588:	40180000 	.word	0x40180000
    858c:	40200000 	.word	0x40200000
    8590:	40080000 	.word	0x40080000
    8594:	00000000 	.word	0x00000000

00008598 <SolveCubic>:
    8598:	e92d 43b0 	stmdb	sp!, {r4, r5, r7, r8, r9, lr}
    859c:	b092      	sub	sp, #72	; 0x48
    859e:	af00      	add	r7, sp, #0
    85a0:	e9c7 0102 	strd	r0, r1, [r7, #8]
    85a4:	e9c7 2300 	strd	r2, r3, [r7]
    85a8:	e9d7 2302 	ldrd	r2, r3, [r7, #8]
    85ac:	e9d7 0100 	ldrd	r0, r1, [r7]
    85b0:	f003 f87a 	bl	b6a8 <__aeabi_ddiv>
    85b4:	4602      	mov	r2, r0
    85b6:	460b      	mov	r3, r1
    85b8:	e9c7 2310 	strd	r2, r3, [r7, #64]	; 0x40
    85bc:	e9d7 2302 	ldrd	r2, r3, [r7, #8]
    85c0:	e9d7 0118 	ldrd	r0, r1, [r7, #96]	; 0x60
    85c4:	f003 f870 	bl	b6a8 <__aeabi_ddiv>
    85c8:	4602      	mov	r2, r0
    85ca:	460b      	mov	r3, r1
    85cc:	e9c7 230e 	strd	r2, r3, [r7, #56]	; 0x38
    85d0:	e9d7 2302 	ldrd	r2, r3, [r7, #8]
    85d4:	e9d7 011a 	ldrd	r0, r1, [r7, #104]	; 0x68
    85d8:	f003 f866 	bl	b6a8 <__aeabi_ddiv>
    85dc:	4602      	mov	r2, r0
    85de:	460b      	mov	r3, r1
    85e0:	e9c7 230c 	strd	r2, r3, [r7, #48]	; 0x30
    85e4:	e9d7 2310 	ldrd	r2, r3, [r7, #64]	; 0x40
    85e8:	e9d7 0110 	ldrd	r0, r1, [r7, #64]	; 0x40
    85ec:	f002 ff32 	bl	b454 <__aeabi_dmul>
    85f0:	4602      	mov	r2, r0
    85f2:	460b      	mov	r3, r1
    85f4:	4690      	mov	r8, r2
    85f6:	4699      	mov	r9, r3
    85f8:	f04f 0200 	mov.w	r2, #0
    85fc:	4bc2      	ldr	r3, [pc, #776]	; (8908 <SolveCubic+0x370>)
    85fe:	e9d7 010e 	ldrd	r0, r1, [r7, #56]	; 0x38
    8602:	f002 ff27 	bl	b454 <__aeabi_dmul>
    8606:	4602      	mov	r2, r0
    8608:	460b      	mov	r3, r1
    860a:	4640      	mov	r0, r8
    860c:	4649      	mov	r1, r9
    860e:	f002 fd69 	bl	b0e4 <__aeabi_dsub>
    8612:	4602      	mov	r2, r0
    8614:	460b      	mov	r3, r1
    8616:	4610      	mov	r0, r2
    8618:	4619      	mov	r1, r3
    861a:	f04f 0200 	mov.w	r2, #0
    861e:	4bbb      	ldr	r3, [pc, #748]	; (890c <SolveCubic+0x374>)
    8620:	f003 f842 	bl	b6a8 <__aeabi_ddiv>
    8624:	4602      	mov	r2, r0
    8626:	460b      	mov	r3, r1
    8628:	e9c7 230a 	strd	r2, r3, [r7, #40]	; 0x28
    862c:	e9d7 0110 	ldrd	r0, r1, [r7, #64]	; 0x40
    8630:	4602      	mov	r2, r0
    8632:	460b      	mov	r3, r1
    8634:	f002 fd58 	bl	b0e8 <__adddf3>
    8638:	4602      	mov	r2, r0
    863a:	460b      	mov	r3, r1
    863c:	4610      	mov	r0, r2
    863e:	4619      	mov	r1, r3
    8640:	e9d7 2310 	ldrd	r2, r3, [r7, #64]	; 0x40
    8644:	f002 ff06 	bl	b454 <__aeabi_dmul>
    8648:	4602      	mov	r2, r0
    864a:	460b      	mov	r3, r1
    864c:	4610      	mov	r0, r2
    864e:	4619      	mov	r1, r3
    8650:	e9d7 2310 	ldrd	r2, r3, [r7, #64]	; 0x40
    8654:	f002 fefe 	bl	b454 <__aeabi_dmul>
    8658:	4602      	mov	r2, r0
    865a:	460b      	mov	r3, r1
    865c:	4690      	mov	r8, r2
    865e:	4699      	mov	r9, r3
    8660:	f04f 0200 	mov.w	r2, #0
    8664:	4ba9      	ldr	r3, [pc, #676]	; (890c <SolveCubic+0x374>)
    8666:	e9d7 0110 	ldrd	r0, r1, [r7, #64]	; 0x40
    866a:	f002 fef3 	bl	b454 <__aeabi_dmul>
    866e:	4602      	mov	r2, r0
    8670:	460b      	mov	r3, r1
    8672:	4610      	mov	r0, r2
    8674:	4619      	mov	r1, r3
    8676:	e9d7 230e 	ldrd	r2, r3, [r7, #56]	; 0x38
    867a:	f002 feeb 	bl	b454 <__aeabi_dmul>
    867e:	4602      	mov	r2, r0
    8680:	460b      	mov	r3, r1
    8682:	4640      	mov	r0, r8
    8684:	4649      	mov	r1, r9
    8686:	f002 fd2d 	bl	b0e4 <__aeabi_dsub>
    868a:	4602      	mov	r2, r0
    868c:	460b      	mov	r3, r1
    868e:	4690      	mov	r8, r2
    8690:	4699      	mov	r9, r3
    8692:	f04f 0200 	mov.w	r2, #0
    8696:	4b9e      	ldr	r3, [pc, #632]	; (8910 <SolveCubic+0x378>)
    8698:	e9d7 010c 	ldrd	r0, r1, [r7, #48]	; 0x30
    869c:	f002 feda 	bl	b454 <__aeabi_dmul>
    86a0:	4602      	mov	r2, r0
    86a2:	460b      	mov	r3, r1
    86a4:	4640      	mov	r0, r8
    86a6:	4649      	mov	r1, r9
    86a8:	f002 fd1e 	bl	b0e8 <__adddf3>
    86ac:	4602      	mov	r2, r0
    86ae:	460b      	mov	r3, r1
    86b0:	4610      	mov	r0, r2
    86b2:	4619      	mov	r1, r3
    86b4:	f04f 0200 	mov.w	r2, #0
    86b8:	4b96      	ldr	r3, [pc, #600]	; (8914 <SolveCubic+0x37c>)
    86ba:	f002 fff5 	bl	b6a8 <__aeabi_ddiv>
    86be:	4602      	mov	r2, r0
    86c0:	460b      	mov	r3, r1
    86c2:	e9c7 2308 	strd	r2, r3, [r7, #32]
    86c6:	e9d7 2308 	ldrd	r2, r3, [r7, #32]
    86ca:	e9d7 0108 	ldrd	r0, r1, [r7, #32]
    86ce:	f002 fec1 	bl	b454 <__aeabi_dmul>
    86d2:	4602      	mov	r2, r0
    86d4:	460b      	mov	r3, r1
    86d6:	4690      	mov	r8, r2
    86d8:	4699      	mov	r9, r3
    86da:	e9d7 230a 	ldrd	r2, r3, [r7, #40]	; 0x28
    86de:	e9d7 010a 	ldrd	r0, r1, [r7, #40]	; 0x28
    86e2:	f002 feb7 	bl	b454 <__aeabi_dmul>
    86e6:	4602      	mov	r2, r0
    86e8:	460b      	mov	r3, r1
    86ea:	4610      	mov	r0, r2
    86ec:	4619      	mov	r1, r3
    86ee:	e9d7 230a 	ldrd	r2, r3, [r7, #40]	; 0x28
    86f2:	f002 feaf 	bl	b454 <__aeabi_dmul>
    86f6:	4602      	mov	r2, r0
    86f8:	460b      	mov	r3, r1
    86fa:	4640      	mov	r0, r8
    86fc:	4649      	mov	r1, r9
    86fe:	f002 fcf1 	bl	b0e4 <__aeabi_dsub>
    8702:	4602      	mov	r2, r0
    8704:	460b      	mov	r3, r1
    8706:	e9c7 2306 	strd	r2, r3, [r7, #24]
    870a:	f04f 0200 	mov.w	r2, #0
    870e:	f04f 0300 	mov.w	r3, #0
    8712:	e9d7 0106 	ldrd	r0, r1, [r7, #24]
    8716:	f003 f919 	bl	b94c <__aeabi_dcmple>
    871a:	4603      	mov	r3, r0
    871c:	2b00      	cmp	r3, #0
    871e:	f000 80fb 	beq.w	8918 <SolveCubic+0x380>
    8722:	6f3b      	ldr	r3, [r7, #112]	; 0x70
    8724:	2203      	movs	r2, #3
    8726:	601a      	str	r2, [r3, #0]
    8728:	e9d7 230a 	ldrd	r2, r3, [r7, #40]	; 0x28
    872c:	e9d7 010a 	ldrd	r0, r1, [r7, #40]	; 0x28
    8730:	f002 fe90 	bl	b454 <__aeabi_dmul>
    8734:	4602      	mov	r2, r0
    8736:	460b      	mov	r3, r1
    8738:	4610      	mov	r0, r2
    873a:	4619      	mov	r1, r3
    873c:	e9d7 230a 	ldrd	r2, r3, [r7, #40]	; 0x28
    8740:	f002 fe88 	bl	b454 <__aeabi_dmul>
    8744:	4602      	mov	r2, r0
    8746:	460b      	mov	r3, r1
    8748:	4610      	mov	r0, r2
    874a:	4619      	mov	r1, r3
    874c:	f000 fa9a 	bl	8c84 <sqrt>
    8750:	4602      	mov	r2, r0
    8752:	460b      	mov	r3, r1
    8754:	e9d7 0108 	ldrd	r0, r1, [r7, #32]
    8758:	f002 ffa6 	bl	b6a8 <__aeabi_ddiv>
    875c:	4602      	mov	r2, r0
    875e:	460b      	mov	r3, r1
    8760:	4610      	mov	r0, r2
    8762:	4619      	mov	r1, r3
    8764:	f000 f9f8 	bl	8b58 <acos>
    8768:	e9c7 0104 	strd	r0, r1, [r7, #16]
    876c:	e9d7 010a 	ldrd	r0, r1, [r7, #40]	; 0x28
    8770:	f000 fa88 	bl	8c84 <sqrt>
    8774:	f04f 0200 	mov.w	r2, #0
    8778:	f04f 4340 	mov.w	r3, #3221225472	; 0xc0000000
    877c:	f002 fe6a 	bl	b454 <__aeabi_dmul>
    8780:	4602      	mov	r2, r0
    8782:	460b      	mov	r3, r1
    8784:	4614      	mov	r4, r2
    8786:	461d      	mov	r5, r3
    8788:	f04f 0200 	mov.w	r2, #0
    878c:	4b5e      	ldr	r3, [pc, #376]	; (8908 <SolveCubic+0x370>)
    878e:	e9d7 0104 	ldrd	r0, r1, [r7, #16]
    8792:	f002 ff89 	bl	b6a8 <__aeabi_ddiv>
    8796:	4602      	mov	r2, r0
    8798:	460b      	mov	r3, r1
    879a:	4610      	mov	r0, r2
    879c:	4619      	mov	r1, r3
    879e:	f000 f98b 	bl	8ab8 <cos>
    87a2:	4602      	mov	r2, r0
    87a4:	460b      	mov	r3, r1
    87a6:	4620      	mov	r0, r4
    87a8:	4629      	mov	r1, r5
    87aa:	f002 fe53 	bl	b454 <__aeabi_dmul>
    87ae:	4602      	mov	r2, r0
    87b0:	460b      	mov	r3, r1
    87b2:	4614      	mov	r4, r2
    87b4:	461d      	mov	r5, r3
    87b6:	f04f 0200 	mov.w	r2, #0
    87ba:	4b53      	ldr	r3, [pc, #332]	; (8908 <SolveCubic+0x370>)
    87bc:	e9d7 0110 	ldrd	r0, r1, [r7, #64]	; 0x40
    87c0:	f002 ff72 	bl	b6a8 <__aeabi_ddiv>
    87c4:	4602      	mov	r2, r0
    87c6:	460b      	mov	r3, r1
    87c8:	4620      	mov	r0, r4
    87ca:	4629      	mov	r1, r5
    87cc:	f002 fc8a 	bl	b0e4 <__aeabi_dsub>
    87d0:	4602      	mov	r2, r0
    87d2:	460b      	mov	r3, r1
    87d4:	6f79      	ldr	r1, [r7, #116]	; 0x74
    87d6:	e9c1 2300 	strd	r2, r3, [r1]
    87da:	e9d7 010a 	ldrd	r0, r1, [r7, #40]	; 0x28
    87de:	f000 fa51 	bl	8c84 <sqrt>
    87e2:	f04f 0200 	mov.w	r2, #0
    87e6:	f04f 4340 	mov.w	r3, #3221225472	; 0xc0000000
    87ea:	f002 fe33 	bl	b454 <__aeabi_dmul>
    87ee:	4602      	mov	r2, r0
    87f0:	460b      	mov	r3, r1
    87f2:	4614      	mov	r4, r2
    87f4:	461d      	mov	r5, r3
    87f6:	a340      	add	r3, pc, #256	; (adr r3, 88f8 <SolveCubic+0x360>)
    87f8:	e9d3 2300 	ldrd	r2, r3, [r3]
    87fc:	e9d7 0104 	ldrd	r0, r1, [r7, #16]
    8800:	f002 fc72 	bl	b0e8 <__adddf3>
    8804:	4602      	mov	r2, r0
    8806:	460b      	mov	r3, r1
    8808:	4610      	mov	r0, r2
    880a:	4619      	mov	r1, r3
    880c:	f04f 0200 	mov.w	r2, #0
    8810:	4b3d      	ldr	r3, [pc, #244]	; (8908 <SolveCubic+0x370>)
    8812:	f002 ff49 	bl	b6a8 <__aeabi_ddiv>
    8816:	4602      	mov	r2, r0
    8818:	460b      	mov	r3, r1
    881a:	4610      	mov	r0, r2
    881c:	4619      	mov	r1, r3
    881e:	f000 f94b 	bl	8ab8 <cos>
    8822:	4602      	mov	r2, r0
    8824:	460b      	mov	r3, r1
    8826:	4620      	mov	r0, r4
    8828:	4629      	mov	r1, r5
    882a:	f002 fe13 	bl	b454 <__aeabi_dmul>
    882e:	4602      	mov	r2, r0
    8830:	460b      	mov	r3, r1
    8832:	4690      	mov	r8, r2
    8834:	4699      	mov	r9, r3
    8836:	f04f 0200 	mov.w	r2, #0
    883a:	4b33      	ldr	r3, [pc, #204]	; (8908 <SolveCubic+0x370>)
    883c:	e9d7 0110 	ldrd	r0, r1, [r7, #64]	; 0x40
    8840:	f002 ff32 	bl	b6a8 <__aeabi_ddiv>
    8844:	4602      	mov	r2, r0
    8846:	460b      	mov	r3, r1
    8848:	4610      	mov	r0, r2
    884a:	4619      	mov	r1, r3
    884c:	6f7b      	ldr	r3, [r7, #116]	; 0x74
    884e:	f103 0408 	add.w	r4, r3, #8
    8852:	4602      	mov	r2, r0
    8854:	460b      	mov	r3, r1
    8856:	4640      	mov	r0, r8
    8858:	4649      	mov	r1, r9
    885a:	f002 fc43 	bl	b0e4 <__aeabi_dsub>
    885e:	4602      	mov	r2, r0
    8860:	460b      	mov	r3, r1
    8862:	e9c4 2300 	strd	r2, r3, [r4]
    8866:	e9d7 010a 	ldrd	r0, r1, [r7, #40]	; 0x28
    886a:	f000 fa0b 	bl	8c84 <sqrt>
    886e:	f04f 0200 	mov.w	r2, #0
    8872:	f04f 4340 	mov.w	r3, #3221225472	; 0xc0000000
    8876:	f002 fded 	bl	b454 <__aeabi_dmul>
    887a:	4602      	mov	r2, r0
    887c:	460b      	mov	r3, r1
    887e:	4614      	mov	r4, r2
    8880:	461d      	mov	r5, r3
    8882:	a31f      	add	r3, pc, #124	; (adr r3, 8900 <SolveCubic+0x368>)
    8884:	e9d3 2300 	ldrd	r2, r3, [r3]
    8888:	e9d7 0104 	ldrd	r0, r1, [r7, #16]
    888c:	f002 fc2c 	bl	b0e8 <__adddf3>
    8890:	4602      	mov	r2, r0
    8892:	460b      	mov	r3, r1
    8894:	4610      	mov	r0, r2
    8896:	4619      	mov	r1, r3
    8898:	f04f 0200 	mov.w	r2, #0
    889c:	4b1a      	ldr	r3, [pc, #104]	; (8908 <SolveCubic+0x370>)
    889e:	f002 ff03 	bl	b6a8 <__aeabi_ddiv>
    88a2:	4602      	mov	r2, r0
    88a4:	460b      	mov	r3, r1
    88a6:	4610      	mov	r0, r2
    88a8:	4619      	mov	r1, r3
    88aa:	f000 f905 	bl	8ab8 <cos>
    88ae:	4602      	mov	r2, r0
    88b0:	460b      	mov	r3, r1
    88b2:	4620      	mov	r0, r4
    88b4:	4629      	mov	r1, r5
    88b6:	f002 fdcd 	bl	b454 <__aeabi_dmul>
    88ba:	4602      	mov	r2, r0
    88bc:	460b      	mov	r3, r1
    88be:	4690      	mov	r8, r2
    88c0:	4699      	mov	r9, r3
    88c2:	f04f 0200 	mov.w	r2, #0
    88c6:	4b10      	ldr	r3, [pc, #64]	; (8908 <SolveCubic+0x370>)
    88c8:	e9d7 0110 	ldrd	r0, r1, [r7, #64]	; 0x40
    88cc:	f002 feec 	bl	b6a8 <__aeabi_ddiv>
    88d0:	4602      	mov	r2, r0
    88d2:	460b      	mov	r3, r1
    88d4:	4610      	mov	r0, r2
    88d6:	4619      	mov	r1, r3
    88d8:	6f7b      	ldr	r3, [r7, #116]	; 0x74
    88da:	f103 0410 	add.w	r4, r3, #16
    88de:	4602      	mov	r2, r0
    88e0:	460b      	mov	r3, r1
    88e2:	4640      	mov	r0, r8
    88e4:	4649      	mov	r1, r9
    88e6:	f002 fbfd 	bl	b0e4 <__aeabi_dsub>
    88ea:	4602      	mov	r2, r0
    88ec:	460b      	mov	r3, r1
    88ee:	e9c4 2300 	strd	r2, r3, [r4]
    88f2:	e076      	b.n	89e2 <SolveCubic+0x44a>
    88f4:	f3af 8000 	nop.w
    88f8:	54442d18 	.word	0x54442d18
    88fc:	401921fb 	.word	0x401921fb
    8900:	54442d18 	.word	0x54442d18
    8904:	402921fb 	.word	0x402921fb
    8908:	40080000 	.word	0x40080000
    890c:	40220000 	.word	0x40220000
    8910:	403b0000 	.word	0x403b0000
    8914:	404b0000 	.word	0x404b0000
    8918:	6f3b      	ldr	r3, [r7, #112]	; 0x70
    891a:	2201      	movs	r2, #1
    891c:	601a      	str	r2, [r3, #0]
    891e:	e9d7 0106 	ldrd	r0, r1, [r7, #24]
    8922:	f000 f9af 	bl	8c84 <sqrt>
    8926:	6a3c      	ldr	r4, [r7, #32]
    8928:	6a7b      	ldr	r3, [r7, #36]	; 0x24
    892a:	f023 4500 	bic.w	r5, r3, #2147483648	; 0x80000000
    892e:	4622      	mov	r2, r4
    8930:	462b      	mov	r3, r5
    8932:	f002 fbd9 	bl	b0e8 <__adddf3>
    8936:	4602      	mov	r2, r0
    8938:	460b      	mov	r3, r1
    893a:	4610      	mov	r0, r2
    893c:	4619      	mov	r1, r3
    893e:	a32c      	add	r3, pc, #176	; (adr r3, 89f0 <SolveCubic+0x458>)
    8940:	e9d3 2300 	ldrd	r2, r3, [r3]
    8944:	f000 f930 	bl	8ba8 <pow>
    8948:	4602      	mov	r2, r0
    894a:	460b      	mov	r3, r1
    894c:	6f79      	ldr	r1, [r7, #116]	; 0x74
    894e:	e9c1 2300 	strd	r2, r3, [r1]
    8952:	6f7b      	ldr	r3, [r7, #116]	; 0x74
    8954:	e9d3 4500 	ldrd	r4, r5, [r3]
    8958:	6f7b      	ldr	r3, [r7, #116]	; 0x74
    895a:	e9d3 2300 	ldrd	r2, r3, [r3]
    895e:	e9d7 010a 	ldrd	r0, r1, [r7, #40]	; 0x28
    8962:	f002 fea1 	bl	b6a8 <__aeabi_ddiv>
    8966:	4602      	mov	r2, r0
    8968:	460b      	mov	r3, r1
    896a:	4620      	mov	r0, r4
    896c:	4629      	mov	r1, r5
    896e:	f002 fbbb 	bl	b0e8 <__adddf3>
    8972:	4602      	mov	r2, r0
    8974:	460b      	mov	r3, r1
    8976:	6f79      	ldr	r1, [r7, #116]	; 0x74
    8978:	e9c1 2300 	strd	r2, r3, [r1]
    897c:	6f7b      	ldr	r3, [r7, #116]	; 0x74
    897e:	e9d3 4500 	ldrd	r4, r5, [r3]
    8982:	f04f 0200 	mov.w	r2, #0
    8986:	f04f 0300 	mov.w	r3, #0
    898a:	e9d7 0108 	ldrd	r0, r1, [r7, #32]
    898e:	f002 ffd3 	bl	b938 <__aeabi_dcmplt>
    8992:	4603      	mov	r3, r0
    8994:	2b00      	cmp	r3, #0
    8996:	d003      	beq.n	89a0 <SolveCubic+0x408>
    8998:	f04f 0000 	mov.w	r0, #0
    899c:	4916      	ldr	r1, [pc, #88]	; (89f8 <SolveCubic+0x460>)
    899e:	e002      	b.n	89a6 <SolveCubic+0x40e>
    89a0:	f04f 0000 	mov.w	r0, #0
    89a4:	4915      	ldr	r1, [pc, #84]	; (89fc <SolveCubic+0x464>)
    89a6:	4622      	mov	r2, r4
    89a8:	462b      	mov	r3, r5
    89aa:	f002 fd53 	bl	b454 <__aeabi_dmul>
    89ae:	4602      	mov	r2, r0
    89b0:	460b      	mov	r3, r1
    89b2:	6f79      	ldr	r1, [r7, #116]	; 0x74
    89b4:	e9c1 2300 	strd	r2, r3, [r1]
    89b8:	6f7b      	ldr	r3, [r7, #116]	; 0x74
    89ba:	e9d3 4500 	ldrd	r4, r5, [r3]
    89be:	f04f 0200 	mov.w	r2, #0
    89c2:	4b0f      	ldr	r3, [pc, #60]	; (8a00 <SolveCubic+0x468>)
    89c4:	e9d7 0110 	ldrd	r0, r1, [r7, #64]	; 0x40
    89c8:	f002 fe6e 	bl	b6a8 <__aeabi_ddiv>
    89cc:	4602      	mov	r2, r0
    89ce:	460b      	mov	r3, r1
    89d0:	4620      	mov	r0, r4
    89d2:	4629      	mov	r1, r5
    89d4:	f002 fb86 	bl	b0e4 <__aeabi_dsub>
    89d8:	4602      	mov	r2, r0
    89da:	460b      	mov	r3, r1
    89dc:	6f79      	ldr	r1, [r7, #116]	; 0x74
    89de:	e9c1 2300 	strd	r2, r3, [r1]
    89e2:	bf00      	nop
    89e4:	3748      	adds	r7, #72	; 0x48
    89e6:	46bd      	mov	sp, r7
    89e8:	e8bd 83b0 	ldmia.w	sp!, {r4, r5, r7, r8, r9, pc}
    89ec:	f3af 8000 	nop.w
    89f0:	55555555 	.word	0x55555555
    89f4:	3fd55555 	.word	0x3fd55555
    89f8:	3ff00000 	.word	0x3ff00000
    89fc:	bff00000 	.word	0xbff00000
    8a00:	40080000 	.word	0x40080000

00008a04 <initialise_board>:
    8a04:	b480      	push	{r7}
    8a06:	af00      	add	r7, sp, #0
    8a08:	4b06      	ldr	r3, [pc, #24]	; (8a24 <initialise_board+0x20>)
    8a0a:	681b      	ldr	r3, [r3, #0]
    8a0c:	4a05      	ldr	r2, [pc, #20]	; (8a24 <initialise_board+0x20>)
    8a0e:	f043 7380 	orr.w	r3, r3, #16777216	; 0x1000000
    8a12:	6013      	str	r3, [r2, #0]
    8a14:	4b04      	ldr	r3, [pc, #16]	; (8a28 <initialise_board+0x24>)
    8a16:	2200      	movs	r2, #0
    8a18:	601a      	str	r2, [r3, #0]
    8a1a:	bf00      	nop
    8a1c:	46bd      	mov	sp, r7
    8a1e:	bc80      	pop	{r7}
    8a20:	4770      	bx	lr
    8a22:	bf00      	nop
    8a24:	e000edfc 	.word	0xe000edfc
    8a28:	e0001004 	.word	0xe0001004

00008a2c <start_trigger>:
    8a2c:	b480      	push	{r7}
    8a2e:	af00      	add	r7, sp, #0
    8a30:	4b04      	ldr	r3, [pc, #16]	; (8a44 <start_trigger+0x18>)
    8a32:	681b      	ldr	r3, [r3, #0]
    8a34:	4a03      	ldr	r2, [pc, #12]	; (8a44 <start_trigger+0x18>)
    8a36:	f043 0301 	orr.w	r3, r3, #1
    8a3a:	6013      	str	r3, [r2, #0]
    8a3c:	bf00      	nop
    8a3e:	46bd      	mov	sp, r7
    8a40:	bc80      	pop	{r7}
    8a42:	4770      	bx	lr
    8a44:	e0001000 	.word	0xe0001000

00008a48 <stop_trigger>:
    8a48:	b480      	push	{r7}
    8a4a:	af00      	add	r7, sp, #0
    8a4c:	4b06      	ldr	r3, [pc, #24]	; (8a68 <stop_trigger+0x20>)
    8a4e:	2200      	movs	r2, #0
    8a50:	601a      	str	r2, [r3, #0]
    8a52:	4b06      	ldr	r3, [pc, #24]	; (8a6c <stop_trigger+0x24>)
    8a54:	681b      	ldr	r3, [r3, #0]
    8a56:	4a05      	ldr	r2, [pc, #20]	; (8a6c <stop_trigger+0x24>)
    8a58:	f023 0301 	bic.w	r3, r3, #1
    8a5c:	6013      	str	r3, [r2, #0]
    8a5e:	bf00      	nop
    8a60:	46bd      	mov	sp, r7
    8a62:	bc80      	pop	{r7}
    8a64:	4770      	bx	lr
    8a66:	bf00      	nop
    8a68:	e0001004 	.word	0xe0001004
    8a6c:	e0001000 	.word	0xe0001000

00008a70 <main>:
    8a70:	b580      	push	{r7, lr}
    8a72:	b084      	sub	sp, #16
    8a74:	af00      	add	r7, sp, #0
    8a76:	6078      	str	r0, [r7, #4]
    8a78:	6039      	str	r1, [r7, #0]
    8a7a:	f7ff ffc3 	bl	8a04 <initialise_board>
    8a7e:	f7ff fbc7 	bl	8210 <initialise_benchmark>
    8a82:	2001      	movs	r0, #1
    8a84:	f7ff fbca 	bl	821c <warm_caches>
    8a88:	f7ff ffd0 	bl	8a2c <start_trigger>
    8a8c:	f7ff fbd2 	bl	8234 <benchmark>
    8a90:	4603      	mov	r3, r0
    8a92:	60bb      	str	r3, [r7, #8]
    8a94:	f7ff ffd8 	bl	8a48 <stop_trigger>
    8a98:	68bb      	ldr	r3, [r7, #8]
    8a9a:	4618      	mov	r0, r3
    8a9c:	f7ff fb30 	bl	8100 <verify_benchmark>
    8aa0:	60f8      	str	r0, [r7, #12]
    8aa2:	68fb      	ldr	r3, [r7, #12]
    8aa4:	2b00      	cmp	r3, #0
    8aa6:	bf0c      	ite	eq
    8aa8:	2301      	moveq	r3, #1
    8aaa:	2300      	movne	r3, #0
    8aac:	b2db      	uxtb	r3, r3
    8aae:	4618      	mov	r0, r3
    8ab0:	3710      	adds	r7, #16
    8ab2:	46bd      	mov	sp, r7
    8ab4:	bd80      	pop	{r7, pc}
    8ab6:	0000      	movs	r0, r0

00008ab8 <cos>:
    8ab8:	4a25      	ldr	r2, [pc, #148]	; (8b50 <cos+0x98>)
    8aba:	f021 4300 	bic.w	r3, r1, #2147483648	; 0x80000000
    8abe:	4293      	cmp	r3, r2
    8ac0:	dd23      	ble.n	8b0a <cos+0x52>
    8ac2:	b510      	push	{r4, lr}
    8ac4:	4a23      	ldr	r2, [pc, #140]	; (8b54 <cos+0x9c>)
    8ac6:	4293      	cmp	r3, r2
    8ac8:	b086      	sub	sp, #24
    8aca:	dd09      	ble.n	8ae0 <cos+0x28>
    8acc:	4602      	mov	r2, r0
    8ace:	460b      	mov	r3, r1
    8ad0:	f002 fb08 	bl	b0e4 <__aeabi_dsub>
    8ad4:	4602      	mov	r2, r0
    8ad6:	460b      	mov	r3, r1
    8ad8:	4610      	mov	r0, r2
    8ada:	4619      	mov	r1, r3
    8adc:	b006      	add	sp, #24
    8ade:	bd10      	pop	{r4, pc}
    8ae0:	aa02      	add	r2, sp, #8
    8ae2:	f001 f8b9 	bl	9c58 <__ieee754_rem_pio2>
    8ae6:	f000 0403 	and.w	r4, r0, #3
    8aea:	2c01      	cmp	r4, #1
    8aec:	d011      	beq.n	8b12 <cos+0x5a>
    8aee:	2c02      	cmp	r4, #2
    8af0:	d023      	beq.n	8b3a <cos+0x82>
    8af2:	b1cc      	cbz	r4, 8b28 <cos+0x70>
    8af4:	2401      	movs	r4, #1
    8af6:	e9dd 2304 	ldrd	r2, r3, [sp, #16]
    8afa:	e9dd 0102 	ldrd	r0, r1, [sp, #8]
    8afe:	9400      	str	r4, [sp, #0]
    8b00:	f002 f8f2 	bl	ace8 <__kernel_sin>
    8b04:	4602      	mov	r2, r0
    8b06:	460b      	mov	r3, r1
    8b08:	e7e6      	b.n	8ad8 <cos+0x20>
    8b0a:	2200      	movs	r2, #0
    8b0c:	2300      	movs	r3, #0
    8b0e:	f001 bb93 	b.w	a238 <__kernel_cos>
    8b12:	e9dd 2304 	ldrd	r2, r3, [sp, #16]
    8b16:	e9dd 0102 	ldrd	r0, r1, [sp, #8]
    8b1a:	9400      	str	r4, [sp, #0]
    8b1c:	f002 f8e4 	bl	ace8 <__kernel_sin>
    8b20:	4602      	mov	r2, r0
    8b22:	f101 4300 	add.w	r3, r1, #2147483648	; 0x80000000
    8b26:	e7d7      	b.n	8ad8 <cos+0x20>
    8b28:	e9dd 2304 	ldrd	r2, r3, [sp, #16]
    8b2c:	e9dd 0102 	ldrd	r0, r1, [sp, #8]
    8b30:	f001 fb82 	bl	a238 <__kernel_cos>
    8b34:	4602      	mov	r2, r0
    8b36:	460b      	mov	r3, r1
    8b38:	e7ce      	b.n	8ad8 <cos+0x20>
    8b3a:	e9dd 2304 	ldrd	r2, r3, [sp, #16]
    8b3e:	e9dd 0102 	ldrd	r0, r1, [sp, #8]
    8b42:	f001 fb79 	bl	a238 <__kernel_cos>
    8b46:	4602      	mov	r2, r0
    8b48:	f101 4300 	add.w	r3, r1, #2147483648	; 0x80000000
    8b4c:	e7c4      	b.n	8ad8 <cos+0x20>
    8b4e:	bf00      	nop
    8b50:	3fe921fb 	.word	0x3fe921fb
    8b54:	7fefffff 	.word	0x7fefffff

00008b58 <acos>:
    8b58:	b5f8      	push	{r3, r4, r5, r6, r7, lr}
    8b5a:	4604      	mov	r4, r0
    8b5c:	460d      	mov	r5, r1
    8b5e:	f000 f8bb 	bl	8cd8 <__ieee754_acos>
    8b62:	4622      	mov	r2, r4
    8b64:	4606      	mov	r6, r0
    8b66:	460f      	mov	r7, r1
    8b68:	462b      	mov	r3, r5
    8b6a:	4620      	mov	r0, r4
    8b6c:	4629      	mov	r1, r5
    8b6e:	f002 ff0b 	bl	b988 <__aeabi_dcmpun>
    8b72:	b940      	cbnz	r0, 8b86 <acos+0x2e>
    8b74:	4620      	mov	r0, r4
    8b76:	4629      	mov	r1, r5
    8b78:	f002 f9a8 	bl	aecc <fabs>
    8b7c:	4b08      	ldr	r3, [pc, #32]	; (8ba0 <acos+0x48>)
    8b7e:	2200      	movs	r2, #0
    8b80:	f002 fef8 	bl	b974 <__aeabi_dcmpgt>
    8b84:	b910      	cbnz	r0, 8b8c <acos+0x34>
    8b86:	4630      	mov	r0, r6
    8b88:	4639      	mov	r1, r7
    8b8a:	bdf8      	pop	{r3, r4, r5, r6, r7, pc}
    8b8c:	f002 ff3a 	bl	ba04 <__errno>
    8b90:	4603      	mov	r3, r0
    8b92:	2221      	movs	r2, #33	; 0x21
    8b94:	601a      	str	r2, [r3, #0]
    8b96:	4803      	ldr	r0, [pc, #12]	; (8ba4 <acos+0x4c>)
    8b98:	e8bd 40f8 	ldmia.w	sp!, {r3, r4, r5, r6, r7, lr}
    8b9c:	f002 ba1c 	b.w	afd8 <nan>
    8ba0:	3ff00000 	.word	0x3ff00000
    8ba4:	0000bcb8 	.word	0x0000bcb8

00008ba8 <pow>:
    8ba8:	e92d 43f8 	stmdb	sp!, {r3, r4, r5, r6, r7, r8, r9, lr}
    8bac:	4614      	mov	r4, r2
    8bae:	461d      	mov	r5, r3
    8bb0:	4680      	mov	r8, r0
    8bb2:	4689      	mov	r9, r1
    8bb4:	f000 fae4 	bl	9180 <__ieee754_pow>
    8bb8:	4622      	mov	r2, r4
    8bba:	4606      	mov	r6, r0
    8bbc:	460f      	mov	r7, r1
    8bbe:	462b      	mov	r3, r5
    8bc0:	4620      	mov	r0, r4
    8bc2:	4629      	mov	r1, r5
    8bc4:	f002 fee0 	bl	b988 <__aeabi_dcmpun>
    8bc8:	b978      	cbnz	r0, 8bea <pow+0x42>
    8bca:	2200      	movs	r2, #0
    8bcc:	2300      	movs	r3, #0
    8bce:	4640      	mov	r0, r8
    8bd0:	4649      	mov	r1, r9
    8bd2:	f002 fea7 	bl	b924 <__aeabi_dcmpeq>
    8bd6:	b1d8      	cbz	r0, 8c10 <pow+0x68>
    8bd8:	2200      	movs	r2, #0
    8bda:	2300      	movs	r3, #0
    8bdc:	4620      	mov	r0, r4
    8bde:	4629      	mov	r1, r5
    8be0:	f002 fea0 	bl	b924 <__aeabi_dcmpeq>
    8be4:	b128      	cbz	r0, 8bf2 <pow+0x4a>
    8be6:	4f26      	ldr	r7, [pc, #152]	; (8c80 <pow+0xd8>)
    8be8:	2600      	movs	r6, #0
    8bea:	4630      	mov	r0, r6
    8bec:	4639      	mov	r1, r7
    8bee:	e8bd 83f8 	ldmia.w	sp!, {r3, r4, r5, r6, r7, r8, r9, pc}
    8bf2:	4620      	mov	r0, r4
    8bf4:	4629      	mov	r1, r5
    8bf6:	f002 f96d 	bl	aed4 <finite>
    8bfa:	2800      	cmp	r0, #0
    8bfc:	d0f5      	beq.n	8bea <pow+0x42>
    8bfe:	4620      	mov	r0, r4
    8c00:	4629      	mov	r1, r5
    8c02:	2200      	movs	r2, #0
    8c04:	2300      	movs	r3, #0
    8c06:	f002 fe97 	bl	b938 <__aeabi_dcmplt>
    8c0a:	2800      	cmp	r0, #0
    8c0c:	d0ed      	beq.n	8bea <pow+0x42>
    8c0e:	e02c      	b.n	8c6a <pow+0xc2>
    8c10:	4630      	mov	r0, r6
    8c12:	4639      	mov	r1, r7
    8c14:	f002 f95e 	bl	aed4 <finite>
    8c18:	b1a0      	cbz	r0, 8c44 <pow+0x9c>
    8c1a:	2200      	movs	r2, #0
    8c1c:	2300      	movs	r3, #0
    8c1e:	4630      	mov	r0, r6
    8c20:	4639      	mov	r1, r7
    8c22:	f002 fe7f 	bl	b924 <__aeabi_dcmpeq>
    8c26:	2800      	cmp	r0, #0
    8c28:	d0df      	beq.n	8bea <pow+0x42>
    8c2a:	4640      	mov	r0, r8
    8c2c:	4649      	mov	r1, r9
    8c2e:	f002 f951 	bl	aed4 <finite>
    8c32:	2800      	cmp	r0, #0
    8c34:	d0d9      	beq.n	8bea <pow+0x42>
    8c36:	4620      	mov	r0, r4
    8c38:	4629      	mov	r1, r5
    8c3a:	f002 f94b 	bl	aed4 <finite>
    8c3e:	2800      	cmp	r0, #0
    8c40:	d0d3      	beq.n	8bea <pow+0x42>
    8c42:	e012      	b.n	8c6a <pow+0xc2>
    8c44:	4640      	mov	r0, r8
    8c46:	4649      	mov	r1, r9
    8c48:	f002 f944 	bl	aed4 <finite>
    8c4c:	2800      	cmp	r0, #0
    8c4e:	d0e4      	beq.n	8c1a <pow+0x72>
    8c50:	4620      	mov	r0, r4
    8c52:	4629      	mov	r1, r5
    8c54:	f002 f93e 	bl	aed4 <finite>
    8c58:	2800      	cmp	r0, #0
    8c5a:	d0de      	beq.n	8c1a <pow+0x72>
    8c5c:	4632      	mov	r2, r6
    8c5e:	463b      	mov	r3, r7
    8c60:	4630      	mov	r0, r6
    8c62:	4639      	mov	r1, r7
    8c64:	f002 fe90 	bl	b988 <__aeabi_dcmpun>
    8c68:	b920      	cbnz	r0, 8c74 <pow+0xcc>
    8c6a:	f002 fecb 	bl	ba04 <__errno>
    8c6e:	2322      	movs	r3, #34	; 0x22
    8c70:	6003      	str	r3, [r0, #0]
    8c72:	e7ba      	b.n	8bea <pow+0x42>
    8c74:	f002 fec6 	bl	ba04 <__errno>
    8c78:	2321      	movs	r3, #33	; 0x21
    8c7a:	6003      	str	r3, [r0, #0]
    8c7c:	e7b5      	b.n	8bea <pow+0x42>
    8c7e:	bf00      	nop
    8c80:	3ff00000 	.word	0x3ff00000

00008c84 <sqrt>:
    8c84:	b5f8      	push	{r3, r4, r5, r6, r7, lr}
    8c86:	4604      	mov	r4, r0
    8c88:	460d      	mov	r5, r1
    8c8a:	f001 fa0f 	bl	a0ac <__ieee754_sqrt>
    8c8e:	4622      	mov	r2, r4
    8c90:	4606      	mov	r6, r0
    8c92:	460f      	mov	r7, r1
    8c94:	462b      	mov	r3, r5
    8c96:	4620      	mov	r0, r4
    8c98:	4629      	mov	r1, r5
    8c9a:	f002 fe75 	bl	b988 <__aeabi_dcmpun>
    8c9e:	b930      	cbnz	r0, 8cae <sqrt+0x2a>
    8ca0:	4620      	mov	r0, r4
    8ca2:	4629      	mov	r1, r5
    8ca4:	2200      	movs	r2, #0
    8ca6:	2300      	movs	r3, #0
    8ca8:	f002 fe46 	bl	b938 <__aeabi_dcmplt>
    8cac:	b910      	cbnz	r0, 8cb4 <sqrt+0x30>
    8cae:	4630      	mov	r0, r6
    8cb0:	4639      	mov	r1, r7
    8cb2:	bdf8      	pop	{r3, r4, r5, r6, r7, pc}
    8cb4:	f002 fea6 	bl	ba04 <__errno>
    8cb8:	2200      	movs	r2, #0
    8cba:	2300      	movs	r3, #0
    8cbc:	2121      	movs	r1, #33	; 0x21
    8cbe:	6001      	str	r1, [r0, #0]
    8cc0:	4610      	mov	r0, r2
    8cc2:	4619      	mov	r1, r3
    8cc4:	f002 fcf0 	bl	b6a8 <__aeabi_ddiv>
    8cc8:	4606      	mov	r6, r0
    8cca:	460f      	mov	r7, r1
    8ccc:	4630      	mov	r0, r6
    8cce:	4639      	mov	r1, r7
    8cd0:	bdf8      	pop	{r3, r4, r5, r6, r7, pc}
    8cd2:	bf00      	nop
    8cd4:	0000      	movs	r0, r0
    8cd6:	0000      	movs	r0, r0

00008cd8 <__ieee754_acos>:
    8cd8:	e92d 4ff8 	stmdb	sp!, {r3, r4, r5, r6, r7, r8, r9, sl, fp, lr}
    8cdc:	4ec4      	ldr	r6, [pc, #784]	; (8ff0 <__ieee754_acos+0x318>)
    8cde:	f021 4300 	bic.w	r3, r1, #2147483648	; 0x80000000
    8ce2:	42b3      	cmp	r3, r6
    8ce4:	4604      	mov	r4, r0
    8ce6:	460d      	mov	r5, r1
    8ce8:	dd0d      	ble.n	8d06 <__ieee754_acos+0x2e>
    8cea:	f103 4340 	add.w	r3, r3, #3221225472	; 0xc0000000
    8cee:	f503 1380 	add.w	r3, r3, #1048576	; 0x100000
    8cf2:	4303      	orrs	r3, r0
    8cf4:	f040 80b9 	bne.w	8e6a <__ieee754_acos+0x192>
    8cf8:	2900      	cmp	r1, #0
    8cfa:	f340 80c0 	ble.w	8e7e <__ieee754_acos+0x1a6>
    8cfe:	2000      	movs	r0, #0
    8d00:	2100      	movs	r1, #0
    8d02:	e8bd 8ff8 	ldmia.w	sp!, {r3, r4, r5, r6, r7, r8, r9, sl, fp, pc}
    8d06:	4ebb      	ldr	r6, [pc, #748]	; (8ff4 <__ieee754_acos+0x31c>)
    8d08:	42b3      	cmp	r3, r6
    8d0a:	dc08      	bgt.n	8d1e <__ieee754_acos+0x46>
    8d0c:	4aba      	ldr	r2, [pc, #744]	; (8ff8 <__ieee754_acos+0x320>)
    8d0e:	4293      	cmp	r3, r2
    8d10:	f300 80ba 	bgt.w	8e88 <__ieee754_acos+0x1b0>
    8d14:	a19c      	add	r1, pc, #624	; (adr r1, 8f88 <__ieee754_acos+0x2b0>)
    8d16:	e9d1 0100 	ldrd	r0, r1, [r1]
    8d1a:	e8bd 8ff8 	ldmia.w	sp!, {r3, r4, r5, r6, r7, r8, r9, sl, fp, pc}
    8d1e:	2900      	cmp	r1, #0
    8d20:	f2c0 8170 	blt.w	9004 <__ieee754_acos+0x32c>
    8d24:	4602      	mov	r2, r0
    8d26:	460b      	mov	r3, r1
    8d28:	2000      	movs	r0, #0
    8d2a:	49b4      	ldr	r1, [pc, #720]	; (8ffc <__ieee754_acos+0x324>)
    8d2c:	f002 f9da 	bl	b0e4 <__aeabi_dsub>
    8d30:	4bb3      	ldr	r3, [pc, #716]	; (9000 <__ieee754_acos+0x328>)
    8d32:	2200      	movs	r2, #0
    8d34:	f002 fb8e 	bl	b454 <__aeabi_dmul>
    8d38:	4604      	mov	r4, r0
    8d3a:	460d      	mov	r5, r1
    8d3c:	f001 f9b6 	bl	a0ac <__ieee754_sqrt>
    8d40:	a393      	add	r3, pc, #588	; (adr r3, 8f90 <__ieee754_acos+0x2b8>)
    8d42:	e9d3 2300 	ldrd	r2, r3, [r3]
    8d46:	4689      	mov	r9, r1
    8d48:	4680      	mov	r8, r0
    8d4a:	4629      	mov	r1, r5
    8d4c:	4620      	mov	r0, r4
    8d4e:	f002 fb81 	bl	b454 <__aeabi_dmul>
    8d52:	a391      	add	r3, pc, #580	; (adr r3, 8f98 <__ieee754_acos+0x2c0>)
    8d54:	e9d3 2300 	ldrd	r2, r3, [r3]
    8d58:	f002 f9c6 	bl	b0e8 <__adddf3>
    8d5c:	4622      	mov	r2, r4
    8d5e:	462b      	mov	r3, r5
    8d60:	f002 fb78 	bl	b454 <__aeabi_dmul>
    8d64:	a38e      	add	r3, pc, #568	; (adr r3, 8fa0 <__ieee754_acos+0x2c8>)
    8d66:	e9d3 2300 	ldrd	r2, r3, [r3]
    8d6a:	f002 f9bb 	bl	b0e4 <__aeabi_dsub>
    8d6e:	4622      	mov	r2, r4
    8d70:	462b      	mov	r3, r5
    8d72:	f002 fb6f 	bl	b454 <__aeabi_dmul>
    8d76:	a38c      	add	r3, pc, #560	; (adr r3, 8fa8 <__ieee754_acos+0x2d0>)
    8d78:	e9d3 2300 	ldrd	r2, r3, [r3]
    8d7c:	f002 f9b4 	bl	b0e8 <__adddf3>
    8d80:	4622      	mov	r2, r4
    8d82:	462b      	mov	r3, r5
    8d84:	f002 fb66 	bl	b454 <__aeabi_dmul>
    8d88:	a389      	add	r3, pc, #548	; (adr r3, 8fb0 <__ieee754_acos+0x2d8>)
    8d8a:	e9d3 2300 	ldrd	r2, r3, [r3]
    8d8e:	f002 f9a9 	bl	b0e4 <__aeabi_dsub>
    8d92:	4622      	mov	r2, r4
    8d94:	462b      	mov	r3, r5
    8d96:	f002 fb5d 	bl	b454 <__aeabi_dmul>
    8d9a:	a387      	add	r3, pc, #540	; (adr r3, 8fb8 <__ieee754_acos+0x2e0>)
    8d9c:	e9d3 2300 	ldrd	r2, r3, [r3]
    8da0:	f002 f9a2 	bl	b0e8 <__adddf3>
    8da4:	4622      	mov	r2, r4
    8da6:	462b      	mov	r3, r5
    8da8:	f002 fb54 	bl	b454 <__aeabi_dmul>
    8dac:	a384      	add	r3, pc, #528	; (adr r3, 8fc0 <__ieee754_acos+0x2e8>)
    8dae:	e9d3 2300 	ldrd	r2, r3, [r3]
    8db2:	4682      	mov	sl, r0
    8db4:	468b      	mov	fp, r1
    8db6:	4620      	mov	r0, r4
    8db8:	4629      	mov	r1, r5
    8dba:	f002 fb4b 	bl	b454 <__aeabi_dmul>
    8dbe:	a382      	add	r3, pc, #520	; (adr r3, 8fc8 <__ieee754_acos+0x2f0>)
    8dc0:	e9d3 2300 	ldrd	r2, r3, [r3]
    8dc4:	f002 f98e 	bl	b0e4 <__aeabi_dsub>
    8dc8:	4622      	mov	r2, r4
    8dca:	462b      	mov	r3, r5
    8dcc:	f002 fb42 	bl	b454 <__aeabi_dmul>
    8dd0:	a37f      	add	r3, pc, #508	; (adr r3, 8fd0 <__ieee754_acos+0x2f8>)
    8dd2:	e9d3 2300 	ldrd	r2, r3, [r3]
    8dd6:	f002 f987 	bl	b0e8 <__adddf3>
    8dda:	4622      	mov	r2, r4
    8ddc:	462b      	mov	r3, r5
    8dde:	f002 fb39 	bl	b454 <__aeabi_dmul>
    8de2:	a37d      	add	r3, pc, #500	; (adr r3, 8fd8 <__ieee754_acos+0x300>)
    8de4:	e9d3 2300 	ldrd	r2, r3, [r3]
    8de8:	f002 f97c 	bl	b0e4 <__aeabi_dsub>
    8dec:	4622      	mov	r2, r4
    8dee:	462b      	mov	r3, r5
    8df0:	f002 fb30 	bl	b454 <__aeabi_dmul>
    8df4:	4b81      	ldr	r3, [pc, #516]	; (8ffc <__ieee754_acos+0x324>)
    8df6:	2200      	movs	r2, #0
    8df8:	f002 f976 	bl	b0e8 <__adddf3>
    8dfc:	4602      	mov	r2, r0
    8dfe:	460b      	mov	r3, r1
    8e00:	4650      	mov	r0, sl
    8e02:	4659      	mov	r1, fp
    8e04:	f002 fc50 	bl	b6a8 <__aeabi_ddiv>
    8e08:	4642      	mov	r2, r8
    8e0a:	464b      	mov	r3, r9
    8e0c:	f002 fb22 	bl	b454 <__aeabi_dmul>
    8e10:	2600      	movs	r6, #0
    8e12:	4682      	mov	sl, r0
    8e14:	468b      	mov	fp, r1
    8e16:	4632      	mov	r2, r6
    8e18:	464b      	mov	r3, r9
    8e1a:	4630      	mov	r0, r6
    8e1c:	4649      	mov	r1, r9
    8e1e:	f002 fb19 	bl	b454 <__aeabi_dmul>
    8e22:	4602      	mov	r2, r0
    8e24:	460b      	mov	r3, r1
    8e26:	4620      	mov	r0, r4
    8e28:	4629      	mov	r1, r5
    8e2a:	f002 f95b 	bl	b0e4 <__aeabi_dsub>
    8e2e:	4632      	mov	r2, r6
    8e30:	4604      	mov	r4, r0
    8e32:	460d      	mov	r5, r1
    8e34:	464b      	mov	r3, r9
    8e36:	4640      	mov	r0, r8
    8e38:	4649      	mov	r1, r9
    8e3a:	f002 f955 	bl	b0e8 <__adddf3>
    8e3e:	4602      	mov	r2, r0
    8e40:	460b      	mov	r3, r1
    8e42:	4620      	mov	r0, r4
    8e44:	4629      	mov	r1, r5
    8e46:	f002 fc2f 	bl	b6a8 <__aeabi_ddiv>
    8e4a:	4602      	mov	r2, r0
    8e4c:	460b      	mov	r3, r1
    8e4e:	4650      	mov	r0, sl
    8e50:	4659      	mov	r1, fp
    8e52:	f002 f949 	bl	b0e8 <__adddf3>
    8e56:	4632      	mov	r2, r6
    8e58:	464b      	mov	r3, r9
    8e5a:	f002 f945 	bl	b0e8 <__adddf3>
    8e5e:	4602      	mov	r2, r0
    8e60:	460b      	mov	r3, r1
    8e62:	f002 f941 	bl	b0e8 <__adddf3>
    8e66:	e8bd 8ff8 	ldmia.w	sp!, {r3, r4, r5, r6, r7, r8, r9, sl, fp, pc}
    8e6a:	4602      	mov	r2, r0
    8e6c:	460b      	mov	r3, r1
    8e6e:	f002 f939 	bl	b0e4 <__aeabi_dsub>
    8e72:	4602      	mov	r2, r0
    8e74:	460b      	mov	r3, r1
    8e76:	f002 fc17 	bl	b6a8 <__aeabi_ddiv>
    8e7a:	e8bd 8ff8 	ldmia.w	sp!, {r3, r4, r5, r6, r7, r8, r9, sl, fp, pc}
    8e7e:	a158      	add	r1, pc, #352	; (adr r1, 8fe0 <__ieee754_acos+0x308>)
    8e80:	e9d1 0100 	ldrd	r0, r1, [r1]
    8e84:	e8bd 8ff8 	ldmia.w	sp!, {r3, r4, r5, r6, r7, r8, r9, sl, fp, pc}
    8e88:	4602      	mov	r2, r0
    8e8a:	460b      	mov	r3, r1
    8e8c:	f002 fae2 	bl	b454 <__aeabi_dmul>
    8e90:	a33f      	add	r3, pc, #252	; (adr r3, 8f90 <__ieee754_acos+0x2b8>)
    8e92:	e9d3 2300 	ldrd	r2, r3, [r3]
    8e96:	4606      	mov	r6, r0
    8e98:	460f      	mov	r7, r1
    8e9a:	f002 fadb 	bl	b454 <__aeabi_dmul>
    8e9e:	a33e      	add	r3, pc, #248	; (adr r3, 8f98 <__ieee754_acos+0x2c0>)
    8ea0:	e9d3 2300 	ldrd	r2, r3, [r3]
    8ea4:	f002 f920 	bl	b0e8 <__adddf3>
    8ea8:	4632      	mov	r2, r6
    8eaa:	463b      	mov	r3, r7
    8eac:	f002 fad2 	bl	b454 <__aeabi_dmul>
    8eb0:	a33b      	add	r3, pc, #236	; (adr r3, 8fa0 <__ieee754_acos+0x2c8>)
    8eb2:	e9d3 2300 	ldrd	r2, r3, [r3]
    8eb6:	f002 f915 	bl	b0e4 <__aeabi_dsub>
    8eba:	4632      	mov	r2, r6
    8ebc:	463b      	mov	r3, r7
    8ebe:	f002 fac9 	bl	b454 <__aeabi_dmul>
    8ec2:	a339      	add	r3, pc, #228	; (adr r3, 8fa8 <__ieee754_acos+0x2d0>)
    8ec4:	e9d3 2300 	ldrd	r2, r3, [r3]
    8ec8:	f002 f90e 	bl	b0e8 <__adddf3>
    8ecc:	4632      	mov	r2, r6
    8ece:	463b      	mov	r3, r7
    8ed0:	f002 fac0 	bl	b454 <__aeabi_dmul>
    8ed4:	a336      	add	r3, pc, #216	; (adr r3, 8fb0 <__ieee754_acos+0x2d8>)
    8ed6:	e9d3 2300 	ldrd	r2, r3, [r3]
    8eda:	f002 f903 	bl	b0e4 <__aeabi_dsub>
    8ede:	4632      	mov	r2, r6
    8ee0:	463b      	mov	r3, r7
    8ee2:	f002 fab7 	bl	b454 <__aeabi_dmul>
    8ee6:	a334      	add	r3, pc, #208	; (adr r3, 8fb8 <__ieee754_acos+0x2e0>)
    8ee8:	e9d3 2300 	ldrd	r2, r3, [r3]
    8eec:	f002 f8fc 	bl	b0e8 <__adddf3>
    8ef0:	4632      	mov	r2, r6
    8ef2:	463b      	mov	r3, r7
    8ef4:	f002 faae 	bl	b454 <__aeabi_dmul>
    8ef8:	a331      	add	r3, pc, #196	; (adr r3, 8fc0 <__ieee754_acos+0x2e8>)
    8efa:	e9d3 2300 	ldrd	r2, r3, [r3]
    8efe:	4680      	mov	r8, r0
    8f00:	4689      	mov	r9, r1
    8f02:	4630      	mov	r0, r6
    8f04:	4639      	mov	r1, r7
    8f06:	f002 faa5 	bl	b454 <__aeabi_dmul>
    8f0a:	a32f      	add	r3, pc, #188	; (adr r3, 8fc8 <__ieee754_acos+0x2f0>)
    8f0c:	e9d3 2300 	ldrd	r2, r3, [r3]
    8f10:	f002 f8e8 	bl	b0e4 <__aeabi_dsub>
    8f14:	4632      	mov	r2, r6
    8f16:	463b      	mov	r3, r7
    8f18:	f002 fa9c 	bl	b454 <__aeabi_dmul>
    8f1c:	a32c      	add	r3, pc, #176	; (adr r3, 8fd0 <__ieee754_acos+0x2f8>)
    8f1e:	e9d3 2300 	ldrd	r2, r3, [r3]
    8f22:	f002 f8e1 	bl	b0e8 <__adddf3>
    8f26:	4632      	mov	r2, r6
    8f28:	463b      	mov	r3, r7
    8f2a:	f002 fa93 	bl	b454 <__aeabi_dmul>
    8f2e:	a32a      	add	r3, pc, #168	; (adr r3, 8fd8 <__ieee754_acos+0x300>)
    8f30:	e9d3 2300 	ldrd	r2, r3, [r3]
    8f34:	f002 f8d6 	bl	b0e4 <__aeabi_dsub>
    8f38:	4632      	mov	r2, r6
    8f3a:	463b      	mov	r3, r7
    8f3c:	f002 fa8a 	bl	b454 <__aeabi_dmul>
    8f40:	4b2e      	ldr	r3, [pc, #184]	; (8ffc <__ieee754_acos+0x324>)
    8f42:	2200      	movs	r2, #0
    8f44:	f002 f8d0 	bl	b0e8 <__adddf3>
    8f48:	4602      	mov	r2, r0
    8f4a:	460b      	mov	r3, r1
    8f4c:	4640      	mov	r0, r8
    8f4e:	4649      	mov	r1, r9
    8f50:	f002 fbaa 	bl	b6a8 <__aeabi_ddiv>
    8f54:	4622      	mov	r2, r4
    8f56:	462b      	mov	r3, r5
    8f58:	f002 fa7c 	bl	b454 <__aeabi_dmul>
    8f5c:	4602      	mov	r2, r0
    8f5e:	460b      	mov	r3, r1
    8f60:	a121      	add	r1, pc, #132	; (adr r1, 8fe8 <__ieee754_acos+0x310>)
    8f62:	e9d1 0100 	ldrd	r0, r1, [r1]
    8f66:	f002 f8bd 	bl	b0e4 <__aeabi_dsub>
    8f6a:	4602      	mov	r2, r0
    8f6c:	460b      	mov	r3, r1
    8f6e:	4620      	mov	r0, r4
    8f70:	4629      	mov	r1, r5
    8f72:	f002 f8b7 	bl	b0e4 <__aeabi_dsub>
    8f76:	4602      	mov	r2, r0
    8f78:	460b      	mov	r3, r1
    8f7a:	a103      	add	r1, pc, #12	; (adr r1, 8f88 <__ieee754_acos+0x2b0>)
    8f7c:	e9d1 0100 	ldrd	r0, r1, [r1]
    8f80:	f002 f8b0 	bl	b0e4 <__aeabi_dsub>
    8f84:	e8bd 8ff8 	ldmia.w	sp!, {r3, r4, r5, r6, r7, r8, r9, sl, fp, pc}
    8f88:	54442d18 	.word	0x54442d18
    8f8c:	3ff921fb 	.word	0x3ff921fb
    8f90:	0dfdf709 	.word	0x0dfdf709
    8f94:	3f023de1 	.word	0x3f023de1
    8f98:	7501b288 	.word	0x7501b288
    8f9c:	3f49efe0 	.word	0x3f49efe0
    8fa0:	b5688f3b 	.word	0xb5688f3b
    8fa4:	3fa48228 	.word	0x3fa48228
    8fa8:	0e884455 	.word	0x0e884455
    8fac:	3fc9c155 	.word	0x3fc9c155
    8fb0:	03eb6f7d 	.word	0x03eb6f7d
    8fb4:	3fd4d612 	.word	0x3fd4d612
    8fb8:	55555555 	.word	0x55555555
    8fbc:	3fc55555 	.word	0x3fc55555
    8fc0:	b12e9282 	.word	0xb12e9282
    8fc4:	3fb3b8c5 	.word	0x3fb3b8c5
    8fc8:	1b8d0159 	.word	0x1b8d0159
    8fcc:	3fe6066c 	.word	0x3fe6066c
    8fd0:	9c598ac8 	.word	0x9c598ac8
    8fd4:	40002ae5 	.word	0x40002ae5
    8fd8:	1c8a2d4b 	.word	0x1c8a2d4b
    8fdc:	40033a27 	.word	0x40033a27
    8fe0:	54442d18 	.word	0x54442d18
    8fe4:	400921fb 	.word	0x400921fb
    8fe8:	33145c07 	.word	0x33145c07
    8fec:	3c91a626 	.word	0x3c91a626
    8ff0:	3fefffff 	.word	0x3fefffff
    8ff4:	3fdfffff 	.word	0x3fdfffff
    8ff8:	3c600000 	.word	0x3c600000
    8ffc:	3ff00000 	.word	0x3ff00000
    9000:	3fe00000 	.word	0x3fe00000
    9004:	4b5c      	ldr	r3, [pc, #368]	; (9178 <__ieee754_acos+0x4a0>)
    9006:	2200      	movs	r2, #0
    9008:	f002 f86e 	bl	b0e8 <__adddf3>
    900c:	4b5b      	ldr	r3, [pc, #364]	; (917c <__ieee754_acos+0x4a4>)
    900e:	2200      	movs	r2, #0
    9010:	f002 fa20 	bl	b454 <__aeabi_dmul>
    9014:	a340      	add	r3, pc, #256	; (adr r3, 9118 <__ieee754_acos+0x440>)
    9016:	e9d3 2300 	ldrd	r2, r3, [r3]
    901a:	4604      	mov	r4, r0
    901c:	460d      	mov	r5, r1
    901e:	f002 fa19 	bl	b454 <__aeabi_dmul>
    9022:	a33f      	add	r3, pc, #252	; (adr r3, 9120 <__ieee754_acos+0x448>)
    9024:	e9d3 2300 	ldrd	r2, r3, [r3]
    9028:	f002 f85e 	bl	b0e8 <__adddf3>
    902c:	4622      	mov	r2, r4
    902e:	462b      	mov	r3, r5
    9030:	f002 fa10 	bl	b454 <__aeabi_dmul>
    9034:	a33c      	add	r3, pc, #240	; (adr r3, 9128 <__ieee754_acos+0x450>)
    9036:	e9d3 2300 	ldrd	r2, r3, [r3]
    903a:	f002 f853 	bl	b0e4 <__aeabi_dsub>
    903e:	4622      	mov	r2, r4
    9040:	462b      	mov	r3, r5
    9042:	f002 fa07 	bl	b454 <__aeabi_dmul>
    9046:	a33a      	add	r3, pc, #232	; (adr r3, 9130 <__ieee754_acos+0x458>)
    9048:	e9d3 2300 	ldrd	r2, r3, [r3]
    904c:	f002 f84c 	bl	b0e8 <__adddf3>
    9050:	4622      	mov	r2, r4
    9052:	462b      	mov	r3, r5
    9054:	f002 f9fe 	bl	b454 <__aeabi_dmul>
    9058:	a337      	add	r3, pc, #220	; (adr r3, 9138 <__ieee754_acos+0x460>)
    905a:	e9d3 2300 	ldrd	r2, r3, [r3]
    905e:	f002 f841 	bl	b0e4 <__aeabi_dsub>
    9062:	4622      	mov	r2, r4
    9064:	462b      	mov	r3, r5
    9066:	f002 f9f5 	bl	b454 <__aeabi_dmul>
    906a:	a335      	add	r3, pc, #212	; (adr r3, 9140 <__ieee754_acos+0x468>)
    906c:	e9d3 2300 	ldrd	r2, r3, [r3]
    9070:	f002 f83a 	bl	b0e8 <__adddf3>
    9074:	4622      	mov	r2, r4
    9076:	462b      	mov	r3, r5
    9078:	f002 f9ec 	bl	b454 <__aeabi_dmul>
    907c:	4680      	mov	r8, r0
    907e:	4689      	mov	r9, r1
    9080:	4620      	mov	r0, r4
    9082:	4629      	mov	r1, r5
    9084:	f001 f812 	bl	a0ac <__ieee754_sqrt>
    9088:	a32f      	add	r3, pc, #188	; (adr r3, 9148 <__ieee754_acos+0x470>)
    908a:	e9d3 2300 	ldrd	r2, r3, [r3]
    908e:	4606      	mov	r6, r0
    9090:	460f      	mov	r7, r1
    9092:	4620      	mov	r0, r4
    9094:	4629      	mov	r1, r5
    9096:	f002 f9dd 	bl	b454 <__aeabi_dmul>
    909a:	a32d      	add	r3, pc, #180	; (adr r3, 9150 <__ieee754_acos+0x478>)
    909c:	e9d3 2300 	ldrd	r2, r3, [r3]
    90a0:	f002 f820 	bl	b0e4 <__aeabi_dsub>
    90a4:	4622      	mov	r2, r4
    90a6:	462b      	mov	r3, r5
    90a8:	f002 f9d4 	bl	b454 <__aeabi_dmul>
    90ac:	a32a      	add	r3, pc, #168	; (adr r3, 9158 <__ieee754_acos+0x480>)
    90ae:	e9d3 2300 	ldrd	r2, r3, [r3]
    90b2:	f002 f819 	bl	b0e8 <__adddf3>
    90b6:	4622      	mov	r2, r4
    90b8:	462b      	mov	r3, r5
    90ba:	f002 f9cb 	bl	b454 <__aeabi_dmul>
    90be:	a328      	add	r3, pc, #160	; (adr r3, 9160 <__ieee754_acos+0x488>)
    90c0:	e9d3 2300 	ldrd	r2, r3, [r3]
    90c4:	f002 f80e 	bl	b0e4 <__aeabi_dsub>
    90c8:	4622      	mov	r2, r4
    90ca:	462b      	mov	r3, r5
    90cc:	f002 f9c2 	bl	b454 <__aeabi_dmul>
    90d0:	4b29      	ldr	r3, [pc, #164]	; (9178 <__ieee754_acos+0x4a0>)
    90d2:	2200      	movs	r2, #0
    90d4:	f002 f808 	bl	b0e8 <__adddf3>
    90d8:	4602      	mov	r2, r0
    90da:	460b      	mov	r3, r1
    90dc:	4640      	mov	r0, r8
    90de:	4649      	mov	r1, r9
    90e0:	f002 fae2 	bl	b6a8 <__aeabi_ddiv>
    90e4:	4632      	mov	r2, r6
    90e6:	463b      	mov	r3, r7
    90e8:	f002 f9b4 	bl	b454 <__aeabi_dmul>
    90ec:	a31e      	add	r3, pc, #120	; (adr r3, 9168 <__ieee754_acos+0x490>)
    90ee:	e9d3 2300 	ldrd	r2, r3, [r3]
    90f2:	f001 fff7 	bl	b0e4 <__aeabi_dsub>
    90f6:	4632      	mov	r2, r6
    90f8:	463b      	mov	r3, r7
    90fa:	f001 fff5 	bl	b0e8 <__adddf3>
    90fe:	4602      	mov	r2, r0
    9100:	460b      	mov	r3, r1
    9102:	f001 fff1 	bl	b0e8 <__adddf3>
    9106:	4602      	mov	r2, r0
    9108:	460b      	mov	r3, r1
    910a:	a119      	add	r1, pc, #100	; (adr r1, 9170 <__ieee754_acos+0x498>)
    910c:	e9d1 0100 	ldrd	r0, r1, [r1]
    9110:	f001 ffe8 	bl	b0e4 <__aeabi_dsub>
    9114:	e8bd 8ff8 	ldmia.w	sp!, {r3, r4, r5, r6, r7, r8, r9, sl, fp, pc}
    9118:	0dfdf709 	.word	0x0dfdf709
    911c:	3f023de1 	.word	0x3f023de1
    9120:	7501b288 	.word	0x7501b288
    9124:	3f49efe0 	.word	0x3f49efe0
    9128:	b5688f3b 	.word	0xb5688f3b
    912c:	3fa48228 	.word	0x3fa48228
    9130:	0e884455 	.word	0x0e884455
    9134:	3fc9c155 	.word	0x3fc9c155
    9138:	03eb6f7d 	.word	0x03eb6f7d
    913c:	3fd4d612 	.word	0x3fd4d612
    9140:	55555555 	.word	0x55555555
    9144:	3fc55555 	.word	0x3fc55555
    9148:	b12e9282 	.word	0xb12e9282
    914c:	3fb3b8c5 	.word	0x3fb3b8c5
    9150:	1b8d0159 	.word	0x1b8d0159
    9154:	3fe6066c 	.word	0x3fe6066c
    9158:	9c598ac8 	.word	0x9c598ac8
    915c:	40002ae5 	.word	0x40002ae5
    9160:	1c8a2d4b 	.word	0x1c8a2d4b
    9164:	40033a27 	.word	0x40033a27
    9168:	33145c07 	.word	0x33145c07
    916c:	3c91a626 	.word	0x3c91a626
    9170:	54442d18 	.word	0x54442d18
    9174:	400921fb 	.word	0x400921fb
    9178:	3ff00000 	.word	0x3ff00000
    917c:	3fe00000 	.word	0x3fe00000

00009180 <__ieee754_pow>:
    9180:	e92d 4ff0 	stmdb	sp!, {r4, r5, r6, r7, r8, r9, sl, fp, lr}
    9184:	f023 4b00 	bic.w	fp, r3, #2147483648	; 0x80000000
    9188:	4688      	mov	r8, r1
    918a:	ea5b 0102 	orrs.w	r1, fp, r2
    918e:	b093      	sub	sp, #76	; 0x4c
    9190:	4614      	mov	r4, r2
    9192:	461d      	mov	r5, r3
    9194:	4607      	mov	r7, r0
    9196:	d111      	bne.n	91bc <__ieee754_pow+0x3c>
    9198:	1803      	adds	r3, r0, r0
    919a:	f488 2200 	eor.w	r2, r8, #524288	; 0x80000
    919e:	4875      	ldr	r0, [pc, #468]	; (9374 <__ieee754_pow+0x1f4>)
    91a0:	4152      	adcs	r2, r2
    91a2:	4299      	cmp	r1, r3
    91a4:	eb70 0302 	sbcs.w	r3, r0, r2
    91a8:	d220      	bcs.n	91ec <__ieee754_pow+0x6c>
    91aa:	4638      	mov	r0, r7
    91ac:	4641      	mov	r1, r8
    91ae:	4622      	mov	r2, r4
    91b0:	462b      	mov	r3, r5
    91b2:	f001 ff99 	bl	b0e8 <__adddf3>
    91b6:	b013      	add	sp, #76	; 0x4c
    91b8:	e8bd 8ff0 	ldmia.w	sp!, {r4, r5, r6, r7, r8, r9, sl, fp, pc}
    91bc:	4610      	mov	r0, r2
    91be:	4a6e      	ldr	r2, [pc, #440]	; (9378 <__ieee754_pow+0x1f8>)
    91c0:	f028 4900 	bic.w	r9, r8, #2147483648	; 0x80000000
    91c4:	4591      	cmp	r9, r2
    91c6:	469a      	mov	sl, r3
    91c8:	4646      	mov	r6, r8
    91ca:	463b      	mov	r3, r7
    91cc:	dd15      	ble.n	91fa <__ieee754_pow+0x7a>
    91ce:	f106 4640 	add.w	r6, r6, #3221225472	; 0xc0000000
    91d2:	f506 1680 	add.w	r6, r6, #1048576	; 0x100000
    91d6:	431e      	orrs	r6, r3
    91d8:	d1e7      	bne.n	91aa <__ieee754_pow+0x2a>
    91da:	1923      	adds	r3, r4, r4
    91dc:	4965      	ldr	r1, [pc, #404]	; (9374 <__ieee754_pow+0x1f4>)
    91de:	f485 2200 	eor.w	r2, r5, #524288	; 0x80000
    91e2:	4152      	adcs	r2, r2
    91e4:	429e      	cmp	r6, r3
    91e6:	eb71 0302 	sbcs.w	r3, r1, r2
    91ea:	d3de      	bcc.n	91aa <__ieee754_pow+0x2a>
    91ec:	4c63      	ldr	r4, [pc, #396]	; (937c <__ieee754_pow+0x1fc>)
    91ee:	2300      	movs	r3, #0
    91f0:	4618      	mov	r0, r3
    91f2:	4621      	mov	r1, r4
    91f4:	b013      	add	sp, #76	; 0x4c
    91f6:	e8bd 8ff0 	ldmia.w	sp!, {r4, r5, r6, r7, r8, r9, sl, fp, pc}
    91fa:	d03e      	beq.n	927a <__ieee754_pow+0xfa>
    91fc:	4a5e      	ldr	r2, [pc, #376]	; (9378 <__ieee754_pow+0x1f8>)
    91fe:	4593      	cmp	fp, r2
    9200:	dce5      	bgt.n	91ce <__ieee754_pow+0x4e>
    9202:	f000 8088 	beq.w	9316 <__ieee754_pow+0x196>
    9206:	2e00      	cmp	r6, #0
    9208:	db69      	blt.n	92de <__ieee754_pow+0x15e>
    920a:	2200      	movs	r2, #0
    920c:	9200      	str	r2, [sp, #0]
    920e:	b978      	cbnz	r0, 9230 <__ieee754_pow+0xb0>
    9210:	4a59      	ldr	r2, [pc, #356]	; (9378 <__ieee754_pow+0x1f8>)
    9212:	4593      	cmp	fp, r2
    9214:	f000 8083 	beq.w	931e <__ieee754_pow+0x19e>
    9218:	4a58      	ldr	r2, [pc, #352]	; (937c <__ieee754_pow+0x1fc>)
    921a:	4593      	cmp	fp, r2
    921c:	f000 8097 	beq.w	934e <__ieee754_pow+0x1ce>
    9220:	f1ba 4f80 	cmp.w	sl, #1073741824	; 0x40000000
    9224:	f000 8495 	beq.w	9b52 <__ieee754_pow+0x9d2>
    9228:	4a55      	ldr	r2, [pc, #340]	; (9380 <__ieee754_pow+0x200>)
    922a:	4592      	cmp	sl, r2
    922c:	f000 83b5 	beq.w	999a <__ieee754_pow+0x81a>
    9230:	4638      	mov	r0, r7
    9232:	4641      	mov	r1, r8
    9234:	9302      	str	r3, [sp, #8]
    9236:	f001 fe49 	bl	aecc <fabs>
    923a:	9b02      	ldr	r3, [sp, #8]
    923c:	b34b      	cbz	r3, 9292 <__ieee754_pow+0x112>
    923e:	9a00      	ldr	r2, [sp, #0]
    9240:	0ff3      	lsrs	r3, r6, #31
    9242:	3b01      	subs	r3, #1
    9244:	930a      	str	r3, [sp, #40]	; 0x28
    9246:	4313      	orrs	r3, r2
    9248:	f000 8088 	beq.w	935c <__ieee754_pow+0x1dc>
    924c:	4b4d      	ldr	r3, [pc, #308]	; (9384 <__ieee754_pow+0x204>)
    924e:	459b      	cmp	fp, r3
    9250:	f340 809e 	ble.w	9390 <__ieee754_pow+0x210>
    9254:	f103 7304 	add.w	r3, r3, #34603008	; 0x2100000
    9258:	459b      	cmp	fp, r3
    925a:	4b4b      	ldr	r3, [pc, #300]	; (9388 <__ieee754_pow+0x208>)
    925c:	f340 840c 	ble.w	9a78 <__ieee754_pow+0x8f8>
    9260:	4599      	cmp	r9, r3
    9262:	f340 8486 	ble.w	9b72 <__ieee754_pow+0x9f2>
    9266:	f1ba 0f00 	cmp.w	sl, #0
    926a:	f340 8486 	ble.w	9b7a <__ieee754_pow+0x9fa>
    926e:	2000      	movs	r0, #0
    9270:	b013      	add	sp, #76	; 0x4c
    9272:	e8bd 4ff0 	ldmia.w	sp!, {r4, r5, r6, r7, r8, r9, sl, fp, lr}
    9276:	f001 be23 	b.w	aec0 <__math_oflow>
    927a:	2f00      	cmp	r7, #0
    927c:	d195      	bne.n	91aa <__ieee754_pow+0x2a>
    927e:	e7bd      	b.n	91fc <__ieee754_pow+0x7c>
    9280:	4638      	mov	r0, r7
    9282:	4641      	mov	r1, r8
    9284:	9300      	str	r3, [sp, #0]
    9286:	f001 fe21 	bl	aecc <fabs>
    928a:	9b00      	ldr	r3, [sp, #0]
    928c:	2b00      	cmp	r3, #0
    928e:	d165      	bne.n	935c <__ieee754_pow+0x1dc>
    9290:	9300      	str	r3, [sp, #0]
    9292:	f1b9 0f00 	cmp.w	r9, #0
    9296:	d004      	beq.n	92a2 <__ieee754_pow+0x122>
    9298:	4b38      	ldr	r3, [pc, #224]	; (937c <__ieee754_pow+0x1fc>)
    929a:	f026 4240 	bic.w	r2, r6, #3221225472	; 0xc0000000
    929e:	429a      	cmp	r2, r3
    92a0:	d1cd      	bne.n	923e <__ieee754_pow+0xbe>
    92a2:	f1ba 0f00 	cmp.w	sl, #0
    92a6:	da05      	bge.n	92b4 <__ieee754_pow+0x134>
    92a8:	4602      	mov	r2, r0
    92aa:	460b      	mov	r3, r1
    92ac:	2000      	movs	r0, #0
    92ae:	4933      	ldr	r1, [pc, #204]	; (937c <__ieee754_pow+0x1fc>)
    92b0:	f002 f9fa 	bl	b6a8 <__aeabi_ddiv>
    92b4:	2e00      	cmp	r6, #0
    92b6:	f6bf af7e 	bge.w	91b6 <__ieee754_pow+0x36>
    92ba:	9b00      	ldr	r3, [sp, #0]
    92bc:	f109 4940 	add.w	r9, r9, #3221225472	; 0xc0000000
    92c0:	f509 1980 	add.w	r9, r9, #1048576	; 0x100000
    92c4:	ea59 0303 	orrs.w	r3, r9, r3
    92c8:	f040 8467 	bne.w	9b9a <__ieee754_pow+0xa1a>
    92cc:	4602      	mov	r2, r0
    92ce:	460b      	mov	r3, r1
    92d0:	f001 ff08 	bl	b0e4 <__aeabi_dsub>
    92d4:	4602      	mov	r2, r0
    92d6:	460b      	mov	r3, r1
    92d8:	f002 f9e6 	bl	b6a8 <__aeabi_ddiv>
    92dc:	e76b      	b.n	91b6 <__ieee754_pow+0x36>
    92de:	4a2b      	ldr	r2, [pc, #172]	; (938c <__ieee754_pow+0x20c>)
    92e0:	4593      	cmp	fp, r2
    92e2:	dc2e      	bgt.n	9342 <__ieee754_pow+0x1c2>
    92e4:	f1a2 7254 	sub.w	r2, r2, #55574528	; 0x3500000
    92e8:	4593      	cmp	fp, r2
    92ea:	dd0f      	ble.n	930c <__ieee754_pow+0x18c>
    92ec:	ea4f 522b 	mov.w	r2, fp, asr #20
    92f0:	f2a2 32ff 	subw	r2, r2, #1023	; 0x3ff
    92f4:	2a14      	cmp	r2, #20
    92f6:	f340 8442 	ble.w	9b7e <__ieee754_pow+0x9fe>
    92fa:	f1c2 0234 	rsb	r2, r2, #52	; 0x34
    92fe:	fa20 f102 	lsr.w	r1, r0, r2
    9302:	fa01 f202 	lsl.w	r2, r1, r2
    9306:	4282      	cmp	r2, r0
    9308:	f000 8470 	beq.w	9bec <__ieee754_pow+0xa6c>
    930c:	2200      	movs	r2, #0
    930e:	9200      	str	r2, [sp, #0]
    9310:	2800      	cmp	r0, #0
    9312:	d081      	beq.n	9218 <__ieee754_pow+0x98>
    9314:	e78c      	b.n	9230 <__ieee754_pow+0xb0>
    9316:	2800      	cmp	r0, #0
    9318:	f43f af75 	beq.w	9206 <__ieee754_pow+0x86>
    931c:	e757      	b.n	91ce <__ieee754_pow+0x4e>
    931e:	f109 4240 	add.w	r2, r9, #3221225472	; 0xc0000000
    9322:	f502 1280 	add.w	r2, r2, #1048576	; 0x100000
    9326:	4313      	orrs	r3, r2
    9328:	f43f af60 	beq.w	91ec <__ieee754_pow+0x6c>
    932c:	4b16      	ldr	r3, [pc, #88]	; (9388 <__ieee754_pow+0x208>)
    932e:	4599      	cmp	r9, r3
    9330:	f340 8367 	ble.w	9a02 <__ieee754_pow+0x882>
    9334:	f1ba 0f00 	cmp.w	sl, #0
    9338:	f2c0 835d 	blt.w	99f6 <__ieee754_pow+0x876>
    933c:	4620      	mov	r0, r4
    933e:	4629      	mov	r1, r5
    9340:	e739      	b.n	91b6 <__ieee754_pow+0x36>
    9342:	2202      	movs	r2, #2
    9344:	9200      	str	r2, [sp, #0]
    9346:	2800      	cmp	r0, #0
    9348:	f43f af62 	beq.w	9210 <__ieee754_pow+0x90>
    934c:	e770      	b.n	9230 <__ieee754_pow+0xb0>
    934e:	f1ba 0f00 	cmp.w	sl, #0
    9352:	f2c0 83f6 	blt.w	9b42 <__ieee754_pow+0x9c2>
    9356:	4638      	mov	r0, r7
    9358:	4641      	mov	r1, r8
    935a:	e72c      	b.n	91b6 <__ieee754_pow+0x36>
    935c:	463a      	mov	r2, r7
    935e:	4643      	mov	r3, r8
    9360:	4638      	mov	r0, r7
    9362:	4641      	mov	r1, r8
    9364:	f001 febe 	bl	b0e4 <__aeabi_dsub>
    9368:	4602      	mov	r2, r0
    936a:	460b      	mov	r3, r1
    936c:	f002 f99c 	bl	b6a8 <__aeabi_ddiv>
    9370:	e721      	b.n	91b6 <__ieee754_pow+0x36>
    9372:	bf00      	nop
    9374:	fff00000 	.word	0xfff00000
    9378:	7ff00000 	.word	0x7ff00000
    937c:	3ff00000 	.word	0x3ff00000
    9380:	3fe00000 	.word	0x3fe00000
    9384:	41e00000 	.word	0x41e00000
    9388:	3fefffff 	.word	0x3fefffff
    938c:	433fffff 	.word	0x433fffff
    9390:	4bd5      	ldr	r3, [pc, #852]	; (96e8 <__ieee754_pow+0x568>)
    9392:	4033      	ands	r3, r6
    9394:	2200      	movs	r2, #0
    9396:	b92b      	cbnz	r3, 93a4 <__ieee754_pow+0x224>
    9398:	4bd4      	ldr	r3, [pc, #848]	; (96ec <__ieee754_pow+0x56c>)
    939a:	f002 f85b 	bl	b454 <__aeabi_dmul>
    939e:	f06f 0234 	mvn.w	r2, #52	; 0x34
    93a2:	4689      	mov	r9, r1
    93a4:	ea4f 5329 	mov.w	r3, r9, asr #20
    93a8:	f2a3 33ff 	subw	r3, r3, #1023	; 0x3ff
    93ac:	189a      	adds	r2, r3, r2
    93ae:	4bd0      	ldr	r3, [pc, #832]	; (96f0 <__ieee754_pow+0x570>)
    93b0:	920b      	str	r2, [sp, #44]	; 0x2c
    93b2:	f3c9 0913 	ubfx	r9, r9, #0, #20
    93b6:	f049 567f 	orr.w	r6, r9, #1069547520	; 0x3fc00000
    93ba:	4599      	cmp	r9, r3
    93bc:	f446 1640 	orr.w	r6, r6, #3145728	; 0x300000
    93c0:	dd07      	ble.n	93d2 <__ieee754_pow+0x252>
    93c2:	4bcc      	ldr	r3, [pc, #816]	; (96f4 <__ieee754_pow+0x574>)
    93c4:	4599      	cmp	r9, r3
    93c6:	f340 83f1 	ble.w	9bac <__ieee754_pow+0xa2c>
    93ca:	3201      	adds	r2, #1
    93cc:	920b      	str	r2, [sp, #44]	; 0x2c
    93ce:	f5a6 1680 	sub.w	r6, r6, #1048576	; 0x100000
    93d2:	2200      	movs	r2, #0
    93d4:	2300      	movs	r3, #0
    93d6:	e9cd 2308 	strd	r2, r3, [sp, #32]
    93da:	e9cd 2310 	strd	r2, r3, [sp, #64]	; 0x40
    93de:	4bc6      	ldr	r3, [pc, #792]	; (96f8 <__ieee754_pow+0x578>)
    93e0:	2200      	movs	r2, #0
    93e2:	e9cd 2306 	strd	r2, r3, [sp, #24]
    93e6:	2700      	movs	r7, #0
    93e8:	e9dd 2306 	ldrd	r2, r3, [sp, #24]
    93ec:	4631      	mov	r1, r6
    93ee:	4682      	mov	sl, r0
    93f0:	f001 fe78 	bl	b0e4 <__aeabi_dsub>
    93f4:	46b3      	mov	fp, r6
    93f6:	e9dd 2306 	ldrd	r2, r3, [sp, #24]
    93fa:	4680      	mov	r8, r0
    93fc:	4689      	mov	r9, r1
    93fe:	4650      	mov	r0, sl
    9400:	4631      	mov	r1, r6
    9402:	e9cd ab0c 	strd	sl, fp, [sp, #48]	; 0x30
    9406:	f001 fe6f 	bl	b0e8 <__adddf3>
    940a:	4602      	mov	r2, r0
    940c:	460b      	mov	r3, r1
    940e:	2000      	movs	r0, #0
    9410:	49b9      	ldr	r1, [pc, #740]	; (96f8 <__ieee754_pow+0x578>)
    9412:	f002 f949 	bl	b6a8 <__aeabi_ddiv>
    9416:	460a      	mov	r2, r1
    9418:	4601      	mov	r1, r0
    941a:	e9cd 120e 	strd	r1, r2, [sp, #56]	; 0x38
    941e:	4613      	mov	r3, r2
    9420:	4649      	mov	r1, r9
    9422:	4602      	mov	r2, r0
    9424:	4640      	mov	r0, r8
    9426:	f002 f815 	bl	b454 <__aeabi_dmul>
    942a:	460a      	mov	r2, r1
    942c:	4683      	mov	fp, r0
    942e:	4694      	mov	ip, r2
    9430:	e9cd bc02 	strd	fp, ip, [sp, #8]
    9434:	f04f 0c00 	mov.w	ip, #0
    9438:	f8cd c008 	str.w	ip, [sp, #8]
    943c:	1076      	asrs	r6, r6, #1
    943e:	e9dd ab02 	ldrd	sl, fp, [sp, #8]
    9442:	f046 5600 	orr.w	r6, r6, #536870912	; 0x20000000
    9446:	4601      	mov	r1, r0
    9448:	f506 2300 	add.w	r3, r6, #524288	; 0x80000
    944c:	e9cd 1204 	strd	r1, r2, [sp, #16]
    9450:	2000      	movs	r0, #0
    9452:	19d9      	adds	r1, r3, r7
    9454:	4606      	mov	r6, r0
    9456:	460f      	mov	r7, r1
    9458:	4602      	mov	r2, r0
    945a:	460b      	mov	r3, r1
    945c:	4650      	mov	r0, sl
    945e:	4659      	mov	r1, fp
    9460:	f001 fff8 	bl	b454 <__aeabi_dmul>
    9464:	4602      	mov	r2, r0
    9466:	460b      	mov	r3, r1
    9468:	4640      	mov	r0, r8
    946a:	4649      	mov	r1, r9
    946c:	f001 fe3a 	bl	b0e4 <__aeabi_dsub>
    9470:	e9dd 2306 	ldrd	r2, r3, [sp, #24]
    9474:	4680      	mov	r8, r0
    9476:	4689      	mov	r9, r1
    9478:	4630      	mov	r0, r6
    947a:	4639      	mov	r1, r7
    947c:	f001 fe32 	bl	b0e4 <__aeabi_dsub>
    9480:	4602      	mov	r2, r0
    9482:	460b      	mov	r3, r1
    9484:	e9dd 010c 	ldrd	r0, r1, [sp, #48]	; 0x30
    9488:	f001 fe2c 	bl	b0e4 <__aeabi_dsub>
    948c:	4652      	mov	r2, sl
    948e:	465b      	mov	r3, fp
    9490:	f001 ffe0 	bl	b454 <__aeabi_dmul>
    9494:	4602      	mov	r2, r0
    9496:	460b      	mov	r3, r1
    9498:	4640      	mov	r0, r8
    949a:	4649      	mov	r1, r9
    949c:	f001 fe22 	bl	b0e4 <__aeabi_dsub>
    94a0:	e9dd 230e 	ldrd	r2, r3, [sp, #56]	; 0x38
    94a4:	f001 ffd6 	bl	b454 <__aeabi_dmul>
    94a8:	e9dd 6704 	ldrd	r6, r7, [sp, #16]
    94ac:	e9cd 0106 	strd	r0, r1, [sp, #24]
    94b0:	4632      	mov	r2, r6
    94b2:	463b      	mov	r3, r7
    94b4:	4630      	mov	r0, r6
    94b6:	4639      	mov	r1, r7
    94b8:	f001 ffcc 	bl	b454 <__aeabi_dmul>
    94bc:	a378      	add	r3, pc, #480	; (adr r3, 96a0 <__ieee754_pow+0x520>)
    94be:	e9d3 2300 	ldrd	r2, r3, [r3]
    94c2:	4606      	mov	r6, r0
    94c4:	460f      	mov	r7, r1
    94c6:	f001 ffc5 	bl	b454 <__aeabi_dmul>
    94ca:	a377      	add	r3, pc, #476	; (adr r3, 96a8 <__ieee754_pow+0x528>)
    94cc:	e9d3 2300 	ldrd	r2, r3, [r3]
    94d0:	f001 fe0a 	bl	b0e8 <__adddf3>
    94d4:	4632      	mov	r2, r6
    94d6:	463b      	mov	r3, r7
    94d8:	f001 ffbc 	bl	b454 <__aeabi_dmul>
    94dc:	a374      	add	r3, pc, #464	; (adr r3, 96b0 <__ieee754_pow+0x530>)
    94de:	e9d3 2300 	ldrd	r2, r3, [r3]
    94e2:	f001 fe01 	bl	b0e8 <__adddf3>
    94e6:	4632      	mov	r2, r6
    94e8:	463b      	mov	r3, r7
    94ea:	f001 ffb3 	bl	b454 <__aeabi_dmul>
    94ee:	a372      	add	r3, pc, #456	; (adr r3, 96b8 <__ieee754_pow+0x538>)
    94f0:	e9d3 2300 	ldrd	r2, r3, [r3]
    94f4:	f001 fdf8 	bl	b0e8 <__adddf3>
    94f8:	4632      	mov	r2, r6
    94fa:	463b      	mov	r3, r7
    94fc:	f001 ffaa 	bl	b454 <__aeabi_dmul>
    9500:	a36f      	add	r3, pc, #444	; (adr r3, 96c0 <__ieee754_pow+0x540>)
    9502:	e9d3 2300 	ldrd	r2, r3, [r3]
    9506:	f001 fdef 	bl	b0e8 <__adddf3>
    950a:	4632      	mov	r2, r6
    950c:	463b      	mov	r3, r7
    950e:	f001 ffa1 	bl	b454 <__aeabi_dmul>
    9512:	a36d      	add	r3, pc, #436	; (adr r3, 96c8 <__ieee754_pow+0x548>)
    9514:	e9d3 2300 	ldrd	r2, r3, [r3]
    9518:	f001 fde6 	bl	b0e8 <__adddf3>
    951c:	4632      	mov	r2, r6
    951e:	4680      	mov	r8, r0
    9520:	4689      	mov	r9, r1
    9522:	463b      	mov	r3, r7
    9524:	4630      	mov	r0, r6
    9526:	4639      	mov	r1, r7
    9528:	f001 ff94 	bl	b454 <__aeabi_dmul>
    952c:	4602      	mov	r2, r0
    952e:	460b      	mov	r3, r1
    9530:	4640      	mov	r0, r8
    9532:	4649      	mov	r1, r9
    9534:	f001 ff8e 	bl	b454 <__aeabi_dmul>
    9538:	4652      	mov	r2, sl
    953a:	4606      	mov	r6, r0
    953c:	460f      	mov	r7, r1
    953e:	465b      	mov	r3, fp
    9540:	e9dd 0104 	ldrd	r0, r1, [sp, #16]
    9544:	f001 fdd0 	bl	b0e8 <__adddf3>
    9548:	e9dd 2306 	ldrd	r2, r3, [sp, #24]
    954c:	f001 ff82 	bl	b454 <__aeabi_dmul>
    9550:	4632      	mov	r2, r6
    9552:	463b      	mov	r3, r7
    9554:	f001 fdc8 	bl	b0e8 <__adddf3>
    9558:	4652      	mov	r2, sl
    955a:	4680      	mov	r8, r0
    955c:	4689      	mov	r9, r1
    955e:	465b      	mov	r3, fp
    9560:	4650      	mov	r0, sl
    9562:	4659      	mov	r1, fp
    9564:	f001 ff76 	bl	b454 <__aeabi_dmul>
    9568:	4602      	mov	r2, r0
    956a:	460b      	mov	r3, r1
    956c:	e9cd 230c 	strd	r2, r3, [sp, #48]	; 0x30
    9570:	4b62      	ldr	r3, [pc, #392]	; (96fc <__ieee754_pow+0x57c>)
    9572:	2200      	movs	r2, #0
    9574:	f001 fdb8 	bl	b0e8 <__adddf3>
    9578:	4642      	mov	r2, r8
    957a:	464b      	mov	r3, r9
    957c:	f001 fdb4 	bl	b0e8 <__adddf3>
    9580:	2600      	movs	r6, #0
    9582:	460f      	mov	r7, r1
    9584:	4632      	mov	r2, r6
    9586:	463b      	mov	r3, r7
    9588:	4650      	mov	r0, sl
    958a:	4659      	mov	r1, fp
    958c:	f001 ff62 	bl	b454 <__aeabi_dmul>
    9590:	4b5a      	ldr	r3, [pc, #360]	; (96fc <__ieee754_pow+0x57c>)
    9592:	4682      	mov	sl, r0
    9594:	468b      	mov	fp, r1
    9596:	2200      	movs	r2, #0
    9598:	4630      	mov	r0, r6
    959a:	4639      	mov	r1, r7
    959c:	f001 fda2 	bl	b0e4 <__aeabi_dsub>
    95a0:	e9dd 230c 	ldrd	r2, r3, [sp, #48]	; 0x30
    95a4:	f001 fd9e 	bl	b0e4 <__aeabi_dsub>
    95a8:	4602      	mov	r2, r0
    95aa:	460b      	mov	r3, r1
    95ac:	4640      	mov	r0, r8
    95ae:	4649      	mov	r1, r9
    95b0:	f001 fd98 	bl	b0e4 <__aeabi_dsub>
    95b4:	e9dd 2304 	ldrd	r2, r3, [sp, #16]
    95b8:	f001 ff4c 	bl	b454 <__aeabi_dmul>
    95bc:	4632      	mov	r2, r6
    95be:	4680      	mov	r8, r0
    95c0:	4689      	mov	r9, r1
    95c2:	463b      	mov	r3, r7
    95c4:	e9dd 0106 	ldrd	r0, r1, [sp, #24]
    95c8:	f001 ff44 	bl	b454 <__aeabi_dmul>
    95cc:	4602      	mov	r2, r0
    95ce:	460b      	mov	r3, r1
    95d0:	4640      	mov	r0, r8
    95d2:	4649      	mov	r1, r9
    95d4:	f001 fd88 	bl	b0e8 <__adddf3>
    95d8:	4680      	mov	r8, r0
    95da:	4689      	mov	r9, r1
    95dc:	4602      	mov	r2, r0
    95de:	460b      	mov	r3, r1
    95e0:	4650      	mov	r0, sl
    95e2:	4659      	mov	r1, fp
    95e4:	f001 fd80 	bl	b0e8 <__adddf3>
    95e8:	2600      	movs	r6, #0
    95ea:	a339      	add	r3, pc, #228	; (adr r3, 96d0 <__ieee754_pow+0x550>)
    95ec:	e9d3 2300 	ldrd	r2, r3, [r3]
    95f0:	4630      	mov	r0, r6
    95f2:	460f      	mov	r7, r1
    95f4:	f001 ff2e 	bl	b454 <__aeabi_dmul>
    95f8:	4652      	mov	r2, sl
    95fa:	465b      	mov	r3, fp
    95fc:	4682      	mov	sl, r0
    95fe:	468b      	mov	fp, r1
    9600:	4630      	mov	r0, r6
    9602:	4639      	mov	r1, r7
    9604:	f001 fd6e 	bl	b0e4 <__aeabi_dsub>
    9608:	4602      	mov	r2, r0
    960a:	460b      	mov	r3, r1
    960c:	4640      	mov	r0, r8
    960e:	4649      	mov	r1, r9
    9610:	f001 fd68 	bl	b0e4 <__aeabi_dsub>
    9614:	a330      	add	r3, pc, #192	; (adr r3, 96d8 <__ieee754_pow+0x558>)
    9616:	e9d3 2300 	ldrd	r2, r3, [r3]
    961a:	f001 ff1b 	bl	b454 <__aeabi_dmul>
    961e:	a330      	add	r3, pc, #192	; (adr r3, 96e0 <__ieee754_pow+0x560>)
    9620:	e9d3 2300 	ldrd	r2, r3, [r3]
    9624:	4680      	mov	r8, r0
    9626:	4689      	mov	r9, r1
    9628:	4630      	mov	r0, r6
    962a:	4639      	mov	r1, r7
    962c:	f001 ff12 	bl	b454 <__aeabi_dmul>
    9630:	4602      	mov	r2, r0
    9632:	460b      	mov	r3, r1
    9634:	4640      	mov	r0, r8
    9636:	4649      	mov	r1, r9
    9638:	f001 fd56 	bl	b0e8 <__adddf3>
    963c:	e9dd 2310 	ldrd	r2, r3, [sp, #64]	; 0x40
    9640:	f001 fd52 	bl	b0e8 <__adddf3>
    9644:	4680      	mov	r8, r0
    9646:	980b      	ldr	r0, [sp, #44]	; 0x2c
    9648:	4689      	mov	r9, r1
    964a:	f001 fe99 	bl	b380 <__aeabi_i2d>
    964e:	4642      	mov	r2, r8
    9650:	4606      	mov	r6, r0
    9652:	460f      	mov	r7, r1
    9654:	464b      	mov	r3, r9
    9656:	4650      	mov	r0, sl
    9658:	4659      	mov	r1, fp
    965a:	e9cd ab04 	strd	sl, fp, [sp, #16]
    965e:	f001 fd43 	bl	b0e8 <__adddf3>
    9662:	e9dd 2308 	ldrd	r2, r3, [sp, #32]
    9666:	f001 fd3f 	bl	b0e8 <__adddf3>
    966a:	4632      	mov	r2, r6
    966c:	463b      	mov	r3, r7
    966e:	f001 fd3b 	bl	b0e8 <__adddf3>
    9672:	f04f 0a00 	mov.w	sl, #0
    9676:	4632      	mov	r2, r6
    9678:	463b      	mov	r3, r7
    967a:	4650      	mov	r0, sl
    967c:	468b      	mov	fp, r1
    967e:	f001 fd31 	bl	b0e4 <__aeabi_dsub>
    9682:	e9dd 2308 	ldrd	r2, r3, [sp, #32]
    9686:	f001 fd2d 	bl	b0e4 <__aeabi_dsub>
    968a:	e9dd 2304 	ldrd	r2, r3, [sp, #16]
    968e:	f001 fd29 	bl	b0e4 <__aeabi_dsub>
    9692:	4602      	mov	r2, r0
    9694:	460b      	mov	r3, r1
    9696:	4640      	mov	r0, r8
    9698:	4649      	mov	r1, r9
    969a:	f001 fd23 	bl	b0e4 <__aeabi_dsub>
    969e:	e02f      	b.n	9700 <__ieee754_pow+0x580>
    96a0:	4a454eef 	.word	0x4a454eef
    96a4:	3fca7e28 	.word	0x3fca7e28
    96a8:	93c9db65 	.word	0x93c9db65
    96ac:	3fcd864a 	.word	0x3fcd864a
    96b0:	a91d4101 	.word	0xa91d4101
    96b4:	3fd17460 	.word	0x3fd17460
    96b8:	518f264d 	.word	0x518f264d
    96bc:	3fd55555 	.word	0x3fd55555
    96c0:	db6fabff 	.word	0xdb6fabff
    96c4:	3fdb6db6 	.word	0x3fdb6db6
    96c8:	33333303 	.word	0x33333303
    96cc:	3fe33333 	.word	0x3fe33333
    96d0:	e0000000 	.word	0xe0000000
    96d4:	3feec709 	.word	0x3feec709
    96d8:	dc3a03fd 	.word	0xdc3a03fd
    96dc:	3feec709 	.word	0x3feec709
    96e0:	145b01f5 	.word	0x145b01f5
    96e4:	be3e2fe0 	.word	0xbe3e2fe0
    96e8:	7ff00000 	.word	0x7ff00000
    96ec:	43400000 	.word	0x43400000
    96f0:	0003988e 	.word	0x0003988e
    96f4:	000bb679 	.word	0x000bb679
    96f8:	3ff00000 	.word	0x3ff00000
    96fc:	40080000 	.word	0x40080000
    9700:	e9cd 0102 	strd	r0, r1, [sp, #8]
    9704:	9b00      	ldr	r3, [sp, #0]
    9706:	9a0a      	ldr	r2, [sp, #40]	; 0x28
    9708:	3b01      	subs	r3, #1
    970a:	4313      	orrs	r3, r2
    970c:	bf0c      	ite	eq
    970e:	4bd4      	ldreq	r3, [pc, #848]	; (9a60 <__ieee754_pow+0x8e0>)
    9710:	4bd4      	ldrne	r3, [pc, #848]	; (9a64 <__ieee754_pow+0x8e4>)
    9712:	2200      	movs	r2, #0
    9714:	e9cd 2304 	strd	r2, r3, [sp, #16]
    9718:	2300      	movs	r3, #0
    971a:	e9cd 4500 	strd	r4, r5, [sp]
    971e:	9300      	str	r3, [sp, #0]
    9720:	e9dd 8900 	ldrd	r8, r9, [sp]
    9724:	4620      	mov	r0, r4
    9726:	4642      	mov	r2, r8
    9728:	464b      	mov	r3, r9
    972a:	4629      	mov	r1, r5
    972c:	f001 fcda 	bl	b0e4 <__aeabi_dsub>
    9730:	4652      	mov	r2, sl
    9732:	465b      	mov	r3, fp
    9734:	f001 fe8e 	bl	b454 <__aeabi_dmul>
    9738:	4622      	mov	r2, r4
    973a:	4606      	mov	r6, r0
    973c:	460f      	mov	r7, r1
    973e:	462b      	mov	r3, r5
    9740:	e9dd 0102 	ldrd	r0, r1, [sp, #8]
    9744:	f001 fe86 	bl	b454 <__aeabi_dmul>
    9748:	4602      	mov	r2, r0
    974a:	460b      	mov	r3, r1
    974c:	4630      	mov	r0, r6
    974e:	4639      	mov	r1, r7
    9750:	f001 fcca 	bl	b0e8 <__adddf3>
    9754:	4642      	mov	r2, r8
    9756:	464b      	mov	r3, r9
    9758:	4606      	mov	r6, r0
    975a:	460f      	mov	r7, r1
    975c:	4650      	mov	r0, sl
    975e:	4659      	mov	r1, fp
    9760:	f001 fe78 	bl	b454 <__aeabi_dmul>
    9764:	460b      	mov	r3, r1
    9766:	4602      	mov	r2, r0
    9768:	4604      	mov	r4, r0
    976a:	460d      	mov	r5, r1
    976c:	4630      	mov	r0, r6
    976e:	4639      	mov	r1, r7
    9770:	f001 fcba 	bl	b0e8 <__adddf3>
    9774:	4bbc      	ldr	r3, [pc, #752]	; (9a68 <__ieee754_pow+0x8e8>)
    9776:	4299      	cmp	r1, r3
    9778:	4680      	mov	r8, r0
    977a:	4689      	mov	r9, r1
    977c:	468a      	mov	sl, r1
    977e:	f340 8116 	ble.w	99ae <__ieee754_pow+0x82e>
    9782:	f101 433f 	add.w	r3, r1, #3204448256	; 0xbf000000
    9786:	f503 03e0 	add.w	r3, r3, #7340032	; 0x700000
    978a:	4303      	orrs	r3, r0
    978c:	f040 8223 	bne.w	9bd6 <__ieee754_pow+0xa56>
    9790:	a3a1      	add	r3, pc, #644	; (adr r3, 9a18 <__ieee754_pow+0x898>)
    9792:	e9d3 2300 	ldrd	r2, r3, [r3]
    9796:	4630      	mov	r0, r6
    9798:	4639      	mov	r1, r7
    979a:	f001 fca5 	bl	b0e8 <__adddf3>
    979e:	4622      	mov	r2, r4
    97a0:	e9cd 0100 	strd	r0, r1, [sp]
    97a4:	462b      	mov	r3, r5
    97a6:	4640      	mov	r0, r8
    97a8:	4649      	mov	r1, r9
    97aa:	f001 fc9b 	bl	b0e4 <__aeabi_dsub>
    97ae:	4602      	mov	r2, r0
    97b0:	460b      	mov	r3, r1
    97b2:	e9dd 0100 	ldrd	r0, r1, [sp]
    97b6:	f002 f8dd 	bl	b974 <__aeabi_dcmpgt>
    97ba:	2800      	cmp	r0, #0
    97bc:	f040 820b 	bne.w	9bd6 <__ieee754_pow+0xa56>
    97c0:	f3ca 530a 	ubfx	r3, sl, #20, #11
    97c4:	f44f 1280 	mov.w	r2, #1048576	; 0x100000
    97c8:	f2a3 33fe 	subw	r3, r3, #1022	; 0x3fe
    97cc:	fa42 f303 	asr.w	r3, r2, r3
    97d0:	4453      	add	r3, sl
    97d2:	49a6      	ldr	r1, [pc, #664]	; (9a6c <__ieee754_pow+0x8ec>)
    97d4:	f3c3 520a 	ubfx	r2, r3, #20, #11
    97d8:	f2a2 32ff 	subw	r2, r2, #1023	; 0x3ff
    97dc:	fa41 fc02 	asr.w	ip, r1, r2
    97e0:	f3c3 0113 	ubfx	r1, r3, #0, #20
    97e4:	f1c2 0214 	rsb	r2, r2, #20
    97e8:	f441 1180 	orr.w	r1, r1, #1048576	; 0x100000
    97ec:	fa41 fe02 	asr.w	lr, r1, r2
    97f0:	2000      	movs	r0, #0
    97f2:	ea23 010c 	bic.w	r1, r3, ip
    97f6:	f1ba 0f00 	cmp.w	sl, #0
    97fa:	f8cd e008 	str.w	lr, [sp, #8]
    97fe:	4602      	mov	r2, r0
    9800:	460b      	mov	r3, r1
    9802:	da02      	bge.n	980a <__ieee754_pow+0x68a>
    9804:	4671      	mov	r1, lr
    9806:	4249      	negs	r1, r1
    9808:	9102      	str	r1, [sp, #8]
    980a:	4620      	mov	r0, r4
    980c:	4629      	mov	r1, r5
    980e:	f001 fc69 	bl	b0e4 <__aeabi_dsub>
    9812:	9b02      	ldr	r3, [sp, #8]
    9814:	051b      	lsls	r3, r3, #20
    9816:	9300      	str	r3, [sp, #0]
    9818:	4602      	mov	r2, r0
    981a:	460b      	mov	r3, r1
    981c:	4604      	mov	r4, r0
    981e:	460d      	mov	r5, r1
    9820:	4630      	mov	r0, r6
    9822:	4639      	mov	r1, r7
    9824:	f001 fc60 	bl	b0e8 <__adddf3>
    9828:	4689      	mov	r9, r1
    982a:	f04f 0800 	mov.w	r8, #0
    982e:	a37c      	add	r3, pc, #496	; (adr r3, 9a20 <__ieee754_pow+0x8a0>)
    9830:	e9d3 2300 	ldrd	r2, r3, [r3]
    9834:	4640      	mov	r0, r8
    9836:	4649      	mov	r1, r9
    9838:	f001 fe0c 	bl	b454 <__aeabi_dmul>
    983c:	4622      	mov	r2, r4
    983e:	4682      	mov	sl, r0
    9840:	468b      	mov	fp, r1
    9842:	462b      	mov	r3, r5
    9844:	4640      	mov	r0, r8
    9846:	4649      	mov	r1, r9
    9848:	f001 fc4c 	bl	b0e4 <__aeabi_dsub>
    984c:	4602      	mov	r2, r0
    984e:	460b      	mov	r3, r1
    9850:	4630      	mov	r0, r6
    9852:	4639      	mov	r1, r7
    9854:	f001 fc46 	bl	b0e4 <__aeabi_dsub>
    9858:	a373      	add	r3, pc, #460	; (adr r3, 9a28 <__ieee754_pow+0x8a8>)
    985a:	e9d3 2300 	ldrd	r2, r3, [r3]
    985e:	f001 fdf9 	bl	b454 <__aeabi_dmul>
    9862:	a373      	add	r3, pc, #460	; (adr r3, 9a30 <__ieee754_pow+0x8b0>)
    9864:	e9d3 2300 	ldrd	r2, r3, [r3]
    9868:	4604      	mov	r4, r0
    986a:	460d      	mov	r5, r1
    986c:	4640      	mov	r0, r8
    986e:	4649      	mov	r1, r9
    9870:	f001 fdf0 	bl	b454 <__aeabi_dmul>
    9874:	4602      	mov	r2, r0
    9876:	460b      	mov	r3, r1
    9878:	4620      	mov	r0, r4
    987a:	4629      	mov	r1, r5
    987c:	f001 fc34 	bl	b0e8 <__adddf3>
    9880:	4606      	mov	r6, r0
    9882:	460f      	mov	r7, r1
    9884:	4602      	mov	r2, r0
    9886:	460b      	mov	r3, r1
    9888:	4650      	mov	r0, sl
    988a:	4659      	mov	r1, fp
    988c:	f001 fc2c 	bl	b0e8 <__adddf3>
    9890:	4652      	mov	r2, sl
    9892:	465b      	mov	r3, fp
    9894:	4604      	mov	r4, r0
    9896:	460d      	mov	r5, r1
    9898:	f001 fc24 	bl	b0e4 <__aeabi_dsub>
    989c:	4602      	mov	r2, r0
    989e:	460b      	mov	r3, r1
    98a0:	4630      	mov	r0, r6
    98a2:	4639      	mov	r1, r7
    98a4:	f001 fc1e 	bl	b0e4 <__aeabi_dsub>
    98a8:	4622      	mov	r2, r4
    98aa:	4682      	mov	sl, r0
    98ac:	468b      	mov	fp, r1
    98ae:	462b      	mov	r3, r5
    98b0:	4620      	mov	r0, r4
    98b2:	4629      	mov	r1, r5
    98b4:	f001 fdce 	bl	b454 <__aeabi_dmul>
    98b8:	a35f      	add	r3, pc, #380	; (adr r3, 9a38 <__ieee754_pow+0x8b8>)
    98ba:	e9d3 2300 	ldrd	r2, r3, [r3]
    98be:	4606      	mov	r6, r0
    98c0:	460f      	mov	r7, r1
    98c2:	f001 fdc7 	bl	b454 <__aeabi_dmul>
    98c6:	a35e      	add	r3, pc, #376	; (adr r3, 9a40 <__ieee754_pow+0x8c0>)
    98c8:	e9d3 2300 	ldrd	r2, r3, [r3]
    98cc:	f001 fc0a 	bl	b0e4 <__aeabi_dsub>
    98d0:	4632      	mov	r2, r6
    98d2:	463b      	mov	r3, r7
    98d4:	f001 fdbe 	bl	b454 <__aeabi_dmul>
    98d8:	a35b      	add	r3, pc, #364	; (adr r3, 9a48 <__ieee754_pow+0x8c8>)
    98da:	e9d3 2300 	ldrd	r2, r3, [r3]
    98de:	f001 fc03 	bl	b0e8 <__adddf3>
    98e2:	4632      	mov	r2, r6
    98e4:	463b      	mov	r3, r7
    98e6:	f001 fdb5 	bl	b454 <__aeabi_dmul>
    98ea:	a359      	add	r3, pc, #356	; (adr r3, 9a50 <__ieee754_pow+0x8d0>)
    98ec:	e9d3 2300 	ldrd	r2, r3, [r3]
    98f0:	f001 fbf8 	bl	b0e4 <__aeabi_dsub>
    98f4:	4632      	mov	r2, r6
    98f6:	463b      	mov	r3, r7
    98f8:	f001 fdac 	bl	b454 <__aeabi_dmul>
    98fc:	a356      	add	r3, pc, #344	; (adr r3, 9a58 <__ieee754_pow+0x8d8>)
    98fe:	e9d3 2300 	ldrd	r2, r3, [r3]
    9902:	f001 fbf1 	bl	b0e8 <__adddf3>
    9906:	4632      	mov	r2, r6
    9908:	463b      	mov	r3, r7
    990a:	f001 fda3 	bl	b454 <__aeabi_dmul>
    990e:	4602      	mov	r2, r0
    9910:	460b      	mov	r3, r1
    9912:	4620      	mov	r0, r4
    9914:	4629      	mov	r1, r5
    9916:	f001 fbe5 	bl	b0e4 <__aeabi_dsub>
    991a:	4606      	mov	r6, r0
    991c:	460f      	mov	r7, r1
    991e:	4602      	mov	r2, r0
    9920:	460b      	mov	r3, r1
    9922:	4620      	mov	r0, r4
    9924:	4629      	mov	r1, r5
    9926:	f001 fd95 	bl	b454 <__aeabi_dmul>
    992a:	2200      	movs	r2, #0
    992c:	4680      	mov	r8, r0
    992e:	4689      	mov	r9, r1
    9930:	4630      	mov	r0, r6
    9932:	4639      	mov	r1, r7
    9934:	f04f 4380 	mov.w	r3, #1073741824	; 0x40000000
    9938:	f001 fbd4 	bl	b0e4 <__aeabi_dsub>
    993c:	4602      	mov	r2, r0
    993e:	460b      	mov	r3, r1
    9940:	4640      	mov	r0, r8
    9942:	4649      	mov	r1, r9
    9944:	f001 feb0 	bl	b6a8 <__aeabi_ddiv>
    9948:	4652      	mov	r2, sl
    994a:	4606      	mov	r6, r0
    994c:	460f      	mov	r7, r1
    994e:	465b      	mov	r3, fp
    9950:	4620      	mov	r0, r4
    9952:	4629      	mov	r1, r5
    9954:	f001 fd7e 	bl	b454 <__aeabi_dmul>
    9958:	4652      	mov	r2, sl
    995a:	465b      	mov	r3, fp
    995c:	f001 fbc4 	bl	b0e8 <__adddf3>
    9960:	4602      	mov	r2, r0
    9962:	460b      	mov	r3, r1
    9964:	4630      	mov	r0, r6
    9966:	4639      	mov	r1, r7
    9968:	f001 fbbc 	bl	b0e4 <__aeabi_dsub>
    996c:	4622      	mov	r2, r4
    996e:	462b      	mov	r3, r5
    9970:	f001 fbb8 	bl	b0e4 <__aeabi_dsub>
    9974:	4602      	mov	r2, r0
    9976:	460b      	mov	r3, r1
    9978:	2000      	movs	r0, #0
    997a:	493a      	ldr	r1, [pc, #232]	; (9a64 <__ieee754_pow+0x8e4>)
    997c:	f001 fbb2 	bl	b0e4 <__aeabi_dsub>
    9980:	9d00      	ldr	r5, [sp, #0]
    9982:	460c      	mov	r4, r1
    9984:	442c      	add	r4, r5
    9986:	f5b4 1f80 	cmp.w	r4, #1048576	; 0x100000
    998a:	f2c0 8120 	blt.w	9bce <__ieee754_pow+0xa4e>
    998e:	4621      	mov	r1, r4
    9990:	e9dd 2304 	ldrd	r2, r3, [sp, #16]
    9994:	f001 fd5e 	bl	b454 <__aeabi_dmul>
    9998:	e40d      	b.n	91b6 <__ieee754_pow+0x36>
    999a:	2e00      	cmp	r6, #0
    999c:	f6ff ac48 	blt.w	9230 <__ieee754_pow+0xb0>
    99a0:	4638      	mov	r0, r7
    99a2:	4641      	mov	r1, r8
    99a4:	b013      	add	sp, #76	; 0x4c
    99a6:	e8bd 4ff0 	ldmia.w	sp!, {r4, r5, r6, r7, r8, r9, sl, fp, lr}
    99aa:	f000 bb7f 	b.w	a0ac <__ieee754_sqrt>
    99ae:	f8df c0c0 	ldr.w	ip, [pc, #192]	; 9a70 <__ieee754_pow+0x8f0>
    99b2:	f021 4300 	bic.w	r3, r1, #2147483648	; 0x80000000
    99b6:	4563      	cmp	r3, ip
    99b8:	f340 80d3 	ble.w	9b62 <__ieee754_pow+0x9e2>
    99bc:	4b2d      	ldr	r3, [pc, #180]	; (9a74 <__ieee754_pow+0x8f4>)
    99be:	440b      	add	r3, r1
    99c0:	4303      	orrs	r3, r0
    99c2:	d10a      	bne.n	99da <__ieee754_pow+0x85a>
    99c4:	4622      	mov	r2, r4
    99c6:	462b      	mov	r3, r5
    99c8:	f001 fb8c 	bl	b0e4 <__aeabi_dsub>
    99cc:	4632      	mov	r2, r6
    99ce:	463b      	mov	r3, r7
    99d0:	f001 ffc6 	bl	b960 <__aeabi_dcmpge>
    99d4:	2800      	cmp	r0, #0
    99d6:	f43f aef3 	beq.w	97c0 <__ieee754_pow+0x640>
    99da:	e9dd 0104 	ldrd	r0, r1, [sp, #16]
    99de:	2200      	movs	r2, #0
    99e0:	2300      	movs	r3, #0
    99e2:	f001 ffa9 	bl	b938 <__aeabi_dcmplt>
    99e6:	3800      	subs	r0, #0
    99e8:	bf18      	it	ne
    99ea:	2001      	movne	r0, #1
    99ec:	b013      	add	sp, #76	; 0x4c
    99ee:	e8bd 4ff0 	ldmia.w	sp!, {r4, r5, r6, r7, r8, r9, sl, fp, lr}
    99f2:	f001 ba5f 	b.w	aeb4 <__math_uflow>
    99f6:	2300      	movs	r3, #0
    99f8:	2400      	movs	r4, #0
    99fa:	4618      	mov	r0, r3
    99fc:	4621      	mov	r1, r4
    99fe:	f7ff bbda 	b.w	91b6 <__ieee754_pow+0x36>
    9a02:	f1ba 0f00 	cmp.w	sl, #0
    9a06:	daf6      	bge.n	99f6 <__ieee754_pow+0x876>
    9a08:	f105 4300 	add.w	r3, r5, #2147483648	; 0x80000000
    9a0c:	4620      	mov	r0, r4
    9a0e:	4619      	mov	r1, r3
    9a10:	f7ff bbd1 	b.w	91b6 <__ieee754_pow+0x36>
    9a14:	f3af 8000 	nop.w
    9a18:	652b82fe 	.word	0x652b82fe
    9a1c:	3c971547 	.word	0x3c971547
    9a20:	00000000 	.word	0x00000000
    9a24:	3fe62e43 	.word	0x3fe62e43
    9a28:	fefa39ef 	.word	0xfefa39ef
    9a2c:	3fe62e42 	.word	0x3fe62e42
    9a30:	0ca86c39 	.word	0x0ca86c39
    9a34:	be205c61 	.word	0xbe205c61
    9a38:	72bea4d0 	.word	0x72bea4d0
    9a3c:	3e663769 	.word	0x3e663769
    9a40:	c5d26bf1 	.word	0xc5d26bf1
    9a44:	3ebbbd41 	.word	0x3ebbbd41
    9a48:	af25de2c 	.word	0xaf25de2c
    9a4c:	3f11566a 	.word	0x3f11566a
    9a50:	16bebd93 	.word	0x16bebd93
    9a54:	3f66c16c 	.word	0x3f66c16c
    9a58:	5555553e 	.word	0x5555553e
    9a5c:	3fc55555 	.word	0x3fc55555
    9a60:	bff00000 	.word	0xbff00000
    9a64:	3ff00000 	.word	0x3ff00000
    9a68:	408fffff 	.word	0x408fffff
    9a6c:	000fffff 	.word	0x000fffff
    9a70:	4090cbff 	.word	0x4090cbff
    9a74:	3f6f3400 	.word	0x3f6f3400
    9a78:	4599      	cmp	r9, r3
    9a7a:	db7a      	blt.n	9b72 <__ieee754_pow+0x9f2>
    9a7c:	4b72      	ldr	r3, [pc, #456]	; (9c48 <__ieee754_pow+0xac8>)
    9a7e:	4599      	cmp	r9, r3
    9a80:	f73f abf1 	bgt.w	9266 <__ieee754_pow+0xe6>
    9a84:	4b70      	ldr	r3, [pc, #448]	; (9c48 <__ieee754_pow+0xac8>)
    9a86:	2200      	movs	r2, #0
    9a88:	f001 fb2c 	bl	b0e4 <__aeabi_dsub>
    9a8c:	a362      	add	r3, pc, #392	; (adr r3, 9c18 <__ieee754_pow+0xa98>)
    9a8e:	e9d3 2300 	ldrd	r2, r3, [r3]
    9a92:	4606      	mov	r6, r0
    9a94:	460f      	mov	r7, r1
    9a96:	f001 fcdd 	bl	b454 <__aeabi_dmul>
    9a9a:	a361      	add	r3, pc, #388	; (adr r3, 9c20 <__ieee754_pow+0xaa0>)
    9a9c:	e9d3 2300 	ldrd	r2, r3, [r3]
    9aa0:	4680      	mov	r8, r0
    9aa2:	4689      	mov	r9, r1
    9aa4:	4630      	mov	r0, r6
    9aa6:	4639      	mov	r1, r7
    9aa8:	f001 fcd4 	bl	b454 <__aeabi_dmul>
    9aac:	4b67      	ldr	r3, [pc, #412]	; (9c4c <__ieee754_pow+0xacc>)
    9aae:	4682      	mov	sl, r0
    9ab0:	468b      	mov	fp, r1
    9ab2:	2200      	movs	r2, #0
    9ab4:	4630      	mov	r0, r6
    9ab6:	4639      	mov	r1, r7
    9ab8:	f001 fccc 	bl	b454 <__aeabi_dmul>
    9abc:	4602      	mov	r2, r0
    9abe:	460b      	mov	r3, r1
    9ac0:	a159      	add	r1, pc, #356	; (adr r1, 9c28 <__ieee754_pow+0xaa8>)
    9ac2:	e9d1 0100 	ldrd	r0, r1, [r1]
    9ac6:	f001 fb0d 	bl	b0e4 <__aeabi_dsub>
    9aca:	4632      	mov	r2, r6
    9acc:	463b      	mov	r3, r7
    9ace:	f001 fcc1 	bl	b454 <__aeabi_dmul>
    9ad2:	4602      	mov	r2, r0
    9ad4:	460b      	mov	r3, r1
    9ad6:	2000      	movs	r0, #0
    9ad8:	495d      	ldr	r1, [pc, #372]	; (9c50 <__ieee754_pow+0xad0>)
    9ada:	f001 fb03 	bl	b0e4 <__aeabi_dsub>
    9ade:	4632      	mov	r2, r6
    9ae0:	e9cd 0102 	strd	r0, r1, [sp, #8]
    9ae4:	463b      	mov	r3, r7
    9ae6:	4630      	mov	r0, r6
    9ae8:	4639      	mov	r1, r7
    9aea:	f001 fcb3 	bl	b454 <__aeabi_dmul>
    9aee:	4602      	mov	r2, r0
    9af0:	460b      	mov	r3, r1
    9af2:	e9dd 0102 	ldrd	r0, r1, [sp, #8]
    9af6:	f001 fcad 	bl	b454 <__aeabi_dmul>
    9afa:	a34d      	add	r3, pc, #308	; (adr r3, 9c30 <__ieee754_pow+0xab0>)
    9afc:	e9d3 2300 	ldrd	r2, r3, [r3]
    9b00:	f001 fca8 	bl	b454 <__aeabi_dmul>
    9b04:	4602      	mov	r2, r0
    9b06:	460b      	mov	r3, r1
    9b08:	4650      	mov	r0, sl
    9b0a:	4659      	mov	r1, fp
    9b0c:	f001 faea 	bl	b0e4 <__aeabi_dsub>
    9b10:	4602      	mov	r2, r0
    9b12:	460b      	mov	r3, r1
    9b14:	4606      	mov	r6, r0
    9b16:	460f      	mov	r7, r1
    9b18:	4640      	mov	r0, r8
    9b1a:	4649      	mov	r1, r9
    9b1c:	f001 fae4 	bl	b0e8 <__adddf3>
    9b20:	f04f 0a00 	mov.w	sl, #0
    9b24:	4642      	mov	r2, r8
    9b26:	464b      	mov	r3, r9
    9b28:	4650      	mov	r0, sl
    9b2a:	468b      	mov	fp, r1
    9b2c:	f001 fada 	bl	b0e4 <__aeabi_dsub>
    9b30:	4602      	mov	r2, r0
    9b32:	460b      	mov	r3, r1
    9b34:	4630      	mov	r0, r6
    9b36:	4639      	mov	r1, r7
    9b38:	f001 fad4 	bl	b0e4 <__aeabi_dsub>
    9b3c:	e9cd 0102 	strd	r0, r1, [sp, #8]
    9b40:	e5e0      	b.n	9704 <__ieee754_pow+0x584>
    9b42:	463a      	mov	r2, r7
    9b44:	4643      	mov	r3, r8
    9b46:	4940      	ldr	r1, [pc, #256]	; (9c48 <__ieee754_pow+0xac8>)
    9b48:	2000      	movs	r0, #0
    9b4a:	f001 fdad 	bl	b6a8 <__aeabi_ddiv>
    9b4e:	f7ff bb32 	b.w	91b6 <__ieee754_pow+0x36>
    9b52:	463a      	mov	r2, r7
    9b54:	4638      	mov	r0, r7
    9b56:	4643      	mov	r3, r8
    9b58:	4641      	mov	r1, r8
    9b5a:	f001 fc7b 	bl	b454 <__aeabi_dmul>
    9b5e:	f7ff bb2a 	b.w	91b6 <__ieee754_pow+0x36>
    9b62:	4a3b      	ldr	r2, [pc, #236]	; (9c50 <__ieee754_pow+0xad0>)
    9b64:	4293      	cmp	r3, r2
    9b66:	dc52      	bgt.n	9c0e <__ieee754_pow+0xa8e>
    9b68:	e9dd 2300 	ldrd	r2, r3, [sp]
    9b6c:	9200      	str	r2, [sp, #0]
    9b6e:	9202      	str	r2, [sp, #8]
    9b70:	e65b      	b.n	982a <__ieee754_pow+0x6aa>
    9b72:	f1ba 0f00 	cmp.w	sl, #0
    9b76:	f6ff ab7a 	blt.w	926e <__ieee754_pow+0xee>
    9b7a:	2000      	movs	r0, #0
    9b7c:	e736      	b.n	99ec <__ieee754_pow+0x86c>
    9b7e:	2800      	cmp	r0, #0
    9b80:	f47f ab7e 	bne.w	9280 <__ieee754_pow+0x100>
    9b84:	f1c2 0214 	rsb	r2, r2, #20
    9b88:	fa4b f102 	asr.w	r1, fp, r2
    9b8c:	fa01 f202 	lsl.w	r2, r1, r2
    9b90:	455a      	cmp	r2, fp
    9b92:	d035      	beq.n	9c00 <__ieee754_pow+0xa80>
    9b94:	9000      	str	r0, [sp, #0]
    9b96:	f7ff bb3f 	b.w	9218 <__ieee754_pow+0x98>
    9b9a:	9b00      	ldr	r3, [sp, #0]
    9b9c:	2b01      	cmp	r3, #1
    9b9e:	f47f ab0a 	bne.w	91b6 <__ieee754_pow+0x36>
    9ba2:	f101 4300 	add.w	r3, r1, #2147483648	; 0x80000000
    9ba6:	4619      	mov	r1, r3
    9ba8:	f7ff bb05 	b.w	91b6 <__ieee754_pow+0x36>
    9bac:	a322      	add	r3, pc, #136	; (adr r3, 9c38 <__ieee754_pow+0xab8>)
    9bae:	e9d3 2300 	ldrd	r2, r3, [r3]
    9bb2:	e9cd 2308 	strd	r2, r3, [sp, #32]
    9bb6:	a322      	add	r3, pc, #136	; (adr r3, 9c40 <__ieee754_pow+0xac0>)
    9bb8:	e9d3 2300 	ldrd	r2, r3, [r3]
    9bbc:	e9cd 2310 	strd	r2, r3, [sp, #64]	; 0x40
    9bc0:	4b24      	ldr	r3, [pc, #144]	; (9c54 <__ieee754_pow+0xad4>)
    9bc2:	2200      	movs	r2, #0
    9bc4:	e9cd 2306 	strd	r2, r3, [sp, #24]
    9bc8:	f44f 2780 	mov.w	r7, #262144	; 0x40000
    9bcc:	e40c      	b.n	93e8 <__ieee754_pow+0x268>
    9bce:	9a02      	ldr	r2, [sp, #8]
    9bd0:	f001 fa0a 	bl	afe8 <scalbn>
    9bd4:	e6dc      	b.n	9990 <__ieee754_pow+0x810>
    9bd6:	e9dd 0104 	ldrd	r0, r1, [sp, #16]
    9bda:	2200      	movs	r2, #0
    9bdc:	2300      	movs	r3, #0
    9bde:	f001 feab 	bl	b938 <__aeabi_dcmplt>
    9be2:	3800      	subs	r0, #0
    9be4:	bf18      	it	ne
    9be6:	2001      	movne	r0, #1
    9be8:	f7ff bb42 	b.w	9270 <__ieee754_pow+0xf0>
    9bec:	f001 0101 	and.w	r1, r1, #1
    9bf0:	f1c1 0202 	rsb	r2, r1, #2
    9bf4:	9200      	str	r2, [sp, #0]
    9bf6:	2800      	cmp	r0, #0
    9bf8:	f43f ab0e 	beq.w	9218 <__ieee754_pow+0x98>
    9bfc:	f7ff bb18 	b.w	9230 <__ieee754_pow+0xb0>
    9c00:	f001 0101 	and.w	r1, r1, #1
    9c04:	f1c1 0202 	rsb	r2, r1, #2
    9c08:	9200      	str	r2, [sp, #0]
    9c0a:	f7ff bb05 	b.w	9218 <__ieee754_pow+0x98>
    9c0e:	151b      	asrs	r3, r3, #20
    9c10:	e5d8      	b.n	97c4 <__ieee754_pow+0x644>
    9c12:	bf00      	nop
    9c14:	f3af 8000 	nop.w
    9c18:	60000000 	.word	0x60000000
    9c1c:	3ff71547 	.word	0x3ff71547
    9c20:	f85ddf44 	.word	0xf85ddf44
    9c24:	3e54ae0b 	.word	0x3e54ae0b
    9c28:	55555555 	.word	0x55555555
    9c2c:	3fd55555 	.word	0x3fd55555
    9c30:	652b82fe 	.word	0x652b82fe
    9c34:	3ff71547 	.word	0x3ff71547
    9c38:	40000000 	.word	0x40000000
    9c3c:	3fe2b803 	.word	0x3fe2b803
    9c40:	43cfd006 	.word	0x43cfd006
    9c44:	3e4cfdeb 	.word	0x3e4cfdeb
    9c48:	3ff00000 	.word	0x3ff00000
    9c4c:	3fd00000 	.word	0x3fd00000
    9c50:	3fe00000 	.word	0x3fe00000
    9c54:	3ff80000 	.word	0x3ff80000

00009c58 <__ieee754_rem_pio2>:
    9c58:	e92d 4ff0 	stmdb	sp!, {r4, r5, r6, r7, r8, r9, sl, fp, lr}
    9c5c:	4614      	mov	r4, r2
    9c5e:	4ab6      	ldr	r2, [pc, #728]	; (9f38 <__ieee754_rem_pio2+0x2e0>)
    9c60:	f021 4500 	bic.w	r5, r1, #2147483648	; 0x80000000
    9c64:	4295      	cmp	r5, r2
    9c66:	b091      	sub	sp, #68	; 0x44
    9c68:	f340 8085 	ble.w	9d76 <__ieee754_rem_pio2+0x11e>
    9c6c:	4ab3      	ldr	r2, [pc, #716]	; (9f3c <__ieee754_rem_pio2+0x2e4>)
    9c6e:	4295      	cmp	r5, r2
    9c70:	460f      	mov	r7, r1
    9c72:	dc26      	bgt.n	9cc2 <__ieee754_rem_pio2+0x6a>
    9c74:	2900      	cmp	r1, #0
    9c76:	a3a6      	add	r3, pc, #664	; (adr r3, 9f10 <__ieee754_rem_pio2+0x2b8>)
    9c78:	e9d3 2300 	ldrd	r2, r3, [r3]
    9c7c:	f340 81c4 	ble.w	a008 <__ieee754_rem_pio2+0x3b0>
    9c80:	f001 fa30 	bl	b0e4 <__aeabi_dsub>
    9c84:	4bae      	ldr	r3, [pc, #696]	; (9f40 <__ieee754_rem_pio2+0x2e8>)
    9c86:	429d      	cmp	r5, r3
    9c88:	4680      	mov	r8, r0
    9c8a:	4689      	mov	r9, r1
    9c8c:	f000 8088 	beq.w	9da0 <__ieee754_rem_pio2+0x148>
    9c90:	a3a1      	add	r3, pc, #644	; (adr r3, 9f18 <__ieee754_rem_pio2+0x2c0>)
    9c92:	e9d3 2300 	ldrd	r2, r3, [r3]
    9c96:	f001 fa25 	bl	b0e4 <__aeabi_dsub>
    9c9a:	4602      	mov	r2, r0
    9c9c:	460b      	mov	r3, r1
    9c9e:	e9c4 2300 	strd	r2, r3, [r4]
    9ca2:	4640      	mov	r0, r8
    9ca4:	4649      	mov	r1, r9
    9ca6:	f001 fa1d 	bl	b0e4 <__aeabi_dsub>
    9caa:	a39b      	add	r3, pc, #620	; (adr r3, 9f18 <__ieee754_rem_pio2+0x2c0>)
    9cac:	e9d3 2300 	ldrd	r2, r3, [r3]
    9cb0:	f001 fa18 	bl	b0e4 <__aeabi_dsub>
    9cb4:	e9c4 0102 	strd	r0, r1, [r4, #8]
    9cb8:	2601      	movs	r6, #1
    9cba:	4630      	mov	r0, r6
    9cbc:	b011      	add	sp, #68	; 0x44
    9cbe:	e8bd 8ff0 	ldmia.w	sp!, {r4, r5, r6, r7, r8, r9, sl, fp, pc}
    9cc2:	4aa0      	ldr	r2, [pc, #640]	; (9f44 <__ieee754_rem_pio2+0x2ec>)
    9cc4:	4295      	cmp	r5, r2
    9cc6:	f340 808b 	ble.w	9de0 <__ieee754_rem_pio2+0x188>
    9cca:	4a9f      	ldr	r2, [pc, #636]	; (9f48 <__ieee754_rem_pio2+0x2f0>)
    9ccc:	4295      	cmp	r5, r2
    9cce:	dc5d      	bgt.n	9d8c <__ieee754_rem_pio2+0x134>
    9cd0:	152e      	asrs	r6, r5, #20
    9cd2:	f2a6 4616 	subw	r6, r6, #1046	; 0x416
    9cd6:	eba5 5106 	sub.w	r1, r5, r6, lsl #20
    9cda:	4689      	mov	r9, r1
    9cdc:	4680      	mov	r8, r0
    9cde:	f001 fe69 	bl	b9b4 <__aeabi_d2iz>
    9ce2:	f001 fb4d 	bl	b380 <__aeabi_i2d>
    9ce6:	4602      	mov	r2, r0
    9ce8:	460b      	mov	r3, r1
    9cea:	4640      	mov	r0, r8
    9cec:	4649      	mov	r1, r9
    9cee:	e9cd 230a 	strd	r2, r3, [sp, #40]	; 0x28
    9cf2:	f001 f9f7 	bl	b0e4 <__aeabi_dsub>
    9cf6:	4b95      	ldr	r3, [pc, #596]	; (9f4c <__ieee754_rem_pio2+0x2f4>)
    9cf8:	2200      	movs	r2, #0
    9cfa:	f001 fbab 	bl	b454 <__aeabi_dmul>
    9cfe:	4689      	mov	r9, r1
    9d00:	4680      	mov	r8, r0
    9d02:	f001 fe57 	bl	b9b4 <__aeabi_d2iz>
    9d06:	4605      	mov	r5, r0
    9d08:	f001 fb3a 	bl	b380 <__aeabi_i2d>
    9d0c:	4602      	mov	r2, r0
    9d0e:	460b      	mov	r3, r1
    9d10:	4640      	mov	r0, r8
    9d12:	4649      	mov	r1, r9
    9d14:	e9cd 230c 	strd	r2, r3, [sp, #48]	; 0x30
    9d18:	f001 f9e4 	bl	b0e4 <__aeabi_dsub>
    9d1c:	4b8b      	ldr	r3, [pc, #556]	; (9f4c <__ieee754_rem_pio2+0x2f4>)
    9d1e:	2200      	movs	r2, #0
    9d20:	f001 fb98 	bl	b454 <__aeabi_dmul>
    9d24:	4602      	mov	r2, r0
    9d26:	460b      	mov	r3, r1
    9d28:	e9cd 230e 	strd	r2, r3, [sp, #56]	; 0x38
    9d2c:	2200      	movs	r2, #0
    9d2e:	2300      	movs	r3, #0
    9d30:	f001 fdf8 	bl	b924 <__aeabi_dcmpeq>
    9d34:	2800      	cmp	r0, #0
    9d36:	f000 8165 	beq.w	a004 <__ieee754_rem_pio2+0x3ac>
    9d3a:	2d00      	cmp	r5, #0
    9d3c:	bf0c      	ite	eq
    9d3e:	2301      	moveq	r3, #1
    9d40:	2302      	movne	r3, #2
    9d42:	4a83      	ldr	r2, [pc, #524]	; (9f50 <__ieee754_rem_pio2+0x2f8>)
    9d44:	9201      	str	r2, [sp, #4]
    9d46:	2202      	movs	r2, #2
    9d48:	9200      	str	r2, [sp, #0]
    9d4a:	4621      	mov	r1, r4
    9d4c:	4632      	mov	r2, r6
    9d4e:	a80a      	add	r0, sp, #40	; 0x28
    9d50:	f000 fba2 	bl	a498 <__kernel_rem_pio2>
    9d54:	2f00      	cmp	r7, #0
    9d56:	4606      	mov	r6, r0
    9d58:	daaf      	bge.n	9cba <__ieee754_rem_pio2+0x62>
    9d5a:	e9d4 0500 	ldrd	r0, r5, [r4]
    9d5e:	f105 4100 	add.w	r1, r5, #2147483648	; 0x80000000
    9d62:	e9c4 0100 	strd	r0, r1, [r4]
    9d66:	68e1      	ldr	r1, [r4, #12]
    9d68:	68a2      	ldr	r2, [r4, #8]
    9d6a:	f101 4300 	add.w	r3, r1, #2147483648	; 0x80000000
    9d6e:	e9c4 2302 	strd	r2, r3, [r4, #8]
    9d72:	4276      	negs	r6, r6
    9d74:	e7a1      	b.n	9cba <__ieee754_rem_pio2+0x62>
    9d76:	2600      	movs	r6, #0
    9d78:	e9c4 0100 	strd	r0, r1, [r4]
    9d7c:	2200      	movs	r2, #0
    9d7e:	2300      	movs	r3, #0
    9d80:	4630      	mov	r0, r6
    9d82:	e9c4 2302 	strd	r2, r3, [r4, #8]
    9d86:	b011      	add	sp, #68	; 0x44
    9d88:	e8bd 8ff0 	ldmia.w	sp!, {r4, r5, r6, r7, r8, r9, sl, fp, pc}
    9d8c:	4602      	mov	r2, r0
    9d8e:	460b      	mov	r3, r1
    9d90:	f001 f9a8 	bl	b0e4 <__aeabi_dsub>
    9d94:	2600      	movs	r6, #0
    9d96:	e9c4 0102 	strd	r0, r1, [r4, #8]
    9d9a:	e9c4 0100 	strd	r0, r1, [r4]
    9d9e:	e78c      	b.n	9cba <__ieee754_rem_pio2+0x62>
    9da0:	a35f      	add	r3, pc, #380	; (adr r3, 9f20 <__ieee754_rem_pio2+0x2c8>)
    9da2:	e9d3 2300 	ldrd	r2, r3, [r3]
    9da6:	f001 f99d 	bl	b0e4 <__aeabi_dsub>
    9daa:	a35f      	add	r3, pc, #380	; (adr r3, 9f28 <__ieee754_rem_pio2+0x2d0>)
    9dac:	e9d3 2300 	ldrd	r2, r3, [r3]
    9db0:	4680      	mov	r8, r0
    9db2:	4689      	mov	r9, r1
    9db4:	f001 f996 	bl	b0e4 <__aeabi_dsub>
    9db8:	4602      	mov	r2, r0
    9dba:	460b      	mov	r3, r1
    9dbc:	e9c4 2300 	strd	r2, r3, [r4]
    9dc0:	4640      	mov	r0, r8
    9dc2:	4649      	mov	r1, r9
    9dc4:	f001 f98e 	bl	b0e4 <__aeabi_dsub>
    9dc8:	a357      	add	r3, pc, #348	; (adr r3, 9f28 <__ieee754_rem_pio2+0x2d0>)
    9dca:	e9d3 2300 	ldrd	r2, r3, [r3]
    9dce:	f001 f989 	bl	b0e4 <__aeabi_dsub>
    9dd2:	2601      	movs	r6, #1
    9dd4:	e9c4 0102 	strd	r0, r1, [r4, #8]
    9dd8:	4630      	mov	r0, r6
    9dda:	b011      	add	sp, #68	; 0x44
    9ddc:	e8bd 8ff0 	ldmia.w	sp!, {r4, r5, r6, r7, r8, r9, sl, fp, pc}
    9de0:	f001 f874 	bl	aecc <fabs>
    9de4:	a352      	add	r3, pc, #328	; (adr r3, 9f30 <__ieee754_rem_pio2+0x2d8>)
    9de6:	e9d3 2300 	ldrd	r2, r3, [r3]
    9dea:	4680      	mov	r8, r0
    9dec:	4689      	mov	r9, r1
    9dee:	f001 fb31 	bl	b454 <__aeabi_dmul>
    9df2:	4b58      	ldr	r3, [pc, #352]	; (9f54 <__ieee754_rem_pio2+0x2fc>)
    9df4:	2200      	movs	r2, #0
    9df6:	f001 f977 	bl	b0e8 <__adddf3>
    9dfa:	f001 fddb 	bl	b9b4 <__aeabi_d2iz>
    9dfe:	4606      	mov	r6, r0
    9e00:	f001 fabe 	bl	b380 <__aeabi_i2d>
    9e04:	a342      	add	r3, pc, #264	; (adr r3, 9f10 <__ieee754_rem_pio2+0x2b8>)
    9e06:	e9d3 2300 	ldrd	r2, r3, [r3]
    9e0a:	4682      	mov	sl, r0
    9e0c:	468b      	mov	fp, r1
    9e0e:	e9cd ab04 	strd	sl, fp, [sp, #16]
    9e12:	f001 fb1f 	bl	b454 <__aeabi_dmul>
    9e16:	4602      	mov	r2, r0
    9e18:	460b      	mov	r3, r1
    9e1a:	4640      	mov	r0, r8
    9e1c:	4649      	mov	r1, r9
    9e1e:	f001 f961 	bl	b0e4 <__aeabi_dsub>
    9e22:	a33d      	add	r3, pc, #244	; (adr r3, 9f18 <__ieee754_rem_pio2+0x2c0>)
    9e24:	e9d3 2300 	ldrd	r2, r3, [r3]
    9e28:	e9cd 0102 	strd	r0, r1, [sp, #8]
    9e2c:	4650      	mov	r0, sl
    9e2e:	4659      	mov	r1, fp
    9e30:	f001 fb10 	bl	b454 <__aeabi_dmul>
    9e34:	2e1f      	cmp	r6, #31
    9e36:	4680      	mov	r8, r0
    9e38:	4689      	mov	r9, r1
    9e3a:	dc12      	bgt.n	9e62 <__ieee754_rem_pio2+0x20a>
    9e3c:	4b46      	ldr	r3, [pc, #280]	; (9f58 <__ieee754_rem_pio2+0x300>)
    9e3e:	1e72      	subs	r2, r6, #1
    9e40:	f853 3022 	ldr.w	r3, [r3, r2, lsl #2]
    9e44:	42ab      	cmp	r3, r5
    9e46:	d00c      	beq.n	9e62 <__ieee754_rem_pio2+0x20a>
    9e48:	4602      	mov	r2, r0
    9e4a:	460b      	mov	r3, r1
    9e4c:	e9dd 0102 	ldrd	r0, r1, [sp, #8]
    9e50:	f001 f948 	bl	b0e4 <__aeabi_dsub>
    9e54:	4602      	mov	r2, r0
    9e56:	460b      	mov	r3, r1
    9e58:	e9c4 2300 	strd	r2, r3, [r4]
    9e5c:	4682      	mov	sl, r0
    9e5e:	468b      	mov	fp, r1
    9e60:	e0b4      	b.n	9fcc <__ieee754_rem_pio2+0x374>
    9e62:	152b      	asrs	r3, r5, #20
    9e64:	9307      	str	r3, [sp, #28]
    9e66:	e9dd 0102 	ldrd	r0, r1, [sp, #8]
    9e6a:	464b      	mov	r3, r9
    9e6c:	4642      	mov	r2, r8
    9e6e:	f001 f939 	bl	b0e4 <__aeabi_dsub>
    9e72:	f3c1 530a 	ubfx	r3, r1, #20, #11
    9e76:	ebc3 5515 	rsb	r5, r3, r5, lsr #20
    9e7a:	2d10      	cmp	r5, #16
    9e7c:	468b      	mov	fp, r1
    9e7e:	4682      	mov	sl, r0
    9e80:	f340 80a0 	ble.w	9fc4 <__ieee754_rem_pio2+0x36c>
    9e84:	a326      	add	r3, pc, #152	; (adr r3, 9f20 <__ieee754_rem_pio2+0x2c8>)
    9e86:	e9d3 2300 	ldrd	r2, r3, [r3]
    9e8a:	e9dd 0104 	ldrd	r0, r1, [sp, #16]
    9e8e:	f001 fae1 	bl	b454 <__aeabi_dmul>
    9e92:	4680      	mov	r8, r0
    9e94:	4689      	mov	r9, r1
    9e96:	4602      	mov	r2, r0
    9e98:	460b      	mov	r3, r1
    9e9a:	e9dd 0102 	ldrd	r0, r1, [sp, #8]
    9e9e:	f001 f921 	bl	b0e4 <__aeabi_dsub>
    9ea2:	4682      	mov	sl, r0
    9ea4:	468b      	mov	fp, r1
    9ea6:	4652      	mov	r2, sl
    9ea8:	465b      	mov	r3, fp
    9eaa:	e9dd 0102 	ldrd	r0, r1, [sp, #8]
    9eae:	f001 f919 	bl	b0e4 <__aeabi_dsub>
    9eb2:	4642      	mov	r2, r8
    9eb4:	464b      	mov	r3, r9
    9eb6:	f001 f915 	bl	b0e4 <__aeabi_dsub>
    9eba:	a31b      	add	r3, pc, #108	; (adr r3, 9f28 <__ieee754_rem_pio2+0x2d0>)
    9ebc:	e9d3 2300 	ldrd	r2, r3, [r3]
    9ec0:	4680      	mov	r8, r0
    9ec2:	4689      	mov	r9, r1
    9ec4:	e9dd 0104 	ldrd	r0, r1, [sp, #16]
    9ec8:	f001 fac4 	bl	b454 <__aeabi_dmul>
    9ecc:	4642      	mov	r2, r8
    9ece:	464b      	mov	r3, r9
    9ed0:	f001 f908 	bl	b0e4 <__aeabi_dsub>
    9ed4:	4602      	mov	r2, r0
    9ed6:	460b      	mov	r3, r1
    9ed8:	4680      	mov	r8, r0
    9eda:	4689      	mov	r9, r1
    9edc:	4650      	mov	r0, sl
    9ede:	4659      	mov	r1, fp
    9ee0:	e9cd ab08 	strd	sl, fp, [sp, #32]
    9ee4:	f001 f8fe 	bl	b0e4 <__aeabi_dsub>
    9ee8:	9a07      	ldr	r2, [sp, #28]
    9eea:	f3c1 530a 	ubfx	r3, r1, #20, #11
    9eee:	1ad3      	subs	r3, r2, r3
    9ef0:	2b31      	cmp	r3, #49	; 0x31
    9ef2:	468b      	mov	fp, r1
    9ef4:	4682      	mov	sl, r0
    9ef6:	dc31      	bgt.n	9f5c <__ieee754_rem_pio2+0x304>
    9ef8:	4602      	mov	r2, r0
    9efa:	460b      	mov	r3, r1
    9efc:	e9c4 2300 	strd	r2, r3, [r4]
    9f00:	e9dd 2308 	ldrd	r2, r3, [sp, #32]
    9f04:	e9cd 2302 	strd	r2, r3, [sp, #8]
    9f08:	e060      	b.n	9fcc <__ieee754_rem_pio2+0x374>
    9f0a:	bf00      	nop
    9f0c:	f3af 8000 	nop.w
    9f10:	54400000 	.word	0x54400000
    9f14:	3ff921fb 	.word	0x3ff921fb
    9f18:	1a626331 	.word	0x1a626331
    9f1c:	3dd0b461 	.word	0x3dd0b461
    9f20:	1a600000 	.word	0x1a600000
    9f24:	3dd0b461 	.word	0x3dd0b461
    9f28:	2e037073 	.word	0x2e037073
    9f2c:	3ba3198a 	.word	0x3ba3198a
    9f30:	6dc9c883 	.word	0x6dc9c883
    9f34:	3fe45f30 	.word	0x3fe45f30
    9f38:	3fe921fb 	.word	0x3fe921fb
    9f3c:	4002d97b 	.word	0x4002d97b
    9f40:	3ff921fb 	.word	0x3ff921fb
    9f44:	413921fb 	.word	0x413921fb
    9f48:	7fefffff 	.word	0x7fefffff
    9f4c:	41700000 	.word	0x41700000
    9f50:	0000bd3c 	.word	0x0000bd3c
    9f54:	3fe00000 	.word	0x3fe00000
    9f58:	0000bcbc 	.word	0x0000bcbc
    9f5c:	a348      	add	r3, pc, #288	; (adr r3, a080 <__ieee754_rem_pio2+0x428>)
    9f5e:	e9d3 2300 	ldrd	r2, r3, [r3]
    9f62:	e9dd 0104 	ldrd	r0, r1, [sp, #16]
    9f66:	f001 fa75 	bl	b454 <__aeabi_dmul>
    9f6a:	4680      	mov	r8, r0
    9f6c:	4689      	mov	r9, r1
    9f6e:	4602      	mov	r2, r0
    9f70:	460b      	mov	r3, r1
    9f72:	e9dd 0108 	ldrd	r0, r1, [sp, #32]
    9f76:	f001 f8b5 	bl	b0e4 <__aeabi_dsub>
    9f7a:	4682      	mov	sl, r0
    9f7c:	468b      	mov	fp, r1
    9f7e:	4652      	mov	r2, sl
    9f80:	465b      	mov	r3, fp
    9f82:	e9dd 0108 	ldrd	r0, r1, [sp, #32]
    9f86:	e9cd ab02 	strd	sl, fp, [sp, #8]
    9f8a:	f001 f8ab 	bl	b0e4 <__aeabi_dsub>
    9f8e:	4642      	mov	r2, r8
    9f90:	464b      	mov	r3, r9
    9f92:	f001 f8a7 	bl	b0e4 <__aeabi_dsub>
    9f96:	a33c      	add	r3, pc, #240	; (adr r3, a088 <__ieee754_rem_pio2+0x430>)
    9f98:	e9d3 2300 	ldrd	r2, r3, [r3]
    9f9c:	4680      	mov	r8, r0
    9f9e:	4689      	mov	r9, r1
    9fa0:	e9dd 0104 	ldrd	r0, r1, [sp, #16]
    9fa4:	f001 fa56 	bl	b454 <__aeabi_dmul>
    9fa8:	4642      	mov	r2, r8
    9faa:	464b      	mov	r3, r9
    9fac:	f001 f89a 	bl	b0e4 <__aeabi_dsub>
    9fb0:	4602      	mov	r2, r0
    9fb2:	460b      	mov	r3, r1
    9fb4:	4680      	mov	r8, r0
    9fb6:	4689      	mov	r9, r1
    9fb8:	4650      	mov	r0, sl
    9fba:	4659      	mov	r1, fp
    9fbc:	f001 f892 	bl	b0e4 <__aeabi_dsub>
    9fc0:	468b      	mov	fp, r1
    9fc2:	4682      	mov	sl, r0
    9fc4:	4652      	mov	r2, sl
    9fc6:	465b      	mov	r3, fp
    9fc8:	e9c4 2300 	strd	r2, r3, [r4]
    9fcc:	4652      	mov	r2, sl
    9fce:	465b      	mov	r3, fp
    9fd0:	e9dd 0102 	ldrd	r0, r1, [sp, #8]
    9fd4:	f001 f886 	bl	b0e4 <__aeabi_dsub>
    9fd8:	4642      	mov	r2, r8
    9fda:	464b      	mov	r3, r9
    9fdc:	f001 f882 	bl	b0e4 <__aeabi_dsub>
    9fe0:	2f00      	cmp	r7, #0
    9fe2:	4602      	mov	r2, r0
    9fe4:	460b      	mov	r3, r1
    9fe6:	e9c4 2302 	strd	r2, r3, [r4, #8]
    9fea:	f6bf ae66 	bge.w	9cba <__ieee754_rem_pio2+0x62>
    9fee:	f10b 4300 	add.w	r3, fp, #2147483648	; 0x80000000
    9ff2:	f101 4100 	add.w	r1, r1, #2147483648	; 0x80000000
    9ff6:	60a0      	str	r0, [r4, #8]
    9ff8:	f8c4 a000 	str.w	sl, [r4]
    9ffc:	6063      	str	r3, [r4, #4]
    9ffe:	60e1      	str	r1, [r4, #12]
    a000:	4276      	negs	r6, r6
    a002:	e65a      	b.n	9cba <__ieee754_rem_pio2+0x62>
    a004:	2303      	movs	r3, #3
    a006:	e69c      	b.n	9d42 <__ieee754_rem_pio2+0xea>
    a008:	f001 f86e 	bl	b0e8 <__adddf3>
    a00c:	4b26      	ldr	r3, [pc, #152]	; (a0a8 <__ieee754_rem_pio2+0x450>)
    a00e:	429d      	cmp	r5, r3
    a010:	4680      	mov	r8, r0
    a012:	4689      	mov	r9, r1
    a014:	d016      	beq.n	a044 <__ieee754_rem_pio2+0x3ec>
    a016:	a31e      	add	r3, pc, #120	; (adr r3, a090 <__ieee754_rem_pio2+0x438>)
    a018:	e9d3 2300 	ldrd	r2, r3, [r3]
    a01c:	f001 f864 	bl	b0e8 <__adddf3>
    a020:	4602      	mov	r2, r0
    a022:	460b      	mov	r3, r1
    a024:	e9c4 2300 	strd	r2, r3, [r4]
    a028:	4640      	mov	r0, r8
    a02a:	4649      	mov	r1, r9
    a02c:	f001 f85a 	bl	b0e4 <__aeabi_dsub>
    a030:	a317      	add	r3, pc, #92	; (adr r3, a090 <__ieee754_rem_pio2+0x438>)
    a032:	e9d3 2300 	ldrd	r2, r3, [r3]
    a036:	f001 f857 	bl	b0e8 <__adddf3>
    a03a:	f04f 36ff 	mov.w	r6, #4294967295	; 0xffffffff
    a03e:	e9c4 0102 	strd	r0, r1, [r4, #8]
    a042:	e63a      	b.n	9cba <__ieee754_rem_pio2+0x62>
    a044:	a314      	add	r3, pc, #80	; (adr r3, a098 <__ieee754_rem_pio2+0x440>)
    a046:	e9d3 2300 	ldrd	r2, r3, [r3]
    a04a:	f001 f84d 	bl	b0e8 <__adddf3>
    a04e:	a314      	add	r3, pc, #80	; (adr r3, a0a0 <__ieee754_rem_pio2+0x448>)
    a050:	e9d3 2300 	ldrd	r2, r3, [r3]
    a054:	4680      	mov	r8, r0
    a056:	4689      	mov	r9, r1
    a058:	f001 f846 	bl	b0e8 <__adddf3>
    a05c:	4602      	mov	r2, r0
    a05e:	460b      	mov	r3, r1
    a060:	e9c4 2300 	strd	r2, r3, [r4]
    a064:	4640      	mov	r0, r8
    a066:	4649      	mov	r1, r9
    a068:	f001 f83c 	bl	b0e4 <__aeabi_dsub>
    a06c:	a30c      	add	r3, pc, #48	; (adr r3, a0a0 <__ieee754_rem_pio2+0x448>)
    a06e:	e9d3 2300 	ldrd	r2, r3, [r3]
    a072:	f001 f839 	bl	b0e8 <__adddf3>
    a076:	f04f 36ff 	mov.w	r6, #4294967295	; 0xffffffff
    a07a:	e9c4 0102 	strd	r0, r1, [r4, #8]
    a07e:	e61c      	b.n	9cba <__ieee754_rem_pio2+0x62>
    a080:	2e000000 	.word	0x2e000000
    a084:	3ba3198a 	.word	0x3ba3198a
    a088:	252049c1 	.word	0x252049c1
    a08c:	397b839a 	.word	0x397b839a
    a090:	1a626331 	.word	0x1a626331
    a094:	3dd0b461 	.word	0x3dd0b461
    a098:	1a600000 	.word	0x1a600000
    a09c:	3dd0b461 	.word	0x3dd0b461
    a0a0:	2e037073 	.word	0x2e037073
    a0a4:	3ba3198a 	.word	0x3ba3198a
    a0a8:	3ff921fb 	.word	0x3ff921fb

0000a0ac <__ieee754_sqrt>:
    a0ac:	4a61      	ldr	r2, [pc, #388]	; (a234 <__ieee754_sqrt+0x188>)
    a0ae:	438a      	bics	r2, r1
    a0b0:	e92d 43f8 	stmdb	sp!, {r3, r4, r5, r6, r7, r8, r9, lr}
    a0b4:	4605      	mov	r5, r0
    a0b6:	460c      	mov	r4, r1
    a0b8:	f000 809e 	beq.w	a1f8 <__ieee754_sqrt+0x14c>
    a0bc:	2900      	cmp	r1, #0
    a0be:	460b      	mov	r3, r1
    a0c0:	4684      	mov	ip, r0
    a0c2:	dd54      	ble.n	a16e <__ieee754_sqrt+0xc2>
    a0c4:	1509      	asrs	r1, r1, #20
    a0c6:	d062      	beq.n	a18e <__ieee754_sqrt+0xe2>
    a0c8:	f3c3 0313 	ubfx	r3, r3, #0, #20
    a0cc:	07c8      	lsls	r0, r1, #31
    a0ce:	f2a1 37ff 	subw	r7, r1, #1023	; 0x3ff
    a0d2:	f443 1380 	orr.w	r3, r3, #1048576	; 0x100000
    a0d6:	d404      	bmi.n	a0e2 <__ieee754_sqrt+0x36>
    a0d8:	005b      	lsls	r3, r3, #1
    a0da:	eb03 73dc 	add.w	r3, r3, ip, lsr #31
    a0de:	ea4f 0c4c 	mov.w	ip, ip, lsl #1
    a0e2:	ea4f 72dc 	mov.w	r2, ip, lsr #31
    a0e6:	2600      	movs	r6, #0
    a0e8:	eb02 0343 	add.w	r3, r2, r3, lsl #1
    a0ec:	107f      	asrs	r7, r7, #1
    a0ee:	ea4f 0c4c 	mov.w	ip, ip, lsl #1
    a0f2:	f04f 0e16 	mov.w	lr, #22
    a0f6:	4634      	mov	r4, r6
    a0f8:	f44f 1200 	mov.w	r2, #2097152	; 0x200000
    a0fc:	18a1      	adds	r1, r4, r2
    a0fe:	4299      	cmp	r1, r3
    a100:	dc02      	bgt.n	a108 <__ieee754_sqrt+0x5c>
    a102:	1a5b      	subs	r3, r3, r1
    a104:	188c      	adds	r4, r1, r2
    a106:	4416      	add	r6, r2
    a108:	005b      	lsls	r3, r3, #1
    a10a:	f1be 0e01 	subs.w	lr, lr, #1
    a10e:	eb03 73dc 	add.w	r3, r3, ip, lsr #31
    a112:	ea4f 0252 	mov.w	r2, r2, lsr #1
    a116:	ea4f 0c4c 	mov.w	ip, ip, lsl #1
    a11a:	d1ef      	bne.n	a0fc <__ieee754_sqrt+0x50>
    a11c:	4675      	mov	r5, lr
    a11e:	2020      	movs	r0, #32
    a120:	f04f 4200 	mov.w	r2, #2147483648	; 0x80000000
    a124:	e00a      	b.n	a13c <__ieee754_sqrt+0x90>
    a126:	d043      	beq.n	a1b0 <__ieee754_sqrt+0x104>
    a128:	ea4f 71dc 	mov.w	r1, ip, lsr #31
    a12c:	3801      	subs	r0, #1
    a12e:	eb01 0343 	add.w	r3, r1, r3, lsl #1
    a132:	ea4f 0c4c 	mov.w	ip, ip, lsl #1
    a136:	ea4f 0252 	mov.w	r2, r2, lsr #1
    a13a:	d042      	beq.n	a1c2 <__ieee754_sqrt+0x116>
    a13c:	42a3      	cmp	r3, r4
    a13e:	eb02 010e 	add.w	r1, r2, lr
    a142:	ddf0      	ble.n	a126 <__ieee754_sqrt+0x7a>
    a144:	2900      	cmp	r1, #0
    a146:	eb01 0e02 	add.w	lr, r1, r2
    a14a:	db0a      	blt.n	a162 <__ieee754_sqrt+0xb6>
    a14c:	46a0      	mov	r8, r4
    a14e:	1b1b      	subs	r3, r3, r4
    a150:	4561      	cmp	r1, ip
    a152:	bf88      	it	hi
    a154:	f103 33ff 	addhi.w	r3, r3, #4294967295	; 0xffffffff
    a158:	ebac 0c01 	sub.w	ip, ip, r1
    a15c:	4415      	add	r5, r2
    a15e:	4644      	mov	r4, r8
    a160:	e7e2      	b.n	a128 <__ieee754_sqrt+0x7c>
    a162:	f1be 0f00 	cmp.w	lr, #0
    a166:	dbf1      	blt.n	a14c <__ieee754_sqrt+0xa0>
    a168:	f104 0801 	add.w	r8, r4, #1
    a16c:	e7ef      	b.n	a14e <__ieee754_sqrt+0xa2>
    a16e:	f021 4200 	bic.w	r2, r1, #2147483648	; 0x80000000
    a172:	4302      	orrs	r2, r0
    a174:	d036      	beq.n	a1e4 <__ieee754_sqrt+0x138>
    a176:	2900      	cmp	r1, #0
    a178:	d14c      	bne.n	a214 <__ieee754_sqrt+0x168>
    a17a:	ea4f 22dc 	mov.w	r2, ip, lsr #11
    a17e:	3915      	subs	r1, #21
    a180:	4613      	mov	r3, r2
    a182:	ea4f 5c4c 	mov.w	ip, ip, lsl #21
    a186:	2a00      	cmp	r2, #0
    a188:	d0f7      	beq.n	a17a <__ieee754_sqrt+0xce>
    a18a:	02d6      	lsls	r6, r2, #11
    a18c:	d44c      	bmi.n	a228 <__ieee754_sqrt+0x17c>
    a18e:	2000      	movs	r0, #0
    a190:	005b      	lsls	r3, r3, #1
    a192:	02dd      	lsls	r5, r3, #11
    a194:	4604      	mov	r4, r0
    a196:	f100 0001 	add.w	r0, r0, #1
    a19a:	d5f9      	bpl.n	a190 <__ieee754_sqrt+0xe4>
    a19c:	461a      	mov	r2, r3
    a19e:	4663      	mov	r3, ip
    a1a0:	fa0c fc00 	lsl.w	ip, ip, r0
    a1a4:	f1c0 0020 	rsb	r0, r0, #32
    a1a8:	40c3      	lsrs	r3, r0
    a1aa:	1b09      	subs	r1, r1, r4
    a1ac:	4313      	orrs	r3, r2
    a1ae:	e78b      	b.n	a0c8 <__ieee754_sqrt+0x1c>
    a1b0:	4561      	cmp	r1, ip
    a1b2:	d8b9      	bhi.n	a128 <__ieee754_sqrt+0x7c>
    a1b4:	2900      	cmp	r1, #0
    a1b6:	eb01 0e02 	add.w	lr, r1, r2
    a1ba:	dbd2      	blt.n	a162 <__ieee754_sqrt+0xb6>
    a1bc:	4698      	mov	r8, r3
    a1be:	2300      	movs	r3, #0
    a1c0:	e7ca      	b.n	a158 <__ieee754_sqrt+0xac>
    a1c2:	ea53 030c 	orrs.w	r3, r3, ip
    a1c6:	d111      	bne.n	a1ec <__ieee754_sqrt+0x140>
    a1c8:	0868      	lsrs	r0, r5, #1
    a1ca:	1073      	asrs	r3, r6, #1
    a1cc:	f103 537f 	add.w	r3, r3, #1069547520	; 0x3fc00000
    a1d0:	f503 1300 	add.w	r3, r3, #2097152	; 0x200000
    a1d4:	07f2      	lsls	r2, r6, #31
    a1d6:	bf48      	it	mi
    a1d8:	f040 4000 	orrmi.w	r0, r0, #2147483648	; 0x80000000
    a1dc:	eb03 5907 	add.w	r9, r3, r7, lsl #20
    a1e0:	4605      	mov	r5, r0
    a1e2:	464c      	mov	r4, r9
    a1e4:	4628      	mov	r0, r5
    a1e6:	4621      	mov	r1, r4
    a1e8:	e8bd 83f8 	ldmia.w	sp!, {r3, r4, r5, r6, r7, r8, r9, pc}
    a1ec:	1c69      	adds	r1, r5, #1
    a1ee:	bf16      	itet	ne
    a1f0:	1c68      	addne	r0, r5, #1
    a1f2:	3601      	addeq	r6, #1
    a1f4:	0840      	lsrne	r0, r0, #1
    a1f6:	e7e8      	b.n	a1ca <__ieee754_sqrt+0x11e>
    a1f8:	4602      	mov	r2, r0
    a1fa:	460b      	mov	r3, r1
    a1fc:	f001 f92a 	bl	b454 <__aeabi_dmul>
    a200:	462a      	mov	r2, r5
    a202:	4623      	mov	r3, r4
    a204:	f000 ff70 	bl	b0e8 <__adddf3>
    a208:	4605      	mov	r5, r0
    a20a:	460c      	mov	r4, r1
    a20c:	4628      	mov	r0, r5
    a20e:	4621      	mov	r1, r4
    a210:	e8bd 83f8 	ldmia.w	sp!, {r3, r4, r5, r6, r7, r8, r9, pc}
    a214:	4602      	mov	r2, r0
    a216:	f000 ff65 	bl	b0e4 <__aeabi_dsub>
    a21a:	4602      	mov	r2, r0
    a21c:	460b      	mov	r3, r1
    a21e:	f001 fa43 	bl	b6a8 <__aeabi_ddiv>
    a222:	4605      	mov	r5, r0
    a224:	460c      	mov	r4, r1
    a226:	e7dd      	b.n	a1e4 <__ieee754_sqrt+0x138>
    a228:	4663      	mov	r3, ip
    a22a:	2020      	movs	r0, #32
    a22c:	f04f 34ff 	mov.w	r4, #4294967295	; 0xffffffff
    a230:	e7ba      	b.n	a1a8 <__ieee754_sqrt+0xfc>
    a232:	bf00      	nop
    a234:	7ff00000 	.word	0x7ff00000

0000a238 <__kernel_cos>:
    a238:	e92d 4ff0 	stmdb	sp!, {r4, r5, r6, r7, r8, r9, sl, fp, lr}
    a23c:	f021 4800 	bic.w	r8, r1, #2147483648	; 0x80000000
    a240:	b087      	sub	sp, #28
    a242:	f1b8 5f79 	cmp.w	r8, #1044381696	; 0x3e400000
    a246:	4692      	mov	sl, r2
    a248:	469b      	mov	fp, r3
    a24a:	4606      	mov	r6, r0
    a24c:	9101      	str	r1, [sp, #4]
    a24e:	da70      	bge.n	a332 <__kernel_cos+0xfa>
    a250:	f001 fbb0 	bl	b9b4 <__aeabi_d2iz>
    a254:	2800      	cmp	r0, #0
    a256:	f000 80f4 	beq.w	a442 <__kernel_cos+0x20a>
    a25a:	9b01      	ldr	r3, [sp, #4]
    a25c:	4632      	mov	r2, r6
    a25e:	4619      	mov	r1, r3
    a260:	4630      	mov	r0, r6
    a262:	f001 f8f7 	bl	b454 <__aeabi_dmul>
    a266:	a37a      	add	r3, pc, #488	; (adr r3, a450 <__kernel_cos+0x218>)
    a268:	e9d3 2300 	ldrd	r2, r3, [r3]
    a26c:	4604      	mov	r4, r0
    a26e:	460d      	mov	r5, r1
    a270:	f001 f8f0 	bl	b454 <__aeabi_dmul>
    a274:	a378      	add	r3, pc, #480	; (adr r3, a458 <__kernel_cos+0x220>)
    a276:	e9d3 2300 	ldrd	r2, r3, [r3]
    a27a:	f000 ff35 	bl	b0e8 <__adddf3>
    a27e:	4622      	mov	r2, r4
    a280:	462b      	mov	r3, r5
    a282:	f001 f8e7 	bl	b454 <__aeabi_dmul>
    a286:	a376      	add	r3, pc, #472	; (adr r3, a460 <__kernel_cos+0x228>)
    a288:	e9d3 2300 	ldrd	r2, r3, [r3]
    a28c:	f000 ff2a 	bl	b0e4 <__aeabi_dsub>
    a290:	4622      	mov	r2, r4
    a292:	462b      	mov	r3, r5
    a294:	f001 f8de 	bl	b454 <__aeabi_dmul>
    a298:	a373      	add	r3, pc, #460	; (adr r3, a468 <__kernel_cos+0x230>)
    a29a:	e9d3 2300 	ldrd	r2, r3, [r3]
    a29e:	f000 ff23 	bl	b0e8 <__adddf3>
    a2a2:	4622      	mov	r2, r4
    a2a4:	462b      	mov	r3, r5
    a2a6:	f001 f8d5 	bl	b454 <__aeabi_dmul>
    a2aa:	a371      	add	r3, pc, #452	; (adr r3, a470 <__kernel_cos+0x238>)
    a2ac:	e9d3 2300 	ldrd	r2, r3, [r3]
    a2b0:	f000 ff18 	bl	b0e4 <__aeabi_dsub>
    a2b4:	4622      	mov	r2, r4
    a2b6:	462b      	mov	r3, r5
    a2b8:	f001 f8cc 	bl	b454 <__aeabi_dmul>
    a2bc:	a36e      	add	r3, pc, #440	; (adr r3, a478 <__kernel_cos+0x240>)
    a2be:	e9d3 2300 	ldrd	r2, r3, [r3]
    a2c2:	f000 ff11 	bl	b0e8 <__adddf3>
    a2c6:	4622      	mov	r2, r4
    a2c8:	462b      	mov	r3, r5
    a2ca:	f001 f8c3 	bl	b454 <__aeabi_dmul>
    a2ce:	e9cd 0102 	strd	r0, r1, [sp, #8]
    a2d2:	4b6b      	ldr	r3, [pc, #428]	; (a480 <__kernel_cos+0x248>)
    a2d4:	2200      	movs	r2, #0
    a2d6:	4620      	mov	r0, r4
    a2d8:	4629      	mov	r1, r5
    a2da:	f001 f8bb 	bl	b454 <__aeabi_dmul>
    a2de:	e9dd 2302 	ldrd	r2, r3, [sp, #8]
    a2e2:	4680      	mov	r8, r0
    a2e4:	4689      	mov	r9, r1
    a2e6:	4620      	mov	r0, r4
    a2e8:	4629      	mov	r1, r5
    a2ea:	f001 f8b3 	bl	b454 <__aeabi_dmul>
    a2ee:	464d      	mov	r5, r9
    a2f0:	f8dd 9004 	ldr.w	r9, [sp, #4]
    a2f4:	4644      	mov	r4, r8
    a2f6:	46b0      	mov	r8, r6
    a2f8:	460f      	mov	r7, r1
    a2fa:	4606      	mov	r6, r0
    a2fc:	4652      	mov	r2, sl
    a2fe:	465b      	mov	r3, fp
    a300:	4640      	mov	r0, r8
    a302:	4649      	mov	r1, r9
    a304:	f001 f8a6 	bl	b454 <__aeabi_dmul>
    a308:	4602      	mov	r2, r0
    a30a:	460b      	mov	r3, r1
    a30c:	4630      	mov	r0, r6
    a30e:	4639      	mov	r1, r7
    a310:	f000 fee8 	bl	b0e4 <__aeabi_dsub>
    a314:	4602      	mov	r2, r0
    a316:	460b      	mov	r3, r1
    a318:	4620      	mov	r0, r4
    a31a:	4629      	mov	r1, r5
    a31c:	f000 fee2 	bl	b0e4 <__aeabi_dsub>
    a320:	4602      	mov	r2, r0
    a322:	460b      	mov	r3, r1
    a324:	2000      	movs	r0, #0
    a326:	4957      	ldr	r1, [pc, #348]	; (a484 <__kernel_cos+0x24c>)
    a328:	f000 fedc 	bl	b0e4 <__aeabi_dsub>
    a32c:	b007      	add	sp, #28
    a32e:	e8bd 8ff0 	ldmia.w	sp!, {r4, r5, r6, r7, r8, r9, sl, fp, pc}
    a332:	9b01      	ldr	r3, [sp, #4]
    a334:	4602      	mov	r2, r0
    a336:	f001 f88d 	bl	b454 <__aeabi_dmul>
    a33a:	a345      	add	r3, pc, #276	; (adr r3, a450 <__kernel_cos+0x218>)
    a33c:	e9d3 2300 	ldrd	r2, r3, [r3]
    a340:	4604      	mov	r4, r0
    a342:	460d      	mov	r5, r1
    a344:	f001 f886 	bl	b454 <__aeabi_dmul>
    a348:	a343      	add	r3, pc, #268	; (adr r3, a458 <__kernel_cos+0x220>)
    a34a:	e9d3 2300 	ldrd	r2, r3, [r3]
    a34e:	f000 fecb 	bl	b0e8 <__adddf3>
    a352:	4622      	mov	r2, r4
    a354:	462b      	mov	r3, r5
    a356:	f001 f87d 	bl	b454 <__aeabi_dmul>
    a35a:	a341      	add	r3, pc, #260	; (adr r3, a460 <__kernel_cos+0x228>)
    a35c:	e9d3 2300 	ldrd	r2, r3, [r3]
    a360:	f000 fec0 	bl	b0e4 <__aeabi_dsub>
    a364:	4622      	mov	r2, r4
    a366:	462b      	mov	r3, r5
    a368:	f001 f874 	bl	b454 <__aeabi_dmul>
    a36c:	a33e      	add	r3, pc, #248	; (adr r3, a468 <__kernel_cos+0x230>)
    a36e:	e9d3 2300 	ldrd	r2, r3, [r3]
    a372:	f000 feb9 	bl	b0e8 <__adddf3>
    a376:	4622      	mov	r2, r4
    a378:	462b      	mov	r3, r5
    a37a:	f001 f86b 	bl	b454 <__aeabi_dmul>
    a37e:	a33c      	add	r3, pc, #240	; (adr r3, a470 <__kernel_cos+0x238>)
    a380:	e9d3 2300 	ldrd	r2, r3, [r3]
    a384:	f000 feae 	bl	b0e4 <__aeabi_dsub>
    a388:	4622      	mov	r2, r4
    a38a:	462b      	mov	r3, r5
    a38c:	f001 f862 	bl	b454 <__aeabi_dmul>
    a390:	a339      	add	r3, pc, #228	; (adr r3, a478 <__kernel_cos+0x240>)
    a392:	e9d3 2300 	ldrd	r2, r3, [r3]
    a396:	f000 fea7 	bl	b0e8 <__adddf3>
    a39a:	462b      	mov	r3, r5
    a39c:	4622      	mov	r2, r4
    a39e:	f001 f859 	bl	b454 <__aeabi_dmul>
    a3a2:	4b39      	ldr	r3, [pc, #228]	; (a488 <__kernel_cos+0x250>)
    a3a4:	4598      	cmp	r8, r3
    a3a6:	e9cd 0102 	strd	r0, r1, [sp, #8]
    a3aa:	dd92      	ble.n	a2d2 <__kernel_cos+0x9a>
    a3ac:	4b37      	ldr	r3, [pc, #220]	; (a48c <__kernel_cos+0x254>)
    a3ae:	4598      	cmp	r8, r3
    a3b0:	f04f 0200 	mov.w	r2, #0
    a3b4:	dc3d      	bgt.n	a432 <__kernel_cos+0x1fa>
    a3b6:	f5a8 1300 	sub.w	r3, r8, #2097152	; 0x200000
    a3ba:	4932      	ldr	r1, [pc, #200]	; (a484 <__kernel_cos+0x24c>)
    a3bc:	2000      	movs	r0, #0
    a3be:	4690      	mov	r8, r2
    a3c0:	4699      	mov	r9, r3
    a3c2:	f000 fe8f 	bl	b0e4 <__aeabi_dsub>
    a3c6:	e9cd 0104 	strd	r0, r1, [sp, #16]
    a3ca:	4b2d      	ldr	r3, [pc, #180]	; (a480 <__kernel_cos+0x248>)
    a3cc:	2200      	movs	r2, #0
    a3ce:	4620      	mov	r0, r4
    a3d0:	4629      	mov	r1, r5
    a3d2:	f001 f83f 	bl	b454 <__aeabi_dmul>
    a3d6:	4642      	mov	r2, r8
    a3d8:	464b      	mov	r3, r9
    a3da:	f000 fe83 	bl	b0e4 <__aeabi_dsub>
    a3de:	e9dd 2302 	ldrd	r2, r3, [sp, #8]
    a3e2:	4680      	mov	r8, r0
    a3e4:	4689      	mov	r9, r1
    a3e6:	4620      	mov	r0, r4
    a3e8:	4629      	mov	r1, r5
    a3ea:	f001 f833 	bl	b454 <__aeabi_dmul>
    a3ee:	464d      	mov	r5, r9
    a3f0:	f8dd 9004 	ldr.w	r9, [sp, #4]
    a3f4:	4644      	mov	r4, r8
    a3f6:	46b0      	mov	r8, r6
    a3f8:	460f      	mov	r7, r1
    a3fa:	4606      	mov	r6, r0
    a3fc:	4652      	mov	r2, sl
    a3fe:	465b      	mov	r3, fp
    a400:	4640      	mov	r0, r8
    a402:	4649      	mov	r1, r9
    a404:	f001 f826 	bl	b454 <__aeabi_dmul>
    a408:	4602      	mov	r2, r0
    a40a:	460b      	mov	r3, r1
    a40c:	4630      	mov	r0, r6
    a40e:	4639      	mov	r1, r7
    a410:	f000 fe68 	bl	b0e4 <__aeabi_dsub>
    a414:	4602      	mov	r2, r0
    a416:	460b      	mov	r3, r1
    a418:	4620      	mov	r0, r4
    a41a:	4629      	mov	r1, r5
    a41c:	f000 fe62 	bl	b0e4 <__aeabi_dsub>
    a420:	4602      	mov	r2, r0
    a422:	460b      	mov	r3, r1
    a424:	e9dd 0104 	ldrd	r0, r1, [sp, #16]
    a428:	f000 fe5c 	bl	b0e4 <__aeabi_dsub>
    a42c:	b007      	add	sp, #28
    a42e:	e8bd 8ff0 	ldmia.w	sp!, {r4, r5, r6, r7, r8, r9, sl, fp, pc}
    a432:	4b17      	ldr	r3, [pc, #92]	; (a490 <__kernel_cos+0x258>)
    a434:	f8df 905c 	ldr.w	r9, [pc, #92]	; a494 <__kernel_cos+0x25c>
    a438:	e9cd 2304 	strd	r2, r3, [sp, #16]
    a43c:	f04f 0800 	mov.w	r8, #0
    a440:	e7c3      	b.n	a3ca <__kernel_cos+0x192>
    a442:	4910      	ldr	r1, [pc, #64]	; (a484 <__kernel_cos+0x24c>)
    a444:	2000      	movs	r0, #0
    a446:	b007      	add	sp, #28
    a448:	e8bd 8ff0 	ldmia.w	sp!, {r4, r5, r6, r7, r8, r9, sl, fp, pc}
    a44c:	f3af 8000 	nop.w
    a450:	be8838d4 	.word	0xbe8838d4
    a454:	bda8fae9 	.word	0xbda8fae9
    a458:	bdb4b1c4 	.word	0xbdb4b1c4
    a45c:	3e21ee9e 	.word	0x3e21ee9e
    a460:	809c52ad 	.word	0x809c52ad
    a464:	3e927e4f 	.word	0x3e927e4f
    a468:	19cb1590 	.word	0x19cb1590
    a46c:	3efa01a0 	.word	0x3efa01a0
    a470:	16c15177 	.word	0x16c15177
    a474:	3f56c16c 	.word	0x3f56c16c
    a478:	5555554c 	.word	0x5555554c
    a47c:	3fa55555 	.word	0x3fa55555
    a480:	3fe00000 	.word	0x3fe00000
    a484:	3ff00000 	.word	0x3ff00000
    a488:	3fd33332 	.word	0x3fd33332
    a48c:	3fe90000 	.word	0x3fe90000
    a490:	3fe70000 	.word	0x3fe70000
    a494:	3fd20000 	.word	0x3fd20000

0000a498 <__kernel_rem_pio2>:
    a498:	e92d 4ff0 	stmdb	sp!, {r4, r5, r6, r7, r8, r9, sl, fp, lr}
    a49c:	f5ad 7d19 	sub.w	sp, sp, #612	; 0x264
    a4a0:	461c      	mov	r4, r3
    a4a2:	9308      	str	r3, [sp, #32]
    a4a4:	910b      	str	r1, [sp, #44]	; 0x2c
    a4a6:	4bb8      	ldr	r3, [pc, #736]	; (a788 <__kernel_rem_pio2+0x2f0>)
    a4a8:	99a2      	ldr	r1, [sp, #648]	; 0x288
    a4aa:	f853 3021 	ldr.w	r3, [r3, r1, lsl #2]
    a4ae:	9305      	str	r3, [sp, #20]
    a4b0:	f112 0f14 	cmn.w	r2, #20
    a4b4:	f104 33ff 	add.w	r3, r4, #4294967295	; 0xffffffff
    a4b8:	4606      	mov	r6, r0
    a4ba:	9303      	str	r3, [sp, #12]
    a4bc:	f2c0 8340 	blt.w	ab40 <__kernel_rem_pio2+0x6a8>
    a4c0:	49b2      	ldr	r1, [pc, #712]	; (a78c <__kernel_rem_pio2+0x2f4>)
    a4c2:	1ed3      	subs	r3, r2, #3
    a4c4:	fb81 0103 	smull	r0, r1, r1, r3
    a4c8:	17db      	asrs	r3, r3, #31
    a4ca:	ebc3 03a1 	rsb	r3, r3, r1, asr #2
    a4ce:	9307      	str	r3, [sp, #28]
    a4d0:	3301      	adds	r3, #1
    a4d2:	eba3 0383 	sub.w	r3, r3, r3, lsl #2
    a4d6:	00db      	lsls	r3, r3, #3
    a4d8:	18d3      	adds	r3, r2, r3
    a4da:	9306      	str	r3, [sp, #24]
    a4dc:	9a07      	ldr	r2, [sp, #28]
    a4de:	9b03      	ldr	r3, [sp, #12]
    a4e0:	1ad4      	subs	r4, r2, r3
    a4e2:	9a05      	ldr	r2, [sp, #20]
    a4e4:	18d7      	adds	r7, r2, r3
    a4e6:	d41b      	bmi.n	a520 <__kernel_rem_pio2+0x88>
    a4e8:	3701      	adds	r7, #1
    a4ea:	f8dd a28c 	ldr.w	sl, [sp, #652]	; 0x28c
    a4ee:	4427      	add	r7, r4
    a4f0:	ad20      	add	r5, sp, #128	; 0x80
    a4f2:	f04f 0800 	mov.w	r8, #0
    a4f6:	f04f 0900 	mov.w	r9, #0
    a4fa:	e008      	b.n	a50e <__kernel_rem_pio2+0x76>
    a4fc:	f85a 0024 	ldr.w	r0, [sl, r4, lsl #2]
    a500:	f000 ff3e 	bl	b380 <__aeabi_i2d>
    a504:	3401      	adds	r4, #1
    a506:	42bc      	cmp	r4, r7
    a508:	e8e5 0102 	strd	r0, r1, [r5], #8
    a50c:	d008      	beq.n	a520 <__kernel_rem_pio2+0x88>
    a50e:	2c00      	cmp	r4, #0
    a510:	daf4      	bge.n	a4fc <__kernel_rem_pio2+0x64>
    a512:	3401      	adds	r4, #1
    a514:	4640      	mov	r0, r8
    a516:	4649      	mov	r1, r9
    a518:	42bc      	cmp	r4, r7
    a51a:	e8e5 0102 	strd	r0, r1, [r5], #8
    a51e:	d1f6      	bne.n	a50e <__kernel_rem_pio2+0x76>
    a520:	9b05      	ldr	r3, [sp, #20]
    a522:	2b00      	cmp	r3, #0
    a524:	f2c0 83bc 	blt.w	aca0 <__kernel_rem_pio2+0x808>
    a528:	9b08      	ldr	r3, [sp, #32]
    a52a:	f8dd 900c 	ldr.w	r9, [sp, #12]
    a52e:	aa20      	add	r2, sp, #128	; 0x80
    a530:	eb02 0ac3 	add.w	sl, r2, r3, lsl #3
    a534:	00da      	lsls	r2, r3, #3
    a536:	9202      	str	r2, [sp, #8]
    a538:	9a05      	ldr	r2, [sp, #20]
    a53a:	f1a6 0108 	sub.w	r1, r6, #8
    a53e:	441a      	add	r2, r3
    a540:	9104      	str	r1, [sp, #16]
    a542:	f50d 7be0 	add.w	fp, sp, #448	; 0x1c0
    a546:	9201      	str	r2, [sp, #4]
    a548:	eb01 08c3 	add.w	r8, r1, r3, lsl #3
    a54c:	9b03      	ldr	r3, [sp, #12]
    a54e:	2b00      	cmp	r3, #0
    a550:	f2c0 81af 	blt.w	a8b2 <__kernel_rem_pio2+0x41a>
    a554:	9e04      	ldr	r6, [sp, #16]
    a556:	4657      	mov	r7, sl
    a558:	2400      	movs	r4, #0
    a55a:	2500      	movs	r5, #0
    a55c:	e977 2302 	ldrd	r2, r3, [r7, #-8]!
    a560:	e9f6 0102 	ldrd	r0, r1, [r6, #8]!
    a564:	f000 ff76 	bl	b454 <__aeabi_dmul>
    a568:	4602      	mov	r2, r0
    a56a:	460b      	mov	r3, r1
    a56c:	4620      	mov	r0, r4
    a56e:	4629      	mov	r1, r5
    a570:	f000 fdba 	bl	b0e8 <__adddf3>
    a574:	4546      	cmp	r6, r8
    a576:	4604      	mov	r4, r0
    a578:	460d      	mov	r5, r1
    a57a:	d1ef      	bne.n	a55c <__kernel_rem_pio2+0xc4>
    a57c:	9b01      	ldr	r3, [sp, #4]
    a57e:	f109 0901 	add.w	r9, r9, #1
    a582:	4599      	cmp	r9, r3
    a584:	e8eb 4502 	strd	r4, r5, [fp], #8
    a588:	f10a 0a08 	add.w	sl, sl, #8
    a58c:	d1de      	bne.n	a54c <__kernel_rem_pio2+0xb4>
    a58e:	9b04      	ldr	r3, [sp, #16]
    a590:	f8dd b008 	ldr.w	fp, [sp, #8]
    a594:	9a05      	ldr	r2, [sp, #20]
    a596:	9201      	str	r2, [sp, #4]
    a598:	449b      	add	fp, r3
    a59a:	ab0b      	add	r3, sp, #44	; 0x2c
    a59c:	eb03 0382 	add.w	r3, r3, r2, lsl #2
    a5a0:	930a      	str	r3, [sp, #40]	; 0x28
    a5a2:	ab0c      	add	r3, sp, #48	; 0x30
    a5a4:	eb03 0382 	add.w	r3, r3, r2, lsl #2
    a5a8:	3b08      	subs	r3, #8
    a5aa:	9309      	str	r3, [sp, #36]	; 0x24
    a5ac:	9a01      	ldr	r2, [sp, #4]
    a5ae:	ab98      	add	r3, sp, #608	; 0x260
    a5b0:	eb03 03c2 	add.w	r3, r3, r2, lsl #3
    a5b4:	2a00      	cmp	r2, #0
    a5b6:	e953 4528 	ldrd	r4, r5, [r3, #-160]	; 0xa0
    a5ba:	dd29      	ble.n	a610 <__kernel_rem_pio2+0x178>
    a5bc:	f50d 7ae0 	add.w	sl, sp, #448	; 0x1c0
    a5c0:	eb0a 08c2 	add.w	r8, sl, r2, lsl #3
    a5c4:	f10d 0930 	add.w	r9, sp, #48	; 0x30
    a5c8:	4b71      	ldr	r3, [pc, #452]	; (a790 <__kernel_rem_pio2+0x2f8>)
    a5ca:	2200      	movs	r2, #0
    a5cc:	4620      	mov	r0, r4
    a5ce:	4629      	mov	r1, r5
    a5d0:	f000 ff40 	bl	b454 <__aeabi_dmul>
    a5d4:	f001 f9ee 	bl	b9b4 <__aeabi_d2iz>
    a5d8:	f000 fed2 	bl	b380 <__aeabi_i2d>
    a5dc:	4b6d      	ldr	r3, [pc, #436]	; (a794 <__kernel_rem_pio2+0x2fc>)
    a5de:	2200      	movs	r2, #0
    a5e0:	4606      	mov	r6, r0
    a5e2:	460f      	mov	r7, r1
    a5e4:	f000 ff36 	bl	b454 <__aeabi_dmul>
    a5e8:	4602      	mov	r2, r0
    a5ea:	460b      	mov	r3, r1
    a5ec:	4620      	mov	r0, r4
    a5ee:	4629      	mov	r1, r5
    a5f0:	f000 fd78 	bl	b0e4 <__aeabi_dsub>
    a5f4:	f001 f9de 	bl	b9b4 <__aeabi_d2iz>
    a5f8:	e978 2302 	ldrd	r2, r3, [r8, #-8]!
    a5fc:	f849 0b04 	str.w	r0, [r9], #4
    a600:	4639      	mov	r1, r7
    a602:	4630      	mov	r0, r6
    a604:	f000 fd70 	bl	b0e8 <__adddf3>
    a608:	45d0      	cmp	r8, sl
    a60a:	4604      	mov	r4, r0
    a60c:	460d      	mov	r5, r1
    a60e:	d1db      	bne.n	a5c8 <__kernel_rem_pio2+0x130>
    a610:	f8dd 9018 	ldr.w	r9, [sp, #24]
    a614:	4620      	mov	r0, r4
    a616:	4629      	mov	r1, r5
    a618:	464a      	mov	r2, r9
    a61a:	f000 fce5 	bl	afe8 <scalbn>
    a61e:	2200      	movs	r2, #0
    a620:	f04f 537f 	mov.w	r3, #1069547520	; 0x3fc00000
    a624:	4604      	mov	r4, r0
    a626:	460d      	mov	r5, r1
    a628:	f000 ff14 	bl	b454 <__aeabi_dmul>
    a62c:	f000 fc58 	bl	aee0 <floor>
    a630:	4b59      	ldr	r3, [pc, #356]	; (a798 <__kernel_rem_pio2+0x300>)
    a632:	2200      	movs	r2, #0
    a634:	f000 ff0e 	bl	b454 <__aeabi_dmul>
    a638:	4602      	mov	r2, r0
    a63a:	460b      	mov	r3, r1
    a63c:	4620      	mov	r0, r4
    a63e:	4629      	mov	r1, r5
    a640:	f000 fd50 	bl	b0e4 <__aeabi_dsub>
    a644:	460d      	mov	r5, r1
    a646:	4604      	mov	r4, r0
    a648:	f001 f9b4 	bl	b9b4 <__aeabi_d2iz>
    a64c:	4680      	mov	r8, r0
    a64e:	f000 fe97 	bl	b380 <__aeabi_i2d>
    a652:	460b      	mov	r3, r1
    a654:	4602      	mov	r2, r0
    a656:	4629      	mov	r1, r5
    a658:	4620      	mov	r0, r4
    a65a:	f000 fd43 	bl	b0e4 <__aeabi_dsub>
    a65e:	464b      	mov	r3, r9
    a660:	2b00      	cmp	r3, #0
    a662:	4606      	mov	r6, r0
    a664:	460f      	mov	r7, r1
    a666:	f340 8099 	ble.w	a79c <__kernel_rem_pio2+0x304>
    a66a:	9a01      	ldr	r2, [sp, #4]
    a66c:	1e51      	subs	r1, r2, #1
    a66e:	aa0c      	add	r2, sp, #48	; 0x30
    a670:	f1c9 0318 	rsb	r3, r9, #24
    a674:	f852 2021 	ldr.w	r2, [r2, r1, lsl #2]
    a678:	fa42 f003 	asr.w	r0, r2, r3
    a67c:	fa00 f303 	lsl.w	r3, r0, r3
    a680:	1ad3      	subs	r3, r2, r3
    a682:	f1c9 0517 	rsb	r5, r9, #23
    a686:	aa0c      	add	r2, sp, #48	; 0x30
    a688:	fa43 f505 	asr.w	r5, r3, r5
    a68c:	2d00      	cmp	r5, #0
    a68e:	f842 3021 	str.w	r3, [r2, r1, lsl #2]
    a692:	4480      	add	r8, r0
    a694:	f300 808c 	bgt.w	a7b0 <__kernel_rem_pio2+0x318>
    a698:	2200      	movs	r2, #0
    a69a:	2300      	movs	r3, #0
    a69c:	4630      	mov	r0, r6
    a69e:	4639      	mov	r1, r7
    a6a0:	f001 f940 	bl	b924 <__aeabi_dcmpeq>
    a6a4:	2800      	cmp	r0, #0
    a6a6:	f000 8252 	beq.w	ab4e <__kernel_rem_pio2+0x6b6>
    a6aa:	9b01      	ldr	r3, [sp, #4]
    a6ac:	9a05      	ldr	r2, [sp, #20]
    a6ae:	f103 3aff 	add.w	sl, r3, #4294967295	; 0xffffffff
    a6b2:	4552      	cmp	r2, sl
    a6b4:	dc10      	bgt.n	a6d8 <__kernel_rem_pio2+0x240>
    a6b6:	f103 4380 	add.w	r3, r3, #1073741824	; 0x40000000
    a6ba:	aa0c      	add	r2, sp, #48	; 0x30
    a6bc:	3b01      	subs	r3, #1
    a6be:	980a      	ldr	r0, [sp, #40]	; 0x28
    a6c0:	eb02 0383 	add.w	r3, r2, r3, lsl #2
    a6c4:	2200      	movs	r2, #0
    a6c6:	f853 1904 	ldr.w	r1, [r3], #-4
    a6ca:	4283      	cmp	r3, r0
    a6cc:	ea42 0201 	orr.w	r2, r2, r1
    a6d0:	d1f9      	bne.n	a6c6 <__kernel_rem_pio2+0x22e>
    a6d2:	2a00      	cmp	r2, #0
    a6d4:	f040 80f0 	bne.w	a8b8 <__kernel_rem_pio2+0x420>
    a6d8:	9b05      	ldr	r3, [sp, #20]
    a6da:	aa0c      	add	r2, sp, #48	; 0x30
    a6dc:	3b01      	subs	r3, #1
    a6de:	f852 3023 	ldr.w	r3, [r2, r3, lsl #2]
    a6e2:	2b00      	cmp	r3, #0
    a6e4:	f040 80e0 	bne.w	a8a8 <__kernel_rem_pio2+0x410>
    a6e8:	9a09      	ldr	r2, [sp, #36]	; 0x24
    a6ea:	2301      	movs	r3, #1
    a6ec:	f852 1904 	ldr.w	r1, [r2], #-4
    a6f0:	3301      	adds	r3, #1
    a6f2:	2900      	cmp	r1, #0
    a6f4:	d0fa      	beq.n	a6ec <__kernel_rem_pio2+0x254>
    a6f6:	9a01      	ldr	r2, [sp, #4]
    a6f8:	18d3      	adds	r3, r2, r3
    a6fa:	9302      	str	r3, [sp, #8]
    a6fc:	1c53      	adds	r3, r2, #1
    a6fe:	4699      	mov	r9, r3
    a700:	f8dd 8004 	ldr.w	r8, [sp, #4]
    a704:	9a08      	ldr	r2, [sp, #32]
    a706:	4490      	add	r8, r2
    a708:	9a07      	ldr	r2, [sp, #28]
    a70a:	eb02 0a03 	add.w	sl, r2, r3
    a70e:	f10a 4a80 	add.w	sl, sl, #1073741824	; 0x40000000
    a712:	9aa3      	ldr	r2, [sp, #652]	; 0x28c
    a714:	f10a 3aff 	add.w	sl, sl, #4294967295	; 0xffffffff
    a718:	eb02 0a8a 	add.w	sl, r2, sl, lsl #2
    a71c:	aa20      	add	r2, sp, #128	; 0x80
    a71e:	eb02 08c8 	add.w	r8, r2, r8, lsl #3
    a722:	aa70      	add	r2, sp, #448	; 0x1c0
    a724:	eb02 03c3 	add.w	r3, r2, r3, lsl #3
    a728:	9301      	str	r3, [sp, #4]
    a72a:	f85a 0f04 	ldr.w	r0, [sl, #4]!
    a72e:	f000 fe27 	bl	b380 <__aeabi_i2d>
    a732:	9b03      	ldr	r3, [sp, #12]
    a734:	2b00      	cmp	r3, #0
    a736:	e9c8 0100 	strd	r0, r1, [r8]
    a73a:	4647      	mov	r7, r8
    a73c:	f108 0808 	add.w	r8, r8, #8
    a740:	db1f      	blt.n	a782 <__kernel_rem_pio2+0x2ea>
    a742:	9e04      	ldr	r6, [sp, #16]
    a744:	3f08      	subs	r7, #8
    a746:	2400      	movs	r4, #0
    a748:	2500      	movs	r5, #0
    a74a:	e001      	b.n	a750 <__kernel_rem_pio2+0x2b8>
    a74c:	e877 0102 	ldrd	r0, r1, [r7], #-8
    a750:	e9f6 2302 	ldrd	r2, r3, [r6, #8]!
    a754:	f000 fe7e 	bl	b454 <__aeabi_dmul>
    a758:	4602      	mov	r2, r0
    a75a:	460b      	mov	r3, r1
    a75c:	4620      	mov	r0, r4
    a75e:	4629      	mov	r1, r5
    a760:	f000 fcc2 	bl	b0e8 <__adddf3>
    a764:	455e      	cmp	r6, fp
    a766:	4604      	mov	r4, r0
    a768:	460d      	mov	r5, r1
    a76a:	d1ef      	bne.n	a74c <__kernel_rem_pio2+0x2b4>
    a76c:	9b01      	ldr	r3, [sp, #4]
    a76e:	e8e3 4502 	strd	r4, r5, [r3], #8
    a772:	9301      	str	r3, [sp, #4]
    a774:	9b02      	ldr	r3, [sp, #8]
    a776:	f109 0901 	add.w	r9, r9, #1
    a77a:	4599      	cmp	r9, r3
    a77c:	ddd5      	ble.n	a72a <__kernel_rem_pio2+0x292>
    a77e:	9301      	str	r3, [sp, #4]
    a780:	e714      	b.n	a5ac <__kernel_rem_pio2+0x114>
    a782:	2400      	movs	r4, #0
    a784:	2500      	movs	r5, #0
    a786:	e7f1      	b.n	a76c <__kernel_rem_pio2+0x2d4>
    a788:	0000be88 	.word	0x0000be88
    a78c:	2aaaaaab 	.word	0x2aaaaaab
    a790:	3e700000 	.word	0x3e700000
    a794:	41700000 	.word	0x41700000
    a798:	40200000 	.word	0x40200000
    a79c:	d16b      	bne.n	a876 <__kernel_rem_pio2+0x3de>
    a79e:	9b01      	ldr	r3, [sp, #4]
    a7a0:	aa0c      	add	r2, sp, #48	; 0x30
    a7a2:	3b01      	subs	r3, #1
    a7a4:	f852 5023 	ldr.w	r5, [r2, r3, lsl #2]
    a7a8:	15ed      	asrs	r5, r5, #23
    a7aa:	2d00      	cmp	r5, #0
    a7ac:	f77f af74 	ble.w	a698 <__kernel_rem_pio2+0x200>
    a7b0:	9b01      	ldr	r3, [sp, #4]
    a7b2:	2b00      	cmp	r3, #0
    a7b4:	f108 0801 	add.w	r8, r8, #1
    a7b8:	f340 81c7 	ble.w	ab4a <__kernel_rem_pio2+0x6b2>
    a7bc:	9c0c      	ldr	r4, [sp, #48]	; 0x30
    a7be:	2c00      	cmp	r4, #0
    a7c0:	d151      	bne.n	a866 <__kernel_rem_pio2+0x3ce>
    a7c2:	9b01      	ldr	r3, [sp, #4]
    a7c4:	2b01      	cmp	r3, #1
    a7c6:	d020      	beq.n	a80a <__kernel_rem_pio2+0x372>
    a7c8:	ab0c      	add	r3, sp, #48	; 0x30
    a7ca:	2201      	movs	r2, #1
    a7cc:	f853 4f04 	ldr.w	r4, [r3, #4]!
    a7d0:	2c00      	cmp	r4, #0
    a7d2:	d04b      	beq.n	a86c <__kernel_rem_pio2+0x3d4>
    a7d4:	1c53      	adds	r3, r2, #1
    a7d6:	a90c      	add	r1, sp, #48	; 0x30
    a7d8:	f1c4 7480 	rsb	r4, r4, #16777216	; 0x1000000
    a7dc:	f841 4022 	str.w	r4, [r1, r2, lsl #2]
    a7e0:	9901      	ldr	r1, [sp, #4]
    a7e2:	4299      	cmp	r1, r3
    a7e4:	dd10      	ble.n	a808 <__kernel_rem_pio2+0x370>
    a7e6:	aa0c      	add	r2, sp, #48	; 0x30
    a7e8:	a80c      	add	r0, sp, #48	; 0x30
    a7ea:	f852 2023 	ldr.w	r2, [r2, r3, lsl #2]
    a7ee:	eb00 0383 	add.w	r3, r0, r3, lsl #2
    a7f2:	eb00 0081 	add.w	r0, r0, r1, lsl #2
    a7f6:	f06f 417f 	mvn.w	r1, #4278190080	; 0xff000000
    a7fa:	e000      	b.n	a7fe <__kernel_rem_pio2+0x366>
    a7fc:	681a      	ldr	r2, [r3, #0]
    a7fe:	1a8a      	subs	r2, r1, r2
    a800:	f843 2b04 	str.w	r2, [r3], #4
    a804:	4283      	cmp	r3, r0
    a806:	d1f9      	bne.n	a7fc <__kernel_rem_pio2+0x364>
    a808:	2401      	movs	r4, #1
    a80a:	9b06      	ldr	r3, [sp, #24]
    a80c:	2b00      	cmp	r3, #0
    a80e:	dd0e      	ble.n	a82e <__kernel_rem_pio2+0x396>
    a810:	2b01      	cmp	r3, #1
    a812:	f000 818a 	beq.w	ab2a <__kernel_rem_pio2+0x692>
    a816:	2b02      	cmp	r3, #2
    a818:	d109      	bne.n	a82e <__kernel_rem_pio2+0x396>
    a81a:	9b01      	ldr	r3, [sp, #4]
    a81c:	1e5a      	subs	r2, r3, #1
    a81e:	ab0c      	add	r3, sp, #48	; 0x30
    a820:	a90c      	add	r1, sp, #48	; 0x30
    a822:	f853 3022 	ldr.w	r3, [r3, r2, lsl #2]
    a826:	f3c3 0315 	ubfx	r3, r3, #0, #22
    a82a:	f841 3022 	str.w	r3, [r1, r2, lsl #2]
    a82e:	2d02      	cmp	r5, #2
    a830:	f47f af32 	bne.w	a698 <__kernel_rem_pio2+0x200>
    a834:	4632      	mov	r2, r6
    a836:	463b      	mov	r3, r7
    a838:	4979      	ldr	r1, [pc, #484]	; (aa20 <__kernel_rem_pio2+0x588>)
    a83a:	2000      	movs	r0, #0
    a83c:	f000 fc52 	bl	b0e4 <__aeabi_dsub>
    a840:	4606      	mov	r6, r0
    a842:	460f      	mov	r7, r1
    a844:	2c00      	cmp	r4, #0
    a846:	f43f af27 	beq.w	a698 <__kernel_rem_pio2+0x200>
    a84a:	9a06      	ldr	r2, [sp, #24]
    a84c:	4974      	ldr	r1, [pc, #464]	; (aa20 <__kernel_rem_pio2+0x588>)
    a84e:	2000      	movs	r0, #0
    a850:	f000 fbca 	bl	afe8 <scalbn>
    a854:	4602      	mov	r2, r0
    a856:	460b      	mov	r3, r1
    a858:	4630      	mov	r0, r6
    a85a:	4639      	mov	r1, r7
    a85c:	f000 fc42 	bl	b0e4 <__aeabi_dsub>
    a860:	4606      	mov	r6, r0
    a862:	460f      	mov	r7, r1
    a864:	e718      	b.n	a698 <__kernel_rem_pio2+0x200>
    a866:	2301      	movs	r3, #1
    a868:	2200      	movs	r2, #0
    a86a:	e7b4      	b.n	a7d6 <__kernel_rem_pio2+0x33e>
    a86c:	9901      	ldr	r1, [sp, #4]
    a86e:	3201      	adds	r2, #1
    a870:	428a      	cmp	r2, r1
    a872:	d1ab      	bne.n	a7cc <__kernel_rem_pio2+0x334>
    a874:	e7c9      	b.n	a80a <__kernel_rem_pio2+0x372>
    a876:	4b6b      	ldr	r3, [pc, #428]	; (aa24 <__kernel_rem_pio2+0x58c>)
    a878:	2200      	movs	r2, #0
    a87a:	f001 f871 	bl	b960 <__aeabi_dcmpge>
    a87e:	4605      	mov	r5, r0
    a880:	2800      	cmp	r0, #0
    a882:	f43f af09 	beq.w	a698 <__kernel_rem_pio2+0x200>
    a886:	9b01      	ldr	r3, [sp, #4]
    a888:	2b00      	cmp	r3, #0
    a88a:	f108 0801 	add.w	r8, r8, #1
    a88e:	bfc8      	it	gt
    a890:	2502      	movgt	r5, #2
    a892:	dc93      	bgt.n	a7bc <__kernel_rem_pio2+0x324>
    a894:	4632      	mov	r2, r6
    a896:	463b      	mov	r3, r7
    a898:	4961      	ldr	r1, [pc, #388]	; (aa20 <__kernel_rem_pio2+0x588>)
    a89a:	2000      	movs	r0, #0
    a89c:	f000 fc22 	bl	b0e4 <__aeabi_dsub>
    a8a0:	2502      	movs	r5, #2
    a8a2:	4606      	mov	r6, r0
    a8a4:	460f      	mov	r7, r1
    a8a6:	e6f7      	b.n	a698 <__kernel_rem_pio2+0x200>
    a8a8:	9b01      	ldr	r3, [sp, #4]
    a8aa:	3301      	adds	r3, #1
    a8ac:	4699      	mov	r9, r3
    a8ae:	9302      	str	r3, [sp, #8]
    a8b0:	e726      	b.n	a700 <__kernel_rem_pio2+0x268>
    a8b2:	2400      	movs	r4, #0
    a8b4:	2500      	movs	r5, #0
    a8b6:	e661      	b.n	a57c <__kernel_rem_pio2+0xe4>
    a8b8:	9b06      	ldr	r3, [sp, #24]
    a8ba:	9503      	str	r5, [sp, #12]
    a8bc:	f1a3 0218 	sub.w	r2, r3, #24
    a8c0:	ab0c      	add	r3, sp, #48	; 0x30
    a8c2:	f8cd 801c 	str.w	r8, [sp, #28]
    a8c6:	f853 302a 	ldr.w	r3, [r3, sl, lsl #2]
    a8ca:	9206      	str	r2, [sp, #24]
    a8cc:	b973      	cbnz	r3, a8ec <__kernel_rem_pio2+0x454>
    a8ce:	9b01      	ldr	r3, [sp, #4]
    a8d0:	f103 4380 	add.w	r3, r3, #1073741824	; 0x40000000
    a8d4:	3b02      	subs	r3, #2
    a8d6:	a90c      	add	r1, sp, #48	; 0x30
    a8d8:	eb01 0383 	add.w	r3, r1, r3, lsl #2
    a8dc:	f853 1904 	ldr.w	r1, [r3], #-4
    a8e0:	f10a 3aff 	add.w	sl, sl, #4294967295	; 0xffffffff
    a8e4:	3a18      	subs	r2, #24
    a8e6:	2900      	cmp	r1, #0
    a8e8:	d0f8      	beq.n	a8dc <__kernel_rem_pio2+0x444>
    a8ea:	9206      	str	r2, [sp, #24]
    a8ec:	9a06      	ldr	r2, [sp, #24]
    a8ee:	494c      	ldr	r1, [pc, #304]	; (aa20 <__kernel_rem_pio2+0x588>)
    a8f0:	2000      	movs	r0, #0
    a8f2:	f000 fb79 	bl	afe8 <scalbn>
    a8f6:	f1ba 0f00 	cmp.w	sl, #0
    a8fa:	4604      	mov	r4, r0
    a8fc:	460d      	mov	r5, r1
    a8fe:	f2c0 81d6 	blt.w	acae <__kernel_rem_pio2+0x816>
    a902:	ab70      	add	r3, sp, #448	; 0x1c0
    a904:	eb03 0bca 	add.w	fp, r3, sl, lsl #3
    a908:	aa0c      	add	r2, sp, #48	; 0x30
    a90a:	f10a 0301 	add.w	r3, sl, #1
    a90e:	9306      	str	r3, [sp, #24]
    a910:	eb02 0683 	add.w	r6, r2, r3, lsl #2
    a914:	f8df 9110 	ldr.w	r9, [pc, #272]	; aa28 <__kernel_rem_pio2+0x590>
    a918:	ea4f 03ca 	mov.w	r3, sl, lsl #3
    a91c:	9304      	str	r3, [sp, #16]
    a91e:	f10b 0708 	add.w	r7, fp, #8
    a922:	f04f 0800 	mov.w	r8, #0
    a926:	f856 0d04 	ldr.w	r0, [r6, #-4]!
    a92a:	f000 fd29 	bl	b380 <__aeabi_i2d>
    a92e:	4622      	mov	r2, r4
    a930:	462b      	mov	r3, r5
    a932:	f000 fd8f 	bl	b454 <__aeabi_dmul>
    a936:	464b      	mov	r3, r9
    a938:	e967 0102 	strd	r0, r1, [r7, #-8]!
    a93c:	4642      	mov	r2, r8
    a93e:	4620      	mov	r0, r4
    a940:	4629      	mov	r1, r5
    a942:	f000 fd87 	bl	b454 <__aeabi_dmul>
    a946:	ab0c      	add	r3, sp, #48	; 0x30
    a948:	429e      	cmp	r6, r3
    a94a:	4604      	mov	r4, r0
    a94c:	460d      	mov	r5, r1
    a94e:	d1ea      	bne.n	a926 <__kernel_rem_pio2+0x48e>
    a950:	ab48      	add	r3, sp, #288	; 0x120
    a952:	e9cd 3a01 	strd	r3, sl, [sp, #4]
    a956:	f8dd a014 	ldr.w	sl, [sp, #20]
    a95a:	f1ba 0f00 	cmp.w	sl, #0
    a95e:	f04f 0900 	mov.w	r9, #0
    a962:	db2c      	blt.n	a9be <__kernel_rem_pio2+0x526>
    a964:	a32c      	add	r3, pc, #176	; (adr r3, aa18 <__kernel_rem_pio2+0x580>)
    a966:	e9d3 2300 	ldrd	r2, r3, [r3]
    a96a:	f8df 80c0 	ldr.w	r8, [pc, #192]	; aa2c <__kernel_rem_pio2+0x594>
    a96e:	465f      	mov	r7, fp
    a970:	2600      	movs	r6, #0
    a972:	2400      	movs	r4, #0
    a974:	2500      	movs	r5, #0
    a976:	e003      	b.n	a980 <__kernel_rem_pio2+0x4e8>
    a978:	45b1      	cmp	r9, r6
    a97a:	db10      	blt.n	a99e <__kernel_rem_pio2+0x506>
    a97c:	e8f8 2302 	ldrd	r2, r3, [r8], #8
    a980:	e8f7 0102 	ldrd	r0, r1, [r7], #8
    a984:	f000 fd66 	bl	b454 <__aeabi_dmul>
    a988:	4602      	mov	r2, r0
    a98a:	460b      	mov	r3, r1
    a98c:	4620      	mov	r0, r4
    a98e:	4629      	mov	r1, r5
    a990:	f000 fbaa 	bl	b0e8 <__adddf3>
    a994:	3601      	adds	r6, #1
    a996:	45b2      	cmp	sl, r6
    a998:	4604      	mov	r4, r0
    a99a:	460d      	mov	r5, r1
    a99c:	daec      	bge.n	a978 <__kernel_rem_pio2+0x4e0>
    a99e:	9b01      	ldr	r3, [sp, #4]
    a9a0:	9a02      	ldr	r2, [sp, #8]
    a9a2:	eb03 03c9 	add.w	r3, r3, r9, lsl #3
    a9a6:	4591      	cmp	r9, r2
    a9a8:	e9c3 4500 	strd	r4, r5, [r3]
    a9ac:	f1ab 0b08 	sub.w	fp, fp, #8
    a9b0:	f109 0301 	add.w	r3, r9, #1
    a9b4:	d006      	beq.n	a9c4 <__kernel_rem_pio2+0x52c>
    a9b6:	f1ba 0f00 	cmp.w	sl, #0
    a9ba:	4699      	mov	r9, r3
    a9bc:	dad2      	bge.n	a964 <__kernel_rem_pio2+0x4cc>
    a9be:	2400      	movs	r4, #0
    a9c0:	2500      	movs	r5, #0
    a9c2:	e7ec      	b.n	a99e <__kernel_rem_pio2+0x506>
    a9c4:	9ba2      	ldr	r3, [sp, #648]	; 0x288
    a9c6:	f8dd a008 	ldr.w	sl, [sp, #8]
    a9ca:	2b02      	cmp	r3, #2
    a9cc:	dc30      	bgt.n	aa30 <__kernel_rem_pio2+0x598>
    a9ce:	2b00      	cmp	r3, #0
    a9d0:	f300 80f0 	bgt.w	abb4 <__kernel_rem_pio2+0x71c>
    a9d4:	d118      	bne.n	aa08 <__kernel_rem_pio2+0x570>
    a9d6:	9c04      	ldr	r4, [sp, #16]
    a9d8:	9aa2      	ldr	r2, [sp, #648]	; 0x288
    a9da:	9d01      	ldr	r5, [sp, #4]
    a9dc:	3408      	adds	r4, #8
    a9de:	442c      	add	r4, r5
    a9e0:	4613      	mov	r3, r2
    a9e2:	4610      	mov	r0, r2
    a9e4:	4619      	mov	r1, r3
    a9e6:	e974 2302 	ldrd	r2, r3, [r4, #-8]!
    a9ea:	f000 fb7d 	bl	b0e8 <__adddf3>
    a9ee:	42a5      	cmp	r5, r4
    a9f0:	4602      	mov	r2, r0
    a9f2:	460b      	mov	r3, r1
    a9f4:	d1f5      	bne.n	a9e2 <__kernel_rem_pio2+0x54a>
    a9f6:	9903      	ldr	r1, [sp, #12]
    a9f8:	b109      	cbz	r1, a9fe <__kernel_rem_pio2+0x566>
    a9fa:	f103 4300 	add.w	r3, r3, #2147483648	; 0x80000000
    a9fe:	4619      	mov	r1, r3
    aa00:	9b0b      	ldr	r3, [sp, #44]	; 0x2c
    aa02:	4610      	mov	r0, r2
    aa04:	e9c3 0100 	strd	r0, r1, [r3]
    aa08:	9b07      	ldr	r3, [sp, #28]
    aa0a:	f003 0007 	and.w	r0, r3, #7
    aa0e:	f50d 7d19 	add.w	sp, sp, #612	; 0x264
    aa12:	e8bd 8ff0 	ldmia.w	sp!, {r4, r5, r6, r7, r8, r9, sl, fp, pc}
    aa16:	bf00      	nop
    aa18:	40000000 	.word	0x40000000
    aa1c:	3ff921fb 	.word	0x3ff921fb
    aa20:	3ff00000 	.word	0x3ff00000
    aa24:	3fe00000 	.word	0x3fe00000
    aa28:	3e700000 	.word	0x3e700000
    aa2c:	0000be50 	.word	0x0000be50
    aa30:	9ba2      	ldr	r3, [sp, #648]	; 0x288
    aa32:	2b03      	cmp	r3, #3
    aa34:	d1e8      	bne.n	aa08 <__kernel_rem_pio2+0x570>
    aa36:	f1ba 0f00 	cmp.w	sl, #0
    aa3a:	f000 814e 	beq.w	acda <__kernel_rem_pio2+0x842>
    aa3e:	9b01      	ldr	r3, [sp, #4]
    aa40:	9a04      	ldr	r2, [sp, #16]
    aa42:	4413      	add	r3, r2
    aa44:	e9d3 4500 	ldrd	r4, r5, [r3]
    aa48:	469b      	mov	fp, r3
    aa4a:	e95b 6702 	ldrd	r6, r7, [fp, #-8]
    aa4e:	4620      	mov	r0, r4
    aa50:	4629      	mov	r1, r5
    aa52:	4632      	mov	r2, r6
    aa54:	463b      	mov	r3, r7
    aa56:	f000 fb47 	bl	b0e8 <__adddf3>
    aa5a:	46a0      	mov	r8, r4
    aa5c:	46a9      	mov	r9, r5
    aa5e:	4604      	mov	r4, r0
    aa60:	460d      	mov	r5, r1
    aa62:	4622      	mov	r2, r4
    aa64:	462b      	mov	r3, r5
    aa66:	4630      	mov	r0, r6
    aa68:	4639      	mov	r1, r7
    aa6a:	f000 fb3b 	bl	b0e4 <__aeabi_dsub>
    aa6e:	464b      	mov	r3, r9
    aa70:	4642      	mov	r2, r8
    aa72:	f000 fb39 	bl	b0e8 <__adddf3>
    aa76:	e9cb 0100 	strd	r0, r1, [fp]
    aa7a:	e96b 4502 	strd	r4, r5, [fp, #-8]!
    aa7e:	9b01      	ldr	r3, [sp, #4]
    aa80:	455b      	cmp	r3, fp
    aa82:	d1e2      	bne.n	aa4a <__kernel_rem_pio2+0x5b2>
    aa84:	f1ba 0f01 	cmp.w	sl, #1
    aa88:	f340 8127 	ble.w	acda <__kernel_rem_pio2+0x842>
    aa8c:	9b04      	ldr	r3, [sp, #16]
    aa8e:	9a01      	ldr	r2, [sp, #4]
    aa90:	4413      	add	r3, r2
    aa92:	e9d3 4500 	ldrd	r4, r5, [r3]
    aa96:	9302      	str	r3, [sp, #8]
    aa98:	469a      	mov	sl, r3
    aa9a:	f50d 7b94 	add.w	fp, sp, #296	; 0x128
    aa9e:	e95a 6702 	ldrd	r6, r7, [sl, #-8]
    aaa2:	4620      	mov	r0, r4
    aaa4:	4629      	mov	r1, r5
    aaa6:	4632      	mov	r2, r6
    aaa8:	463b      	mov	r3, r7
    aaaa:	f000 fb1d 	bl	b0e8 <__adddf3>
    aaae:	46a0      	mov	r8, r4
    aab0:	46a9      	mov	r9, r5
    aab2:	4604      	mov	r4, r0
    aab4:	460d      	mov	r5, r1
    aab6:	4622      	mov	r2, r4
    aab8:	462b      	mov	r3, r5
    aaba:	4630      	mov	r0, r6
    aabc:	4639      	mov	r1, r7
    aabe:	f000 fb11 	bl	b0e4 <__aeabi_dsub>
    aac2:	4642      	mov	r2, r8
    aac4:	464b      	mov	r3, r9
    aac6:	f000 fb0f 	bl	b0e8 <__adddf3>
    aaca:	e9ca 0100 	strd	r0, r1, [sl]
    aace:	e96a 4502 	strd	r4, r5, [sl, #-8]!
    aad2:	45d3      	cmp	fp, sl
    aad4:	d1e3      	bne.n	aa9e <__kernel_rem_pio2+0x606>
    aad6:	9a01      	ldr	r2, [sp, #4]
    aad8:	9c02      	ldr	r4, [sp, #8]
    aada:	2300      	movs	r3, #0
    aadc:	f102 0510 	add.w	r5, r2, #16
    aae0:	3408      	adds	r4, #8
    aae2:	461a      	mov	r2, r3
    aae4:	4618      	mov	r0, r3
    aae6:	4611      	mov	r1, r2
    aae8:	e974 2302 	ldrd	r2, r3, [r4, #-8]!
    aaec:	f000 fafc 	bl	b0e8 <__adddf3>
    aaf0:	42a5      	cmp	r5, r4
    aaf2:	4603      	mov	r3, r0
    aaf4:	460a      	mov	r2, r1
    aaf6:	d1f5      	bne.n	aae4 <__kernel_rem_pio2+0x64c>
    aaf8:	9903      	ldr	r1, [sp, #12]
    aafa:	2900      	cmp	r1, #0
    aafc:	f040 80a4 	bne.w	ac48 <__kernel_rem_pio2+0x7b0>
    ab00:	4618      	mov	r0, r3
    ab02:	9b01      	ldr	r3, [sp, #4]
    ab04:	9c0b      	ldr	r4, [sp, #44]	; 0x2c
    ab06:	4611      	mov	r1, r2
    ab08:	e9d3 2302 	ldrd	r2, r3, [r3, #8]
    ab0c:	e9c4 2302 	strd	r2, r3, [r4, #8]
    ab10:	e9dd 2348 	ldrd	r2, r3, [sp, #288]	; 0x120
    ab14:	e9c4 2300 	strd	r2, r3, [r4]
    ab18:	9b07      	ldr	r3, [sp, #28]
    ab1a:	e9c4 0104 	strd	r0, r1, [r4, #16]
    ab1e:	f003 0007 	and.w	r0, r3, #7
    ab22:	f50d 7d19 	add.w	sp, sp, #612	; 0x264
    ab26:	e8bd 8ff0 	ldmia.w	sp!, {r4, r5, r6, r7, r8, r9, sl, fp, pc}
    ab2a:	9b01      	ldr	r3, [sp, #4]
    ab2c:	1e5a      	subs	r2, r3, #1
    ab2e:	ab0c      	add	r3, sp, #48	; 0x30
    ab30:	a90c      	add	r1, sp, #48	; 0x30
    ab32:	f853 3022 	ldr.w	r3, [r3, r2, lsl #2]
    ab36:	f3c3 0316 	ubfx	r3, r3, #0, #23
    ab3a:	f841 3022 	str.w	r3, [r1, r2, lsl #2]
    ab3e:	e676      	b.n	a82e <__kernel_rem_pio2+0x396>
    ab40:	2100      	movs	r1, #0
    ab42:	f06f 0317 	mvn.w	r3, #23
    ab46:	9107      	str	r1, [sp, #28]
    ab48:	e4c6      	b.n	a4d8 <__kernel_rem_pio2+0x40>
    ab4a:	2400      	movs	r4, #0
    ab4c:	e65d      	b.n	a80a <__kernel_rem_pio2+0x372>
    ab4e:	9c06      	ldr	r4, [sp, #24]
    ab50:	9503      	str	r5, [sp, #12]
    ab52:	4630      	mov	r0, r6
    ab54:	4639      	mov	r1, r7
    ab56:	4262      	negs	r2, r4
    ab58:	f8cd 801c 	str.w	r8, [sp, #28]
    ab5c:	f000 fa44 	bl	afe8 <scalbn>
    ab60:	4b5f      	ldr	r3, [pc, #380]	; (ace0 <__kernel_rem_pio2+0x848>)
    ab62:	2200      	movs	r2, #0
    ab64:	4606      	mov	r6, r0
    ab66:	460f      	mov	r7, r1
    ab68:	f000 fefa 	bl	b960 <__aeabi_dcmpge>
    ab6c:	2800      	cmp	r0, #0
    ab6e:	d061      	beq.n	ac34 <__kernel_rem_pio2+0x79c>
    ab70:	4b5c      	ldr	r3, [pc, #368]	; (ace4 <__kernel_rem_pio2+0x84c>)
    ab72:	9d01      	ldr	r5, [sp, #4]
    ab74:	2200      	movs	r2, #0
    ab76:	3418      	adds	r4, #24
    ab78:	4630      	mov	r0, r6
    ab7a:	4639      	mov	r1, r7
    ab7c:	9406      	str	r4, [sp, #24]
    ab7e:	f000 fc69 	bl	b454 <__aeabi_dmul>
    ab82:	f000 ff17 	bl	b9b4 <__aeabi_d2iz>
    ab86:	4604      	mov	r4, r0
    ab88:	f000 fbfa 	bl	b380 <__aeabi_i2d>
    ab8c:	4b54      	ldr	r3, [pc, #336]	; (ace0 <__kernel_rem_pio2+0x848>)
    ab8e:	2200      	movs	r2, #0
    ab90:	f000 fc60 	bl	b454 <__aeabi_dmul>
    ab94:	460b      	mov	r3, r1
    ab96:	4602      	mov	r2, r0
    ab98:	4639      	mov	r1, r7
    ab9a:	4630      	mov	r0, r6
    ab9c:	f000 faa2 	bl	b0e4 <__aeabi_dsub>
    aba0:	f000 ff08 	bl	b9b4 <__aeabi_d2iz>
    aba4:	f105 0a01 	add.w	sl, r5, #1
    aba8:	ab0c      	add	r3, sp, #48	; 0x30
    abaa:	f843 0025 	str.w	r0, [r3, r5, lsl #2]
    abae:	f843 402a 	str.w	r4, [r3, sl, lsl #2]
    abb2:	e69b      	b.n	a8ec <__kernel_rem_pio2+0x454>
    abb4:	9b06      	ldr	r3, [sp, #24]
    abb6:	9d01      	ldr	r5, [sp, #4]
    abb8:	2600      	movs	r6, #0
    abba:	eb05 04c3 	add.w	r4, r5, r3, lsl #3
    abbe:	4633      	mov	r3, r6
    abc0:	4630      	mov	r0, r6
    abc2:	4619      	mov	r1, r3
    abc4:	e974 2302 	ldrd	r2, r3, [r4, #-8]!
    abc8:	f000 fa8e 	bl	b0e8 <__adddf3>
    abcc:	42a5      	cmp	r5, r4
    abce:	4606      	mov	r6, r0
    abd0:	460b      	mov	r3, r1
    abd2:	d1f5      	bne.n	abc0 <__kernel_rem_pio2+0x728>
    abd4:	9a03      	ldr	r2, [sp, #12]
    abd6:	4630      	mov	r0, r6
    abd8:	2a00      	cmp	r2, #0
    abda:	d14f      	bne.n	ac7c <__kernel_rem_pio2+0x7e4>
    abdc:	4619      	mov	r1, r3
    abde:	9b0b      	ldr	r3, [sp, #44]	; 0x2c
    abe0:	4632      	mov	r2, r6
    abe2:	e9c3 0100 	strd	r0, r1, [r3]
    abe6:	460b      	mov	r3, r1
    abe8:	e9dd 0148 	ldrd	r0, r1, [sp, #288]	; 0x120
    abec:	f000 fa7a 	bl	b0e4 <__aeabi_dsub>
    abf0:	f1ba 0f00 	cmp.w	sl, #0
    abf4:	4602      	mov	r2, r0
    abf6:	460b      	mov	r3, r1
    abf8:	dd10      	ble.n	ac1c <__kernel_rem_pio2+0x784>
    abfa:	ad48      	add	r5, sp, #288	; 0x120
    abfc:	2401      	movs	r4, #1
    abfe:	4610      	mov	r0, r2
    ac00:	4619      	mov	r1, r3
    ac02:	e9f5 2302 	ldrd	r2, r3, [r5, #8]!
    ac06:	f000 fa6f 	bl	b0e8 <__adddf3>
    ac0a:	3401      	adds	r4, #1
    ac0c:	45a2      	cmp	sl, r4
    ac0e:	4602      	mov	r2, r0
    ac10:	460b      	mov	r3, r1
    ac12:	daf4      	bge.n	abfe <__kernel_rem_pio2+0x766>
    ac14:	9903      	ldr	r1, [sp, #12]
    ac16:	b109      	cbz	r1, ac1c <__kernel_rem_pio2+0x784>
    ac18:	f103 4300 	add.w	r3, r3, #2147483648	; 0x80000000
    ac1c:	4619      	mov	r1, r3
    ac1e:	9b0b      	ldr	r3, [sp, #44]	; 0x2c
    ac20:	4610      	mov	r0, r2
    ac22:	e9c3 0102 	strd	r0, r1, [r3, #8]
    ac26:	9b07      	ldr	r3, [sp, #28]
    ac28:	f003 0007 	and.w	r0, r3, #7
    ac2c:	f50d 7d19 	add.w	sp, sp, #612	; 0x264
    ac30:	e8bd 8ff0 	ldmia.w	sp!, {r4, r5, r6, r7, r8, r9, sl, fp, pc}
    ac34:	4630      	mov	r0, r6
    ac36:	4639      	mov	r1, r7
    ac38:	f000 febc 	bl	b9b4 <__aeabi_d2iz>
    ac3c:	9b01      	ldr	r3, [sp, #4]
    ac3e:	aa0c      	add	r2, sp, #48	; 0x30
    ac40:	469a      	mov	sl, r3
    ac42:	f842 0023 	str.w	r0, [r2, r3, lsl #2]
    ac46:	e651      	b.n	a8ec <__kernel_rem_pio2+0x454>
    ac48:	9e0b      	ldr	r6, [sp, #44]	; 0x2c
    ac4a:	6133      	str	r3, [r6, #16]
    ac4c:	9b01      	ldr	r3, [sp, #4]
    ac4e:	f102 4200 	add.w	r2, r2, #2147483648	; 0x80000000
    ac52:	6898      	ldr	r0, [r3, #8]
    ac54:	681c      	ldr	r4, [r3, #0]
    ac56:	6172      	str	r2, [r6, #20]
    ac58:	461a      	mov	r2, r3
    ac5a:	685b      	ldr	r3, [r3, #4]
    ac5c:	f103 4500 	add.w	r5, r3, #2147483648	; 0x80000000
    ac60:	68d3      	ldr	r3, [r2, #12]
    ac62:	f103 4100 	add.w	r1, r3, #2147483648	; 0x80000000
    ac66:	9b07      	ldr	r3, [sp, #28]
    ac68:	e9c6 0102 	strd	r0, r1, [r6, #8]
    ac6c:	f003 0007 	and.w	r0, r3, #7
    ac70:	e9c6 4500 	strd	r4, r5, [r6]
    ac74:	f50d 7d19 	add.w	sp, sp, #612	; 0x264
    ac78:	e8bd 8ff0 	ldmia.w	sp!, {r4, r5, r6, r7, r8, r9, sl, fp, pc}
    ac7c:	9a0b      	ldr	r2, [sp, #44]	; 0x2c
    ac7e:	4619      	mov	r1, r3
    ac80:	f103 4300 	add.w	r3, r3, #2147483648	; 0x80000000
    ac84:	6053      	str	r3, [r2, #4]
    ac86:	6016      	str	r6, [r2, #0]
    ac88:	460b      	mov	r3, r1
    ac8a:	4632      	mov	r2, r6
    ac8c:	e9dd 0148 	ldrd	r0, r1, [sp, #288]	; 0x120
    ac90:	f000 fa28 	bl	b0e4 <__aeabi_dsub>
    ac94:	f1ba 0f00 	cmp.w	sl, #0
    ac98:	4602      	mov	r2, r0
    ac9a:	460b      	mov	r3, r1
    ac9c:	dcad      	bgt.n	abfa <__kernel_rem_pio2+0x762>
    ac9e:	e7bb      	b.n	ac18 <__kernel_rem_pio2+0x780>
    aca0:	f1a6 0308 	sub.w	r3, r6, #8
    aca4:	9304      	str	r3, [sp, #16]
    aca6:	9b08      	ldr	r3, [sp, #32]
    aca8:	00db      	lsls	r3, r3, #3
    acaa:	9302      	str	r3, [sp, #8]
    acac:	e46f      	b.n	a58e <__kernel_rem_pio2+0xf6>
    acae:	9ba2      	ldr	r3, [sp, #648]	; 0x288
    acb0:	2b02      	cmp	r3, #2
    acb2:	dc06      	bgt.n	acc2 <__kernel_rem_pio2+0x82a>
    acb4:	2b00      	cmp	r3, #0
    acb6:	dc0d      	bgt.n	acd4 <__kernel_rem_pio2+0x83c>
    acb8:	f47f aea6 	bne.w	aa08 <__kernel_rem_pio2+0x570>
    acbc:	9aa2      	ldr	r2, [sp, #648]	; 0x288
    acbe:	4613      	mov	r3, r2
    acc0:	e699      	b.n	a9f6 <__kernel_rem_pio2+0x55e>
    acc2:	9ba2      	ldr	r3, [sp, #648]	; 0x288
    acc4:	2b03      	cmp	r3, #3
    acc6:	f47f ae9f 	bne.w	aa08 <__kernel_rem_pio2+0x570>
    acca:	2300      	movs	r3, #0
    accc:	a948      	add	r1, sp, #288	; 0x120
    acce:	461a      	mov	r2, r3
    acd0:	9101      	str	r1, [sp, #4]
    acd2:	e711      	b.n	aaf8 <__kernel_rem_pio2+0x660>
    acd4:	2600      	movs	r6, #0
    acd6:	4633      	mov	r3, r6
    acd8:	e77c      	b.n	abd4 <__kernel_rem_pio2+0x73c>
    acda:	2300      	movs	r3, #0
    acdc:	461a      	mov	r2, r3
    acde:	e70b      	b.n	aaf8 <__kernel_rem_pio2+0x660>
    ace0:	41700000 	.word	0x41700000
    ace4:	3e700000 	.word	0x3e700000

0000ace8 <__kernel_sin>:
    ace8:	e92d 4ff0 	stmdb	sp!, {r4, r5, r6, r7, r8, r9, sl, fp, lr}
    acec:	4699      	mov	r9, r3
    acee:	b087      	sub	sp, #28
    acf0:	f021 4300 	bic.w	r3, r1, #2147483648	; 0x80000000
    acf4:	f1b3 5f79 	cmp.w	r3, #1044381696	; 0x3e400000
    acf8:	4690      	mov	r8, r2
    acfa:	4604      	mov	r4, r0
    acfc:	9101      	str	r1, [sp, #4]
    acfe:	da04      	bge.n	ad0a <__kernel_sin+0x22>
    ad00:	f000 fe58 	bl	b9b4 <__aeabi_d2iz>
    ad04:	2800      	cmp	r0, #0
    ad06:	f000 808f 	beq.w	ae28 <__kernel_sin+0x140>
    ad0a:	9b01      	ldr	r3, [sp, #4]
    ad0c:	4622      	mov	r2, r4
    ad0e:	4619      	mov	r1, r3
    ad10:	4620      	mov	r0, r4
    ad12:	f000 fb9f 	bl	b454 <__aeabi_dmul>
    ad16:	9b01      	ldr	r3, [sp, #4]
    ad18:	4606      	mov	r6, r0
    ad1a:	460f      	mov	r7, r1
    ad1c:	4632      	mov	r2, r6
    ad1e:	4619      	mov	r1, r3
    ad20:	4620      	mov	r0, r4
    ad22:	463b      	mov	r3, r7
    ad24:	f000 fb96 	bl	b454 <__aeabi_dmul>
    ad28:	a343      	add	r3, pc, #268	; (adr r3, ae38 <__kernel_sin+0x150>)
    ad2a:	e9d3 2300 	ldrd	r2, r3, [r3]
    ad2e:	4682      	mov	sl, r0
    ad30:	468b      	mov	fp, r1
    ad32:	4630      	mov	r0, r6
    ad34:	4639      	mov	r1, r7
    ad36:	f000 fb8d 	bl	b454 <__aeabi_dmul>
    ad3a:	a341      	add	r3, pc, #260	; (adr r3, ae40 <__kernel_sin+0x158>)
    ad3c:	e9d3 2300 	ldrd	r2, r3, [r3]
    ad40:	f000 f9d0 	bl	b0e4 <__aeabi_dsub>
    ad44:	4632      	mov	r2, r6
    ad46:	463b      	mov	r3, r7
    ad48:	f000 fb84 	bl	b454 <__aeabi_dmul>
    ad4c:	a33e      	add	r3, pc, #248	; (adr r3, ae48 <__kernel_sin+0x160>)
    ad4e:	e9d3 2300 	ldrd	r2, r3, [r3]
    ad52:	f000 f9c9 	bl	b0e8 <__adddf3>
    ad56:	4632      	mov	r2, r6
    ad58:	463b      	mov	r3, r7
    ad5a:	f000 fb7b 	bl	b454 <__aeabi_dmul>
    ad5e:	a33c      	add	r3, pc, #240	; (adr r3, ae50 <__kernel_sin+0x168>)
    ad60:	e9d3 2300 	ldrd	r2, r3, [r3]
    ad64:	f000 f9be 	bl	b0e4 <__aeabi_dsub>
    ad68:	4632      	mov	r2, r6
    ad6a:	463b      	mov	r3, r7
    ad6c:	f000 fb72 	bl	b454 <__aeabi_dmul>
    ad70:	a339      	add	r3, pc, #228	; (adr r3, ae58 <__kernel_sin+0x170>)
    ad72:	e9d3 2300 	ldrd	r2, r3, [r3]
    ad76:	f000 f9b7 	bl	b0e8 <__adddf3>
    ad7a:	9b10      	ldr	r3, [sp, #64]	; 0x40
    ad7c:	e9cd 0102 	strd	r0, r1, [sp, #8]
    ad80:	2b00      	cmp	r3, #0
    ad82:	d037      	beq.n	adf4 <__kernel_sin+0x10c>
    ad84:	4b38      	ldr	r3, [pc, #224]	; (ae68 <__kernel_sin+0x180>)
    ad86:	2200      	movs	r2, #0
    ad88:	4640      	mov	r0, r8
    ad8a:	4649      	mov	r1, r9
    ad8c:	f000 fb62 	bl	b454 <__aeabi_dmul>
    ad90:	e9dd 2302 	ldrd	r2, r3, [sp, #8]
    ad94:	e9cd 0104 	strd	r0, r1, [sp, #16]
    ad98:	4650      	mov	r0, sl
    ad9a:	4659      	mov	r1, fp
    ad9c:	f000 fb5a 	bl	b454 <__aeabi_dmul>
    ada0:	4602      	mov	r2, r0
    ada2:	460b      	mov	r3, r1
    ada4:	e9dd 0104 	ldrd	r0, r1, [sp, #16]
    ada8:	f000 f99c 	bl	b0e4 <__aeabi_dsub>
    adac:	4632      	mov	r2, r6
    adae:	463b      	mov	r3, r7
    adb0:	f000 fb50 	bl	b454 <__aeabi_dmul>
    adb4:	4642      	mov	r2, r8
    adb6:	464b      	mov	r3, r9
    adb8:	f000 f994 	bl	b0e4 <__aeabi_dsub>
    adbc:	a328      	add	r3, pc, #160	; (adr r3, ae60 <__kernel_sin+0x178>)
    adbe:	e9d3 2300 	ldrd	r2, r3, [r3]
    adc2:	4606      	mov	r6, r0
    adc4:	460f      	mov	r7, r1
    adc6:	4650      	mov	r0, sl
    adc8:	4659      	mov	r1, fp
    adca:	f000 fb43 	bl	b454 <__aeabi_dmul>
    adce:	4602      	mov	r2, r0
    add0:	460b      	mov	r3, r1
    add2:	4630      	mov	r0, r6
    add4:	4639      	mov	r1, r7
    add6:	f000 f987 	bl	b0e8 <__adddf3>
    adda:	4602      	mov	r2, r0
    addc:	460b      	mov	r3, r1
    adde:	4620      	mov	r0, r4
    ade0:	9901      	ldr	r1, [sp, #4]
    ade2:	f000 f97f 	bl	b0e4 <__aeabi_dsub>
    ade6:	4604      	mov	r4, r0
    ade8:	460d      	mov	r5, r1
    adea:	4620      	mov	r0, r4
    adec:	4629      	mov	r1, r5
    adee:	b007      	add	sp, #28
    adf0:	e8bd 8ff0 	ldmia.w	sp!, {r4, r5, r6, r7, r8, r9, sl, fp, pc}
    adf4:	4602      	mov	r2, r0
    adf6:	460b      	mov	r3, r1
    adf8:	4630      	mov	r0, r6
    adfa:	4639      	mov	r1, r7
    adfc:	f000 fb2a 	bl	b454 <__aeabi_dmul>
    ae00:	a317      	add	r3, pc, #92	; (adr r3, ae60 <__kernel_sin+0x178>)
    ae02:	e9d3 2300 	ldrd	r2, r3, [r3]
    ae06:	f000 f96d 	bl	b0e4 <__aeabi_dsub>
    ae0a:	4652      	mov	r2, sl
    ae0c:	465b      	mov	r3, fp
    ae0e:	f000 fb21 	bl	b454 <__aeabi_dmul>
    ae12:	4622      	mov	r2, r4
    ae14:	9b01      	ldr	r3, [sp, #4]
    ae16:	f000 f967 	bl	b0e8 <__adddf3>
    ae1a:	4604      	mov	r4, r0
    ae1c:	460d      	mov	r5, r1
    ae1e:	4620      	mov	r0, r4
    ae20:	4629      	mov	r1, r5
    ae22:	b007      	add	sp, #28
    ae24:	e8bd 8ff0 	ldmia.w	sp!, {r4, r5, r6, r7, r8, r9, sl, fp, pc}
    ae28:	9d01      	ldr	r5, [sp, #4]
    ae2a:	4620      	mov	r0, r4
    ae2c:	4629      	mov	r1, r5
    ae2e:	b007      	add	sp, #28
    ae30:	e8bd 8ff0 	ldmia.w	sp!, {r4, r5, r6, r7, r8, r9, sl, fp, pc}
    ae34:	f3af 8000 	nop.w
    ae38:	5acfd57c 	.word	0x5acfd57c
    ae3c:	3de5d93a 	.word	0x3de5d93a
    ae40:	8a2b9ceb 	.word	0x8a2b9ceb
    ae44:	3e5ae5e6 	.word	0x3e5ae5e6
    ae48:	57b1fe7d 	.word	0x57b1fe7d
    ae4c:	3ec71de3 	.word	0x3ec71de3
    ae50:	19c161d5 	.word	0x19c161d5
    ae54:	3f2a01a0 	.word	0x3f2a01a0
    ae58:	1110f8a6 	.word	0x1110f8a6
    ae5c:	3f811111 	.word	0x3f811111
    ae60:	55555549 	.word	0x55555549
    ae64:	3fc55555 	.word	0x3fc55555
    ae68:	3fe00000 	.word	0x3fe00000

0000ae6c <with_errno>:
    ae6c:	b5d0      	push	{r4, r6, r7, lr}
    ae6e:	4606      	mov	r6, r0
    ae70:	460f      	mov	r7, r1
    ae72:	4614      	mov	r4, r2
    ae74:	f000 fdc6 	bl	ba04 <__errno>
    ae78:	4603      	mov	r3, r0
    ae7a:	4639      	mov	r1, r7
    ae7c:	4630      	mov	r0, r6
    ae7e:	601c      	str	r4, [r3, #0]
    ae80:	bdd0      	pop	{r4, r6, r7, pc}
    ae82:	bf00      	nop

0000ae84 <xflow>:
    ae84:	b530      	push	{r4, r5, lr}
    ae86:	b083      	sub	sp, #12
    ae88:	b180      	cbz	r0, aeac <xflow+0x28>
    ae8a:	4614      	mov	r4, r2
    ae8c:	f103 4500 	add.w	r5, r3, #2147483648	; 0x80000000
    ae90:	e9cd 4500 	strd	r4, r5, [sp]
    ae94:	4610      	mov	r0, r2
    ae96:	4619      	mov	r1, r3
    ae98:	e9dd 2300 	ldrd	r2, r3, [sp]
    ae9c:	f000 fada 	bl	b454 <__aeabi_dmul>
    aea0:	2222      	movs	r2, #34	; 0x22
    aea2:	b003      	add	sp, #12
    aea4:	e8bd 4030 	ldmia.w	sp!, {r4, r5, lr}
    aea8:	f7ff bfe0 	b.w	ae6c <with_errno>
    aeac:	4614      	mov	r4, r2
    aeae:	461d      	mov	r5, r3
    aeb0:	e7ee      	b.n	ae90 <xflow+0xc>
    aeb2:	bf00      	nop

0000aeb4 <__math_uflow>:
    aeb4:	2200      	movs	r2, #0
    aeb6:	f04f 5380 	mov.w	r3, #268435456	; 0x10000000
    aeba:	f7ff bfe3 	b.w	ae84 <xflow>
    aebe:	bf00      	nop

0000aec0 <__math_oflow>:
    aec0:	2200      	movs	r2, #0
    aec2:	f04f 43e0 	mov.w	r3, #1879048192	; 0x70000000
    aec6:	f7ff bfdd 	b.w	ae84 <xflow>
    aeca:	bf00      	nop

0000aecc <fabs>:
    aecc:	f021 4100 	bic.w	r1, r1, #2147483648	; 0x80000000
    aed0:	4770      	bx	lr
    aed2:	bf00      	nop

0000aed4 <finite>:
    aed4:	f041 4000 	orr.w	r0, r1, #2147483648	; 0x80000000
    aed8:	f500 1080 	add.w	r0, r0, #1048576	; 0x100000
    aedc:	0fc0      	lsrs	r0, r0, #31
    aede:	4770      	bx	lr

0000aee0 <floor>:
    aee0:	f3c1 520a 	ubfx	r2, r1, #20, #11
    aee4:	b5f8      	push	{r3, r4, r5, r6, r7, lr}
    aee6:	f2a2 35ff 	subw	r5, r2, #1023	; 0x3ff
    aeea:	2d13      	cmp	r5, #19
    aeec:	460b      	mov	r3, r1
    aeee:	4684      	mov	ip, r0
    aef0:	460c      	mov	r4, r1
    aef2:	4606      	mov	r6, r0
    aef4:	dc30      	bgt.n	af58 <floor+0x78>
    aef6:	2d00      	cmp	r5, #0
    aef8:	db1e      	blt.n	af38 <floor+0x58>
    aefa:	4f35      	ldr	r7, [pc, #212]	; (afd0 <floor+0xf0>)
    aefc:	412f      	asrs	r7, r5
    aefe:	ea01 0207 	and.w	r2, r1, r7
    af02:	4302      	orrs	r2, r0
    af04:	d015      	beq.n	af32 <floor+0x52>
    af06:	a330      	add	r3, pc, #192	; (adr r3, afc8 <floor+0xe8>)
    af08:	e9d3 2300 	ldrd	r2, r3, [r3]
    af0c:	f000 f8ec 	bl	b0e8 <__adddf3>
    af10:	2200      	movs	r2, #0
    af12:	2300      	movs	r3, #0
    af14:	f000 fd2e 	bl	b974 <__aeabi_dcmpgt>
    af18:	b148      	cbz	r0, af2e <floor+0x4e>
    af1a:	2c00      	cmp	r4, #0
    af1c:	da04      	bge.n	af28 <floor+0x48>
    af1e:	f44f 1380 	mov.w	r3, #1048576	; 0x100000
    af22:	fa43 f505 	asr.w	r5, r3, r5
    af26:	442c      	add	r4, r5
    af28:	ea24 0407 	bic.w	r4, r4, r7
    af2c:	2600      	movs	r6, #0
    af2e:	4623      	mov	r3, r4
    af30:	46b4      	mov	ip, r6
    af32:	4660      	mov	r0, ip
    af34:	4619      	mov	r1, r3
    af36:	bdf8      	pop	{r3, r4, r5, r6, r7, pc}
    af38:	a323      	add	r3, pc, #140	; (adr r3, afc8 <floor+0xe8>)
    af3a:	e9d3 2300 	ldrd	r2, r3, [r3]
    af3e:	f000 f8d3 	bl	b0e8 <__adddf3>
    af42:	2200      	movs	r2, #0
    af44:	2300      	movs	r3, #0
    af46:	f000 fd15 	bl	b974 <__aeabi_dcmpgt>
    af4a:	2800      	cmp	r0, #0
    af4c:	d0ef      	beq.n	af2e <floor+0x4e>
    af4e:	2c00      	cmp	r4, #0
    af50:	db24      	blt.n	af9c <floor+0xbc>
    af52:	2600      	movs	r6, #0
    af54:	4634      	mov	r4, r6
    af56:	e7ea      	b.n	af2e <floor+0x4e>
    af58:	2d33      	cmp	r5, #51	; 0x33
    af5a:	dd08      	ble.n	af6e <floor+0x8e>
    af5c:	f5b5 6f80 	cmp.w	r5, #1024	; 0x400
    af60:	d1e7      	bne.n	af32 <floor+0x52>
    af62:	4602      	mov	r2, r0
    af64:	f000 f8c0 	bl	b0e8 <__adddf3>
    af68:	4684      	mov	ip, r0
    af6a:	460b      	mov	r3, r1
    af6c:	e7e1      	b.n	af32 <floor+0x52>
    af6e:	f2a2 4213 	subw	r2, r2, #1043	; 0x413
    af72:	f04f 37ff 	mov.w	r7, #4294967295	; 0xffffffff
    af76:	40d7      	lsrs	r7, r2
    af78:	4207      	tst	r7, r0
    af7a:	d0da      	beq.n	af32 <floor+0x52>
    af7c:	a312      	add	r3, pc, #72	; (adr r3, afc8 <floor+0xe8>)
    af7e:	e9d3 2300 	ldrd	r2, r3, [r3]
    af82:	f000 f8b1 	bl	b0e8 <__adddf3>
    af86:	2200      	movs	r2, #0
    af88:	2300      	movs	r3, #0
    af8a:	f000 fcf3 	bl	b974 <__aeabi_dcmpgt>
    af8e:	2800      	cmp	r0, #0
    af90:	d0cd      	beq.n	af2e <floor+0x4e>
    af92:	2c00      	cmp	r4, #0
    af94:	db0b      	blt.n	afae <floor+0xce>
    af96:	ea26 0607 	bic.w	r6, r6, r7
    af9a:	e7c8      	b.n	af2e <floor+0x4e>
    af9c:	f024 4300 	bic.w	r3, r4, #2147483648	; 0x80000000
    afa0:	4a0c      	ldr	r2, [pc, #48]	; (afd4 <floor+0xf4>)
    afa2:	431e      	orrs	r6, r3
    afa4:	2e00      	cmp	r6, #0
    afa6:	bf18      	it	ne
    afa8:	4614      	movne	r4, r2
    afaa:	2600      	movs	r6, #0
    afac:	e7bf      	b.n	af2e <floor+0x4e>
    afae:	2d14      	cmp	r5, #20
    afb0:	d008      	beq.n	afc4 <floor+0xe4>
    afb2:	2301      	movs	r3, #1
    afb4:	f1c5 0534 	rsb	r5, r5, #52	; 0x34
    afb8:	fa03 f505 	lsl.w	r5, r3, r5
    afbc:	19ae      	adds	r6, r5, r6
    afbe:	bf28      	it	cs
    afc0:	18e4      	addcs	r4, r4, r3
    afc2:	e7e8      	b.n	af96 <floor+0xb6>
    afc4:	3401      	adds	r4, #1
    afc6:	e7e6      	b.n	af96 <floor+0xb6>
    afc8:	8800759c 	.word	0x8800759c
    afcc:	7e37e43c 	.word	0x7e37e43c
    afd0:	000fffff 	.word	0x000fffff
    afd4:	bff00000 	.word	0xbff00000

0000afd8 <nan>:
    afd8:	4901      	ldr	r1, [pc, #4]	; (afe0 <nan+0x8>)
    afda:	2000      	movs	r0, #0
    afdc:	4770      	bx	lr
    afde:	bf00      	nop
    afe0:	7ff80000 	.word	0x7ff80000
    afe4:	00000000 	.word	0x00000000

0000afe8 <scalbn>:
    afe8:	f3c1 530a 	ubfx	r3, r1, #20, #11
    afec:	b570      	push	{r4, r5, r6, lr}
    afee:	468c      	mov	ip, r1
    aff0:	4604      	mov	r4, r0
    aff2:	460d      	mov	r5, r1
    aff4:	4616      	mov	r6, r2
    aff6:	bb7b      	cbnz	r3, b058 <scalbn+0x70>
    aff8:	f021 4c00 	bic.w	ip, r1, #2147483648	; 0x80000000
    affc:	4603      	mov	r3, r0
    affe:	ea5c 0303 	orrs.w	r3, ip, r3
    b002:	d028      	beq.n	b056 <scalbn+0x6e>
    b004:	4b30      	ldr	r3, [pc, #192]	; (b0c8 <scalbn+0xe0>)
    b006:	2200      	movs	r2, #0
    b008:	f000 fa24 	bl	b454 <__aeabi_dmul>
    b00c:	4b2f      	ldr	r3, [pc, #188]	; (b0cc <scalbn+0xe4>)
    b00e:	429e      	cmp	r6, r3
    b010:	4604      	mov	r4, r0
    b012:	460d      	mov	r5, r1
    b014:	db1a      	blt.n	b04c <scalbn+0x64>
    b016:	f3c1 530a 	ubfx	r3, r1, #20, #11
    b01a:	468c      	mov	ip, r1
    b01c:	3b36      	subs	r3, #54	; 0x36
    b01e:	4433      	add	r3, r6
    b020:	f240 72fe 	movw	r2, #2046	; 0x7fe
    b024:	4293      	cmp	r3, r2
    b026:	dc20      	bgt.n	b06a <scalbn+0x82>
    b028:	2b00      	cmp	r3, #0
    b02a:	dc3c      	bgt.n	b0a6 <scalbn+0xbe>
    b02c:	f113 0f35 	cmn.w	r3, #53	; 0x35
    b030:	da2c      	bge.n	b08c <scalbn+0xa4>
    b032:	f24c 3350 	movw	r3, #50000	; 0xc350
    b036:	429e      	cmp	r6, r3
    b038:	dc17      	bgt.n	b06a <scalbn+0x82>
    b03a:	f005 4300 	and.w	r3, r5, #2147483648	; 0x80000000
    b03e:	f043 71d2 	orr.w	r1, r3, #27525120	; 0x1a40000
    b042:	f441 31b7 	orr.w	r1, r1, #93696	; 0x16e00
    b046:	4822      	ldr	r0, [pc, #136]	; (b0d0 <scalbn+0xe8>)
    b048:	f041 011f 	orr.w	r1, r1, #31
    b04c:	a31a      	add	r3, pc, #104	; (adr r3, b0b8 <scalbn+0xd0>)
    b04e:	e9d3 2300 	ldrd	r2, r3, [r3]
    b052:	f000 f9ff 	bl	b454 <__aeabi_dmul>
    b056:	bd70      	pop	{r4, r5, r6, pc}
    b058:	f240 72ff 	movw	r2, #2047	; 0x7ff
    b05c:	4293      	cmp	r3, r2
    b05e:	d1de      	bne.n	b01e <scalbn+0x36>
    b060:	4602      	mov	r2, r0
    b062:	460b      	mov	r3, r1
    b064:	f000 f840 	bl	b0e8 <__adddf3>
    b068:	bd70      	pop	{r4, r5, r6, pc}
    b06a:	f005 4300 	and.w	r3, r5, #2147483648	; 0x80000000
    b06e:	f043 41fc 	orr.w	r1, r3, #2113929216	; 0x7e000000
    b072:	f441 115f 	orr.w	r1, r1, #3653632	; 0x37c000
    b076:	f441 5110 	orr.w	r1, r1, #9216	; 0x2400
    b07a:	a311      	add	r3, pc, #68	; (adr r3, b0c0 <scalbn+0xd8>)
    b07c:	e9d3 2300 	ldrd	r2, r3, [r3]
    b080:	4814      	ldr	r0, [pc, #80]	; (b0d4 <scalbn+0xec>)
    b082:	f041 013c 	orr.w	r1, r1, #60	; 0x3c
    b086:	f000 f9e5 	bl	b454 <__aeabi_dmul>
    b08a:	bd70      	pop	{r4, r5, r6, pc}
    b08c:	f02c 4cff 	bic.w	ip, ip, #2139095040	; 0x7f800000
    b090:	3336      	adds	r3, #54	; 0x36
    b092:	f42c 0ce0 	bic.w	ip, ip, #7340032	; 0x700000
    b096:	ea4c 5103 	orr.w	r1, ip, r3, lsl #20
    b09a:	4620      	mov	r0, r4
    b09c:	4b0e      	ldr	r3, [pc, #56]	; (b0d8 <scalbn+0xf0>)
    b09e:	2200      	movs	r2, #0
    b0a0:	f000 f9d8 	bl	b454 <__aeabi_dmul>
    b0a4:	bd70      	pop	{r4, r5, r6, pc}
    b0a6:	f02c 4cff 	bic.w	ip, ip, #2139095040	; 0x7f800000
    b0aa:	f42c 0ce0 	bic.w	ip, ip, #7340032	; 0x700000
    b0ae:	4620      	mov	r0, r4
    b0b0:	ea4c 5103 	orr.w	r1, ip, r3, lsl #20
    b0b4:	bd70      	pop	{r4, r5, r6, pc}
    b0b6:	bf00      	nop
    b0b8:	c2f8f359 	.word	0xc2f8f359
    b0bc:	01a56e1f 	.word	0x01a56e1f
    b0c0:	8800759c 	.word	0x8800759c
    b0c4:	7e37e43c 	.word	0x7e37e43c
    b0c8:	43500000 	.word	0x43500000
    b0cc:	ffff3cb0 	.word	0xffff3cb0
    b0d0:	c2f8f359 	.word	0xc2f8f359
    b0d4:	8800759c 	.word	0x8800759c
    b0d8:	3c900000 	.word	0x3c900000

0000b0dc <__aeabi_drsub>:
    b0dc:	f081 4100 	eor.w	r1, r1, #2147483648	; 0x80000000
    b0e0:	e002      	b.n	b0e8 <__adddf3>
    b0e2:	bf00      	nop

0000b0e4 <__aeabi_dsub>:
    b0e4:	f083 4300 	eor.w	r3, r3, #2147483648	; 0x80000000

0000b0e8 <__adddf3>:
    b0e8:	b530      	push	{r4, r5, lr}
    b0ea:	ea4f 0441 	mov.w	r4, r1, lsl #1
    b0ee:	ea4f 0543 	mov.w	r5, r3, lsl #1
    b0f2:	ea94 0f05 	teq	r4, r5
    b0f6:	bf08      	it	eq
    b0f8:	ea90 0f02 	teqeq	r0, r2
    b0fc:	bf1f      	itttt	ne
    b0fe:	ea54 0c00 	orrsne.w	ip, r4, r0
    b102:	ea55 0c02 	orrsne.w	ip, r5, r2
    b106:	ea7f 5c64 	mvnsne.w	ip, r4, asr #21
    b10a:	ea7f 5c65 	mvnsne.w	ip, r5, asr #21
    b10e:	f000 80e2 	beq.w	b2d6 <__adddf3+0x1ee>
    b112:	ea4f 5454 	mov.w	r4, r4, lsr #21
    b116:	ebd4 5555 	rsbs	r5, r4, r5, lsr #21
    b11a:	bfb8      	it	lt
    b11c:	426d      	neglt	r5, r5
    b11e:	dd0c      	ble.n	b13a <__adddf3+0x52>
    b120:	442c      	add	r4, r5
    b122:	ea80 0202 	eor.w	r2, r0, r2
    b126:	ea81 0303 	eor.w	r3, r1, r3
    b12a:	ea82 0000 	eor.w	r0, r2, r0
    b12e:	ea83 0101 	eor.w	r1, r3, r1
    b132:	ea80 0202 	eor.w	r2, r0, r2
    b136:	ea81 0303 	eor.w	r3, r1, r3
    b13a:	2d36      	cmp	r5, #54	; 0x36
    b13c:	bf88      	it	hi
    b13e:	bd30      	pophi	{r4, r5, pc}
    b140:	f011 4f00 	tst.w	r1, #2147483648	; 0x80000000
    b144:	ea4f 3101 	mov.w	r1, r1, lsl #12
    b148:	f44f 1c80 	mov.w	ip, #1048576	; 0x100000
    b14c:	ea4c 3111 	orr.w	r1, ip, r1, lsr #12
    b150:	d002      	beq.n	b158 <__adddf3+0x70>
    b152:	4240      	negs	r0, r0
    b154:	eb61 0141 	sbc.w	r1, r1, r1, lsl #1
    b158:	f013 4f00 	tst.w	r3, #2147483648	; 0x80000000
    b15c:	ea4f 3303 	mov.w	r3, r3, lsl #12
    b160:	ea4c 3313 	orr.w	r3, ip, r3, lsr #12
    b164:	d002      	beq.n	b16c <__adddf3+0x84>
    b166:	4252      	negs	r2, r2
    b168:	eb63 0343 	sbc.w	r3, r3, r3, lsl #1
    b16c:	ea94 0f05 	teq	r4, r5
    b170:	f000 80a7 	beq.w	b2c2 <__adddf3+0x1da>
    b174:	f1a4 0401 	sub.w	r4, r4, #1
    b178:	f1d5 0e20 	rsbs	lr, r5, #32
    b17c:	db0d      	blt.n	b19a <__adddf3+0xb2>
    b17e:	fa02 fc0e 	lsl.w	ip, r2, lr
    b182:	fa22 f205 	lsr.w	r2, r2, r5
    b186:	1880      	adds	r0, r0, r2
    b188:	f141 0100 	adc.w	r1, r1, #0
    b18c:	fa03 f20e 	lsl.w	r2, r3, lr
    b190:	1880      	adds	r0, r0, r2
    b192:	fa43 f305 	asr.w	r3, r3, r5
    b196:	4159      	adcs	r1, r3
    b198:	e00e      	b.n	b1b8 <__adddf3+0xd0>
    b19a:	f1a5 0520 	sub.w	r5, r5, #32
    b19e:	f10e 0e20 	add.w	lr, lr, #32
    b1a2:	2a01      	cmp	r2, #1
    b1a4:	fa03 fc0e 	lsl.w	ip, r3, lr
    b1a8:	bf28      	it	cs
    b1aa:	f04c 0c02 	orrcs.w	ip, ip, #2
    b1ae:	fa43 f305 	asr.w	r3, r3, r5
    b1b2:	18c0      	adds	r0, r0, r3
    b1b4:	eb51 71e3 	adcs.w	r1, r1, r3, asr #31
    b1b8:	f001 4500 	and.w	r5, r1, #2147483648	; 0x80000000
    b1bc:	d507      	bpl.n	b1ce <__adddf3+0xe6>
    b1be:	f04f 0e00 	mov.w	lr, #0
    b1c2:	f1dc 0c00 	rsbs	ip, ip, #0
    b1c6:	eb7e 0000 	sbcs.w	r0, lr, r0
    b1ca:	eb6e 0101 	sbc.w	r1, lr, r1
    b1ce:	f5b1 1f80 	cmp.w	r1, #1048576	; 0x100000
    b1d2:	d31b      	bcc.n	b20c <__adddf3+0x124>
    b1d4:	f5b1 1f00 	cmp.w	r1, #2097152	; 0x200000
    b1d8:	d30c      	bcc.n	b1f4 <__adddf3+0x10c>
    b1da:	0849      	lsrs	r1, r1, #1
    b1dc:	ea5f 0030 	movs.w	r0, r0, rrx
    b1e0:	ea4f 0c3c 	mov.w	ip, ip, rrx
    b1e4:	f104 0401 	add.w	r4, r4, #1
    b1e8:	ea4f 5244 	mov.w	r2, r4, lsl #21
    b1ec:	f512 0f80 	cmn.w	r2, #4194304	; 0x400000
    b1f0:	f080 809a 	bcs.w	b328 <__adddf3+0x240>
    b1f4:	f1bc 4f00 	cmp.w	ip, #2147483648	; 0x80000000
    b1f8:	bf08      	it	eq
    b1fa:	ea5f 0c50 	movseq.w	ip, r0, lsr #1
    b1fe:	f150 0000 	adcs.w	r0, r0, #0
    b202:	eb41 5104 	adc.w	r1, r1, r4, lsl #20
    b206:	ea41 0105 	orr.w	r1, r1, r5
    b20a:	bd30      	pop	{r4, r5, pc}
    b20c:	ea5f 0c4c 	movs.w	ip, ip, lsl #1
    b210:	4140      	adcs	r0, r0
    b212:	eb41 0101 	adc.w	r1, r1, r1
    b216:	3c01      	subs	r4, #1
    b218:	bf28      	it	cs
    b21a:	f5b1 1f80 	cmpcs.w	r1, #1048576	; 0x100000
    b21e:	d2e9      	bcs.n	b1f4 <__adddf3+0x10c>
    b220:	f091 0f00 	teq	r1, #0
    b224:	bf04      	itt	eq
    b226:	4601      	moveq	r1, r0
    b228:	2000      	moveq	r0, #0
    b22a:	fab1 f381 	clz	r3, r1
    b22e:	bf08      	it	eq
    b230:	3320      	addeq	r3, #32
    b232:	f1a3 030b 	sub.w	r3, r3, #11
    b236:	f1b3 0220 	subs.w	r2, r3, #32
    b23a:	da0c      	bge.n	b256 <__adddf3+0x16e>
    b23c:	320c      	adds	r2, #12
    b23e:	dd08      	ble.n	b252 <__adddf3+0x16a>
    b240:	f102 0c14 	add.w	ip, r2, #20
    b244:	f1c2 020c 	rsb	r2, r2, #12
    b248:	fa01 f00c 	lsl.w	r0, r1, ip
    b24c:	fa21 f102 	lsr.w	r1, r1, r2
    b250:	e00c      	b.n	b26c <__adddf3+0x184>
    b252:	f102 0214 	add.w	r2, r2, #20
    b256:	bfd8      	it	le
    b258:	f1c2 0c20 	rsble	ip, r2, #32
    b25c:	fa01 f102 	lsl.w	r1, r1, r2
    b260:	fa20 fc0c 	lsr.w	ip, r0, ip
    b264:	bfdc      	itt	le
    b266:	ea41 010c 	orrle.w	r1, r1, ip
    b26a:	4090      	lslle	r0, r2
    b26c:	1ae4      	subs	r4, r4, r3
    b26e:	bfa2      	ittt	ge
    b270:	eb01 5104 	addge.w	r1, r1, r4, lsl #20
    b274:	4329      	orrge	r1, r5
    b276:	bd30      	popge	{r4, r5, pc}
    b278:	ea6f 0404 	mvn.w	r4, r4
    b27c:	3c1f      	subs	r4, #31
    b27e:	da1c      	bge.n	b2ba <__adddf3+0x1d2>
    b280:	340c      	adds	r4, #12
    b282:	dc0e      	bgt.n	b2a2 <__adddf3+0x1ba>
    b284:	f104 0414 	add.w	r4, r4, #20
    b288:	f1c4 0220 	rsb	r2, r4, #32
    b28c:	fa20 f004 	lsr.w	r0, r0, r4
    b290:	fa01 f302 	lsl.w	r3, r1, r2
    b294:	ea40 0003 	orr.w	r0, r0, r3
    b298:	fa21 f304 	lsr.w	r3, r1, r4
    b29c:	ea45 0103 	orr.w	r1, r5, r3
    b2a0:	bd30      	pop	{r4, r5, pc}
    b2a2:	f1c4 040c 	rsb	r4, r4, #12
    b2a6:	f1c4 0220 	rsb	r2, r4, #32
    b2aa:	fa20 f002 	lsr.w	r0, r0, r2
    b2ae:	fa01 f304 	lsl.w	r3, r1, r4
    b2b2:	ea40 0003 	orr.w	r0, r0, r3
    b2b6:	4629      	mov	r1, r5
    b2b8:	bd30      	pop	{r4, r5, pc}
    b2ba:	fa21 f004 	lsr.w	r0, r1, r4
    b2be:	4629      	mov	r1, r5
    b2c0:	bd30      	pop	{r4, r5, pc}
    b2c2:	f094 0f00 	teq	r4, #0
    b2c6:	f483 1380 	eor.w	r3, r3, #1048576	; 0x100000
    b2ca:	bf06      	itte	eq
    b2cc:	f481 1180 	eoreq.w	r1, r1, #1048576	; 0x100000
    b2d0:	3401      	addeq	r4, #1
    b2d2:	3d01      	subne	r5, #1
    b2d4:	e74e      	b.n	b174 <__adddf3+0x8c>
    b2d6:	ea7f 5c64 	mvns.w	ip, r4, asr #21
    b2da:	bf18      	it	ne
    b2dc:	ea7f 5c65 	mvnsne.w	ip, r5, asr #21
    b2e0:	d029      	beq.n	b336 <__adddf3+0x24e>
    b2e2:	ea94 0f05 	teq	r4, r5
    b2e6:	bf08      	it	eq
    b2e8:	ea90 0f02 	teqeq	r0, r2
    b2ec:	d005      	beq.n	b2fa <__adddf3+0x212>
    b2ee:	ea54 0c00 	orrs.w	ip, r4, r0
    b2f2:	bf04      	itt	eq
    b2f4:	4619      	moveq	r1, r3
    b2f6:	4610      	moveq	r0, r2
    b2f8:	bd30      	pop	{r4, r5, pc}
    b2fa:	ea91 0f03 	teq	r1, r3
    b2fe:	bf1e      	ittt	ne
    b300:	2100      	movne	r1, #0
    b302:	2000      	movne	r0, #0
    b304:	bd30      	popne	{r4, r5, pc}
    b306:	ea5f 5c54 	movs.w	ip, r4, lsr #21
    b30a:	d105      	bne.n	b318 <__adddf3+0x230>
    b30c:	0040      	lsls	r0, r0, #1
    b30e:	4149      	adcs	r1, r1
    b310:	bf28      	it	cs
    b312:	f041 4100 	orrcs.w	r1, r1, #2147483648	; 0x80000000
    b316:	bd30      	pop	{r4, r5, pc}
    b318:	f514 0480 	adds.w	r4, r4, #4194304	; 0x400000
    b31c:	bf3c      	itt	cc
    b31e:	f501 1180 	addcc.w	r1, r1, #1048576	; 0x100000
    b322:	bd30      	popcc	{r4, r5, pc}
    b324:	f001 4500 	and.w	r5, r1, #2147483648	; 0x80000000
    b328:	f045 41fe 	orr.w	r1, r5, #2130706432	; 0x7f000000
    b32c:	f441 0170 	orr.w	r1, r1, #15728640	; 0xf00000
    b330:	f04f 0000 	mov.w	r0, #0
    b334:	bd30      	pop	{r4, r5, pc}
    b336:	ea7f 5c64 	mvns.w	ip, r4, asr #21
    b33a:	bf1a      	itte	ne
    b33c:	4619      	movne	r1, r3
    b33e:	4610      	movne	r0, r2
    b340:	ea7f 5c65 	mvnseq.w	ip, r5, asr #21
    b344:	bf1c      	itt	ne
    b346:	460b      	movne	r3, r1
    b348:	4602      	movne	r2, r0
    b34a:	ea50 3401 	orrs.w	r4, r0, r1, lsl #12
    b34e:	bf06      	itte	eq
    b350:	ea52 3503 	orrseq.w	r5, r2, r3, lsl #12
    b354:	ea91 0f03 	teqeq	r1, r3
    b358:	f441 2100 	orrne.w	r1, r1, #524288	; 0x80000
    b35c:	bd30      	pop	{r4, r5, pc}
    b35e:	bf00      	nop

0000b360 <__aeabi_ui2d>:
    b360:	f090 0f00 	teq	r0, #0
    b364:	bf04      	itt	eq
    b366:	2100      	moveq	r1, #0
    b368:	4770      	bxeq	lr
    b36a:	b530      	push	{r4, r5, lr}
    b36c:	f44f 6480 	mov.w	r4, #1024	; 0x400
    b370:	f104 0432 	add.w	r4, r4, #50	; 0x32
    b374:	f04f 0500 	mov.w	r5, #0
    b378:	f04f 0100 	mov.w	r1, #0
    b37c:	e750      	b.n	b220 <__adddf3+0x138>
    b37e:	bf00      	nop

0000b380 <__aeabi_i2d>:
    b380:	f090 0f00 	teq	r0, #0
    b384:	bf04      	itt	eq
    b386:	2100      	moveq	r1, #0
    b388:	4770      	bxeq	lr
    b38a:	b530      	push	{r4, r5, lr}
    b38c:	f44f 6480 	mov.w	r4, #1024	; 0x400
    b390:	f104 0432 	add.w	r4, r4, #50	; 0x32
    b394:	f010 4500 	ands.w	r5, r0, #2147483648	; 0x80000000
    b398:	bf48      	it	mi
    b39a:	4240      	negmi	r0, r0
    b39c:	f04f 0100 	mov.w	r1, #0
    b3a0:	e73e      	b.n	b220 <__adddf3+0x138>
    b3a2:	bf00      	nop

0000b3a4 <__aeabi_f2d>:
    b3a4:	0042      	lsls	r2, r0, #1
    b3a6:	ea4f 01e2 	mov.w	r1, r2, asr #3
    b3aa:	ea4f 0131 	mov.w	r1, r1, rrx
    b3ae:	ea4f 7002 	mov.w	r0, r2, lsl #28
    b3b2:	bf1f      	itttt	ne
    b3b4:	f012 437f 	andsne.w	r3, r2, #4278190080	; 0xff000000
    b3b8:	f093 4f7f 	teqne	r3, #4278190080	; 0xff000000
    b3bc:	f081 5160 	eorne.w	r1, r1, #939524096	; 0x38000000
    b3c0:	4770      	bxne	lr
    b3c2:	f032 427f 	bics.w	r2, r2, #4278190080	; 0xff000000
    b3c6:	bf08      	it	eq
    b3c8:	4770      	bxeq	lr
    b3ca:	f093 4f7f 	teq	r3, #4278190080	; 0xff000000
    b3ce:	bf04      	itt	eq
    b3d0:	f441 2100 	orreq.w	r1, r1, #524288	; 0x80000
    b3d4:	4770      	bxeq	lr
    b3d6:	b530      	push	{r4, r5, lr}
    b3d8:	f44f 7460 	mov.w	r4, #896	; 0x380
    b3dc:	f001 4500 	and.w	r5, r1, #2147483648	; 0x80000000
    b3e0:	f021 4100 	bic.w	r1, r1, #2147483648	; 0x80000000
    b3e4:	e71c      	b.n	b220 <__adddf3+0x138>
    b3e6:	bf00      	nop

0000b3e8 <__aeabi_ul2d>:
    b3e8:	ea50 0201 	orrs.w	r2, r0, r1
    b3ec:	bf08      	it	eq
    b3ee:	4770      	bxeq	lr
    b3f0:	b530      	push	{r4, r5, lr}
    b3f2:	f04f 0500 	mov.w	r5, #0
    b3f6:	e00a      	b.n	b40e <__aeabi_l2d+0x16>

0000b3f8 <__aeabi_l2d>:
    b3f8:	ea50 0201 	orrs.w	r2, r0, r1
    b3fc:	bf08      	it	eq
    b3fe:	4770      	bxeq	lr
    b400:	b530      	push	{r4, r5, lr}
    b402:	f011 4500 	ands.w	r5, r1, #2147483648	; 0x80000000
    b406:	d502      	bpl.n	b40e <__aeabi_l2d+0x16>
    b408:	4240      	negs	r0, r0
    b40a:	eb61 0141 	sbc.w	r1, r1, r1, lsl #1
    b40e:	f44f 6480 	mov.w	r4, #1024	; 0x400
    b412:	f104 0432 	add.w	r4, r4, #50	; 0x32
    b416:	ea5f 5c91 	movs.w	ip, r1, lsr #22
    b41a:	f43f aed8 	beq.w	b1ce <__adddf3+0xe6>
    b41e:	f04f 0203 	mov.w	r2, #3
    b422:	ea5f 0cdc 	movs.w	ip, ip, lsr #3
    b426:	bf18      	it	ne
    b428:	3203      	addne	r2, #3
    b42a:	ea5f 0cdc 	movs.w	ip, ip, lsr #3
    b42e:	bf18      	it	ne
    b430:	3203      	addne	r2, #3
    b432:	eb02 02dc 	add.w	r2, r2, ip, lsr #3
    b436:	f1c2 0320 	rsb	r3, r2, #32
    b43a:	fa00 fc03 	lsl.w	ip, r0, r3
    b43e:	fa20 f002 	lsr.w	r0, r0, r2
    b442:	fa01 fe03 	lsl.w	lr, r1, r3
    b446:	ea40 000e 	orr.w	r0, r0, lr
    b44a:	fa21 f102 	lsr.w	r1, r1, r2
    b44e:	4414      	add	r4, r2
    b450:	e6bd      	b.n	b1ce <__adddf3+0xe6>
    b452:	bf00      	nop

0000b454 <__aeabi_dmul>:
    b454:	b570      	push	{r4, r5, r6, lr}
    b456:	f04f 0cff 	mov.w	ip, #255	; 0xff
    b45a:	f44c 6ce0 	orr.w	ip, ip, #1792	; 0x700
    b45e:	ea1c 5411 	ands.w	r4, ip, r1, lsr #20
    b462:	bf1d      	ittte	ne
    b464:	ea1c 5513 	andsne.w	r5, ip, r3, lsr #20
    b468:	ea94 0f0c 	teqne	r4, ip
    b46c:	ea95 0f0c 	teqne	r5, ip
    b470:	f000 f8de 	bleq	b630 <__aeabi_dmul+0x1dc>
    b474:	442c      	add	r4, r5
    b476:	ea81 0603 	eor.w	r6, r1, r3
    b47a:	ea21 514c 	bic.w	r1, r1, ip, lsl #21
    b47e:	ea23 534c 	bic.w	r3, r3, ip, lsl #21
    b482:	ea50 3501 	orrs.w	r5, r0, r1, lsl #12
    b486:	bf18      	it	ne
    b488:	ea52 3503 	orrsne.w	r5, r2, r3, lsl #12
    b48c:	f441 1180 	orr.w	r1, r1, #1048576	; 0x100000
    b490:	f443 1380 	orr.w	r3, r3, #1048576	; 0x100000
    b494:	d038      	beq.n	b508 <__aeabi_dmul+0xb4>
    b496:	fba0 ce02 	umull	ip, lr, r0, r2
    b49a:	f04f 0500 	mov.w	r5, #0
    b49e:	fbe1 e502 	umlal	lr, r5, r1, r2
    b4a2:	f006 4200 	and.w	r2, r6, #2147483648	; 0x80000000
    b4a6:	fbe0 e503 	umlal	lr, r5, r0, r3
    b4aa:	f04f 0600 	mov.w	r6, #0
    b4ae:	fbe1 5603 	umlal	r5, r6, r1, r3
    b4b2:	f09c 0f00 	teq	ip, #0
    b4b6:	bf18      	it	ne
    b4b8:	f04e 0e01 	orrne.w	lr, lr, #1
    b4bc:	f1a4 04ff 	sub.w	r4, r4, #255	; 0xff
    b4c0:	f5b6 7f00 	cmp.w	r6, #512	; 0x200
    b4c4:	f564 7440 	sbc.w	r4, r4, #768	; 0x300
    b4c8:	d204      	bcs.n	b4d4 <__aeabi_dmul+0x80>
    b4ca:	ea5f 0e4e 	movs.w	lr, lr, lsl #1
    b4ce:	416d      	adcs	r5, r5
    b4d0:	eb46 0606 	adc.w	r6, r6, r6
    b4d4:	ea42 21c6 	orr.w	r1, r2, r6, lsl #11
    b4d8:	ea41 5155 	orr.w	r1, r1, r5, lsr #21
    b4dc:	ea4f 20c5 	mov.w	r0, r5, lsl #11
    b4e0:	ea40 505e 	orr.w	r0, r0, lr, lsr #21
    b4e4:	ea4f 2ece 	mov.w	lr, lr, lsl #11
    b4e8:	f1b4 0cfd 	subs.w	ip, r4, #253	; 0xfd
    b4ec:	bf88      	it	hi
    b4ee:	f5bc 6fe0 	cmphi.w	ip, #1792	; 0x700
    b4f2:	d81e      	bhi.n	b532 <__aeabi_dmul+0xde>
    b4f4:	f1be 4f00 	cmp.w	lr, #2147483648	; 0x80000000
    b4f8:	bf08      	it	eq
    b4fa:	ea5f 0e50 	movseq.w	lr, r0, lsr #1
    b4fe:	f150 0000 	adcs.w	r0, r0, #0
    b502:	eb41 5104 	adc.w	r1, r1, r4, lsl #20
    b506:	bd70      	pop	{r4, r5, r6, pc}
    b508:	f006 4600 	and.w	r6, r6, #2147483648	; 0x80000000
    b50c:	ea46 0101 	orr.w	r1, r6, r1
    b510:	ea40 0002 	orr.w	r0, r0, r2
    b514:	ea81 0103 	eor.w	r1, r1, r3
    b518:	ebb4 045c 	subs.w	r4, r4, ip, lsr #1
    b51c:	bfc2      	ittt	gt
    b51e:	ebd4 050c 	rsbsgt	r5, r4, ip
    b522:	ea41 5104 	orrgt.w	r1, r1, r4, lsl #20
    b526:	bd70      	popgt	{r4, r5, r6, pc}
    b528:	f441 1180 	orr.w	r1, r1, #1048576	; 0x100000
    b52c:	f04f 0e00 	mov.w	lr, #0
    b530:	3c01      	subs	r4, #1
    b532:	f300 80ab 	bgt.w	b68c <__aeabi_dmul+0x238>
    b536:	f114 0f36 	cmn.w	r4, #54	; 0x36
    b53a:	bfde      	ittt	le
    b53c:	2000      	movle	r0, #0
    b53e:	f001 4100 	andle.w	r1, r1, #2147483648	; 0x80000000
    b542:	bd70      	pople	{r4, r5, r6, pc}
    b544:	f1c4 0400 	rsb	r4, r4, #0
    b548:	3c20      	subs	r4, #32
    b54a:	da35      	bge.n	b5b8 <__aeabi_dmul+0x164>
    b54c:	340c      	adds	r4, #12
    b54e:	dc1b      	bgt.n	b588 <__aeabi_dmul+0x134>
    b550:	f104 0414 	add.w	r4, r4, #20
    b554:	f1c4 0520 	rsb	r5, r4, #32
    b558:	fa00 f305 	lsl.w	r3, r0, r5
    b55c:	fa20 f004 	lsr.w	r0, r0, r4
    b560:	fa01 f205 	lsl.w	r2, r1, r5
    b564:	ea40 0002 	orr.w	r0, r0, r2
    b568:	f001 4200 	and.w	r2, r1, #2147483648	; 0x80000000
    b56c:	f021 4100 	bic.w	r1, r1, #2147483648	; 0x80000000
    b570:	eb10 70d3 	adds.w	r0, r0, r3, lsr #31
    b574:	fa21 f604 	lsr.w	r6, r1, r4
    b578:	eb42 0106 	adc.w	r1, r2, r6
    b57c:	ea5e 0e43 	orrs.w	lr, lr, r3, lsl #1
    b580:	bf08      	it	eq
    b582:	ea20 70d3 	biceq.w	r0, r0, r3, lsr #31
    b586:	bd70      	pop	{r4, r5, r6, pc}
    b588:	f1c4 040c 	rsb	r4, r4, #12
    b58c:	f1c4 0520 	rsb	r5, r4, #32
    b590:	fa00 f304 	lsl.w	r3, r0, r4
    b594:	fa20 f005 	lsr.w	r0, r0, r5
    b598:	fa01 f204 	lsl.w	r2, r1, r4
    b59c:	ea40 0002 	orr.w	r0, r0, r2
    b5a0:	f001 4100 	and.w	r1, r1, #2147483648	; 0x80000000
    b5a4:	eb10 70d3 	adds.w	r0, r0, r3, lsr #31
    b5a8:	f141 0100 	adc.w	r1, r1, #0
    b5ac:	ea5e 0e43 	orrs.w	lr, lr, r3, lsl #1
    b5b0:	bf08      	it	eq
    b5b2:	ea20 70d3 	biceq.w	r0, r0, r3, lsr #31
    b5b6:	bd70      	pop	{r4, r5, r6, pc}
    b5b8:	f1c4 0520 	rsb	r5, r4, #32
    b5bc:	fa00 f205 	lsl.w	r2, r0, r5
    b5c0:	ea4e 0e02 	orr.w	lr, lr, r2
    b5c4:	fa20 f304 	lsr.w	r3, r0, r4
    b5c8:	fa01 f205 	lsl.w	r2, r1, r5
    b5cc:	ea43 0302 	orr.w	r3, r3, r2
    b5d0:	fa21 f004 	lsr.w	r0, r1, r4
    b5d4:	f001 4100 	and.w	r1, r1, #2147483648	; 0x80000000
    b5d8:	fa21 f204 	lsr.w	r2, r1, r4
    b5dc:	ea20 0002 	bic.w	r0, r0, r2
    b5e0:	eb00 70d3 	add.w	r0, r0, r3, lsr #31
    b5e4:	ea5e 0e43 	orrs.w	lr, lr, r3, lsl #1
    b5e8:	bf08      	it	eq
    b5ea:	ea20 70d3 	biceq.w	r0, r0, r3, lsr #31
    b5ee:	bd70      	pop	{r4, r5, r6, pc}
    b5f0:	f094 0f00 	teq	r4, #0
    b5f4:	d10f      	bne.n	b616 <__aeabi_dmul+0x1c2>
    b5f6:	f001 4600 	and.w	r6, r1, #2147483648	; 0x80000000
    b5fa:	0040      	lsls	r0, r0, #1
    b5fc:	eb41 0101 	adc.w	r1, r1, r1
    b600:	f411 1f80 	tst.w	r1, #1048576	; 0x100000
    b604:	bf08      	it	eq
    b606:	3c01      	subeq	r4, #1
    b608:	d0f7      	beq.n	b5fa <__aeabi_dmul+0x1a6>
    b60a:	ea41 0106 	orr.w	r1, r1, r6
    b60e:	f095 0f00 	teq	r5, #0
    b612:	bf18      	it	ne
    b614:	4770      	bxne	lr
    b616:	f003 4600 	and.w	r6, r3, #2147483648	; 0x80000000
    b61a:	0052      	lsls	r2, r2, #1
    b61c:	eb43 0303 	adc.w	r3, r3, r3
    b620:	f413 1f80 	tst.w	r3, #1048576	; 0x100000
    b624:	bf08      	it	eq
    b626:	3d01      	subeq	r5, #1
    b628:	d0f7      	beq.n	b61a <__aeabi_dmul+0x1c6>
    b62a:	ea43 0306 	orr.w	r3, r3, r6
    b62e:	4770      	bx	lr
    b630:	ea94 0f0c 	teq	r4, ip
    b634:	ea0c 5513 	and.w	r5, ip, r3, lsr #20
    b638:	bf18      	it	ne
    b63a:	ea95 0f0c 	teqne	r5, ip
    b63e:	d00c      	beq.n	b65a <__aeabi_dmul+0x206>
    b640:	ea50 0641 	orrs.w	r6, r0, r1, lsl #1
    b644:	bf18      	it	ne
    b646:	ea52 0643 	orrsne.w	r6, r2, r3, lsl #1
    b64a:	d1d1      	bne.n	b5f0 <__aeabi_dmul+0x19c>
    b64c:	ea81 0103 	eor.w	r1, r1, r3
    b650:	f001 4100 	and.w	r1, r1, #2147483648	; 0x80000000
    b654:	f04f 0000 	mov.w	r0, #0
    b658:	bd70      	pop	{r4, r5, r6, pc}
    b65a:	ea50 0641 	orrs.w	r6, r0, r1, lsl #1
    b65e:	bf06      	itte	eq
    b660:	4610      	moveq	r0, r2
    b662:	4619      	moveq	r1, r3
    b664:	ea52 0643 	orrsne.w	r6, r2, r3, lsl #1
    b668:	d019      	beq.n	b69e <__aeabi_dmul+0x24a>
    b66a:	ea94 0f0c 	teq	r4, ip
    b66e:	d102      	bne.n	b676 <__aeabi_dmul+0x222>
    b670:	ea50 3601 	orrs.w	r6, r0, r1, lsl #12
    b674:	d113      	bne.n	b69e <__aeabi_dmul+0x24a>
    b676:	ea95 0f0c 	teq	r5, ip
    b67a:	d105      	bne.n	b688 <__aeabi_dmul+0x234>
    b67c:	ea52 3603 	orrs.w	r6, r2, r3, lsl #12
    b680:	bf1c      	itt	ne
    b682:	4610      	movne	r0, r2
    b684:	4619      	movne	r1, r3
    b686:	d10a      	bne.n	b69e <__aeabi_dmul+0x24a>
    b688:	ea81 0103 	eor.w	r1, r1, r3
    b68c:	f001 4100 	and.w	r1, r1, #2147483648	; 0x80000000
    b690:	f041 41fe 	orr.w	r1, r1, #2130706432	; 0x7f000000
    b694:	f441 0170 	orr.w	r1, r1, #15728640	; 0xf00000
    b698:	f04f 0000 	mov.w	r0, #0
    b69c:	bd70      	pop	{r4, r5, r6, pc}
    b69e:	f041 41fe 	orr.w	r1, r1, #2130706432	; 0x7f000000
    b6a2:	f441 0178 	orr.w	r1, r1, #16252928	; 0xf80000
    b6a6:	bd70      	pop	{r4, r5, r6, pc}

0000b6a8 <__aeabi_ddiv>:
    b6a8:	b570      	push	{r4, r5, r6, lr}
    b6aa:	f04f 0cff 	mov.w	ip, #255	; 0xff
    b6ae:	f44c 6ce0 	orr.w	ip, ip, #1792	; 0x700
    b6b2:	ea1c 5411 	ands.w	r4, ip, r1, lsr #20
    b6b6:	bf1d      	ittte	ne
    b6b8:	ea1c 5513 	andsne.w	r5, ip, r3, lsr #20
    b6bc:	ea94 0f0c 	teqne	r4, ip
    b6c0:	ea95 0f0c 	teqne	r5, ip
    b6c4:	f000 f8a7 	bleq	b816 <__aeabi_ddiv+0x16e>
    b6c8:	eba4 0405 	sub.w	r4, r4, r5
    b6cc:	ea81 0e03 	eor.w	lr, r1, r3
    b6d0:	ea52 3503 	orrs.w	r5, r2, r3, lsl #12
    b6d4:	ea4f 3101 	mov.w	r1, r1, lsl #12
    b6d8:	f000 8088 	beq.w	b7ec <__aeabi_ddiv+0x144>
    b6dc:	ea4f 3303 	mov.w	r3, r3, lsl #12
    b6e0:	f04f 5580 	mov.w	r5, #268435456	; 0x10000000
    b6e4:	ea45 1313 	orr.w	r3, r5, r3, lsr #4
    b6e8:	ea43 6312 	orr.w	r3, r3, r2, lsr #24
    b6ec:	ea4f 2202 	mov.w	r2, r2, lsl #8
    b6f0:	ea45 1511 	orr.w	r5, r5, r1, lsr #4
    b6f4:	ea45 6510 	orr.w	r5, r5, r0, lsr #24
    b6f8:	ea4f 2600 	mov.w	r6, r0, lsl #8
    b6fc:	f00e 4100 	and.w	r1, lr, #2147483648	; 0x80000000
    b700:	429d      	cmp	r5, r3
    b702:	bf08      	it	eq
    b704:	4296      	cmpeq	r6, r2
    b706:	f144 04fd 	adc.w	r4, r4, #253	; 0xfd
    b70a:	f504 7440 	add.w	r4, r4, #768	; 0x300
    b70e:	d202      	bcs.n	b716 <__aeabi_ddiv+0x6e>
    b710:	085b      	lsrs	r3, r3, #1
    b712:	ea4f 0232 	mov.w	r2, r2, rrx
    b716:	1ab6      	subs	r6, r6, r2
    b718:	eb65 0503 	sbc.w	r5, r5, r3
    b71c:	085b      	lsrs	r3, r3, #1
    b71e:	ea4f 0232 	mov.w	r2, r2, rrx
    b722:	f44f 1080 	mov.w	r0, #1048576	; 0x100000
    b726:	f44f 2c00 	mov.w	ip, #524288	; 0x80000
    b72a:	ebb6 0e02 	subs.w	lr, r6, r2
    b72e:	eb75 0e03 	sbcs.w	lr, r5, r3
    b732:	bf22      	ittt	cs
    b734:	1ab6      	subcs	r6, r6, r2
    b736:	4675      	movcs	r5, lr
    b738:	ea40 000c 	orrcs.w	r0, r0, ip
    b73c:	085b      	lsrs	r3, r3, #1
    b73e:	ea4f 0232 	mov.w	r2, r2, rrx
    b742:	ebb6 0e02 	subs.w	lr, r6, r2
    b746:	eb75 0e03 	sbcs.w	lr, r5, r3
    b74a:	bf22      	ittt	cs
    b74c:	1ab6      	subcs	r6, r6, r2
    b74e:	4675      	movcs	r5, lr
    b750:	ea40 005c 	orrcs.w	r0, r0, ip, lsr #1
    b754:	085b      	lsrs	r3, r3, #1
    b756:	ea4f 0232 	mov.w	r2, r2, rrx
    b75a:	ebb6 0e02 	subs.w	lr, r6, r2
    b75e:	eb75 0e03 	sbcs.w	lr, r5, r3
    b762:	bf22      	ittt	cs
    b764:	1ab6      	subcs	r6, r6, r2
    b766:	4675      	movcs	r5, lr
    b768:	ea40 009c 	orrcs.w	r0, r0, ip, lsr #2
    b76c:	085b      	lsrs	r3, r3, #1
    b76e:	ea4f 0232 	mov.w	r2, r2, rrx
    b772:	ebb6 0e02 	subs.w	lr, r6, r2
    b776:	eb75 0e03 	sbcs.w	lr, r5, r3
    b77a:	bf22      	ittt	cs
    b77c:	1ab6      	subcs	r6, r6, r2
    b77e:	4675      	movcs	r5, lr
    b780:	ea40 00dc 	orrcs.w	r0, r0, ip, lsr #3
    b784:	ea55 0e06 	orrs.w	lr, r5, r6
    b788:	d018      	beq.n	b7bc <__aeabi_ddiv+0x114>
    b78a:	ea4f 1505 	mov.w	r5, r5, lsl #4
    b78e:	ea45 7516 	orr.w	r5, r5, r6, lsr #28
    b792:	ea4f 1606 	mov.w	r6, r6, lsl #4
    b796:	ea4f 03c3 	mov.w	r3, r3, lsl #3
    b79a:	ea43 7352 	orr.w	r3, r3, r2, lsr #29
    b79e:	ea4f 02c2 	mov.w	r2, r2, lsl #3
    b7a2:	ea5f 1c1c 	movs.w	ip, ip, lsr #4
    b7a6:	d1c0      	bne.n	b72a <__aeabi_ddiv+0x82>
    b7a8:	f411 1f80 	tst.w	r1, #1048576	; 0x100000
    b7ac:	d10b      	bne.n	b7c6 <__aeabi_ddiv+0x11e>
    b7ae:	ea41 0100 	orr.w	r1, r1, r0
    b7b2:	f04f 0000 	mov.w	r0, #0
    b7b6:	f04f 4c00 	mov.w	ip, #2147483648	; 0x80000000
    b7ba:	e7b6      	b.n	b72a <__aeabi_ddiv+0x82>
    b7bc:	f411 1f80 	tst.w	r1, #1048576	; 0x100000
    b7c0:	bf04      	itt	eq
    b7c2:	4301      	orreq	r1, r0
    b7c4:	2000      	moveq	r0, #0
    b7c6:	f1b4 0cfd 	subs.w	ip, r4, #253	; 0xfd
    b7ca:	bf88      	it	hi
    b7cc:	f5bc 6fe0 	cmphi.w	ip, #1792	; 0x700
    b7d0:	f63f aeaf 	bhi.w	b532 <__aeabi_dmul+0xde>
    b7d4:	ebb5 0c03 	subs.w	ip, r5, r3
    b7d8:	bf04      	itt	eq
    b7da:	ebb6 0c02 	subseq.w	ip, r6, r2
    b7de:	ea5f 0c50 	movseq.w	ip, r0, lsr #1
    b7e2:	f150 0000 	adcs.w	r0, r0, #0
    b7e6:	eb41 5104 	adc.w	r1, r1, r4, lsl #20
    b7ea:	bd70      	pop	{r4, r5, r6, pc}
    b7ec:	f00e 4e00 	and.w	lr, lr, #2147483648	; 0x80000000
    b7f0:	ea4e 3111 	orr.w	r1, lr, r1, lsr #12
    b7f4:	eb14 045c 	adds.w	r4, r4, ip, lsr #1
    b7f8:	bfc2      	ittt	gt
    b7fa:	ebd4 050c 	rsbsgt	r5, r4, ip
    b7fe:	ea41 5104 	orrgt.w	r1, r1, r4, lsl #20
    b802:	bd70      	popgt	{r4, r5, r6, pc}
    b804:	f441 1180 	orr.w	r1, r1, #1048576	; 0x100000
    b808:	f04f 0e00 	mov.w	lr, #0
    b80c:	3c01      	subs	r4, #1
    b80e:	e690      	b.n	b532 <__aeabi_dmul+0xde>
    b810:	ea45 0e06 	orr.w	lr, r5, r6
    b814:	e68d      	b.n	b532 <__aeabi_dmul+0xde>
    b816:	ea0c 5513 	and.w	r5, ip, r3, lsr #20
    b81a:	ea94 0f0c 	teq	r4, ip
    b81e:	bf08      	it	eq
    b820:	ea95 0f0c 	teqeq	r5, ip
    b824:	f43f af3b 	beq.w	b69e <__aeabi_dmul+0x24a>
    b828:	ea94 0f0c 	teq	r4, ip
    b82c:	d10a      	bne.n	b844 <__aeabi_ddiv+0x19c>
    b82e:	ea50 3401 	orrs.w	r4, r0, r1, lsl #12
    b832:	f47f af34 	bne.w	b69e <__aeabi_dmul+0x24a>
    b836:	ea95 0f0c 	teq	r5, ip
    b83a:	f47f af25 	bne.w	b688 <__aeabi_dmul+0x234>
    b83e:	4610      	mov	r0, r2
    b840:	4619      	mov	r1, r3
    b842:	e72c      	b.n	b69e <__aeabi_dmul+0x24a>
    b844:	ea95 0f0c 	teq	r5, ip
    b848:	d106      	bne.n	b858 <__aeabi_ddiv+0x1b0>
    b84a:	ea52 3503 	orrs.w	r5, r2, r3, lsl #12
    b84e:	f43f aefd 	beq.w	b64c <__aeabi_dmul+0x1f8>
    b852:	4610      	mov	r0, r2
    b854:	4619      	mov	r1, r3
    b856:	e722      	b.n	b69e <__aeabi_dmul+0x24a>
    b858:	ea50 0641 	orrs.w	r6, r0, r1, lsl #1
    b85c:	bf18      	it	ne
    b85e:	ea52 0643 	orrsne.w	r6, r2, r3, lsl #1
    b862:	f47f aec5 	bne.w	b5f0 <__aeabi_dmul+0x19c>
    b866:	ea50 0441 	orrs.w	r4, r0, r1, lsl #1
    b86a:	f47f af0d 	bne.w	b688 <__aeabi_dmul+0x234>
    b86e:	ea52 0543 	orrs.w	r5, r2, r3, lsl #1
    b872:	f47f aeeb 	bne.w	b64c <__aeabi_dmul+0x1f8>
    b876:	e712      	b.n	b69e <__aeabi_dmul+0x24a>

0000b878 <__gedf2>:
    b878:	f04f 3cff 	mov.w	ip, #4294967295	; 0xffffffff
    b87c:	e006      	b.n	b88c <__cmpdf2+0x4>
    b87e:	bf00      	nop

0000b880 <__ledf2>:
    b880:	f04f 0c01 	mov.w	ip, #1
    b884:	e002      	b.n	b88c <__cmpdf2+0x4>
    b886:	bf00      	nop

0000b888 <__cmpdf2>:
    b888:	f04f 0c01 	mov.w	ip, #1
    b88c:	f84d cd04 	str.w	ip, [sp, #-4]!
    b890:	ea4f 0c41 	mov.w	ip, r1, lsl #1
    b894:	ea7f 5c6c 	mvns.w	ip, ip, asr #21
    b898:	ea4f 0c43 	mov.w	ip, r3, lsl #1
    b89c:	bf18      	it	ne
    b89e:	ea7f 5c6c 	mvnsne.w	ip, ip, asr #21
    b8a2:	d01b      	beq.n	b8dc <__cmpdf2+0x54>
    b8a4:	b001      	add	sp, #4
    b8a6:	ea50 0c41 	orrs.w	ip, r0, r1, lsl #1
    b8aa:	bf0c      	ite	eq
    b8ac:	ea52 0c43 	orrseq.w	ip, r2, r3, lsl #1
    b8b0:	ea91 0f03 	teqne	r1, r3
    b8b4:	bf02      	ittt	eq
    b8b6:	ea90 0f02 	teqeq	r0, r2
    b8ba:	2000      	moveq	r0, #0
    b8bc:	4770      	bxeq	lr
    b8be:	f110 0f00 	cmn.w	r0, #0
    b8c2:	ea91 0f03 	teq	r1, r3
    b8c6:	bf58      	it	pl
    b8c8:	4299      	cmppl	r1, r3
    b8ca:	bf08      	it	eq
    b8cc:	4290      	cmpeq	r0, r2
    b8ce:	bf2c      	ite	cs
    b8d0:	17d8      	asrcs	r0, r3, #31
    b8d2:	ea6f 70e3 	mvncc.w	r0, r3, asr #31
    b8d6:	f040 0001 	orr.w	r0, r0, #1
    b8da:	4770      	bx	lr
    b8dc:	ea4f 0c41 	mov.w	ip, r1, lsl #1
    b8e0:	ea7f 5c6c 	mvns.w	ip, ip, asr #21
    b8e4:	d102      	bne.n	b8ec <__cmpdf2+0x64>
    b8e6:	ea50 3c01 	orrs.w	ip, r0, r1, lsl #12
    b8ea:	d107      	bne.n	b8fc <__cmpdf2+0x74>
    b8ec:	ea4f 0c43 	mov.w	ip, r3, lsl #1
    b8f0:	ea7f 5c6c 	mvns.w	ip, ip, asr #21
    b8f4:	d1d6      	bne.n	b8a4 <__cmpdf2+0x1c>
    b8f6:	ea52 3c03 	orrs.w	ip, r2, r3, lsl #12
    b8fa:	d0d3      	beq.n	b8a4 <__cmpdf2+0x1c>
    b8fc:	f85d 0b04 	ldr.w	r0, [sp], #4
    b900:	4770      	bx	lr
    b902:	bf00      	nop

0000b904 <__aeabi_cdrcmple>:
    b904:	4684      	mov	ip, r0
    b906:	4610      	mov	r0, r2
    b908:	4662      	mov	r2, ip
    b90a:	468c      	mov	ip, r1
    b90c:	4619      	mov	r1, r3
    b90e:	4663      	mov	r3, ip
    b910:	e000      	b.n	b914 <__aeabi_cdcmpeq>
    b912:	bf00      	nop

0000b914 <__aeabi_cdcmpeq>:
    b914:	b501      	push	{r0, lr}
    b916:	f7ff ffb7 	bl	b888 <__cmpdf2>
    b91a:	2800      	cmp	r0, #0
    b91c:	bf48      	it	mi
    b91e:	f110 0f00 	cmnmi.w	r0, #0
    b922:	bd01      	pop	{r0, pc}

0000b924 <__aeabi_dcmpeq>:
    b924:	f84d ed08 	str.w	lr, [sp, #-8]!
    b928:	f7ff fff4 	bl	b914 <__aeabi_cdcmpeq>
    b92c:	bf0c      	ite	eq
    b92e:	2001      	moveq	r0, #1
    b930:	2000      	movne	r0, #0
    b932:	f85d fb08 	ldr.w	pc, [sp], #8
    b936:	bf00      	nop

0000b938 <__aeabi_dcmplt>:
    b938:	f84d ed08 	str.w	lr, [sp, #-8]!
    b93c:	f7ff ffea 	bl	b914 <__aeabi_cdcmpeq>
    b940:	bf34      	ite	cc
    b942:	2001      	movcc	r0, #1
    b944:	2000      	movcs	r0, #0
    b946:	f85d fb08 	ldr.w	pc, [sp], #8
    b94a:	bf00      	nop

0000b94c <__aeabi_dcmple>:
    b94c:	f84d ed08 	str.w	lr, [sp, #-8]!
    b950:	f7ff ffe0 	bl	b914 <__aeabi_cdcmpeq>
    b954:	bf94      	ite	ls
    b956:	2001      	movls	r0, #1
    b958:	2000      	movhi	r0, #0
    b95a:	f85d fb08 	ldr.w	pc, [sp], #8
    b95e:	bf00      	nop

0000b960 <__aeabi_dcmpge>:
    b960:	f84d ed08 	str.w	lr, [sp, #-8]!
    b964:	f7ff ffce 	bl	b904 <__aeabi_cdrcmple>
    b968:	bf94      	ite	ls
    b96a:	2001      	movls	r0, #1
    b96c:	2000      	movhi	r0, #0
    b96e:	f85d fb08 	ldr.w	pc, [sp], #8
    b972:	bf00      	nop

0000b974 <__aeabi_dcmpgt>:
    b974:	f84d ed08 	str.w	lr, [sp, #-8]!
    b978:	f7ff ffc4 	bl	b904 <__aeabi_cdrcmple>
    b97c:	bf34      	ite	cc
    b97e:	2001      	movcc	r0, #1
    b980:	2000      	movcs	r0, #0
    b982:	f85d fb08 	ldr.w	pc, [sp], #8
    b986:	bf00      	nop

0000b988 <__aeabi_dcmpun>:
    b988:	ea4f 0c41 	mov.w	ip, r1, lsl #1
    b98c:	ea7f 5c6c 	mvns.w	ip, ip, asr #21
    b990:	d102      	bne.n	b998 <__aeabi_dcmpun+0x10>
    b992:	ea50 3c01 	orrs.w	ip, r0, r1, lsl #12
    b996:	d10a      	bne.n	b9ae <__aeabi_dcmpun+0x26>
    b998:	ea4f 0c43 	mov.w	ip, r3, lsl #1
    b99c:	ea7f 5c6c 	mvns.w	ip, ip, asr #21
    b9a0:	d102      	bne.n	b9a8 <__aeabi_dcmpun+0x20>
    b9a2:	ea52 3c03 	orrs.w	ip, r2, r3, lsl #12
    b9a6:	d102      	bne.n	b9ae <__aeabi_dcmpun+0x26>
    b9a8:	f04f 0000 	mov.w	r0, #0
    b9ac:	4770      	bx	lr
    b9ae:	f04f 0001 	mov.w	r0, #1
    b9b2:	4770      	bx	lr

0000b9b4 <__aeabi_d2iz>:
    b9b4:	ea4f 0241 	mov.w	r2, r1, lsl #1
    b9b8:	f512 1200 	adds.w	r2, r2, #2097152	; 0x200000
    b9bc:	d215      	bcs.n	b9ea <__aeabi_d2iz+0x36>
    b9be:	d511      	bpl.n	b9e4 <__aeabi_d2iz+0x30>
    b9c0:	f46f 7378 	mvn.w	r3, #992	; 0x3e0
    b9c4:	ebb3 5262 	subs.w	r2, r3, r2, asr #21
    b9c8:	d912      	bls.n	b9f0 <__aeabi_d2iz+0x3c>
    b9ca:	ea4f 23c1 	mov.w	r3, r1, lsl #11
    b9ce:	f043 4300 	orr.w	r3, r3, #2147483648	; 0x80000000
    b9d2:	ea43 5350 	orr.w	r3, r3, r0, lsr #21
    b9d6:	f011 4f00 	tst.w	r1, #2147483648	; 0x80000000
    b9da:	fa23 f002 	lsr.w	r0, r3, r2
    b9de:	bf18      	it	ne
    b9e0:	4240      	negne	r0, r0
    b9e2:	4770      	bx	lr
    b9e4:	f04f 0000 	mov.w	r0, #0
    b9e8:	4770      	bx	lr
    b9ea:	ea50 3001 	orrs.w	r0, r0, r1, lsl #12
    b9ee:	d105      	bne.n	b9fc <__aeabi_d2iz+0x48>
    b9f0:	f011 4000 	ands.w	r0, r1, #2147483648	; 0x80000000
    b9f4:	bf08      	it	eq
    b9f6:	f06f 4000 	mvneq.w	r0, #2147483648	; 0x80000000
    b9fa:	4770      	bx	lr
    b9fc:	f04f 0000 	mov.w	r0, #0
    ba00:	4770      	bx	lr
    ba02:	bf00      	nop

0000ba04 <__errno>:
    ba04:	4b01      	ldr	r3, [pc, #4]	; (ba0c <__errno+0x8>)
    ba06:	6818      	ldr	r0, [r3, #0]
    ba08:	4770      	bx	lr
    ba0a:	bf00      	nop
    ba0c:	0001beb8 	.word	0x0001beb8

0000ba10 <__libc_init_array>:
    ba10:	b570      	push	{r4, r5, r6, lr}
    ba12:	4e0d      	ldr	r6, [pc, #52]	; (ba48 <__libc_init_array+0x38>)
    ba14:	4d0d      	ldr	r5, [pc, #52]	; (ba4c <__libc_init_array+0x3c>)
    ba16:	1b76      	subs	r6, r6, r5
    ba18:	10b6      	asrs	r6, r6, #2
    ba1a:	d006      	beq.n	ba2a <__libc_init_array+0x1a>
    ba1c:	2400      	movs	r4, #0
    ba1e:	f855 3b04 	ldr.w	r3, [r5], #4
    ba22:	3401      	adds	r4, #1
    ba24:	4798      	blx	r3
    ba26:	42a6      	cmp	r6, r4
    ba28:	d1f9      	bne.n	ba1e <__libc_init_array+0xe>
    ba2a:	4e09      	ldr	r6, [pc, #36]	; (ba50 <__libc_init_array+0x40>)
    ba2c:	4d09      	ldr	r5, [pc, #36]	; (ba54 <__libc_init_array+0x44>)
    ba2e:	1b76      	subs	r6, r6, r5
    ba30:	f7fc fae6 	bl	8000 <_init>
    ba34:	10b6      	asrs	r6, r6, #2
    ba36:	d006      	beq.n	ba46 <__libc_init_array+0x36>
    ba38:	2400      	movs	r4, #0
    ba3a:	f855 3b04 	ldr.w	r3, [r5], #4
    ba3e:	3401      	adds	r4, #1
    ba40:	4798      	blx	r3
    ba42:	42a6      	cmp	r6, r4
    ba44:	d1f9      	bne.n	ba3a <__libc_init_array+0x2a>
    ba46:	bd70      	pop	{r4, r5, r6, pc}
    ba48:	0001bea8 	.word	0x0001bea8
    ba4c:	0001bea8 	.word	0x0001bea8
    ba50:	0001beb0 	.word	0x0001beb0
    ba54:	0001bea8 	.word	0x0001bea8

0000ba58 <memset>:
    ba58:	0783      	lsls	r3, r0, #30
    ba5a:	b530      	push	{r4, r5, lr}
    ba5c:	d048      	beq.n	baf0 <memset+0x98>
    ba5e:	1e54      	subs	r4, r2, #1
    ba60:	2a00      	cmp	r2, #0
    ba62:	d03f      	beq.n	bae4 <memset+0x8c>
    ba64:	b2ca      	uxtb	r2, r1
    ba66:	4603      	mov	r3, r0
    ba68:	e001      	b.n	ba6e <memset+0x16>
    ba6a:	3c01      	subs	r4, #1
    ba6c:	d33a      	bcc.n	bae4 <memset+0x8c>
    ba6e:	f803 2b01 	strb.w	r2, [r3], #1
    ba72:	079d      	lsls	r5, r3, #30
    ba74:	d1f9      	bne.n	ba6a <memset+0x12>
    ba76:	2c03      	cmp	r4, #3
    ba78:	d92d      	bls.n	bad6 <memset+0x7e>
    ba7a:	b2cd      	uxtb	r5, r1
    ba7c:	ea45 2505 	orr.w	r5, r5, r5, lsl #8
    ba80:	2c0f      	cmp	r4, #15
    ba82:	ea45 4505 	orr.w	r5, r5, r5, lsl #16
    ba86:	d936      	bls.n	baf6 <memset+0x9e>
    ba88:	f1a4 0210 	sub.w	r2, r4, #16
    ba8c:	f022 0c0f 	bic.w	ip, r2, #15
    ba90:	f103 0e20 	add.w	lr, r3, #32
    ba94:	44e6      	add	lr, ip
    ba96:	ea4f 1c12 	mov.w	ip, r2, lsr #4
    ba9a:	f103 0210 	add.w	r2, r3, #16
    ba9e:	e942 5504 	strd	r5, r5, [r2, #-16]
    baa2:	e942 5502 	strd	r5, r5, [r2, #-8]
    baa6:	3210      	adds	r2, #16
    baa8:	4572      	cmp	r2, lr
    baaa:	d1f8      	bne.n	ba9e <memset+0x46>
    baac:	f10c 0201 	add.w	r2, ip, #1
    bab0:	f014 0f0c 	tst.w	r4, #12
    bab4:	eb03 1202 	add.w	r2, r3, r2, lsl #4
    bab8:	f004 0c0f 	and.w	ip, r4, #15
    babc:	d013      	beq.n	bae6 <memset+0x8e>
    babe:	f1ac 0304 	sub.w	r3, ip, #4
    bac2:	f023 0303 	bic.w	r3, r3, #3
    bac6:	3304      	adds	r3, #4
    bac8:	4413      	add	r3, r2
    baca:	f842 5b04 	str.w	r5, [r2], #4
    bace:	4293      	cmp	r3, r2
    bad0:	d1fb      	bne.n	baca <memset+0x72>
    bad2:	f00c 0403 	and.w	r4, ip, #3
    bad6:	b12c      	cbz	r4, bae4 <memset+0x8c>
    bad8:	b2ca      	uxtb	r2, r1
    bada:	441c      	add	r4, r3
    badc:	f803 2b01 	strb.w	r2, [r3], #1
    bae0:	429c      	cmp	r4, r3
    bae2:	d1fb      	bne.n	badc <memset+0x84>
    bae4:	bd30      	pop	{r4, r5, pc}
    bae6:	4664      	mov	r4, ip
    bae8:	4613      	mov	r3, r2
    baea:	2c00      	cmp	r4, #0
    baec:	d1f4      	bne.n	bad8 <memset+0x80>
    baee:	e7f9      	b.n	bae4 <memset+0x8c>
    baf0:	4603      	mov	r3, r0
    baf2:	4614      	mov	r4, r2
    baf4:	e7bf      	b.n	ba76 <memset+0x1e>
    baf6:	461a      	mov	r2, r3
    baf8:	46a4      	mov	ip, r4
    bafa:	e7e0      	b.n	babe <memset+0x66>

0000bafc <__call_exitprocs>:
    bafc:	e92d 4ff0 	stmdb	sp!, {r4, r5, r6, r7, r8, r9, sl, fp, lr}
    bb00:	4b2d      	ldr	r3, [pc, #180]	; (bbb8 <__call_exitprocs+0xbc>)
    bb02:	b083      	sub	sp, #12
    bb04:	4683      	mov	fp, r0
    bb06:	6818      	ldr	r0, [r3, #0]
    bb08:	f8cd b004 	str.w	fp, [sp, #4]
    bb0c:	460f      	mov	r7, r1
    bb0e:	f000 f873 	bl	bbf8 <__retarget_lock_acquire_recursive>
    bb12:	4b2a      	ldr	r3, [pc, #168]	; (bbbc <__call_exitprocs+0xc0>)
    bb14:	f8d3 8000 	ldr.w	r8, [r3]
    bb18:	f8d8 6148 	ldr.w	r6, [r8, #328]	; 0x148
    bb1c:	b19e      	cbz	r6, bb46 <__call_exitprocs+0x4a>
    bb1e:	f04f 0901 	mov.w	r9, #1
    bb22:	f04f 0a00 	mov.w	sl, #0
    bb26:	6874      	ldr	r4, [r6, #4]
    bb28:	1e65      	subs	r5, r4, #1
    bb2a:	d40c      	bmi.n	bb46 <__call_exitprocs+0x4a>
    bb2c:	3401      	adds	r4, #1
    bb2e:	eb06 0484 	add.w	r4, r6, r4, lsl #2
    bb32:	b17f      	cbz	r7, bb54 <__call_exitprocs+0x58>
    bb34:	f8d4 3100 	ldr.w	r3, [r4, #256]	; 0x100
    bb38:	42bb      	cmp	r3, r7
    bb3a:	d00b      	beq.n	bb54 <__call_exitprocs+0x58>
    bb3c:	3d01      	subs	r5, #1
    bb3e:	1c6b      	adds	r3, r5, #1
    bb40:	f1a4 0404 	sub.w	r4, r4, #4
    bb44:	d1f5      	bne.n	bb32 <__call_exitprocs+0x36>
    bb46:	4b1c      	ldr	r3, [pc, #112]	; (bbb8 <__call_exitprocs+0xbc>)
    bb48:	6818      	ldr	r0, [r3, #0]
    bb4a:	b003      	add	sp, #12
    bb4c:	e8bd 4ff0 	ldmia.w	sp!, {r4, r5, r6, r7, r8, r9, sl, fp, lr}
    bb50:	f000 b854 	b.w	bbfc <__retarget_lock_release_recursive>
    bb54:	6873      	ldr	r3, [r6, #4]
    bb56:	6822      	ldr	r2, [r4, #0]
    bb58:	3b01      	subs	r3, #1
    bb5a:	42ab      	cmp	r3, r5
    bb5c:	bf0c      	ite	eq
    bb5e:	6075      	streq	r5, [r6, #4]
    bb60:	f8c4 a000 	strne.w	sl, [r4]
    bb64:	2a00      	cmp	r2, #0
    bb66:	d0e9      	beq.n	bb3c <__call_exitprocs+0x40>
    bb68:	f8d6 0188 	ldr.w	r0, [r6, #392]	; 0x188
    bb6c:	f8d6 b004 	ldr.w	fp, [r6, #4]
    bb70:	fa09 f105 	lsl.w	r1, r9, r5
    bb74:	4201      	tst	r1, r0
    bb76:	d10b      	bne.n	bb90 <__call_exitprocs+0x94>
    bb78:	4790      	blx	r2
    bb7a:	6872      	ldr	r2, [r6, #4]
    bb7c:	455a      	cmp	r2, fp
    bb7e:	d112      	bne.n	bba6 <__call_exitprocs+0xaa>
    bb80:	f8d8 3148 	ldr.w	r3, [r8, #328]	; 0x148
    bb84:	42b3      	cmp	r3, r6
    bb86:	d0d9      	beq.n	bb3c <__call_exitprocs+0x40>
    bb88:	461e      	mov	r6, r3
    bb8a:	2e00      	cmp	r6, #0
    bb8c:	d1cb      	bne.n	bb26 <__call_exitprocs+0x2a>
    bb8e:	e7da      	b.n	bb46 <__call_exitprocs+0x4a>
    bb90:	f8d6 018c 	ldr.w	r0, [r6, #396]	; 0x18c
    bb94:	4201      	tst	r1, r0
    bb96:	d10b      	bne.n	bbb0 <__call_exitprocs+0xb4>
    bb98:	f8d4 1080 	ldr.w	r1, [r4, #128]	; 0x80
    bb9c:	9801      	ldr	r0, [sp, #4]
    bb9e:	4790      	blx	r2
    bba0:	6872      	ldr	r2, [r6, #4]
    bba2:	455a      	cmp	r2, fp
    bba4:	d0ec      	beq.n	bb80 <__call_exitprocs+0x84>
    bba6:	f8d8 6148 	ldr.w	r6, [r8, #328]	; 0x148
    bbaa:	2e00      	cmp	r6, #0
    bbac:	d1bb      	bne.n	bb26 <__call_exitprocs+0x2a>
    bbae:	e7ca      	b.n	bb46 <__call_exitprocs+0x4a>
    bbb0:	f8d4 0080 	ldr.w	r0, [r4, #128]	; 0x80
    bbb4:	4790      	blx	r2
    bbb6:	e7e0      	b.n	bb7a <__call_exitprocs+0x7e>
    bbb8:	0001c2e8 	.word	0x0001c2e8
    bbbc:	0000be98 	.word	0x0000be98

0000bbc0 <atexit>:
    bbc0:	2300      	movs	r3, #0
    bbc2:	4601      	mov	r1, r0
    bbc4:	461a      	mov	r2, r3
    bbc6:	4618      	mov	r0, r3
    bbc8:	f000 b81a 	b.w	bc00 <__register_exitproc>

0000bbcc <__libc_fini_array>:
    bbcc:	b538      	push	{r3, r4, r5, lr}
    bbce:	4b08      	ldr	r3, [pc, #32]	; (bbf0 <__libc_fini_array+0x24>)
    bbd0:	4d08      	ldr	r5, [pc, #32]	; (bbf4 <__libc_fini_array+0x28>)
    bbd2:	1b5b      	subs	r3, r3, r5
    bbd4:	109c      	asrs	r4, r3, #2
    bbd6:	d007      	beq.n	bbe8 <__libc_fini_array+0x1c>
    bbd8:	3b04      	subs	r3, #4
    bbda:	441d      	add	r5, r3
    bbdc:	3c01      	subs	r4, #1
    bbde:	f855 3904 	ldr.w	r3, [r5], #-4
    bbe2:	4798      	blx	r3
    bbe4:	2c00      	cmp	r4, #0
    bbe6:	d1f9      	bne.n	bbdc <__libc_fini_array+0x10>
    bbe8:	e8bd 4038 	ldmia.w	sp!, {r3, r4, r5, lr}
    bbec:	f000 b850 	b.w	bc90 <_fini>
    bbf0:	0001beb4 	.word	0x0001beb4
    bbf4:	0001beb0 	.word	0x0001beb0

0000bbf8 <__retarget_lock_acquire_recursive>:
    bbf8:	4770      	bx	lr
    bbfa:	bf00      	nop

0000bbfc <__retarget_lock_release_recursive>:
    bbfc:	4770      	bx	lr
    bbfe:	bf00      	nop

0000bc00 <__register_exitproc>:
    bc00:	e92d 47f0 	stmdb	sp!, {r4, r5, r6, r7, r8, r9, sl, lr}
    bc04:	f8df a07c 	ldr.w	sl, [pc, #124]	; bc84 <__register_exitproc+0x84>
    bc08:	4606      	mov	r6, r0
    bc0a:	f8da 0000 	ldr.w	r0, [sl]
    bc0e:	4698      	mov	r8, r3
    bc10:	460f      	mov	r7, r1
    bc12:	4691      	mov	r9, r2
    bc14:	f7ff fff0 	bl	bbf8 <__retarget_lock_acquire_recursive>
    bc18:	4b1b      	ldr	r3, [pc, #108]	; (bc88 <__register_exitproc+0x88>)
    bc1a:	681b      	ldr	r3, [r3, #0]
    bc1c:	f8d3 4148 	ldr.w	r4, [r3, #328]	; 0x148
    bc20:	b324      	cbz	r4, bc6c <__register_exitproc+0x6c>
    bc22:	6865      	ldr	r5, [r4, #4]
    bc24:	2d1f      	cmp	r5, #31
    bc26:	dc26      	bgt.n	bc76 <__register_exitproc+0x76>
    bc28:	b95e      	cbnz	r6, bc42 <__register_exitproc+0x42>
    bc2a:	1c6b      	adds	r3, r5, #1
    bc2c:	3502      	adds	r5, #2
    bc2e:	f8da 0000 	ldr.w	r0, [sl]
    bc32:	6063      	str	r3, [r4, #4]
    bc34:	f844 7025 	str.w	r7, [r4, r5, lsl #2]
    bc38:	f7ff ffe0 	bl	bbfc <__retarget_lock_release_recursive>
    bc3c:	2000      	movs	r0, #0
    bc3e:	e8bd 87f0 	ldmia.w	sp!, {r4, r5, r6, r7, r8, r9, sl, pc}
    bc42:	eb04 0185 	add.w	r1, r4, r5, lsl #2
    bc46:	2301      	movs	r3, #1
    bc48:	f8c1 9088 	str.w	r9, [r1, #136]	; 0x88
    bc4c:	f8d4 2188 	ldr.w	r2, [r4, #392]	; 0x188
    bc50:	40ab      	lsls	r3, r5
    bc52:	431a      	orrs	r2, r3
    bc54:	2e02      	cmp	r6, #2
    bc56:	f8c4 2188 	str.w	r2, [r4, #392]	; 0x188
    bc5a:	f8c1 8108 	str.w	r8, [r1, #264]	; 0x108
    bc5e:	d1e4      	bne.n	bc2a <__register_exitproc+0x2a>
    bc60:	f8d4 218c 	ldr.w	r2, [r4, #396]	; 0x18c
    bc64:	4313      	orrs	r3, r2
    bc66:	f8c4 318c 	str.w	r3, [r4, #396]	; 0x18c
    bc6a:	e7de      	b.n	bc2a <__register_exitproc+0x2a>
    bc6c:	f503 74a6 	add.w	r4, r3, #332	; 0x14c
    bc70:	f8c3 4148 	str.w	r4, [r3, #328]	; 0x148
    bc74:	e7d5      	b.n	bc22 <__register_exitproc+0x22>
    bc76:	f8da 0000 	ldr.w	r0, [sl]
    bc7a:	f7ff ffbf 	bl	bbfc <__retarget_lock_release_recursive>
    bc7e:	f04f 30ff 	mov.w	r0, #4294967295	; 0xffffffff
    bc82:	e7dc      	b.n	bc3e <__register_exitproc+0x3e>
    bc84:	0001c2e8 	.word	0x0001c2e8
    bc88:	0000be98 	.word	0x0000be98

0000bc8c <_exit>:
    bc8c:	e7fe      	b.n	bc8c <_exit>
    bc8e:	bf00      	nop

Disassembly of section .fini:

0000bc90 <_fini>:
    bc90:	b5f8      	push	{r3, r4, r5, r6, r7, lr}
    bc92:	bf00      	nop
    bc94:	bcf8      	pop	{r3, r4, r5, r6, r7}
    bc96:	bc08      	pop	{r3}
    bc98:	469e      	mov	lr, r3
    bc9a:	4770      	bx	lr
