
./riscv32-benchmarks-customtoolchain/src/nettle-aes/nettle-aes:     file format elf32-littleriscv


Disassembly of section .text:

00010094 <exit>:
   10094:	ff010113          	addi	sp,sp,-16
   10098:	00000593          	li	a1,0
   1009c:	00812423          	sw	s0,8(sp)
   100a0:	00112623          	sw	ra,12(sp)
   100a4:	00050413          	mv	s0,a0
   100a8:	625010ef          	jal	ra,11ecc <__call_exitprocs>
   100ac:	e481a503          	lw	a0,-440(gp) # 15658 <_global_impure_ptr>
   100b0:	03c52783          	lw	a5,60(a0)
   100b4:	00078463          	beqz	a5,100bc <exit+0x28>
   100b8:	000780e7          	jalr	a5
   100bc:	00040513          	mv	a0,s0
   100c0:	034020ef          	jal	ra,120f4 <_exit>

000100c4 <register_fini>:
   100c4:	00000793          	li	a5,0
   100c8:	00078863          	beqz	a5,100d8 <register_fini+0x14>
   100cc:	00012537          	lui	a0,0x12
   100d0:	fec50513          	addi	a0,a0,-20 # 11fec <__libc_fini_array>
   100d4:	7750106f          	j	12048 <atexit>
   100d8:	00008067          	ret

000100dc <_start>:
   100dc:	00005197          	auipc	gp,0x5
   100e0:	73418193          	addi	gp,gp,1844 # 15810 <__global_pointer$>
   100e4:	e5018513          	addi	a0,gp,-432 # 15660 <completed.1>
   100e8:	25418613          	addi	a2,gp,596 # 15a64 <__BSS_END__>
   100ec:	40a60633          	sub	a2,a2,a0
   100f0:	00000593          	li	a1,0
   100f4:	4fd010ef          	jal	ra,11df0 <memset>
   100f8:	00002517          	auipc	a0,0x2
   100fc:	f5050513          	addi	a0,a0,-176 # 12048 <atexit>
   10100:	00050863          	beqz	a0,10110 <_start+0x34>
   10104:	00002517          	auipc	a0,0x2
   10108:	ee850513          	addi	a0,a0,-280 # 11fec <__libc_fini_array>
   1010c:	73d010ef          	jal	ra,12048 <atexit>
   10110:	445010ef          	jal	ra,11d54 <__libc_init_array>
   10114:	00012503          	lw	a0,0(sp)
   10118:	00410593          	addi	a1,sp,4
   1011c:	00000613          	li	a2,0
   10120:	3c9010ef          	jal	ra,11ce8 <main>
   10124:	f71ff06f          	j	10094 <exit>

00010128 <__do_global_dtors_aux>:
   10128:	ff010113          	addi	sp,sp,-16
   1012c:	00812423          	sw	s0,8(sp)
   10130:	e501c783          	lbu	a5,-432(gp) # 15660 <completed.1>
   10134:	00112623          	sw	ra,12(sp)
   10138:	02079263          	bnez	a5,1015c <__do_global_dtors_aux+0x34>
   1013c:	00000793          	li	a5,0
   10140:	00078a63          	beqz	a5,10154 <__do_global_dtors_aux+0x2c>
   10144:	00015537          	lui	a0,0x15
   10148:	00050513          	mv	a0,a0
   1014c:	00000097          	auipc	ra,0x0
   10150:	000000e7          	jalr	zero # 0 <exit-0x10094>
   10154:	00100793          	li	a5,1
   10158:	e4f18823          	sb	a5,-432(gp) # 15660 <completed.1>
   1015c:	00c12083          	lw	ra,12(sp)
   10160:	00812403          	lw	s0,8(sp)
   10164:	01010113          	addi	sp,sp,16
   10168:	00008067          	ret

0001016c <frame_dummy>:
   1016c:	00000793          	li	a5,0
   10170:	00078c63          	beqz	a5,10188 <frame_dummy+0x1c>
   10174:	00015537          	lui	a0,0x15
   10178:	e5418593          	addi	a1,gp,-428 # 15664 <object.0>
   1017c:	00050513          	mv	a0,a0
   10180:	00000317          	auipc	t1,0x0
   10184:	00000067          	jr	zero # 0 <exit-0x10094>
   10188:	00008067          	ret

0001018c <_aes_set_key>:
   1018c:	fd010113          	addi	sp,sp,-48
   10190:	02112623          	sw	ra,44(sp)
   10194:	02812423          	sw	s0,40(sp)
   10198:	03010413          	addi	s0,sp,48
   1019c:	fca42e23          	sw	a0,-36(s0)
   101a0:	fcb42c23          	sw	a1,-40(s0)
   101a4:	fcc42a23          	sw	a2,-44(s0)
   101a8:	fcd42823          	sw	a3,-48(s0)
   101ac:	fd842783          	lw	a5,-40(s0)
   101b0:	00079663          	bnez	a5,101bc <_aes_set_key+0x30>
   101b4:	00100513          	li	a0,1
   101b8:	eddff0ef          	jal	ra,10094 <exit>
   101bc:	fdc42783          	lw	a5,-36(s0)
   101c0:	00178793          	addi	a5,a5,1
   101c4:	00279793          	slli	a5,a5,0x2
   101c8:	fef42023          	sw	a5,-32(s0)
   101cc:	fe042423          	sw	zero,-24(s0)
   101d0:	000147b7          	lui	a5,0x14
   101d4:	72c78793          	addi	a5,a5,1836 # 1472c <rcon.0>
   101d8:	fef42623          	sw	a5,-20(s0)
   101dc:	09c0006f          	j	10278 <_aes_set_key+0xec>
   101e0:	fe842783          	lw	a5,-24(s0)
   101e4:	00279793          	slli	a5,a5,0x2
   101e8:	00378793          	addi	a5,a5,3
   101ec:	fd042703          	lw	a4,-48(s0)
   101f0:	00f707b3          	add	a5,a4,a5
   101f4:	0007c783          	lbu	a5,0(a5)
   101f8:	01879713          	slli	a4,a5,0x18
   101fc:	fe842783          	lw	a5,-24(s0)
   10200:	00279793          	slli	a5,a5,0x2
   10204:	00278793          	addi	a5,a5,2
   10208:	fd042683          	lw	a3,-48(s0)
   1020c:	00f687b3          	add	a5,a3,a5
   10210:	0007c783          	lbu	a5,0(a5)
   10214:	01079793          	slli	a5,a5,0x10
   10218:	00f76733          	or	a4,a4,a5
   1021c:	fe842783          	lw	a5,-24(s0)
   10220:	00279793          	slli	a5,a5,0x2
   10224:	00178793          	addi	a5,a5,1
   10228:	fd042683          	lw	a3,-48(s0)
   1022c:	00f687b3          	add	a5,a3,a5
   10230:	0007c783          	lbu	a5,0(a5)
   10234:	00879793          	slli	a5,a5,0x8
   10238:	00f76733          	or	a4,a4,a5
   1023c:	fe842783          	lw	a5,-24(s0)
   10240:	00279793          	slli	a5,a5,0x2
   10244:	fd042683          	lw	a3,-48(s0)
   10248:	00f687b3          	add	a5,a3,a5
   1024c:	0007c783          	lbu	a5,0(a5)
   10250:	00078613          	mv	a2,a5
   10254:	fe842783          	lw	a5,-24(s0)
   10258:	00279793          	slli	a5,a5,0x2
   1025c:	fd442683          	lw	a3,-44(s0)
   10260:	00f687b3          	add	a5,a3,a5
   10264:	00c76733          	or	a4,a4,a2
   10268:	00e7a023          	sw	a4,0(a5)
   1026c:	fe842783          	lw	a5,-24(s0)
   10270:	00178793          	addi	a5,a5,1
   10274:	fef42423          	sw	a5,-24(s0)
   10278:	fe842703          	lw	a4,-24(s0)
   1027c:	fd842783          	lw	a5,-40(s0)
   10280:	f6f760e3          	bltu	a4,a5,101e0 <_aes_set_key+0x54>
   10284:	fd842783          	lw	a5,-40(s0)
   10288:	fef42423          	sw	a5,-24(s0)
   1028c:	1f40006f          	j	10480 <_aes_set_key+0x2f4>
   10290:	fe842703          	lw	a4,-24(s0)
   10294:	400007b7          	lui	a5,0x40000
   10298:	fff78793          	addi	a5,a5,-1 # 3fffffff <__BSS_END__+0x3ffea59b>
   1029c:	00f707b3          	add	a5,a4,a5
   102a0:	00279793          	slli	a5,a5,0x2
   102a4:	fd442703          	lw	a4,-44(s0)
   102a8:	00f707b3          	add	a5,a4,a5
   102ac:	0007a783          	lw	a5,0(a5)
   102b0:	fef42223          	sw	a5,-28(s0)
   102b4:	fe842703          	lw	a4,-24(s0)
   102b8:	fd842783          	lw	a5,-40(s0)
   102bc:	02f777b3          	remu	a5,a4,a5
   102c0:	0c079a63          	bnez	a5,10394 <_aes_set_key+0x208>
   102c4:	fe442783          	lw	a5,-28(s0)
   102c8:	0087d713          	srli	a4,a5,0x8
   102cc:	01879793          	slli	a5,a5,0x18
   102d0:	00e7e7b3          	or	a5,a5,a4
   102d4:	0ff7f793          	zext.b	a5,a5
   102d8:	00012737          	lui	a4,0x12
   102dc:	12c70713          	addi	a4,a4,300 # 1212c <_aes_encrypt_table>
   102e0:	00f707b3          	add	a5,a4,a5
   102e4:	0007c783          	lbu	a5,0(a5)
   102e8:	00078693          	mv	a3,a5
   102ec:	fe442783          	lw	a5,-28(s0)
   102f0:	0087d713          	srli	a4,a5,0x8
   102f4:	01879793          	slli	a5,a5,0x18
   102f8:	00e7e7b3          	or	a5,a5,a4
   102fc:	0087d793          	srli	a5,a5,0x8
   10300:	0ff7f793          	zext.b	a5,a5
   10304:	00012737          	lui	a4,0x12
   10308:	12c70713          	addi	a4,a4,300 # 1212c <_aes_encrypt_table>
   1030c:	00f707b3          	add	a5,a4,a5
   10310:	0007c783          	lbu	a5,0(a5)
   10314:	00879793          	slli	a5,a5,0x8
   10318:	00f6e733          	or	a4,a3,a5
   1031c:	fe442783          	lw	a5,-28(s0)
   10320:	0087d693          	srli	a3,a5,0x8
   10324:	01879793          	slli	a5,a5,0x18
   10328:	00d7e7b3          	or	a5,a5,a3
   1032c:	0107d793          	srli	a5,a5,0x10
   10330:	0ff7f793          	zext.b	a5,a5
   10334:	000126b7          	lui	a3,0x12
   10338:	12c68693          	addi	a3,a3,300 # 1212c <_aes_encrypt_table>
   1033c:	00f687b3          	add	a5,a3,a5
   10340:	0007c783          	lbu	a5,0(a5)
   10344:	01079793          	slli	a5,a5,0x10
   10348:	00f76733          	or	a4,a4,a5
   1034c:	fe442783          	lw	a5,-28(s0)
   10350:	0087d693          	srli	a3,a5,0x8
   10354:	01879793          	slli	a5,a5,0x18
   10358:	00d7e7b3          	or	a5,a5,a3
   1035c:	0187d793          	srli	a5,a5,0x18
   10360:	000126b7          	lui	a3,0x12
   10364:	12c68693          	addi	a3,a3,300 # 1212c <_aes_encrypt_table>
   10368:	00f687b3          	add	a5,a3,a5
   1036c:	0007c783          	lbu	a5,0(a5)
   10370:	01879793          	slli	a5,a5,0x18
   10374:	00f76733          	or	a4,a4,a5
   10378:	fec42783          	lw	a5,-20(s0)
   1037c:	00178693          	addi	a3,a5,1
   10380:	fed42623          	sw	a3,-20(s0)
   10384:	0007c783          	lbu	a5,0(a5)
   10388:	00f747b3          	xor	a5,a4,a5
   1038c:	fef42223          	sw	a5,-28(s0)
   10390:	0ac0006f          	j	1043c <_aes_set_key+0x2b0>
   10394:	fd842703          	lw	a4,-40(s0)
   10398:	00600793          	li	a5,6
   1039c:	0ae7f063          	bgeu	a5,a4,1043c <_aes_set_key+0x2b0>
   103a0:	fe842703          	lw	a4,-24(s0)
   103a4:	fd842783          	lw	a5,-40(s0)
   103a8:	02f77733          	remu	a4,a4,a5
   103ac:	00400793          	li	a5,4
   103b0:	08f71663          	bne	a4,a5,1043c <_aes_set_key+0x2b0>
   103b4:	fe442783          	lw	a5,-28(s0)
   103b8:	0ff7f793          	zext.b	a5,a5
   103bc:	00012737          	lui	a4,0x12
   103c0:	12c70713          	addi	a4,a4,300 # 1212c <_aes_encrypt_table>
   103c4:	00f707b3          	add	a5,a4,a5
   103c8:	0007c783          	lbu	a5,0(a5)
   103cc:	00078693          	mv	a3,a5
   103d0:	fe442783          	lw	a5,-28(s0)
   103d4:	0087d793          	srli	a5,a5,0x8
   103d8:	0ff7f793          	zext.b	a5,a5
   103dc:	00012737          	lui	a4,0x12
   103e0:	12c70713          	addi	a4,a4,300 # 1212c <_aes_encrypt_table>
   103e4:	00f707b3          	add	a5,a4,a5
   103e8:	0007c783          	lbu	a5,0(a5)
   103ec:	00879793          	slli	a5,a5,0x8
   103f0:	00f6e733          	or	a4,a3,a5
   103f4:	fe442783          	lw	a5,-28(s0)
   103f8:	0107d793          	srli	a5,a5,0x10
   103fc:	0ff7f793          	zext.b	a5,a5
   10400:	000126b7          	lui	a3,0x12
   10404:	12c68693          	addi	a3,a3,300 # 1212c <_aes_encrypt_table>
   10408:	00f687b3          	add	a5,a3,a5
   1040c:	0007c783          	lbu	a5,0(a5)
   10410:	01079793          	slli	a5,a5,0x10
   10414:	00f76733          	or	a4,a4,a5
   10418:	fe442783          	lw	a5,-28(s0)
   1041c:	0187d793          	srli	a5,a5,0x18
   10420:	000126b7          	lui	a3,0x12
   10424:	12c68693          	addi	a3,a3,300 # 1212c <_aes_encrypt_table>
   10428:	00f687b3          	add	a5,a3,a5
   1042c:	0007c783          	lbu	a5,0(a5)
   10430:	01879793          	slli	a5,a5,0x18
   10434:	00f767b3          	or	a5,a4,a5
   10438:	fef42223          	sw	a5,-28(s0)
   1043c:	fe842703          	lw	a4,-24(s0)
   10440:	fd842783          	lw	a5,-40(s0)
   10444:	40f707b3          	sub	a5,a4,a5
   10448:	00279793          	slli	a5,a5,0x2
   1044c:	fd442703          	lw	a4,-44(s0)
   10450:	00f707b3          	add	a5,a4,a5
   10454:	0007a683          	lw	a3,0(a5)
   10458:	fe842783          	lw	a5,-24(s0)
   1045c:	00279793          	slli	a5,a5,0x2
   10460:	fd442703          	lw	a4,-44(s0)
   10464:	00f707b3          	add	a5,a4,a5
   10468:	fe442703          	lw	a4,-28(s0)
   1046c:	00e6c733          	xor	a4,a3,a4
   10470:	00e7a023          	sw	a4,0(a5)
   10474:	fe842783          	lw	a5,-24(s0)
   10478:	00178793          	addi	a5,a5,1
   1047c:	fef42423          	sw	a5,-24(s0)
   10480:	fe842703          	lw	a4,-24(s0)
   10484:	fe042783          	lw	a5,-32(s0)
   10488:	e0f764e3          	bltu	a4,a5,10290 <_aes_set_key+0x104>
   1048c:	00000013          	nop
   10490:	00000013          	nop
   10494:	02c12083          	lw	ra,44(sp)
   10498:	02812403          	lw	s0,40(sp)
   1049c:	03010113          	addi	sp,sp,48
   104a0:	00008067          	ret

000104a4 <aes_set_encrypt_key>:
   104a4:	fd010113          	addi	sp,sp,-48
   104a8:	02112623          	sw	ra,44(sp)
   104ac:	02812423          	sw	s0,40(sp)
   104b0:	03010413          	addi	s0,sp,48
   104b4:	fca42e23          	sw	a0,-36(s0)
   104b8:	fcb42c23          	sw	a1,-40(s0)
   104bc:	fcc42a23          	sw	a2,-44(s0)
   104c0:	fd842703          	lw	a4,-40(s0)
   104c4:	00f00793          	li	a5,15
   104c8:	00e7e663          	bltu	a5,a4,104d4 <aes_set_encrypt_key+0x30>
   104cc:	00100513          	li	a0,1
   104d0:	bc5ff0ef          	jal	ra,10094 <exit>
   104d4:	fd842703          	lw	a4,-40(s0)
   104d8:	02000793          	li	a5,32
   104dc:	00e7f663          	bgeu	a5,a4,104e8 <aes_set_encrypt_key+0x44>
   104e0:	00100513          	li	a0,1
   104e4:	bb1ff0ef          	jal	ra,10094 <exit>
   104e8:	fd842703          	lw	a4,-40(s0)
   104ec:	02000793          	li	a5,32
   104f0:	00f71c63          	bne	a4,a5,10508 <aes_set_encrypt_key+0x64>
   104f4:	00800793          	li	a5,8
   104f8:	fef42623          	sw	a5,-20(s0)
   104fc:	00e00793          	li	a5,14
   10500:	fef42423          	sw	a5,-24(s0)
   10504:	0340006f          	j	10538 <aes_set_encrypt_key+0x94>
   10508:	fd842703          	lw	a4,-40(s0)
   1050c:	01700793          	li	a5,23
   10510:	00e7fc63          	bgeu	a5,a4,10528 <aes_set_encrypt_key+0x84>
   10514:	00600793          	li	a5,6
   10518:	fef42623          	sw	a5,-20(s0)
   1051c:	00c00793          	li	a5,12
   10520:	fef42423          	sw	a5,-24(s0)
   10524:	0140006f          	j	10538 <aes_set_encrypt_key+0x94>
   10528:	00400793          	li	a5,4
   1052c:	fef42623          	sw	a5,-20(s0)
   10530:	00a00793          	li	a5,10
   10534:	fef42423          	sw	a5,-24(s0)
   10538:	fdc42783          	lw	a5,-36(s0)
   1053c:	fe842703          	lw	a4,-24(s0)
   10540:	00e7a023          	sw	a4,0(a5)
   10544:	fdc42783          	lw	a5,-36(s0)
   10548:	00478793          	addi	a5,a5,4
   1054c:	fd442683          	lw	a3,-44(s0)
   10550:	00078613          	mv	a2,a5
   10554:	fec42583          	lw	a1,-20(s0)
   10558:	fe842503          	lw	a0,-24(s0)
   1055c:	c31ff0ef          	jal	ra,1018c <_aes_set_key>
   10560:	00000013          	nop
   10564:	02c12083          	lw	ra,44(sp)
   10568:	02812403          	lw	s0,40(sp)
   1056c:	03010113          	addi	sp,sp,48
   10570:	00008067          	ret

00010574 <_nettle_aes_invert>:
   10574:	fc010113          	addi	sp,sp,-64
   10578:	02812e23          	sw	s0,60(sp)
   1057c:	04010413          	addi	s0,sp,64
   10580:	fca42623          	sw	a0,-52(s0)
   10584:	fcb42423          	sw	a1,-56(s0)
   10588:	fcc42223          	sw	a2,-60(s0)
   1058c:	fc442703          	lw	a4,-60(s0)
   10590:	fc842783          	lw	a5,-56(s0)
   10594:	0cf71c63          	bne	a4,a5,1066c <_nettle_aes_invert+0xf8>
   10598:	fe042623          	sw	zero,-20(s0)
   1059c:	fcc42783          	lw	a5,-52(s0)
   105a0:	00279793          	slli	a5,a5,0x2
   105a4:	fef42423          	sw	a5,-24(s0)
   105a8:	0b40006f          	j	1065c <_nettle_aes_invert+0xe8>
   105ac:	fe042223          	sw	zero,-28(s0)
   105b0:	0880006f          	j	10638 <_nettle_aes_invert+0xc4>
   105b4:	fec42703          	lw	a4,-20(s0)
   105b8:	fe442783          	lw	a5,-28(s0)
   105bc:	00f707b3          	add	a5,a4,a5
   105c0:	00279793          	slli	a5,a5,0x2
   105c4:	fc842703          	lw	a4,-56(s0)
   105c8:	00f707b3          	add	a5,a4,a5
   105cc:	0007a783          	lw	a5,0(a5)
   105d0:	fcf42e23          	sw	a5,-36(s0)
   105d4:	fe842703          	lw	a4,-24(s0)
   105d8:	fe442783          	lw	a5,-28(s0)
   105dc:	00f707b3          	add	a5,a4,a5
   105e0:	00279793          	slli	a5,a5,0x2
   105e4:	fc842703          	lw	a4,-56(s0)
   105e8:	00f70733          	add	a4,a4,a5
   105ec:	fec42683          	lw	a3,-20(s0)
   105f0:	fe442783          	lw	a5,-28(s0)
   105f4:	00f687b3          	add	a5,a3,a5
   105f8:	00279793          	slli	a5,a5,0x2
   105fc:	fc842683          	lw	a3,-56(s0)
   10600:	00f687b3          	add	a5,a3,a5
   10604:	00072703          	lw	a4,0(a4)
   10608:	00e7a023          	sw	a4,0(a5)
   1060c:	fe842703          	lw	a4,-24(s0)
   10610:	fe442783          	lw	a5,-28(s0)
   10614:	00f707b3          	add	a5,a4,a5
   10618:	00279793          	slli	a5,a5,0x2
   1061c:	fc842703          	lw	a4,-56(s0)
   10620:	00f707b3          	add	a5,a4,a5
   10624:	fdc42703          	lw	a4,-36(s0)
   10628:	00e7a023          	sw	a4,0(a5)
   1062c:	fe442783          	lw	a5,-28(s0)
   10630:	00178793          	addi	a5,a5,1
   10634:	fef42223          	sw	a5,-28(s0)
   10638:	fe442703          	lw	a4,-28(s0)
   1063c:	00300793          	li	a5,3
   10640:	f6e7fae3          	bgeu	a5,a4,105b4 <_nettle_aes_invert+0x40>
   10644:	fec42783          	lw	a5,-20(s0)
   10648:	00478793          	addi	a5,a5,4
   1064c:	fef42623          	sw	a5,-20(s0)
   10650:	fe842783          	lw	a5,-24(s0)
   10654:	ffc78793          	addi	a5,a5,-4
   10658:	fef42423          	sw	a5,-24(s0)
   1065c:	fec42703          	lw	a4,-20(s0)
   10660:	fe842783          	lw	a5,-24(s0)
   10664:	f4f764e3          	bltu	a4,a5,105ac <_nettle_aes_invert+0x38>
   10668:	08c0006f          	j	106f4 <_nettle_aes_invert+0x180>
   1066c:	fe042623          	sw	zero,-20(s0)
   10670:	0740006f          	j	106e4 <_nettle_aes_invert+0x170>
   10674:	fe042023          	sw	zero,-32(s0)
   10678:	0540006f          	j	106cc <_nettle_aes_invert+0x158>
   1067c:	fcc42783          	lw	a5,-52(s0)
   10680:	00279713          	slli	a4,a5,0x2
   10684:	fec42783          	lw	a5,-20(s0)
   10688:	40f70733          	sub	a4,a4,a5
   1068c:	fe042783          	lw	a5,-32(s0)
   10690:	00f707b3          	add	a5,a4,a5
   10694:	00279793          	slli	a5,a5,0x2
   10698:	fc442703          	lw	a4,-60(s0)
   1069c:	00f70733          	add	a4,a4,a5
   106a0:	fec42683          	lw	a3,-20(s0)
   106a4:	fe042783          	lw	a5,-32(s0)
   106a8:	00f687b3          	add	a5,a3,a5
   106ac:	00279793          	slli	a5,a5,0x2
   106b0:	fc842683          	lw	a3,-56(s0)
   106b4:	00f687b3          	add	a5,a3,a5
   106b8:	00072703          	lw	a4,0(a4)
   106bc:	00e7a023          	sw	a4,0(a5)
   106c0:	fe042783          	lw	a5,-32(s0)
   106c4:	00178793          	addi	a5,a5,1
   106c8:	fef42023          	sw	a5,-32(s0)
   106cc:	fe042703          	lw	a4,-32(s0)
   106d0:	00300793          	li	a5,3
   106d4:	fae7f4e3          	bgeu	a5,a4,1067c <_nettle_aes_invert+0x108>
   106d8:	fec42783          	lw	a5,-20(s0)
   106dc:	00478793          	addi	a5,a5,4
   106e0:	fef42623          	sw	a5,-20(s0)
   106e4:	fcc42783          	lw	a5,-52(s0)
   106e8:	00279793          	slli	a5,a5,0x2
   106ec:	fec42703          	lw	a4,-20(s0)
   106f0:	f8e7f2e3          	bgeu	a5,a4,10674 <_nettle_aes_invert+0x100>
   106f4:	00400793          	li	a5,4
   106f8:	fef42623          	sw	a5,-20(s0)
   106fc:	1380006f          	j	10834 <_nettle_aes_invert+0x2c0>
   10700:	fec42783          	lw	a5,-20(s0)
   10704:	00279793          	slli	a5,a5,0x2
   10708:	fc842703          	lw	a4,-56(s0)
   1070c:	00f707b3          	add	a5,a4,a5
   10710:	0007a783          	lw	a5,0(a5)
   10714:	fcf42c23          	sw	a5,-40(s0)
   10718:	fd842783          	lw	a5,-40(s0)
   1071c:	0ff7f793          	zext.b	a5,a5
   10720:	00014737          	lui	a4,0x14
   10724:	32c70713          	addi	a4,a4,812 # 1432c <mtable>
   10728:	00279793          	slli	a5,a5,0x2
   1072c:	00f707b3          	add	a5,a4,a5
   10730:	0007a783          	lw	a5,0(a5)
   10734:	fcf42a23          	sw	a5,-44(s0)
   10738:	fd842783          	lw	a5,-40(s0)
   1073c:	0087d793          	srli	a5,a5,0x8
   10740:	fcf42c23          	sw	a5,-40(s0)
   10744:	fd842783          	lw	a5,-40(s0)
   10748:	0ff7f793          	zext.b	a5,a5
   1074c:	00014737          	lui	a4,0x14
   10750:	32c70713          	addi	a4,a4,812 # 1432c <mtable>
   10754:	00279793          	slli	a5,a5,0x2
   10758:	00f707b3          	add	a5,a4,a5
   1075c:	0007a783          	lw	a5,0(a5)
   10760:	fcf42823          	sw	a5,-48(s0)
   10764:	fd042783          	lw	a5,-48(s0)
   10768:	00879713          	slli	a4,a5,0x8
   1076c:	0187d793          	srli	a5,a5,0x18
   10770:	00e7e7b3          	or	a5,a5,a4
   10774:	fd442703          	lw	a4,-44(s0)
   10778:	00f747b3          	xor	a5,a4,a5
   1077c:	fcf42a23          	sw	a5,-44(s0)
   10780:	fd842783          	lw	a5,-40(s0)
   10784:	0087d793          	srli	a5,a5,0x8
   10788:	fcf42c23          	sw	a5,-40(s0)
   1078c:	fd842783          	lw	a5,-40(s0)
   10790:	0ff7f793          	zext.b	a5,a5
   10794:	00014737          	lui	a4,0x14
   10798:	32c70713          	addi	a4,a4,812 # 1432c <mtable>
   1079c:	00279793          	slli	a5,a5,0x2
   107a0:	00f707b3          	add	a5,a4,a5
   107a4:	0007a783          	lw	a5,0(a5)
   107a8:	fcf42823          	sw	a5,-48(s0)
   107ac:	fd042783          	lw	a5,-48(s0)
   107b0:	01079713          	slli	a4,a5,0x10
   107b4:	0107d793          	srli	a5,a5,0x10
   107b8:	00e7e7b3          	or	a5,a5,a4
   107bc:	fd442703          	lw	a4,-44(s0)
   107c0:	00f747b3          	xor	a5,a4,a5
   107c4:	fcf42a23          	sw	a5,-44(s0)
   107c8:	fd842783          	lw	a5,-40(s0)
   107cc:	0087d793          	srli	a5,a5,0x8
   107d0:	fcf42c23          	sw	a5,-40(s0)
   107d4:	fd842783          	lw	a5,-40(s0)
   107d8:	0ff7f793          	zext.b	a5,a5
   107dc:	00014737          	lui	a4,0x14
   107e0:	32c70713          	addi	a4,a4,812 # 1432c <mtable>
   107e4:	00279793          	slli	a5,a5,0x2
   107e8:	00f707b3          	add	a5,a4,a5
   107ec:	0007a783          	lw	a5,0(a5)
   107f0:	fcf42823          	sw	a5,-48(s0)
   107f4:	fd042783          	lw	a5,-48(s0)
   107f8:	0087d713          	srli	a4,a5,0x8
   107fc:	01879793          	slli	a5,a5,0x18
   10800:	00e7e7b3          	or	a5,a5,a4
   10804:	fd442703          	lw	a4,-44(s0)
   10808:	00f747b3          	xor	a5,a4,a5
   1080c:	fcf42a23          	sw	a5,-44(s0)
   10810:	fec42783          	lw	a5,-20(s0)
   10814:	00279793          	slli	a5,a5,0x2
   10818:	fc842703          	lw	a4,-56(s0)
   1081c:	00f707b3          	add	a5,a4,a5
   10820:	fd442703          	lw	a4,-44(s0)
   10824:	00e7a023          	sw	a4,0(a5)
   10828:	fec42783          	lw	a5,-20(s0)
   1082c:	00178793          	addi	a5,a5,1
   10830:	fef42623          	sw	a5,-20(s0)
   10834:	fcc42783          	lw	a5,-52(s0)
   10838:	00279793          	slli	a5,a5,0x2
   1083c:	fec42703          	lw	a4,-20(s0)
   10840:	ecf760e3          	bltu	a4,a5,10700 <_nettle_aes_invert+0x18c>
   10844:	00000013          	nop
   10848:	00000013          	nop
   1084c:	03c12403          	lw	s0,60(sp)
   10850:	04010113          	addi	sp,sp,64
   10854:	00008067          	ret

00010858 <aes_invert_key>:
   10858:	fe010113          	addi	sp,sp,-32
   1085c:	00112e23          	sw	ra,28(sp)
   10860:	00812c23          	sw	s0,24(sp)
   10864:	02010413          	addi	s0,sp,32
   10868:	fea42623          	sw	a0,-20(s0)
   1086c:	feb42423          	sw	a1,-24(s0)
   10870:	fe842783          	lw	a5,-24(s0)
   10874:	0007a703          	lw	a4,0(a5)
   10878:	fec42783          	lw	a5,-20(s0)
   1087c:	00478693          	addi	a3,a5,4
   10880:	fe842783          	lw	a5,-24(s0)
   10884:	00478793          	addi	a5,a5,4
   10888:	00078613          	mv	a2,a5
   1088c:	00068593          	mv	a1,a3
   10890:	00070513          	mv	a0,a4
   10894:	ce1ff0ef          	jal	ra,10574 <_nettle_aes_invert>
   10898:	fe842783          	lw	a5,-24(s0)
   1089c:	0007a703          	lw	a4,0(a5)
   108a0:	fec42783          	lw	a5,-20(s0)
   108a4:	00e7a023          	sw	a4,0(a5)
   108a8:	00000013          	nop
   108ac:	01c12083          	lw	ra,28(sp)
   108b0:	01812403          	lw	s0,24(sp)
   108b4:	02010113          	addi	sp,sp,32
   108b8:	00008067          	ret

000108bc <aes_set_decrypt_key>:
   108bc:	fe010113          	addi	sp,sp,-32
   108c0:	00112e23          	sw	ra,28(sp)
   108c4:	00812c23          	sw	s0,24(sp)
   108c8:	02010413          	addi	s0,sp,32
   108cc:	fea42623          	sw	a0,-20(s0)
   108d0:	feb42423          	sw	a1,-24(s0)
   108d4:	fec42223          	sw	a2,-28(s0)
   108d8:	fe442603          	lw	a2,-28(s0)
   108dc:	fe842583          	lw	a1,-24(s0)
   108e0:	fec42503          	lw	a0,-20(s0)
   108e4:	bc1ff0ef          	jal	ra,104a4 <aes_set_encrypt_key>
   108e8:	fec42583          	lw	a1,-20(s0)
   108ec:	fec42503          	lw	a0,-20(s0)
   108f0:	f69ff0ef          	jal	ra,10858 <aes_invert_key>
   108f4:	00000013          	nop
   108f8:	01c12083          	lw	ra,28(sp)
   108fc:	01812403          	lw	s0,24(sp)
   10900:	02010113          	addi	sp,sp,32
   10904:	00008067          	ret

00010908 <_nettle_aes_encrypt>:
   10908:	fa010113          	addi	sp,sp,-96
   1090c:	04112e23          	sw	ra,92(sp)
   10910:	04812c23          	sw	s0,88(sp)
   10914:	06010413          	addi	s0,sp,96
   10918:	faa42e23          	sw	a0,-68(s0)
   1091c:	fab42c23          	sw	a1,-72(s0)
   10920:	fac42a23          	sw	a2,-76(s0)
   10924:	fad42823          	sw	a3,-80(s0)
   10928:	fae42623          	sw	a4,-84(s0)
   1092c:	faf42423          	sw	a5,-88(s0)
   10930:	fb042783          	lw	a5,-80(s0)
   10934:	00f7f793          	andi	a5,a5,15
   10938:	020780e3          	beqz	a5,11158 <_nettle_aes_encrypt+0x850>
   1093c:	00100513          	li	a0,1
   10940:	f54ff0ef          	jal	ra,10094 <exit>
   10944:	fa842783          	lw	a5,-88(s0)
   10948:	00378793          	addi	a5,a5,3
   1094c:	0007c783          	lbu	a5,0(a5)
   10950:	01879713          	slli	a4,a5,0x18
   10954:	fa842783          	lw	a5,-88(s0)
   10958:	00278793          	addi	a5,a5,2
   1095c:	0007c783          	lbu	a5,0(a5)
   10960:	01079793          	slli	a5,a5,0x10
   10964:	00f76733          	or	a4,a4,a5
   10968:	fa842783          	lw	a5,-88(s0)
   1096c:	00178793          	addi	a5,a5,1
   10970:	0007c783          	lbu	a5,0(a5)
   10974:	00879793          	slli	a5,a5,0x8
   10978:	00f767b3          	or	a5,a4,a5
   1097c:	fa842703          	lw	a4,-88(s0)
   10980:	00074703          	lbu	a4,0(a4)
   10984:	00e7e733          	or	a4,a5,a4
   10988:	fb842783          	lw	a5,-72(s0)
   1098c:	0007a783          	lw	a5,0(a5)
   10990:	00f747b3          	xor	a5,a4,a5
   10994:	fef42623          	sw	a5,-20(s0)
   10998:	fa842783          	lw	a5,-88(s0)
   1099c:	00778793          	addi	a5,a5,7
   109a0:	0007c783          	lbu	a5,0(a5)
   109a4:	01879713          	slli	a4,a5,0x18
   109a8:	fa842783          	lw	a5,-88(s0)
   109ac:	00678793          	addi	a5,a5,6
   109b0:	0007c783          	lbu	a5,0(a5)
   109b4:	01079793          	slli	a5,a5,0x10
   109b8:	00f76733          	or	a4,a4,a5
   109bc:	fa842783          	lw	a5,-88(s0)
   109c0:	00578793          	addi	a5,a5,5
   109c4:	0007c783          	lbu	a5,0(a5)
   109c8:	00879793          	slli	a5,a5,0x8
   109cc:	00f767b3          	or	a5,a4,a5
   109d0:	fa842703          	lw	a4,-88(s0)
   109d4:	00470713          	addi	a4,a4,4
   109d8:	00074703          	lbu	a4,0(a4)
   109dc:	00e7e733          	or	a4,a5,a4
   109e0:	fb842783          	lw	a5,-72(s0)
   109e4:	00478793          	addi	a5,a5,4
   109e8:	0007a783          	lw	a5,0(a5)
   109ec:	00f747b3          	xor	a5,a4,a5
   109f0:	fef42423          	sw	a5,-24(s0)
   109f4:	fa842783          	lw	a5,-88(s0)
   109f8:	00b78793          	addi	a5,a5,11
   109fc:	0007c783          	lbu	a5,0(a5)
   10a00:	01879713          	slli	a4,a5,0x18
   10a04:	fa842783          	lw	a5,-88(s0)
   10a08:	00a78793          	addi	a5,a5,10
   10a0c:	0007c783          	lbu	a5,0(a5)
   10a10:	01079793          	slli	a5,a5,0x10
   10a14:	00f76733          	or	a4,a4,a5
   10a18:	fa842783          	lw	a5,-88(s0)
   10a1c:	00978793          	addi	a5,a5,9
   10a20:	0007c783          	lbu	a5,0(a5)
   10a24:	00879793          	slli	a5,a5,0x8
   10a28:	00f767b3          	or	a5,a4,a5
   10a2c:	fa842703          	lw	a4,-88(s0)
   10a30:	00870713          	addi	a4,a4,8
   10a34:	00074703          	lbu	a4,0(a4)
   10a38:	00e7e733          	or	a4,a5,a4
   10a3c:	fb842783          	lw	a5,-72(s0)
   10a40:	00878793          	addi	a5,a5,8
   10a44:	0007a783          	lw	a5,0(a5)
   10a48:	00f747b3          	xor	a5,a4,a5
   10a4c:	fef42223          	sw	a5,-28(s0)
   10a50:	fa842783          	lw	a5,-88(s0)
   10a54:	00f78793          	addi	a5,a5,15
   10a58:	0007c783          	lbu	a5,0(a5)
   10a5c:	01879713          	slli	a4,a5,0x18
   10a60:	fa842783          	lw	a5,-88(s0)
   10a64:	00e78793          	addi	a5,a5,14
   10a68:	0007c783          	lbu	a5,0(a5)
   10a6c:	01079793          	slli	a5,a5,0x10
   10a70:	00f76733          	or	a4,a4,a5
   10a74:	fa842783          	lw	a5,-88(s0)
   10a78:	00d78793          	addi	a5,a5,13
   10a7c:	0007c783          	lbu	a5,0(a5)
   10a80:	00879793          	slli	a5,a5,0x8
   10a84:	00f767b3          	or	a5,a4,a5
   10a88:	fa842703          	lw	a4,-88(s0)
   10a8c:	00c70713          	addi	a4,a4,12
   10a90:	00074703          	lbu	a4,0(a4)
   10a94:	00e7e733          	or	a4,a5,a4
   10a98:	fb842783          	lw	a5,-72(s0)
   10a9c:	00c78793          	addi	a5,a5,12
   10aa0:	0007a783          	lw	a5,0(a5)
   10aa4:	00f747b3          	xor	a5,a4,a5
   10aa8:	fef42023          	sw	a5,-32(s0)
   10aac:	00100793          	li	a5,1
   10ab0:	fcf42e23          	sw	a5,-36(s0)
   10ab4:	2bc0006f          	j	10d70 <_nettle_aes_encrypt+0x468>
   10ab8:	fec42783          	lw	a5,-20(s0)
   10abc:	0ff7f793          	zext.b	a5,a5
   10ac0:	fb442703          	lw	a4,-76(s0)
   10ac4:	04078793          	addi	a5,a5,64
   10ac8:	00279793          	slli	a5,a5,0x2
   10acc:	00f707b3          	add	a5,a4,a5
   10ad0:	0007a703          	lw	a4,0(a5)
   10ad4:	fe842783          	lw	a5,-24(s0)
   10ad8:	0087d793          	srli	a5,a5,0x8
   10adc:	0ff7f793          	zext.b	a5,a5
   10ae0:	fb442683          	lw	a3,-76(s0)
   10ae4:	14078793          	addi	a5,a5,320
   10ae8:	00279793          	slli	a5,a5,0x2
   10aec:	00f687b3          	add	a5,a3,a5
   10af0:	0007a783          	lw	a5,0(a5)
   10af4:	00f74733          	xor	a4,a4,a5
   10af8:	fe442783          	lw	a5,-28(s0)
   10afc:	0107d793          	srli	a5,a5,0x10
   10b00:	0ff7f793          	zext.b	a5,a5
   10b04:	fb442683          	lw	a3,-76(s0)
   10b08:	24078793          	addi	a5,a5,576
   10b0c:	00279793          	slli	a5,a5,0x2
   10b10:	00f687b3          	add	a5,a3,a5
   10b14:	0007a783          	lw	a5,0(a5)
   10b18:	00f74733          	xor	a4,a4,a5
   10b1c:	fe042783          	lw	a5,-32(s0)
   10b20:	0187d793          	srli	a5,a5,0x18
   10b24:	fb442683          	lw	a3,-76(s0)
   10b28:	34078793          	addi	a5,a5,832
   10b2c:	00279793          	slli	a5,a5,0x2
   10b30:	00f687b3          	add	a5,a3,a5
   10b34:	0007a783          	lw	a5,0(a5)
   10b38:	00f74733          	xor	a4,a4,a5
   10b3c:	fdc42783          	lw	a5,-36(s0)
   10b40:	00479793          	slli	a5,a5,0x4
   10b44:	fb842683          	lw	a3,-72(s0)
   10b48:	00f687b3          	add	a5,a3,a5
   10b4c:	0007a783          	lw	a5,0(a5)
   10b50:	00f747b3          	xor	a5,a4,a5
   10b54:	fcf42c23          	sw	a5,-40(s0)
   10b58:	fe842783          	lw	a5,-24(s0)
   10b5c:	0ff7f793          	zext.b	a5,a5
   10b60:	fb442703          	lw	a4,-76(s0)
   10b64:	04078793          	addi	a5,a5,64
   10b68:	00279793          	slli	a5,a5,0x2
   10b6c:	00f707b3          	add	a5,a4,a5
   10b70:	0007a703          	lw	a4,0(a5)
   10b74:	fe442783          	lw	a5,-28(s0)
   10b78:	0087d793          	srli	a5,a5,0x8
   10b7c:	0ff7f793          	zext.b	a5,a5
   10b80:	fb442683          	lw	a3,-76(s0)
   10b84:	14078793          	addi	a5,a5,320
   10b88:	00279793          	slli	a5,a5,0x2
   10b8c:	00f687b3          	add	a5,a3,a5
   10b90:	0007a783          	lw	a5,0(a5)
   10b94:	00f74733          	xor	a4,a4,a5
   10b98:	fe042783          	lw	a5,-32(s0)
   10b9c:	0107d793          	srli	a5,a5,0x10
   10ba0:	0ff7f793          	zext.b	a5,a5
   10ba4:	fb442683          	lw	a3,-76(s0)
   10ba8:	24078793          	addi	a5,a5,576
   10bac:	00279793          	slli	a5,a5,0x2
   10bb0:	00f687b3          	add	a5,a3,a5
   10bb4:	0007a783          	lw	a5,0(a5)
   10bb8:	00f74733          	xor	a4,a4,a5
   10bbc:	fec42783          	lw	a5,-20(s0)
   10bc0:	0187d793          	srli	a5,a5,0x18
   10bc4:	fb442683          	lw	a3,-76(s0)
   10bc8:	34078793          	addi	a5,a5,832
   10bcc:	00279793          	slli	a5,a5,0x2
   10bd0:	00f687b3          	add	a5,a3,a5
   10bd4:	0007a783          	lw	a5,0(a5)
   10bd8:	00f74733          	xor	a4,a4,a5
   10bdc:	fdc42783          	lw	a5,-36(s0)
   10be0:	00479793          	slli	a5,a5,0x4
   10be4:	00478793          	addi	a5,a5,4
   10be8:	fb842683          	lw	a3,-72(s0)
   10bec:	00f687b3          	add	a5,a3,a5
   10bf0:	0007a783          	lw	a5,0(a5)
   10bf4:	00f747b3          	xor	a5,a4,a5
   10bf8:	fcf42a23          	sw	a5,-44(s0)
   10bfc:	fe442783          	lw	a5,-28(s0)
   10c00:	0ff7f793          	zext.b	a5,a5
   10c04:	fb442703          	lw	a4,-76(s0)
   10c08:	04078793          	addi	a5,a5,64
   10c0c:	00279793          	slli	a5,a5,0x2
   10c10:	00f707b3          	add	a5,a4,a5
   10c14:	0007a703          	lw	a4,0(a5)
   10c18:	fe042783          	lw	a5,-32(s0)
   10c1c:	0087d793          	srli	a5,a5,0x8
   10c20:	0ff7f793          	zext.b	a5,a5
   10c24:	fb442683          	lw	a3,-76(s0)
   10c28:	14078793          	addi	a5,a5,320
   10c2c:	00279793          	slli	a5,a5,0x2
   10c30:	00f687b3          	add	a5,a3,a5
   10c34:	0007a783          	lw	a5,0(a5)
   10c38:	00f74733          	xor	a4,a4,a5
   10c3c:	fec42783          	lw	a5,-20(s0)
   10c40:	0107d793          	srli	a5,a5,0x10
   10c44:	0ff7f793          	zext.b	a5,a5
   10c48:	fb442683          	lw	a3,-76(s0)
   10c4c:	24078793          	addi	a5,a5,576
   10c50:	00279793          	slli	a5,a5,0x2
   10c54:	00f687b3          	add	a5,a3,a5
   10c58:	0007a783          	lw	a5,0(a5)
   10c5c:	00f74733          	xor	a4,a4,a5
   10c60:	fe842783          	lw	a5,-24(s0)
   10c64:	0187d793          	srli	a5,a5,0x18
   10c68:	fb442683          	lw	a3,-76(s0)
   10c6c:	34078793          	addi	a5,a5,832
   10c70:	00279793          	slli	a5,a5,0x2
   10c74:	00f687b3          	add	a5,a3,a5
   10c78:	0007a783          	lw	a5,0(a5)
   10c7c:	00f74733          	xor	a4,a4,a5
   10c80:	fdc42783          	lw	a5,-36(s0)
   10c84:	00479793          	slli	a5,a5,0x4
   10c88:	00878793          	addi	a5,a5,8
   10c8c:	fb842683          	lw	a3,-72(s0)
   10c90:	00f687b3          	add	a5,a3,a5
   10c94:	0007a783          	lw	a5,0(a5)
   10c98:	00f747b3          	xor	a5,a4,a5
   10c9c:	fcf42823          	sw	a5,-48(s0)
   10ca0:	fe042783          	lw	a5,-32(s0)
   10ca4:	0ff7f793          	zext.b	a5,a5
   10ca8:	fb442703          	lw	a4,-76(s0)
   10cac:	04078793          	addi	a5,a5,64
   10cb0:	00279793          	slli	a5,a5,0x2
   10cb4:	00f707b3          	add	a5,a4,a5
   10cb8:	0007a703          	lw	a4,0(a5)
   10cbc:	fec42783          	lw	a5,-20(s0)
   10cc0:	0087d793          	srli	a5,a5,0x8
   10cc4:	0ff7f793          	zext.b	a5,a5
   10cc8:	fb442683          	lw	a3,-76(s0)
   10ccc:	14078793          	addi	a5,a5,320
   10cd0:	00279793          	slli	a5,a5,0x2
   10cd4:	00f687b3          	add	a5,a3,a5
   10cd8:	0007a783          	lw	a5,0(a5)
   10cdc:	00f74733          	xor	a4,a4,a5
   10ce0:	fe842783          	lw	a5,-24(s0)
   10ce4:	0107d793          	srli	a5,a5,0x10
   10ce8:	0ff7f793          	zext.b	a5,a5
   10cec:	fb442683          	lw	a3,-76(s0)
   10cf0:	24078793          	addi	a5,a5,576
   10cf4:	00279793          	slli	a5,a5,0x2
   10cf8:	00f687b3          	add	a5,a3,a5
   10cfc:	0007a783          	lw	a5,0(a5)
   10d00:	00f74733          	xor	a4,a4,a5
   10d04:	fe442783          	lw	a5,-28(s0)
   10d08:	0187d793          	srli	a5,a5,0x18
   10d0c:	fb442683          	lw	a3,-76(s0)
   10d10:	34078793          	addi	a5,a5,832
   10d14:	00279793          	slli	a5,a5,0x2
   10d18:	00f687b3          	add	a5,a3,a5
   10d1c:	0007a783          	lw	a5,0(a5)
   10d20:	00f74733          	xor	a4,a4,a5
   10d24:	fdc42783          	lw	a5,-36(s0)
   10d28:	00479793          	slli	a5,a5,0x4
   10d2c:	00c78793          	addi	a5,a5,12
   10d30:	fb842683          	lw	a3,-72(s0)
   10d34:	00f687b3          	add	a5,a3,a5
   10d38:	0007a783          	lw	a5,0(a5)
   10d3c:	00f747b3          	xor	a5,a4,a5
   10d40:	fcf42623          	sw	a5,-52(s0)
   10d44:	fd842783          	lw	a5,-40(s0)
   10d48:	fef42623          	sw	a5,-20(s0)
   10d4c:	fd442783          	lw	a5,-44(s0)
   10d50:	fef42423          	sw	a5,-24(s0)
   10d54:	fd042783          	lw	a5,-48(s0)
   10d58:	fef42223          	sw	a5,-28(s0)
   10d5c:	fcc42783          	lw	a5,-52(s0)
   10d60:	fef42023          	sw	a5,-32(s0)
   10d64:	fdc42783          	lw	a5,-36(s0)
   10d68:	00178793          	addi	a5,a5,1
   10d6c:	fcf42e23          	sw	a5,-36(s0)
   10d70:	fdc42703          	lw	a4,-36(s0)
   10d74:	fbc42783          	lw	a5,-68(s0)
   10d78:	d4f760e3          	bltu	a4,a5,10ab8 <_nettle_aes_encrypt+0x1b0>
   10d7c:	fec42783          	lw	a5,-20(s0)
   10d80:	0ff7f793          	zext.b	a5,a5
   10d84:	fb442703          	lw	a4,-76(s0)
   10d88:	00f707b3          	add	a5,a4,a5
   10d8c:	0007c783          	lbu	a5,0(a5)
   10d90:	00078693          	mv	a3,a5
   10d94:	fe842783          	lw	a5,-24(s0)
   10d98:	0087d793          	srli	a5,a5,0x8
   10d9c:	0ff7f793          	zext.b	a5,a5
   10da0:	fb442703          	lw	a4,-76(s0)
   10da4:	00f707b3          	add	a5,a4,a5
   10da8:	0007c783          	lbu	a5,0(a5)
   10dac:	00879793          	slli	a5,a5,0x8
   10db0:	00f6e733          	or	a4,a3,a5
   10db4:	fe442783          	lw	a5,-28(s0)
   10db8:	0107d793          	srli	a5,a5,0x10
   10dbc:	0ff7f793          	zext.b	a5,a5
   10dc0:	fb442683          	lw	a3,-76(s0)
   10dc4:	00f687b3          	add	a5,a3,a5
   10dc8:	0007c783          	lbu	a5,0(a5)
   10dcc:	01079793          	slli	a5,a5,0x10
   10dd0:	00f76733          	or	a4,a4,a5
   10dd4:	fe042783          	lw	a5,-32(s0)
   10dd8:	0187d793          	srli	a5,a5,0x18
   10ddc:	fb442683          	lw	a3,-76(s0)
   10de0:	00f687b3          	add	a5,a3,a5
   10de4:	0007c783          	lbu	a5,0(a5)
   10de8:	01879793          	slli	a5,a5,0x18
   10dec:	00f76733          	or	a4,a4,a5
   10df0:	fdc42783          	lw	a5,-36(s0)
   10df4:	00479793          	slli	a5,a5,0x4
   10df8:	fb842683          	lw	a3,-72(s0)
   10dfc:	00f687b3          	add	a5,a3,a5
   10e00:	0007a783          	lw	a5,0(a5)
   10e04:	00f747b3          	xor	a5,a4,a5
   10e08:	fcf42c23          	sw	a5,-40(s0)
   10e0c:	fe842783          	lw	a5,-24(s0)
   10e10:	0ff7f793          	zext.b	a5,a5
   10e14:	fb442703          	lw	a4,-76(s0)
   10e18:	00f707b3          	add	a5,a4,a5
   10e1c:	0007c783          	lbu	a5,0(a5)
   10e20:	00078693          	mv	a3,a5
   10e24:	fe442783          	lw	a5,-28(s0)
   10e28:	0087d793          	srli	a5,a5,0x8
   10e2c:	0ff7f793          	zext.b	a5,a5
   10e30:	fb442703          	lw	a4,-76(s0)
   10e34:	00f707b3          	add	a5,a4,a5
   10e38:	0007c783          	lbu	a5,0(a5)
   10e3c:	00879793          	slli	a5,a5,0x8
   10e40:	00f6e733          	or	a4,a3,a5
   10e44:	fe042783          	lw	a5,-32(s0)
   10e48:	0107d793          	srli	a5,a5,0x10
   10e4c:	0ff7f793          	zext.b	a5,a5
   10e50:	fb442683          	lw	a3,-76(s0)
   10e54:	00f687b3          	add	a5,a3,a5
   10e58:	0007c783          	lbu	a5,0(a5)
   10e5c:	01079793          	slli	a5,a5,0x10
   10e60:	00f76733          	or	a4,a4,a5
   10e64:	fec42783          	lw	a5,-20(s0)
   10e68:	0187d793          	srli	a5,a5,0x18
   10e6c:	fb442683          	lw	a3,-76(s0)
   10e70:	00f687b3          	add	a5,a3,a5
   10e74:	0007c783          	lbu	a5,0(a5)
   10e78:	01879793          	slli	a5,a5,0x18
   10e7c:	00f76733          	or	a4,a4,a5
   10e80:	fdc42783          	lw	a5,-36(s0)
   10e84:	00479793          	slli	a5,a5,0x4
   10e88:	00478793          	addi	a5,a5,4
   10e8c:	fb842683          	lw	a3,-72(s0)
   10e90:	00f687b3          	add	a5,a3,a5
   10e94:	0007a783          	lw	a5,0(a5)
   10e98:	00f747b3          	xor	a5,a4,a5
   10e9c:	fcf42a23          	sw	a5,-44(s0)
   10ea0:	fe442783          	lw	a5,-28(s0)
   10ea4:	0ff7f793          	zext.b	a5,a5
   10ea8:	fb442703          	lw	a4,-76(s0)
   10eac:	00f707b3          	add	a5,a4,a5
   10eb0:	0007c783          	lbu	a5,0(a5)
   10eb4:	00078693          	mv	a3,a5
   10eb8:	fe042783          	lw	a5,-32(s0)
   10ebc:	0087d793          	srli	a5,a5,0x8
   10ec0:	0ff7f793          	zext.b	a5,a5
   10ec4:	fb442703          	lw	a4,-76(s0)
   10ec8:	00f707b3          	add	a5,a4,a5
   10ecc:	0007c783          	lbu	a5,0(a5)
   10ed0:	00879793          	slli	a5,a5,0x8
   10ed4:	00f6e733          	or	a4,a3,a5
   10ed8:	fec42783          	lw	a5,-20(s0)
   10edc:	0107d793          	srli	a5,a5,0x10
   10ee0:	0ff7f793          	zext.b	a5,a5
   10ee4:	fb442683          	lw	a3,-76(s0)
   10ee8:	00f687b3          	add	a5,a3,a5
   10eec:	0007c783          	lbu	a5,0(a5)
   10ef0:	01079793          	slli	a5,a5,0x10
   10ef4:	00f76733          	or	a4,a4,a5
   10ef8:	fe842783          	lw	a5,-24(s0)
   10efc:	0187d793          	srli	a5,a5,0x18
   10f00:	fb442683          	lw	a3,-76(s0)
   10f04:	00f687b3          	add	a5,a3,a5
   10f08:	0007c783          	lbu	a5,0(a5)
   10f0c:	01879793          	slli	a5,a5,0x18
   10f10:	00f76733          	or	a4,a4,a5
   10f14:	fdc42783          	lw	a5,-36(s0)
   10f18:	00479793          	slli	a5,a5,0x4
   10f1c:	00878793          	addi	a5,a5,8
   10f20:	fb842683          	lw	a3,-72(s0)
   10f24:	00f687b3          	add	a5,a3,a5
   10f28:	0007a783          	lw	a5,0(a5)
   10f2c:	00f747b3          	xor	a5,a4,a5
   10f30:	fcf42823          	sw	a5,-48(s0)
   10f34:	fe042783          	lw	a5,-32(s0)
   10f38:	0ff7f793          	zext.b	a5,a5
   10f3c:	fb442703          	lw	a4,-76(s0)
   10f40:	00f707b3          	add	a5,a4,a5
   10f44:	0007c783          	lbu	a5,0(a5)
   10f48:	00078693          	mv	a3,a5
   10f4c:	fec42783          	lw	a5,-20(s0)
   10f50:	0087d793          	srli	a5,a5,0x8
   10f54:	0ff7f793          	zext.b	a5,a5
   10f58:	fb442703          	lw	a4,-76(s0)
   10f5c:	00f707b3          	add	a5,a4,a5
   10f60:	0007c783          	lbu	a5,0(a5)
   10f64:	00879793          	slli	a5,a5,0x8
   10f68:	00f6e733          	or	a4,a3,a5
   10f6c:	fe842783          	lw	a5,-24(s0)
   10f70:	0107d793          	srli	a5,a5,0x10
   10f74:	0ff7f793          	zext.b	a5,a5
   10f78:	fb442683          	lw	a3,-76(s0)
   10f7c:	00f687b3          	add	a5,a3,a5
   10f80:	0007c783          	lbu	a5,0(a5)
   10f84:	01079793          	slli	a5,a5,0x10
   10f88:	00f76733          	or	a4,a4,a5
   10f8c:	fe442783          	lw	a5,-28(s0)
   10f90:	0187d793          	srli	a5,a5,0x18
   10f94:	fb442683          	lw	a3,-76(s0)
   10f98:	00f687b3          	add	a5,a3,a5
   10f9c:	0007c783          	lbu	a5,0(a5)
   10fa0:	01879793          	slli	a5,a5,0x18
   10fa4:	00f76733          	or	a4,a4,a5
   10fa8:	fdc42783          	lw	a5,-36(s0)
   10fac:	00479793          	slli	a5,a5,0x4
   10fb0:	00c78793          	addi	a5,a5,12
   10fb4:	fb842683          	lw	a3,-72(s0)
   10fb8:	00f687b3          	add	a5,a3,a5
   10fbc:	0007a783          	lw	a5,0(a5)
   10fc0:	00f747b3          	xor	a5,a4,a5
   10fc4:	fcf42623          	sw	a5,-52(s0)
   10fc8:	fd842783          	lw	a5,-40(s0)
   10fcc:	0187d713          	srli	a4,a5,0x18
   10fd0:	fac42783          	lw	a5,-84(s0)
   10fd4:	00378793          	addi	a5,a5,3
   10fd8:	0ff77713          	zext.b	a4,a4
   10fdc:	00e78023          	sb	a4,0(a5)
   10fe0:	fd842783          	lw	a5,-40(s0)
   10fe4:	0107d713          	srli	a4,a5,0x10
   10fe8:	fac42783          	lw	a5,-84(s0)
   10fec:	00278793          	addi	a5,a5,2
   10ff0:	0ff77713          	zext.b	a4,a4
   10ff4:	00e78023          	sb	a4,0(a5)
   10ff8:	fd842783          	lw	a5,-40(s0)
   10ffc:	0087d713          	srli	a4,a5,0x8
   11000:	fac42783          	lw	a5,-84(s0)
   11004:	00178793          	addi	a5,a5,1
   11008:	0ff77713          	zext.b	a4,a4
   1100c:	00e78023          	sb	a4,0(a5)
   11010:	fd842783          	lw	a5,-40(s0)
   11014:	0ff7f713          	zext.b	a4,a5
   11018:	fac42783          	lw	a5,-84(s0)
   1101c:	00e78023          	sb	a4,0(a5)
   11020:	fd442783          	lw	a5,-44(s0)
   11024:	0187d713          	srli	a4,a5,0x18
   11028:	fac42783          	lw	a5,-84(s0)
   1102c:	00778793          	addi	a5,a5,7
   11030:	0ff77713          	zext.b	a4,a4
   11034:	00e78023          	sb	a4,0(a5)
   11038:	fd442783          	lw	a5,-44(s0)
   1103c:	0107d713          	srli	a4,a5,0x10
   11040:	fac42783          	lw	a5,-84(s0)
   11044:	00678793          	addi	a5,a5,6
   11048:	0ff77713          	zext.b	a4,a4
   1104c:	00e78023          	sb	a4,0(a5)
   11050:	fd442783          	lw	a5,-44(s0)
   11054:	0087d713          	srli	a4,a5,0x8
   11058:	fac42783          	lw	a5,-84(s0)
   1105c:	00578793          	addi	a5,a5,5
   11060:	0ff77713          	zext.b	a4,a4
   11064:	00e78023          	sb	a4,0(a5)
   11068:	fac42783          	lw	a5,-84(s0)
   1106c:	00478793          	addi	a5,a5,4
   11070:	fd442703          	lw	a4,-44(s0)
   11074:	0ff77713          	zext.b	a4,a4
   11078:	00e78023          	sb	a4,0(a5)
   1107c:	fd042783          	lw	a5,-48(s0)
   11080:	0187d713          	srli	a4,a5,0x18
   11084:	fac42783          	lw	a5,-84(s0)
   11088:	00b78793          	addi	a5,a5,11
   1108c:	0ff77713          	zext.b	a4,a4
   11090:	00e78023          	sb	a4,0(a5)
   11094:	fd042783          	lw	a5,-48(s0)
   11098:	0107d713          	srli	a4,a5,0x10
   1109c:	fac42783          	lw	a5,-84(s0)
   110a0:	00a78793          	addi	a5,a5,10
   110a4:	0ff77713          	zext.b	a4,a4
   110a8:	00e78023          	sb	a4,0(a5)
   110ac:	fd042783          	lw	a5,-48(s0)
   110b0:	0087d713          	srli	a4,a5,0x8
   110b4:	fac42783          	lw	a5,-84(s0)
   110b8:	00978793          	addi	a5,a5,9
   110bc:	0ff77713          	zext.b	a4,a4
   110c0:	00e78023          	sb	a4,0(a5)
   110c4:	fac42783          	lw	a5,-84(s0)
   110c8:	00878793          	addi	a5,a5,8
   110cc:	fd042703          	lw	a4,-48(s0)
   110d0:	0ff77713          	zext.b	a4,a4
   110d4:	00e78023          	sb	a4,0(a5)
   110d8:	fcc42783          	lw	a5,-52(s0)
   110dc:	0187d713          	srli	a4,a5,0x18
   110e0:	fac42783          	lw	a5,-84(s0)
   110e4:	00f78793          	addi	a5,a5,15
   110e8:	0ff77713          	zext.b	a4,a4
   110ec:	00e78023          	sb	a4,0(a5)
   110f0:	fcc42783          	lw	a5,-52(s0)
   110f4:	0107d713          	srli	a4,a5,0x10
   110f8:	fac42783          	lw	a5,-84(s0)
   110fc:	00e78793          	addi	a5,a5,14
   11100:	0ff77713          	zext.b	a4,a4
   11104:	00e78023          	sb	a4,0(a5)
   11108:	fcc42783          	lw	a5,-52(s0)
   1110c:	0087d713          	srli	a4,a5,0x8
   11110:	fac42783          	lw	a5,-84(s0)
   11114:	00d78793          	addi	a5,a5,13
   11118:	0ff77713          	zext.b	a4,a4
   1111c:	00e78023          	sb	a4,0(a5)
   11120:	fac42783          	lw	a5,-84(s0)
   11124:	00c78793          	addi	a5,a5,12
   11128:	fcc42703          	lw	a4,-52(s0)
   1112c:	0ff77713          	zext.b	a4,a4
   11130:	00e78023          	sb	a4,0(a5)
   11134:	fb042783          	lw	a5,-80(s0)
   11138:	ff078793          	addi	a5,a5,-16
   1113c:	faf42823          	sw	a5,-80(s0)
   11140:	fac42783          	lw	a5,-84(s0)
   11144:	01078793          	addi	a5,a5,16
   11148:	faf42623          	sw	a5,-84(s0)
   1114c:	fa842783          	lw	a5,-88(s0)
   11150:	01078793          	addi	a5,a5,16
   11154:	faf42423          	sw	a5,-88(s0)
   11158:	fb042783          	lw	a5,-80(s0)
   1115c:	fe079463          	bnez	a5,10944 <_nettle_aes_encrypt+0x3c>
   11160:	00000013          	nop
   11164:	00000013          	nop
   11168:	05c12083          	lw	ra,92(sp)
   1116c:	05812403          	lw	s0,88(sp)
   11170:	06010113          	addi	sp,sp,96
   11174:	00008067          	ret

00011178 <_nettle_aes_decrypt>:
   11178:	fa010113          	addi	sp,sp,-96
   1117c:	04112e23          	sw	ra,92(sp)
   11180:	04812c23          	sw	s0,88(sp)
   11184:	06010413          	addi	s0,sp,96
   11188:	faa42e23          	sw	a0,-68(s0)
   1118c:	fab42c23          	sw	a1,-72(s0)
   11190:	fac42a23          	sw	a2,-76(s0)
   11194:	fad42823          	sw	a3,-80(s0)
   11198:	fae42623          	sw	a4,-84(s0)
   1119c:	faf42423          	sw	a5,-88(s0)
   111a0:	fb042783          	lw	a5,-80(s0)
   111a4:	00f7f793          	andi	a5,a5,15
   111a8:	020780e3          	beqz	a5,119c8 <_nettle_aes_decrypt+0x850>
   111ac:	00100513          	li	a0,1
   111b0:	ee5fe0ef          	jal	ra,10094 <exit>
   111b4:	fa842783          	lw	a5,-88(s0)
   111b8:	00378793          	addi	a5,a5,3
   111bc:	0007c783          	lbu	a5,0(a5)
   111c0:	01879713          	slli	a4,a5,0x18
   111c4:	fa842783          	lw	a5,-88(s0)
   111c8:	00278793          	addi	a5,a5,2
   111cc:	0007c783          	lbu	a5,0(a5)
   111d0:	01079793          	slli	a5,a5,0x10
   111d4:	00f76733          	or	a4,a4,a5
   111d8:	fa842783          	lw	a5,-88(s0)
   111dc:	00178793          	addi	a5,a5,1
   111e0:	0007c783          	lbu	a5,0(a5)
   111e4:	00879793          	slli	a5,a5,0x8
   111e8:	00f767b3          	or	a5,a4,a5
   111ec:	fa842703          	lw	a4,-88(s0)
   111f0:	00074703          	lbu	a4,0(a4)
   111f4:	00e7e733          	or	a4,a5,a4
   111f8:	fb842783          	lw	a5,-72(s0)
   111fc:	0007a783          	lw	a5,0(a5)
   11200:	00f747b3          	xor	a5,a4,a5
   11204:	fef42623          	sw	a5,-20(s0)
   11208:	fa842783          	lw	a5,-88(s0)
   1120c:	00778793          	addi	a5,a5,7
   11210:	0007c783          	lbu	a5,0(a5)
   11214:	01879713          	slli	a4,a5,0x18
   11218:	fa842783          	lw	a5,-88(s0)
   1121c:	00678793          	addi	a5,a5,6
   11220:	0007c783          	lbu	a5,0(a5)
   11224:	01079793          	slli	a5,a5,0x10
   11228:	00f76733          	or	a4,a4,a5
   1122c:	fa842783          	lw	a5,-88(s0)
   11230:	00578793          	addi	a5,a5,5
   11234:	0007c783          	lbu	a5,0(a5)
   11238:	00879793          	slli	a5,a5,0x8
   1123c:	00f767b3          	or	a5,a4,a5
   11240:	fa842703          	lw	a4,-88(s0)
   11244:	00470713          	addi	a4,a4,4
   11248:	00074703          	lbu	a4,0(a4)
   1124c:	00e7e733          	or	a4,a5,a4
   11250:	fb842783          	lw	a5,-72(s0)
   11254:	00478793          	addi	a5,a5,4
   11258:	0007a783          	lw	a5,0(a5)
   1125c:	00f747b3          	xor	a5,a4,a5
   11260:	fef42423          	sw	a5,-24(s0)
   11264:	fa842783          	lw	a5,-88(s0)
   11268:	00b78793          	addi	a5,a5,11
   1126c:	0007c783          	lbu	a5,0(a5)
   11270:	01879713          	slli	a4,a5,0x18
   11274:	fa842783          	lw	a5,-88(s0)
   11278:	00a78793          	addi	a5,a5,10
   1127c:	0007c783          	lbu	a5,0(a5)
   11280:	01079793          	slli	a5,a5,0x10
   11284:	00f76733          	or	a4,a4,a5
   11288:	fa842783          	lw	a5,-88(s0)
   1128c:	00978793          	addi	a5,a5,9
   11290:	0007c783          	lbu	a5,0(a5)
   11294:	00879793          	slli	a5,a5,0x8
   11298:	00f767b3          	or	a5,a4,a5
   1129c:	fa842703          	lw	a4,-88(s0)
   112a0:	00870713          	addi	a4,a4,8
   112a4:	00074703          	lbu	a4,0(a4)
   112a8:	00e7e733          	or	a4,a5,a4
   112ac:	fb842783          	lw	a5,-72(s0)
   112b0:	00878793          	addi	a5,a5,8
   112b4:	0007a783          	lw	a5,0(a5)
   112b8:	00f747b3          	xor	a5,a4,a5
   112bc:	fef42223          	sw	a5,-28(s0)
   112c0:	fa842783          	lw	a5,-88(s0)
   112c4:	00f78793          	addi	a5,a5,15
   112c8:	0007c783          	lbu	a5,0(a5)
   112cc:	01879713          	slli	a4,a5,0x18
   112d0:	fa842783          	lw	a5,-88(s0)
   112d4:	00e78793          	addi	a5,a5,14
   112d8:	0007c783          	lbu	a5,0(a5)
   112dc:	01079793          	slli	a5,a5,0x10
   112e0:	00f76733          	or	a4,a4,a5
   112e4:	fa842783          	lw	a5,-88(s0)
   112e8:	00d78793          	addi	a5,a5,13
   112ec:	0007c783          	lbu	a5,0(a5)
   112f0:	00879793          	slli	a5,a5,0x8
   112f4:	00f767b3          	or	a5,a4,a5
   112f8:	fa842703          	lw	a4,-88(s0)
   112fc:	00c70713          	addi	a4,a4,12
   11300:	00074703          	lbu	a4,0(a4)
   11304:	00e7e733          	or	a4,a5,a4
   11308:	fb842783          	lw	a5,-72(s0)
   1130c:	00c78793          	addi	a5,a5,12
   11310:	0007a783          	lw	a5,0(a5)
   11314:	00f747b3          	xor	a5,a4,a5
   11318:	fef42023          	sw	a5,-32(s0)
   1131c:	00100793          	li	a5,1
   11320:	fcf42e23          	sw	a5,-36(s0)
   11324:	2bc0006f          	j	115e0 <_nettle_aes_decrypt+0x468>
   11328:	fec42783          	lw	a5,-20(s0)
   1132c:	0ff7f793          	zext.b	a5,a5
   11330:	fb442703          	lw	a4,-76(s0)
   11334:	04078793          	addi	a5,a5,64
   11338:	00279793          	slli	a5,a5,0x2
   1133c:	00f707b3          	add	a5,a4,a5
   11340:	0007a703          	lw	a4,0(a5)
   11344:	fe042783          	lw	a5,-32(s0)
   11348:	0087d793          	srli	a5,a5,0x8
   1134c:	0ff7f793          	zext.b	a5,a5
   11350:	fb442683          	lw	a3,-76(s0)
   11354:	14078793          	addi	a5,a5,320
   11358:	00279793          	slli	a5,a5,0x2
   1135c:	00f687b3          	add	a5,a3,a5
   11360:	0007a783          	lw	a5,0(a5)
   11364:	00f74733          	xor	a4,a4,a5
   11368:	fe442783          	lw	a5,-28(s0)
   1136c:	0107d793          	srli	a5,a5,0x10
   11370:	0ff7f793          	zext.b	a5,a5
   11374:	fb442683          	lw	a3,-76(s0)
   11378:	24078793          	addi	a5,a5,576
   1137c:	00279793          	slli	a5,a5,0x2
   11380:	00f687b3          	add	a5,a3,a5
   11384:	0007a783          	lw	a5,0(a5)
   11388:	00f74733          	xor	a4,a4,a5
   1138c:	fe842783          	lw	a5,-24(s0)
   11390:	0187d793          	srli	a5,a5,0x18
   11394:	fb442683          	lw	a3,-76(s0)
   11398:	34078793          	addi	a5,a5,832
   1139c:	00279793          	slli	a5,a5,0x2
   113a0:	00f687b3          	add	a5,a3,a5
   113a4:	0007a783          	lw	a5,0(a5)
   113a8:	00f74733          	xor	a4,a4,a5
   113ac:	fdc42783          	lw	a5,-36(s0)
   113b0:	00479793          	slli	a5,a5,0x4
   113b4:	fb842683          	lw	a3,-72(s0)
   113b8:	00f687b3          	add	a5,a3,a5
   113bc:	0007a783          	lw	a5,0(a5)
   113c0:	00f747b3          	xor	a5,a4,a5
   113c4:	fcf42c23          	sw	a5,-40(s0)
   113c8:	fe842783          	lw	a5,-24(s0)
   113cc:	0ff7f793          	zext.b	a5,a5
   113d0:	fb442703          	lw	a4,-76(s0)
   113d4:	04078793          	addi	a5,a5,64
   113d8:	00279793          	slli	a5,a5,0x2
   113dc:	00f707b3          	add	a5,a4,a5
   113e0:	0007a703          	lw	a4,0(a5)
   113e4:	fec42783          	lw	a5,-20(s0)
   113e8:	0087d793          	srli	a5,a5,0x8
   113ec:	0ff7f793          	zext.b	a5,a5
   113f0:	fb442683          	lw	a3,-76(s0)
   113f4:	14078793          	addi	a5,a5,320
   113f8:	00279793          	slli	a5,a5,0x2
   113fc:	00f687b3          	add	a5,a3,a5
   11400:	0007a783          	lw	a5,0(a5)
   11404:	00f74733          	xor	a4,a4,a5
   11408:	fe042783          	lw	a5,-32(s0)
   1140c:	0107d793          	srli	a5,a5,0x10
   11410:	0ff7f793          	zext.b	a5,a5
   11414:	fb442683          	lw	a3,-76(s0)
   11418:	24078793          	addi	a5,a5,576
   1141c:	00279793          	slli	a5,a5,0x2
   11420:	00f687b3          	add	a5,a3,a5
   11424:	0007a783          	lw	a5,0(a5)
   11428:	00f74733          	xor	a4,a4,a5
   1142c:	fe442783          	lw	a5,-28(s0)
   11430:	0187d793          	srli	a5,a5,0x18
   11434:	fb442683          	lw	a3,-76(s0)
   11438:	34078793          	addi	a5,a5,832
   1143c:	00279793          	slli	a5,a5,0x2
   11440:	00f687b3          	add	a5,a3,a5
   11444:	0007a783          	lw	a5,0(a5)
   11448:	00f74733          	xor	a4,a4,a5
   1144c:	fdc42783          	lw	a5,-36(s0)
   11450:	00479793          	slli	a5,a5,0x4
   11454:	00478793          	addi	a5,a5,4
   11458:	fb842683          	lw	a3,-72(s0)
   1145c:	00f687b3          	add	a5,a3,a5
   11460:	0007a783          	lw	a5,0(a5)
   11464:	00f747b3          	xor	a5,a4,a5
   11468:	fcf42a23          	sw	a5,-44(s0)
   1146c:	fe442783          	lw	a5,-28(s0)
   11470:	0ff7f793          	zext.b	a5,a5
   11474:	fb442703          	lw	a4,-76(s0)
   11478:	04078793          	addi	a5,a5,64
   1147c:	00279793          	slli	a5,a5,0x2
   11480:	00f707b3          	add	a5,a4,a5
   11484:	0007a703          	lw	a4,0(a5)
   11488:	fe842783          	lw	a5,-24(s0)
   1148c:	0087d793          	srli	a5,a5,0x8
   11490:	0ff7f793          	zext.b	a5,a5
   11494:	fb442683          	lw	a3,-76(s0)
   11498:	14078793          	addi	a5,a5,320
   1149c:	00279793          	slli	a5,a5,0x2
   114a0:	00f687b3          	add	a5,a3,a5
   114a4:	0007a783          	lw	a5,0(a5)
   114a8:	00f74733          	xor	a4,a4,a5
   114ac:	fec42783          	lw	a5,-20(s0)
   114b0:	0107d793          	srli	a5,a5,0x10
   114b4:	0ff7f793          	zext.b	a5,a5
   114b8:	fb442683          	lw	a3,-76(s0)
   114bc:	24078793          	addi	a5,a5,576
   114c0:	00279793          	slli	a5,a5,0x2
   114c4:	00f687b3          	add	a5,a3,a5
   114c8:	0007a783          	lw	a5,0(a5)
   114cc:	00f74733          	xor	a4,a4,a5
   114d0:	fe042783          	lw	a5,-32(s0)
   114d4:	0187d793          	srli	a5,a5,0x18
   114d8:	fb442683          	lw	a3,-76(s0)
   114dc:	34078793          	addi	a5,a5,832
   114e0:	00279793          	slli	a5,a5,0x2
   114e4:	00f687b3          	add	a5,a3,a5
   114e8:	0007a783          	lw	a5,0(a5)
   114ec:	00f74733          	xor	a4,a4,a5
   114f0:	fdc42783          	lw	a5,-36(s0)
   114f4:	00479793          	slli	a5,a5,0x4
   114f8:	00878793          	addi	a5,a5,8
   114fc:	fb842683          	lw	a3,-72(s0)
   11500:	00f687b3          	add	a5,a3,a5
   11504:	0007a783          	lw	a5,0(a5)
   11508:	00f747b3          	xor	a5,a4,a5
   1150c:	fcf42823          	sw	a5,-48(s0)
   11510:	fe042783          	lw	a5,-32(s0)
   11514:	0ff7f793          	zext.b	a5,a5
   11518:	fb442703          	lw	a4,-76(s0)
   1151c:	04078793          	addi	a5,a5,64
   11520:	00279793          	slli	a5,a5,0x2
   11524:	00f707b3          	add	a5,a4,a5
   11528:	0007a703          	lw	a4,0(a5)
   1152c:	fe442783          	lw	a5,-28(s0)
   11530:	0087d793          	srli	a5,a5,0x8
   11534:	0ff7f793          	zext.b	a5,a5
   11538:	fb442683          	lw	a3,-76(s0)
   1153c:	14078793          	addi	a5,a5,320
   11540:	00279793          	slli	a5,a5,0x2
   11544:	00f687b3          	add	a5,a3,a5
   11548:	0007a783          	lw	a5,0(a5)
   1154c:	00f74733          	xor	a4,a4,a5
   11550:	fe842783          	lw	a5,-24(s0)
   11554:	0107d793          	srli	a5,a5,0x10
   11558:	0ff7f793          	zext.b	a5,a5
   1155c:	fb442683          	lw	a3,-76(s0)
   11560:	24078793          	addi	a5,a5,576
   11564:	00279793          	slli	a5,a5,0x2
   11568:	00f687b3          	add	a5,a3,a5
   1156c:	0007a783          	lw	a5,0(a5)
   11570:	00f74733          	xor	a4,a4,a5
   11574:	fec42783          	lw	a5,-20(s0)
   11578:	0187d793          	srli	a5,a5,0x18
   1157c:	fb442683          	lw	a3,-76(s0)
   11580:	34078793          	addi	a5,a5,832
   11584:	00279793          	slli	a5,a5,0x2
   11588:	00f687b3          	add	a5,a3,a5
   1158c:	0007a783          	lw	a5,0(a5)
   11590:	00f74733          	xor	a4,a4,a5
   11594:	fdc42783          	lw	a5,-36(s0)
   11598:	00479793          	slli	a5,a5,0x4
   1159c:	00c78793          	addi	a5,a5,12
   115a0:	fb842683          	lw	a3,-72(s0)
   115a4:	00f687b3          	add	a5,a3,a5
   115a8:	0007a783          	lw	a5,0(a5)
   115ac:	00f747b3          	xor	a5,a4,a5
   115b0:	fcf42623          	sw	a5,-52(s0)
   115b4:	fd842783          	lw	a5,-40(s0)
   115b8:	fef42623          	sw	a5,-20(s0)
   115bc:	fd442783          	lw	a5,-44(s0)
   115c0:	fef42423          	sw	a5,-24(s0)
   115c4:	fd042783          	lw	a5,-48(s0)
   115c8:	fef42223          	sw	a5,-28(s0)
   115cc:	fcc42783          	lw	a5,-52(s0)
   115d0:	fef42023          	sw	a5,-32(s0)
   115d4:	fdc42783          	lw	a5,-36(s0)
   115d8:	00178793          	addi	a5,a5,1
   115dc:	fcf42e23          	sw	a5,-36(s0)
   115e0:	fdc42703          	lw	a4,-36(s0)
   115e4:	fbc42783          	lw	a5,-68(s0)
   115e8:	d4f760e3          	bltu	a4,a5,11328 <_nettle_aes_decrypt+0x1b0>
   115ec:	fec42783          	lw	a5,-20(s0)
   115f0:	0ff7f793          	zext.b	a5,a5
   115f4:	fb442703          	lw	a4,-76(s0)
   115f8:	00f707b3          	add	a5,a4,a5
   115fc:	0007c783          	lbu	a5,0(a5)
   11600:	00078693          	mv	a3,a5
   11604:	fe042783          	lw	a5,-32(s0)
   11608:	0087d793          	srli	a5,a5,0x8
   1160c:	0ff7f793          	zext.b	a5,a5
   11610:	fb442703          	lw	a4,-76(s0)
   11614:	00f707b3          	add	a5,a4,a5
   11618:	0007c783          	lbu	a5,0(a5)
   1161c:	00879793          	slli	a5,a5,0x8
   11620:	00f6e733          	or	a4,a3,a5
   11624:	fe442783          	lw	a5,-28(s0)
   11628:	0107d793          	srli	a5,a5,0x10
   1162c:	0ff7f793          	zext.b	a5,a5
   11630:	fb442683          	lw	a3,-76(s0)
   11634:	00f687b3          	add	a5,a3,a5
   11638:	0007c783          	lbu	a5,0(a5)
   1163c:	01079793          	slli	a5,a5,0x10
   11640:	00f76733          	or	a4,a4,a5
   11644:	fe842783          	lw	a5,-24(s0)
   11648:	0187d793          	srli	a5,a5,0x18
   1164c:	fb442683          	lw	a3,-76(s0)
   11650:	00f687b3          	add	a5,a3,a5
   11654:	0007c783          	lbu	a5,0(a5)
   11658:	01879793          	slli	a5,a5,0x18
   1165c:	00f76733          	or	a4,a4,a5
   11660:	fdc42783          	lw	a5,-36(s0)
   11664:	00479793          	slli	a5,a5,0x4
   11668:	fb842683          	lw	a3,-72(s0)
   1166c:	00f687b3          	add	a5,a3,a5
   11670:	0007a783          	lw	a5,0(a5)
   11674:	00f747b3          	xor	a5,a4,a5
   11678:	fcf42c23          	sw	a5,-40(s0)
   1167c:	fe842783          	lw	a5,-24(s0)
   11680:	0ff7f793          	zext.b	a5,a5
   11684:	fb442703          	lw	a4,-76(s0)
   11688:	00f707b3          	add	a5,a4,a5
   1168c:	0007c783          	lbu	a5,0(a5)
   11690:	00078693          	mv	a3,a5
   11694:	fec42783          	lw	a5,-20(s0)
   11698:	0087d793          	srli	a5,a5,0x8
   1169c:	0ff7f793          	zext.b	a5,a5
   116a0:	fb442703          	lw	a4,-76(s0)
   116a4:	00f707b3          	add	a5,a4,a5
   116a8:	0007c783          	lbu	a5,0(a5)
   116ac:	00879793          	slli	a5,a5,0x8
   116b0:	00f6e733          	or	a4,a3,a5
   116b4:	fe042783          	lw	a5,-32(s0)
   116b8:	0107d793          	srli	a5,a5,0x10
   116bc:	0ff7f793          	zext.b	a5,a5
   116c0:	fb442683          	lw	a3,-76(s0)
   116c4:	00f687b3          	add	a5,a3,a5
   116c8:	0007c783          	lbu	a5,0(a5)
   116cc:	01079793          	slli	a5,a5,0x10
   116d0:	00f76733          	or	a4,a4,a5
   116d4:	fe442783          	lw	a5,-28(s0)
   116d8:	0187d793          	srli	a5,a5,0x18
   116dc:	fb442683          	lw	a3,-76(s0)
   116e0:	00f687b3          	add	a5,a3,a5
   116e4:	0007c783          	lbu	a5,0(a5)
   116e8:	01879793          	slli	a5,a5,0x18
   116ec:	00f76733          	or	a4,a4,a5
   116f0:	fdc42783          	lw	a5,-36(s0)
   116f4:	00479793          	slli	a5,a5,0x4
   116f8:	00478793          	addi	a5,a5,4
   116fc:	fb842683          	lw	a3,-72(s0)
   11700:	00f687b3          	add	a5,a3,a5
   11704:	0007a783          	lw	a5,0(a5)
   11708:	00f747b3          	xor	a5,a4,a5
   1170c:	fcf42a23          	sw	a5,-44(s0)
   11710:	fe442783          	lw	a5,-28(s0)
   11714:	0ff7f793          	zext.b	a5,a5
   11718:	fb442703          	lw	a4,-76(s0)
   1171c:	00f707b3          	add	a5,a4,a5
   11720:	0007c783          	lbu	a5,0(a5)
   11724:	00078693          	mv	a3,a5
   11728:	fe842783          	lw	a5,-24(s0)
   1172c:	0087d793          	srli	a5,a5,0x8
   11730:	0ff7f793          	zext.b	a5,a5
   11734:	fb442703          	lw	a4,-76(s0)
   11738:	00f707b3          	add	a5,a4,a5
   1173c:	0007c783          	lbu	a5,0(a5)
   11740:	00879793          	slli	a5,a5,0x8
   11744:	00f6e733          	or	a4,a3,a5
   11748:	fec42783          	lw	a5,-20(s0)
   1174c:	0107d793          	srli	a5,a5,0x10
   11750:	0ff7f793          	zext.b	a5,a5
   11754:	fb442683          	lw	a3,-76(s0)
   11758:	00f687b3          	add	a5,a3,a5
   1175c:	0007c783          	lbu	a5,0(a5)
   11760:	01079793          	slli	a5,a5,0x10
   11764:	00f76733          	or	a4,a4,a5
   11768:	fe042783          	lw	a5,-32(s0)
   1176c:	0187d793          	srli	a5,a5,0x18
   11770:	fb442683          	lw	a3,-76(s0)
   11774:	00f687b3          	add	a5,a3,a5
   11778:	0007c783          	lbu	a5,0(a5)
   1177c:	01879793          	slli	a5,a5,0x18
   11780:	00f76733          	or	a4,a4,a5
   11784:	fdc42783          	lw	a5,-36(s0)
   11788:	00479793          	slli	a5,a5,0x4
   1178c:	00878793          	addi	a5,a5,8
   11790:	fb842683          	lw	a3,-72(s0)
   11794:	00f687b3          	add	a5,a3,a5
   11798:	0007a783          	lw	a5,0(a5)
   1179c:	00f747b3          	xor	a5,a4,a5
   117a0:	fcf42823          	sw	a5,-48(s0)
   117a4:	fe042783          	lw	a5,-32(s0)
   117a8:	0ff7f793          	zext.b	a5,a5
   117ac:	fb442703          	lw	a4,-76(s0)
   117b0:	00f707b3          	add	a5,a4,a5
   117b4:	0007c783          	lbu	a5,0(a5)
   117b8:	00078693          	mv	a3,a5
   117bc:	fe442783          	lw	a5,-28(s0)
   117c0:	0087d793          	srli	a5,a5,0x8
   117c4:	0ff7f793          	zext.b	a5,a5
   117c8:	fb442703          	lw	a4,-76(s0)
   117cc:	00f707b3          	add	a5,a4,a5
   117d0:	0007c783          	lbu	a5,0(a5)
   117d4:	00879793          	slli	a5,a5,0x8
   117d8:	00f6e733          	or	a4,a3,a5
   117dc:	fe842783          	lw	a5,-24(s0)
   117e0:	0107d793          	srli	a5,a5,0x10
   117e4:	0ff7f793          	zext.b	a5,a5
   117e8:	fb442683          	lw	a3,-76(s0)
   117ec:	00f687b3          	add	a5,a3,a5
   117f0:	0007c783          	lbu	a5,0(a5)
   117f4:	01079793          	slli	a5,a5,0x10
   117f8:	00f76733          	or	a4,a4,a5
   117fc:	fec42783          	lw	a5,-20(s0)
   11800:	0187d793          	srli	a5,a5,0x18
   11804:	fb442683          	lw	a3,-76(s0)
   11808:	00f687b3          	add	a5,a3,a5
   1180c:	0007c783          	lbu	a5,0(a5)
   11810:	01879793          	slli	a5,a5,0x18
   11814:	00f76733          	or	a4,a4,a5
   11818:	fdc42783          	lw	a5,-36(s0)
   1181c:	00479793          	slli	a5,a5,0x4
   11820:	00c78793          	addi	a5,a5,12
   11824:	fb842683          	lw	a3,-72(s0)
   11828:	00f687b3          	add	a5,a3,a5
   1182c:	0007a783          	lw	a5,0(a5)
   11830:	00f747b3          	xor	a5,a4,a5
   11834:	fcf42623          	sw	a5,-52(s0)
   11838:	fd842783          	lw	a5,-40(s0)
   1183c:	0187d713          	srli	a4,a5,0x18
   11840:	fac42783          	lw	a5,-84(s0)
   11844:	00378793          	addi	a5,a5,3
   11848:	0ff77713          	zext.b	a4,a4
   1184c:	00e78023          	sb	a4,0(a5)
   11850:	fd842783          	lw	a5,-40(s0)
   11854:	0107d713          	srli	a4,a5,0x10
   11858:	fac42783          	lw	a5,-84(s0)
   1185c:	00278793          	addi	a5,a5,2
   11860:	0ff77713          	zext.b	a4,a4
   11864:	00e78023          	sb	a4,0(a5)
   11868:	fd842783          	lw	a5,-40(s0)
   1186c:	0087d713          	srli	a4,a5,0x8
   11870:	fac42783          	lw	a5,-84(s0)
   11874:	00178793          	addi	a5,a5,1
   11878:	0ff77713          	zext.b	a4,a4
   1187c:	00e78023          	sb	a4,0(a5)
   11880:	fd842783          	lw	a5,-40(s0)
   11884:	0ff7f713          	zext.b	a4,a5
   11888:	fac42783          	lw	a5,-84(s0)
   1188c:	00e78023          	sb	a4,0(a5)
   11890:	fd442783          	lw	a5,-44(s0)
   11894:	0187d713          	srli	a4,a5,0x18
   11898:	fac42783          	lw	a5,-84(s0)
   1189c:	00778793          	addi	a5,a5,7
   118a0:	0ff77713          	zext.b	a4,a4
   118a4:	00e78023          	sb	a4,0(a5)
   118a8:	fd442783          	lw	a5,-44(s0)
   118ac:	0107d713          	srli	a4,a5,0x10
   118b0:	fac42783          	lw	a5,-84(s0)
   118b4:	00678793          	addi	a5,a5,6
   118b8:	0ff77713          	zext.b	a4,a4
   118bc:	00e78023          	sb	a4,0(a5)
   118c0:	fd442783          	lw	a5,-44(s0)
   118c4:	0087d713          	srli	a4,a5,0x8
   118c8:	fac42783          	lw	a5,-84(s0)
   118cc:	00578793          	addi	a5,a5,5
   118d0:	0ff77713          	zext.b	a4,a4
   118d4:	00e78023          	sb	a4,0(a5)
   118d8:	fac42783          	lw	a5,-84(s0)
   118dc:	00478793          	addi	a5,a5,4
   118e0:	fd442703          	lw	a4,-44(s0)
   118e4:	0ff77713          	zext.b	a4,a4
   118e8:	00e78023          	sb	a4,0(a5)
   118ec:	fd042783          	lw	a5,-48(s0)
   118f0:	0187d713          	srli	a4,a5,0x18
   118f4:	fac42783          	lw	a5,-84(s0)
   118f8:	00b78793          	addi	a5,a5,11
   118fc:	0ff77713          	zext.b	a4,a4
   11900:	00e78023          	sb	a4,0(a5)
   11904:	fd042783          	lw	a5,-48(s0)
   11908:	0107d713          	srli	a4,a5,0x10
   1190c:	fac42783          	lw	a5,-84(s0)
   11910:	00a78793          	addi	a5,a5,10
   11914:	0ff77713          	zext.b	a4,a4
   11918:	00e78023          	sb	a4,0(a5)
   1191c:	fd042783          	lw	a5,-48(s0)
   11920:	0087d713          	srli	a4,a5,0x8
   11924:	fac42783          	lw	a5,-84(s0)
   11928:	00978793          	addi	a5,a5,9
   1192c:	0ff77713          	zext.b	a4,a4
   11930:	00e78023          	sb	a4,0(a5)
   11934:	fac42783          	lw	a5,-84(s0)
   11938:	00878793          	addi	a5,a5,8
   1193c:	fd042703          	lw	a4,-48(s0)
   11940:	0ff77713          	zext.b	a4,a4
   11944:	00e78023          	sb	a4,0(a5)
   11948:	fcc42783          	lw	a5,-52(s0)
   1194c:	0187d713          	srli	a4,a5,0x18
   11950:	fac42783          	lw	a5,-84(s0)
   11954:	00f78793          	addi	a5,a5,15
   11958:	0ff77713          	zext.b	a4,a4
   1195c:	00e78023          	sb	a4,0(a5)
   11960:	fcc42783          	lw	a5,-52(s0)
   11964:	0107d713          	srli	a4,a5,0x10
   11968:	fac42783          	lw	a5,-84(s0)
   1196c:	00e78793          	addi	a5,a5,14
   11970:	0ff77713          	zext.b	a4,a4
   11974:	00e78023          	sb	a4,0(a5)
   11978:	fcc42783          	lw	a5,-52(s0)
   1197c:	0087d713          	srli	a4,a5,0x8
   11980:	fac42783          	lw	a5,-84(s0)
   11984:	00d78793          	addi	a5,a5,13
   11988:	0ff77713          	zext.b	a4,a4
   1198c:	00e78023          	sb	a4,0(a5)
   11990:	fac42783          	lw	a5,-84(s0)
   11994:	00c78793          	addi	a5,a5,12
   11998:	fcc42703          	lw	a4,-52(s0)
   1199c:	0ff77713          	zext.b	a4,a4
   119a0:	00e78023          	sb	a4,0(a5)
   119a4:	fb042783          	lw	a5,-80(s0)
   119a8:	ff078793          	addi	a5,a5,-16
   119ac:	faf42823          	sw	a5,-80(s0)
   119b0:	fac42783          	lw	a5,-84(s0)
   119b4:	01078793          	addi	a5,a5,16
   119b8:	faf42623          	sw	a5,-84(s0)
   119bc:	fa842783          	lw	a5,-88(s0)
   119c0:	01078793          	addi	a5,a5,16
   119c4:	faf42423          	sw	a5,-88(s0)
   119c8:	fb042783          	lw	a5,-80(s0)
   119cc:	fe079463          	bnez	a5,111b4 <_nettle_aes_decrypt+0x3c>
   119d0:	00000013          	nop
   119d4:	00000013          	nop
   119d8:	05c12083          	lw	ra,92(sp)
   119dc:	05812403          	lw	s0,88(sp)
   119e0:	06010113          	addi	sp,sp,96
   119e4:	00008067          	ret

000119e8 <aes_encrypt>:
   119e8:	fe010113          	addi	sp,sp,-32
   119ec:	00112e23          	sw	ra,28(sp)
   119f0:	00812c23          	sw	s0,24(sp)
   119f4:	02010413          	addi	s0,sp,32
   119f8:	fea42623          	sw	a0,-20(s0)
   119fc:	feb42423          	sw	a1,-24(s0)
   11a00:	fec42223          	sw	a2,-28(s0)
   11a04:	fed42023          	sw	a3,-32(s0)
   11a08:	fe842783          	lw	a5,-24(s0)
   11a0c:	00f7f793          	andi	a5,a5,15
   11a10:	00078663          	beqz	a5,11a1c <aes_encrypt+0x34>
   11a14:	00100513          	li	a0,1
   11a18:	e7cfe0ef          	jal	ra,10094 <exit>
   11a1c:	fec42783          	lw	a5,-20(s0)
   11a20:	0007a503          	lw	a0,0(a5)
   11a24:	fec42783          	lw	a5,-20(s0)
   11a28:	00478593          	addi	a1,a5,4
   11a2c:	fe042783          	lw	a5,-32(s0)
   11a30:	fe442703          	lw	a4,-28(s0)
   11a34:	fe842683          	lw	a3,-24(s0)
   11a38:	00012637          	lui	a2,0x12
   11a3c:	12c60613          	addi	a2,a2,300 # 1212c <_aes_encrypt_table>
   11a40:	ec9fe0ef          	jal	ra,10908 <_nettle_aes_encrypt>
   11a44:	00000013          	nop
   11a48:	01c12083          	lw	ra,28(sp)
   11a4c:	01812403          	lw	s0,24(sp)
   11a50:	02010113          	addi	sp,sp,32
   11a54:	00008067          	ret

00011a58 <aes_decrypt>:
   11a58:	fe010113          	addi	sp,sp,-32
   11a5c:	00112e23          	sw	ra,28(sp)
   11a60:	00812c23          	sw	s0,24(sp)
   11a64:	02010413          	addi	s0,sp,32
   11a68:	fea42623          	sw	a0,-20(s0)
   11a6c:	feb42423          	sw	a1,-24(s0)
   11a70:	fec42223          	sw	a2,-28(s0)
   11a74:	fed42023          	sw	a3,-32(s0)
   11a78:	fe842783          	lw	a5,-24(s0)
   11a7c:	00f7f793          	andi	a5,a5,15
   11a80:	00078663          	beqz	a5,11a8c <aes_decrypt+0x34>
   11a84:	00100513          	li	a0,1
   11a88:	e0cfe0ef          	jal	ra,10094 <exit>
   11a8c:	fec42783          	lw	a5,-20(s0)
   11a90:	0007a503          	lw	a0,0(a5)
   11a94:	fec42783          	lw	a5,-20(s0)
   11a98:	00478593          	addi	a1,a5,4
   11a9c:	fe042783          	lw	a5,-32(s0)
   11aa0:	fe442703          	lw	a4,-28(s0)
   11aa4:	fe842683          	lw	a3,-24(s0)
   11aa8:	00013637          	lui	a2,0x13
   11aac:	22c60613          	addi	a2,a2,556 # 1322c <_aes_decrypt_table>
   11ab0:	ec8ff0ef          	jal	ra,11178 <_nettle_aes_decrypt>
   11ab4:	00000013          	nop
   11ab8:	01c12083          	lw	ra,28(sp)
   11abc:	01812403          	lw	s0,24(sp)
   11ac0:	02010113          	addi	sp,sp,32
   11ac4:	00008067          	ret

00011ac8 <verify_benchmark>:
   11ac8:	fd010113          	addi	sp,sp,-48
   11acc:	02812623          	sw	s0,44(sp)
   11ad0:	03010413          	addi	s0,sp,48
   11ad4:	fca42e23          	sw	a0,-36(s0)
   11ad8:	00100793          	li	a5,1
   11adc:	fef407a3          	sb	a5,-17(s0)
   11ae0:	fe042423          	sw	zero,-24(s0)
   11ae4:	0640006f          	j	11b48 <verify_benchmark+0x80>
   11ae8:	e6c18713          	addi	a4,gp,-404 # 1567c <encrypted>
   11aec:	fe842783          	lw	a5,-24(s0)
   11af0:	00f707b3          	add	a5,a4,a5
   11af4:	0007c703          	lbu	a4,0(a5)
   11af8:	92018693          	addi	a3,gp,-1760 # 15130 <expected>
   11afc:	fe842783          	lw	a5,-24(s0)
   11b00:	00f687b3          	add	a5,a3,a5
   11b04:	0007c783          	lbu	a5,0(a5)
   11b08:	00f70463          	beq	a4,a5,11b10 <verify_benchmark+0x48>
   11b0c:	fe0407a3          	sb	zero,-17(s0)
   11b10:	000157b7          	lui	a5,0x15
   11b14:	03078713          	addi	a4,a5,48 # 15030 <plaintext>
   11b18:	fe842783          	lw	a5,-24(s0)
   11b1c:	00f707b3          	add	a5,a4,a5
   11b20:	0007c703          	lbu	a4,0(a5)
   11b24:	f6c18693          	addi	a3,gp,-148 # 1577c <decrypted>
   11b28:	fe842783          	lw	a5,-24(s0)
   11b2c:	00f687b3          	add	a5,a3,a5
   11b30:	0007c783          	lbu	a5,0(a5)
   11b34:	00f70463          	beq	a4,a5,11b3c <verify_benchmark+0x74>
   11b38:	fe0407a3          	sb	zero,-17(s0)
   11b3c:	fe842783          	lw	a5,-24(s0)
   11b40:	00178793          	addi	a5,a5,1
   11b44:	fef42423          	sw	a5,-24(s0)
   11b48:	fe842703          	lw	a4,-24(s0)
   11b4c:	0ff00793          	li	a5,255
   11b50:	f8e7fce3          	bgeu	a5,a4,11ae8 <verify_benchmark+0x20>
   11b54:	fef44783          	lbu	a5,-17(s0)
   11b58:	00078513          	mv	a0,a5
   11b5c:	02c12403          	lw	s0,44(sp)
   11b60:	03010113          	addi	sp,sp,48
   11b64:	00008067          	ret

00011b68 <initialise_benchmark>:
   11b68:	ff010113          	addi	sp,sp,-16
   11b6c:	00812623          	sw	s0,12(sp)
   11b70:	01010413          	addi	s0,sp,16
   11b74:	00000013          	nop
   11b78:	00c12403          	lw	s0,12(sp)
   11b7c:	01010113          	addi	sp,sp,16
   11b80:	00008067          	ret

00011b84 <warm_caches>:
   11b84:	fd010113          	addi	sp,sp,-48
   11b88:	02112623          	sw	ra,44(sp)
   11b8c:	02812423          	sw	s0,40(sp)
   11b90:	03010413          	addi	s0,sp,48
   11b94:	fca42e23          	sw	a0,-36(s0)
   11b98:	fdc42503          	lw	a0,-36(s0)
   11b9c:	04c000ef          	jal	ra,11be8 <benchmark_body>
   11ba0:	fea42623          	sw	a0,-20(s0)
   11ba4:	00000013          	nop
   11ba8:	02c12083          	lw	ra,44(sp)
   11bac:	02812403          	lw	s0,40(sp)
   11bb0:	03010113          	addi	sp,sp,48
   11bb4:	00008067          	ret

00011bb8 <benchmark>:
   11bb8:	ff010113          	addi	sp,sp,-16
   11bbc:	00112623          	sw	ra,12(sp)
   11bc0:	00812423          	sw	s0,8(sp)
   11bc4:	01010413          	addi	s0,sp,16
   11bc8:	04e00513          	li	a0,78
   11bcc:	01c000ef          	jal	ra,11be8 <benchmark_body>
   11bd0:	00050793          	mv	a5,a0
   11bd4:	00078513          	mv	a0,a5
   11bd8:	00c12083          	lw	ra,12(sp)
   11bdc:	00812403          	lw	s0,8(sp)
   11be0:	01010113          	addi	sp,sp,16
   11be4:	00008067          	ret

00011be8 <benchmark_body>:
   11be8:	fd010113          	addi	sp,sp,-48
   11bec:	02112623          	sw	ra,44(sp)
   11bf0:	02812423          	sw	s0,40(sp)
   11bf4:	03010413          	addi	s0,sp,48
   11bf8:	fca42e23          	sw	a0,-36(s0)
   11bfc:	fe042623          	sw	zero,-20(s0)
   11c00:	0640006f          	j	11c64 <benchmark_body+0x7c>
   11c04:	000157b7          	lui	a5,0x15
   11c08:	01078613          	addi	a2,a5,16 # 15010 <key>
   11c0c:	02000593          	li	a1,32
   11c10:	06c18513          	addi	a0,gp,108 # 1587c <encctx>
   11c14:	891fe0ef          	jal	ra,104a4 <aes_set_encrypt_key>
   11c18:	000157b7          	lui	a5,0x15
   11c1c:	03078693          	addi	a3,a5,48 # 15030 <plaintext>
   11c20:	e6c18613          	addi	a2,gp,-404 # 1567c <encrypted>
   11c24:	10000593          	li	a1,256
   11c28:	06c18513          	addi	a0,gp,108 # 1587c <encctx>
   11c2c:	dbdff0ef          	jal	ra,119e8 <aes_encrypt>
   11c30:	000157b7          	lui	a5,0x15
   11c34:	01078613          	addi	a2,a5,16 # 15010 <key>
   11c38:	02000593          	li	a1,32
   11c3c:	16018513          	addi	a0,gp,352 # 15970 <decctx>
   11c40:	c7dfe0ef          	jal	ra,108bc <aes_set_decrypt_key>
   11c44:	e6c18693          	addi	a3,gp,-404 # 1567c <encrypted>
   11c48:	f6c18613          	addi	a2,gp,-148 # 1577c <decrypted>
   11c4c:	10000593          	li	a1,256
   11c50:	16018513          	addi	a0,gp,352 # 15970 <decctx>
   11c54:	e05ff0ef          	jal	ra,11a58 <aes_decrypt>
   11c58:	fec42783          	lw	a5,-20(s0)
   11c5c:	00178793          	addi	a5,a5,1
   11c60:	fef42623          	sw	a5,-20(s0)
   11c64:	fec42703          	lw	a4,-20(s0)
   11c68:	fdc42783          	lw	a5,-36(s0)
   11c6c:	f8f74ce3          	blt	a4,a5,11c04 <benchmark_body+0x1c>
   11c70:	00000793          	li	a5,0
   11c74:	00078513          	mv	a0,a5
   11c78:	02c12083          	lw	ra,44(sp)
   11c7c:	02812403          	lw	s0,40(sp)
   11c80:	03010113          	addi	sp,sp,48
   11c84:	00008067          	ret

00011c88 <initialise_board>:
   11c88:	ff010113          	addi	sp,sp,-16
   11c8c:	00812623          	sw	s0,12(sp)
   11c90:	01010413          	addi	s0,sp,16
   11c94:	00000513          	li	a0,0
   11c98:	00000013          	nop
   11c9c:	00c12403          	lw	s0,12(sp)
   11ca0:	01010113          	addi	sp,sp,16
   11ca4:	00008067          	ret

00011ca8 <start_trigger>:
   11ca8:	ff010113          	addi	sp,sp,-16
   11cac:	00812623          	sw	s0,12(sp)
   11cb0:	01010413          	addi	s0,sp,16
   11cb4:	00000513          	li	a0,0
   11cb8:	00000013          	nop
   11cbc:	00c12403          	lw	s0,12(sp)
   11cc0:	01010113          	addi	sp,sp,16
   11cc4:	00008067          	ret

00011cc8 <stop_trigger>:
   11cc8:	ff010113          	addi	sp,sp,-16
   11ccc:	00812623          	sw	s0,12(sp)
   11cd0:	01010413          	addi	s0,sp,16
   11cd4:	00000513          	li	a0,0
   11cd8:	00000013          	nop
   11cdc:	00c12403          	lw	s0,12(sp)
   11ce0:	01010113          	addi	sp,sp,16
   11ce4:	00008067          	ret

00011ce8 <main>:
   11ce8:	fd010113          	addi	sp,sp,-48
   11cec:	02112623          	sw	ra,44(sp)
   11cf0:	02812423          	sw	s0,40(sp)
   11cf4:	03010413          	addi	s0,sp,48
   11cf8:	fca42e23          	sw	a0,-36(s0)
   11cfc:	fcb42c23          	sw	a1,-40(s0)
   11d00:	f89ff0ef          	jal	ra,11c88 <initialise_board>
   11d04:	e65ff0ef          	jal	ra,11b68 <initialise_benchmark>
   11d08:	00100513          	li	a0,1
   11d0c:	e79ff0ef          	jal	ra,11b84 <warm_caches>
   11d10:	f99ff0ef          	jal	ra,11ca8 <start_trigger>
   11d14:	ea5ff0ef          	jal	ra,11bb8 <benchmark>
   11d18:	00050793          	mv	a5,a0
   11d1c:	fef42423          	sw	a5,-24(s0)
   11d20:	fa9ff0ef          	jal	ra,11cc8 <stop_trigger>
   11d24:	fe842783          	lw	a5,-24(s0)
   11d28:	00078513          	mv	a0,a5
   11d2c:	d9dff0ef          	jal	ra,11ac8 <verify_benchmark>
   11d30:	fea42623          	sw	a0,-20(s0)
   11d34:	fec42783          	lw	a5,-20(s0)
   11d38:	0017b793          	seqz	a5,a5
   11d3c:	0ff7f793          	zext.b	a5,a5
   11d40:	00078513          	mv	a0,a5
   11d44:	02c12083          	lw	ra,44(sp)
   11d48:	02812403          	lw	s0,40(sp)
   11d4c:	03010113          	addi	sp,sp,48
   11d50:	00008067          	ret

00011d54 <__libc_init_array>:
   11d54:	ff010113          	addi	sp,sp,-16
   11d58:	00812423          	sw	s0,8(sp)
   11d5c:	01212023          	sw	s2,0(sp)
   11d60:	00015437          	lui	s0,0x15
   11d64:	00015937          	lui	s2,0x15
   11d68:	00440793          	addi	a5,s0,4 # 15004 <__init_array_start>
   11d6c:	00490913          	addi	s2,s2,4 # 15004 <__init_array_start>
   11d70:	40f90933          	sub	s2,s2,a5
   11d74:	00112623          	sw	ra,12(sp)
   11d78:	00912223          	sw	s1,4(sp)
   11d7c:	40295913          	srai	s2,s2,0x2
   11d80:	02090063          	beqz	s2,11da0 <__libc_init_array+0x4c>
   11d84:	00440413          	addi	s0,s0,4
   11d88:	00000493          	li	s1,0
   11d8c:	00042783          	lw	a5,0(s0)
   11d90:	00148493          	addi	s1,s1,1
   11d94:	00440413          	addi	s0,s0,4
   11d98:	000780e7          	jalr	a5
   11d9c:	fe9918e3          	bne	s2,s1,11d8c <__libc_init_array+0x38>
   11da0:	00015437          	lui	s0,0x15
   11da4:	00015937          	lui	s2,0x15
   11da8:	00440793          	addi	a5,s0,4 # 15004 <__init_array_start>
   11dac:	00c90913          	addi	s2,s2,12 # 1500c <__do_global_dtors_aux_fini_array_entry>
   11db0:	40f90933          	sub	s2,s2,a5
   11db4:	40295913          	srai	s2,s2,0x2
   11db8:	02090063          	beqz	s2,11dd8 <__libc_init_array+0x84>
   11dbc:	00440413          	addi	s0,s0,4
   11dc0:	00000493          	li	s1,0
   11dc4:	00042783          	lw	a5,0(s0)
   11dc8:	00148493          	addi	s1,s1,1
   11dcc:	00440413          	addi	s0,s0,4
   11dd0:	000780e7          	jalr	a5
   11dd4:	fe9918e3          	bne	s2,s1,11dc4 <__libc_init_array+0x70>
   11dd8:	00c12083          	lw	ra,12(sp)
   11ddc:	00812403          	lw	s0,8(sp)
   11de0:	00412483          	lw	s1,4(sp)
   11de4:	00012903          	lw	s2,0(sp)
   11de8:	01010113          	addi	sp,sp,16
   11dec:	00008067          	ret

00011df0 <memset>:
   11df0:	00f00313          	li	t1,15
   11df4:	00050713          	mv	a4,a0
   11df8:	02c37e63          	bgeu	t1,a2,11e34 <memset+0x44>
   11dfc:	00f77793          	andi	a5,a4,15
   11e00:	0a079063          	bnez	a5,11ea0 <memset+0xb0>
   11e04:	08059263          	bnez	a1,11e88 <memset+0x98>
   11e08:	ff067693          	andi	a3,a2,-16
   11e0c:	00f67613          	andi	a2,a2,15
   11e10:	00e686b3          	add	a3,a3,a4
   11e14:	00b72023          	sw	a1,0(a4)
   11e18:	00b72223          	sw	a1,4(a4)
   11e1c:	00b72423          	sw	a1,8(a4)
   11e20:	00b72623          	sw	a1,12(a4)
   11e24:	01070713          	addi	a4,a4,16
   11e28:	fed766e3          	bltu	a4,a3,11e14 <memset+0x24>
   11e2c:	00061463          	bnez	a2,11e34 <memset+0x44>
   11e30:	00008067          	ret
   11e34:	40c306b3          	sub	a3,t1,a2
   11e38:	00269693          	slli	a3,a3,0x2
   11e3c:	00000297          	auipc	t0,0x0
   11e40:	005686b3          	add	a3,a3,t0
   11e44:	00c68067          	jr	12(a3)
   11e48:	00b70723          	sb	a1,14(a4)
   11e4c:	00b706a3          	sb	a1,13(a4)
   11e50:	00b70623          	sb	a1,12(a4)
   11e54:	00b705a3          	sb	a1,11(a4)
   11e58:	00b70523          	sb	a1,10(a4)
   11e5c:	00b704a3          	sb	a1,9(a4)
   11e60:	00b70423          	sb	a1,8(a4)
   11e64:	00b703a3          	sb	a1,7(a4)
   11e68:	00b70323          	sb	a1,6(a4)
   11e6c:	00b702a3          	sb	a1,5(a4)
   11e70:	00b70223          	sb	a1,4(a4)
   11e74:	00b701a3          	sb	a1,3(a4)
   11e78:	00b70123          	sb	a1,2(a4)
   11e7c:	00b700a3          	sb	a1,1(a4)
   11e80:	00b70023          	sb	a1,0(a4)
   11e84:	00008067          	ret
   11e88:	0ff5f593          	zext.b	a1,a1
   11e8c:	00859693          	slli	a3,a1,0x8
   11e90:	00d5e5b3          	or	a1,a1,a3
   11e94:	01059693          	slli	a3,a1,0x10
   11e98:	00d5e5b3          	or	a1,a1,a3
   11e9c:	f6dff06f          	j	11e08 <memset+0x18>
   11ea0:	00279693          	slli	a3,a5,0x2
   11ea4:	00000297          	auipc	t0,0x0
   11ea8:	005686b3          	add	a3,a3,t0
   11eac:	00008293          	mv	t0,ra
   11eb0:	fa0680e7          	jalr	-96(a3)
   11eb4:	00028093          	mv	ra,t0
   11eb8:	ff078793          	addi	a5,a5,-16
   11ebc:	40f70733          	sub	a4,a4,a5
   11ec0:	00f60633          	add	a2,a2,a5
   11ec4:	f6c378e3          	bgeu	t1,a2,11e34 <memset+0x44>
   11ec8:	f3dff06f          	j	11e04 <memset+0x14>

00011ecc <__call_exitprocs>:
   11ecc:	fd010113          	addi	sp,sp,-48
   11ed0:	01412c23          	sw	s4,24(sp)
   11ed4:	e481aa03          	lw	s4,-440(gp) # 15658 <_global_impure_ptr>
   11ed8:	03212023          	sw	s2,32(sp)
   11edc:	02112623          	sw	ra,44(sp)
   11ee0:	148a2903          	lw	s2,328(s4)
   11ee4:	02812423          	sw	s0,40(sp)
   11ee8:	02912223          	sw	s1,36(sp)
   11eec:	01312e23          	sw	s3,28(sp)
   11ef0:	01512a23          	sw	s5,20(sp)
   11ef4:	01612823          	sw	s6,16(sp)
   11ef8:	01712623          	sw	s7,12(sp)
   11efc:	01812423          	sw	s8,8(sp)
   11f00:	04090063          	beqz	s2,11f40 <__call_exitprocs+0x74>
   11f04:	00050b13          	mv	s6,a0
   11f08:	00058b93          	mv	s7,a1
   11f0c:	00100a93          	li	s5,1
   11f10:	fff00993          	li	s3,-1
   11f14:	00492483          	lw	s1,4(s2)
   11f18:	fff48413          	addi	s0,s1,-1
   11f1c:	02044263          	bltz	s0,11f40 <__call_exitprocs+0x74>
   11f20:	00249493          	slli	s1,s1,0x2
   11f24:	009904b3          	add	s1,s2,s1
   11f28:	040b8463          	beqz	s7,11f70 <__call_exitprocs+0xa4>
   11f2c:	1044a783          	lw	a5,260(s1)
   11f30:	05778063          	beq	a5,s7,11f70 <__call_exitprocs+0xa4>
   11f34:	fff40413          	addi	s0,s0,-1
   11f38:	ffc48493          	addi	s1,s1,-4
   11f3c:	ff3416e3          	bne	s0,s3,11f28 <__call_exitprocs+0x5c>
   11f40:	02c12083          	lw	ra,44(sp)
   11f44:	02812403          	lw	s0,40(sp)
   11f48:	02412483          	lw	s1,36(sp)
   11f4c:	02012903          	lw	s2,32(sp)
   11f50:	01c12983          	lw	s3,28(sp)
   11f54:	01812a03          	lw	s4,24(sp)
   11f58:	01412a83          	lw	s5,20(sp)
   11f5c:	01012b03          	lw	s6,16(sp)
   11f60:	00c12b83          	lw	s7,12(sp)
   11f64:	00812c03          	lw	s8,8(sp)
   11f68:	03010113          	addi	sp,sp,48
   11f6c:	00008067          	ret
   11f70:	00492783          	lw	a5,4(s2)
   11f74:	0044a683          	lw	a3,4(s1)
   11f78:	fff78793          	addi	a5,a5,-1
   11f7c:	04878e63          	beq	a5,s0,11fd8 <__call_exitprocs+0x10c>
   11f80:	0004a223          	sw	zero,4(s1)
   11f84:	fa0688e3          	beqz	a3,11f34 <__call_exitprocs+0x68>
   11f88:	18892783          	lw	a5,392(s2)
   11f8c:	008a9733          	sll	a4,s5,s0
   11f90:	00492c03          	lw	s8,4(s2)
   11f94:	00f777b3          	and	a5,a4,a5
   11f98:	02079263          	bnez	a5,11fbc <__call_exitprocs+0xf0>
   11f9c:	000680e7          	jalr	a3
   11fa0:	00492703          	lw	a4,4(s2)
   11fa4:	148a2783          	lw	a5,328(s4)
   11fa8:	01871463          	bne	a4,s8,11fb0 <__call_exitprocs+0xe4>
   11fac:	f92784e3          	beq	a5,s2,11f34 <__call_exitprocs+0x68>
   11fb0:	f80788e3          	beqz	a5,11f40 <__call_exitprocs+0x74>
   11fb4:	00078913          	mv	s2,a5
   11fb8:	f5dff06f          	j	11f14 <__call_exitprocs+0x48>
   11fbc:	18c92783          	lw	a5,396(s2)
   11fc0:	0844a583          	lw	a1,132(s1)
   11fc4:	00f77733          	and	a4,a4,a5
   11fc8:	00071c63          	bnez	a4,11fe0 <__call_exitprocs+0x114>
   11fcc:	000b0513          	mv	a0,s6
   11fd0:	000680e7          	jalr	a3
   11fd4:	fcdff06f          	j	11fa0 <__call_exitprocs+0xd4>
   11fd8:	00892223          	sw	s0,4(s2)
   11fdc:	fa9ff06f          	j	11f84 <__call_exitprocs+0xb8>
   11fe0:	00058513          	mv	a0,a1
   11fe4:	000680e7          	jalr	a3
   11fe8:	fb9ff06f          	j	11fa0 <__call_exitprocs+0xd4>

00011fec <__libc_fini_array>:
   11fec:	ff010113          	addi	sp,sp,-16
   11ff0:	00812423          	sw	s0,8(sp)
   11ff4:	000157b7          	lui	a5,0x15
   11ff8:	00015437          	lui	s0,0x15
   11ffc:	00c78793          	addi	a5,a5,12 # 1500c <__do_global_dtors_aux_fini_array_entry>
   12000:	01040413          	addi	s0,s0,16 # 15010 <key>
   12004:	40f40433          	sub	s0,s0,a5
   12008:	00912223          	sw	s1,4(sp)
   1200c:	00112623          	sw	ra,12(sp)
   12010:	40245493          	srai	s1,s0,0x2
   12014:	02048063          	beqz	s1,12034 <__libc_fini_array+0x48>
   12018:	ffc40413          	addi	s0,s0,-4
   1201c:	00f40433          	add	s0,s0,a5
   12020:	00042783          	lw	a5,0(s0)
   12024:	fff48493          	addi	s1,s1,-1
   12028:	ffc40413          	addi	s0,s0,-4
   1202c:	000780e7          	jalr	a5
   12030:	fe0498e3          	bnez	s1,12020 <__libc_fini_array+0x34>
   12034:	00c12083          	lw	ra,12(sp)
   12038:	00812403          	lw	s0,8(sp)
   1203c:	00412483          	lw	s1,4(sp)
   12040:	01010113          	addi	sp,sp,16
   12044:	00008067          	ret

00012048 <atexit>:
   12048:	00050593          	mv	a1,a0
   1204c:	00000693          	li	a3,0
   12050:	00000613          	li	a2,0
   12054:	00000513          	li	a0,0
   12058:	0040006f          	j	1205c <__register_exitproc>

0001205c <__register_exitproc>:
   1205c:	e481a703          	lw	a4,-440(gp) # 15658 <_global_impure_ptr>
   12060:	14872783          	lw	a5,328(a4)
   12064:	04078c63          	beqz	a5,120bc <__register_exitproc+0x60>
   12068:	0047a703          	lw	a4,4(a5)
   1206c:	01f00813          	li	a6,31
   12070:	06e84e63          	blt	a6,a4,120ec <__register_exitproc+0x90>
   12074:	00271813          	slli	a6,a4,0x2
   12078:	02050663          	beqz	a0,120a4 <__register_exitproc+0x48>
   1207c:	01078333          	add	t1,a5,a6
   12080:	08c32423          	sw	a2,136(t1) # 10208 <_aes_set_key+0x7c>
   12084:	1887a883          	lw	a7,392(a5)
   12088:	00100613          	li	a2,1
   1208c:	00e61633          	sll	a2,a2,a4
   12090:	00c8e8b3          	or	a7,a7,a2
   12094:	1917a423          	sw	a7,392(a5)
   12098:	10d32423          	sw	a3,264(t1)
   1209c:	00200693          	li	a3,2
   120a0:	02d50463          	beq	a0,a3,120c8 <__register_exitproc+0x6c>
   120a4:	00170713          	addi	a4,a4,1
   120a8:	00e7a223          	sw	a4,4(a5)
   120ac:	010787b3          	add	a5,a5,a6
   120b0:	00b7a423          	sw	a1,8(a5)
   120b4:	00000513          	li	a0,0
   120b8:	00008067          	ret
   120bc:	14c70793          	addi	a5,a4,332
   120c0:	14f72423          	sw	a5,328(a4)
   120c4:	fa5ff06f          	j	12068 <__register_exitproc+0xc>
   120c8:	18c7a683          	lw	a3,396(a5)
   120cc:	00170713          	addi	a4,a4,1
   120d0:	00e7a223          	sw	a4,4(a5)
   120d4:	00c6e6b3          	or	a3,a3,a2
   120d8:	18d7a623          	sw	a3,396(a5)
   120dc:	010787b3          	add	a5,a5,a6
   120e0:	00b7a423          	sw	a1,8(a5)
   120e4:	00000513          	li	a0,0
   120e8:	00008067          	ret
   120ec:	fff00513          	li	a0,-1
   120f0:	00008067          	ret

000120f4 <_exit>:
   120f4:	05d00893          	li	a7,93
   120f8:	00000073          	ecall
   120fc:	00054463          	bltz	a0,12104 <_exit+0x10>
   12100:	0000006f          	j	12100 <_exit+0xc>
   12104:	ff010113          	addi	sp,sp,-16
   12108:	00812423          	sw	s0,8(sp)
   1210c:	00050413          	mv	s0,a0
   12110:	00112623          	sw	ra,12(sp)
   12114:	40800433          	neg	s0,s0
   12118:	00c000ef          	jal	ra,12124 <__errno>
   1211c:	00852023          	sw	s0,0(a0) # 15000 <__FRAME_END__>
   12120:	0000006f          	j	12120 <_exit+0x2c>

00012124 <__errno>:
   12124:	e4c1a503          	lw	a0,-436(gp) # 1565c <_impure_ptr>
   12128:	00008067          	ret
