
./arm-benchmarks/src/nsichneu/nsichneu:     file format elf32-littlearm


Disassembly of section .init:

00008000 <_init>:
    8000:	b5f8      	push	{r3, r4, r5, r6, r7, lr}
    8002:	bf00      	nop
    8004:	bcf8      	pop	{r3, r4, r5, r6, r7}
    8006:	bc08      	pop	{r3}
    8008:	469e      	mov	lr, r3
    800a:	4770      	bx	lr

Disassembly of section .text:

0000800c <exit>:
    800c:	b508      	push	{r3, lr}
    800e:	2100      	movs	r1, #0
    8010:	4604      	mov	r4, r0
    8012:	f006 fd6b 	bl	eaec <__call_exitprocs>
    8016:	4b04      	ldr	r3, [pc, #16]	; (8028 <exit+0x1c>)
    8018:	6818      	ldr	r0, [r3, #0]
    801a:	6bc3      	ldr	r3, [r0, #60]	; 0x3c
    801c:	b103      	cbz	r3, 8020 <exit+0x14>
    801e:	4798      	blx	r3
    8020:	4620      	mov	r0, r4
    8022:	f006 fe2b 	bl	ec7c <_exit>
    8026:	bf00      	nop
    8028:	0000ec8c 	.word	0x0000ec8c

0000802c <register_fini>:
    802c:	4b02      	ldr	r3, [pc, #8]	; (8038 <register_fini+0xc>)
    802e:	b113      	cbz	r3, 8036 <register_fini+0xa>
    8030:	4802      	ldr	r0, [pc, #8]	; (803c <register_fini+0x10>)
    8032:	f006 bdbd 	b.w	ebb0 <atexit>
    8036:	4770      	bx	lr
    8038:	00000000 	.word	0x00000000
    803c:	0000ebbd 	.word	0x0000ebbd

00008040 <__do_global_dtors_aux>:
    8040:	b510      	push	{r4, lr}
    8042:	4c05      	ldr	r4, [pc, #20]	; (8058 <__do_global_dtors_aux+0x18>)
    8044:	7823      	ldrb	r3, [r4, #0]
    8046:	b933      	cbnz	r3, 8056 <__do_global_dtors_aux+0x16>
    8048:	4b04      	ldr	r3, [pc, #16]	; (805c <__do_global_dtors_aux+0x1c>)
    804a:	b113      	cbz	r3, 8052 <__do_global_dtors_aux+0x12>
    804c:	4804      	ldr	r0, [pc, #16]	; (8060 <__do_global_dtors_aux+0x20>)
    804e:	f3af 8000 	nop.w
    8052:	2301      	movs	r3, #1
    8054:	7023      	strb	r3, [r4, #0]
    8056:	bd10      	pop	{r4, pc}
    8058:	0001f0dc 	.word	0x0001f0dc
    805c:	00000000 	.word	0x00000000
    8060:	0000ec98 	.word	0x0000ec98

00008064 <frame_dummy>:
    8064:	b508      	push	{r3, lr}
    8066:	4b03      	ldr	r3, [pc, #12]	; (8074 <frame_dummy+0x10>)
    8068:	b11b      	cbz	r3, 8072 <frame_dummy+0xe>
    806a:	4903      	ldr	r1, [pc, #12]	; (8078 <frame_dummy+0x14>)
    806c:	4803      	ldr	r0, [pc, #12]	; (807c <frame_dummy+0x18>)
    806e:	f3af 8000 	nop.w
    8072:	bd08      	pop	{r3, pc}
    8074:	00000000 	.word	0x00000000
    8078:	0001f0e0 	.word	0x0001f0e0
    807c:	0000ec98 	.word	0x0000ec98

00008080 <_stack_init>:
    8080:	f5a3 3a80 	sub.w	sl, r3, #65536	; 0x10000
    8084:	4770      	bx	lr
    8086:	bf00      	nop

00008088 <_mainCRTStartup>:
    8088:	4b17      	ldr	r3, [pc, #92]	; (80e8 <_mainCRTStartup+0x60>)
    808a:	2b00      	cmp	r3, #0
    808c:	bf08      	it	eq
    808e:	4b13      	ldreq	r3, [pc, #76]	; (80dc <_mainCRTStartup+0x54>)
    8090:	469d      	mov	sp, r3
    8092:	f7ff fff5 	bl	8080 <_stack_init>
    8096:	2100      	movs	r1, #0
    8098:	468b      	mov	fp, r1
    809a:	460f      	mov	r7, r1
    809c:	4813      	ldr	r0, [pc, #76]	; (80ec <_mainCRTStartup+0x64>)
    809e:	4a14      	ldr	r2, [pc, #80]	; (80f0 <_mainCRTStartup+0x68>)
    80a0:	1a12      	subs	r2, r2, r0
    80a2:	f006 fcd1 	bl	ea48 <memset>
    80a6:	4b0e      	ldr	r3, [pc, #56]	; (80e0 <_mainCRTStartup+0x58>)
    80a8:	2b00      	cmp	r3, #0
    80aa:	d000      	beq.n	80ae <_mainCRTStartup+0x26>
    80ac:	4798      	blx	r3
    80ae:	4b0d      	ldr	r3, [pc, #52]	; (80e4 <_mainCRTStartup+0x5c>)
    80b0:	2b00      	cmp	r3, #0
    80b2:	d000      	beq.n	80b6 <_mainCRTStartup+0x2e>
    80b4:	4798      	blx	r3
    80b6:	2000      	movs	r0, #0
    80b8:	2100      	movs	r1, #0
    80ba:	0004      	movs	r4, r0
    80bc:	000d      	movs	r5, r1
    80be:	480d      	ldr	r0, [pc, #52]	; (80f4 <_mainCRTStartup+0x6c>)
    80c0:	2800      	cmp	r0, #0
    80c2:	d002      	beq.n	80ca <_mainCRTStartup+0x42>
    80c4:	480c      	ldr	r0, [pc, #48]	; (80f8 <_mainCRTStartup+0x70>)
    80c6:	f006 fd73 	bl	ebb0 <atexit>
    80ca:	f006 fc99 	bl	ea00 <__libc_init_array>
    80ce:	0020      	movs	r0, r4
    80d0:	0029      	movs	r1, r5
    80d2:	f006 fc71 	bl	e9b8 <main>
    80d6:	f7ff ff99 	bl	800c <exit>
    80da:	bf00      	nop
    80dc:	00080000 	.word	0x00080000
    80e0:	00000000 	.word	0x00000000
    80e4:	00000000 	.word	0x00000000
    80e8:	00000000 	.word	0x00000000
    80ec:	0001f0dc 	.word	0x0001f0dc
    80f0:	0001f138 	.word	0x0001f138
    80f4:	0000ebb1 	.word	0x0000ebb1
    80f8:	0000ebbd 	.word	0x0000ebbd

000080fc <initialise_benchmark>:
    80fc:	b480      	push	{r7}
    80fe:	af00      	add	r7, sp, #0
    8100:	bf00      	nop
    8102:	46bd      	mov	sp, r7
    8104:	bc80      	pop	{r7}
    8106:	4770      	bx	lr

00008108 <warm_caches>:
    8108:	b580      	push	{r7, lr}
    810a:	b084      	sub	sp, #16
    810c:	af00      	add	r7, sp, #0
    810e:	6078      	str	r0, [r7, #4]
    8110:	6878      	ldr	r0, [r7, #4]
    8112:	f000 f80f 	bl	8134 <benchmark_body>
    8116:	60f8      	str	r0, [r7, #12]
    8118:	bf00      	nop
    811a:	3710      	adds	r7, #16
    811c:	46bd      	mov	sp, r7
    811e:	bd80      	pop	{r7, pc}

00008120 <benchmark>:
    8120:	b580      	push	{r7, lr}
    8122:	af00      	add	r7, sp, #0
    8124:	f240 40cf 	movw	r0, #1231	; 0x4cf
    8128:	f000 f804 	bl	8134 <benchmark_body>
    812c:	4603      	mov	r3, r0
    812e:	4618      	mov	r0, r3
    8130:	bd80      	pop	{r7, pc}
    8132:	0000      	movs	r0, r0

00008134 <benchmark_body>:
    8134:	b480      	push	{r7}
    8136:	f2ad 5dfc 	subw	sp, sp, #1532	; 0x5fc
    813a:	af00      	add	r7, sp, #0
    813c:	f507 63bf 	add.w	r3, r7, #1528	; 0x5f8
    8140:	f2a3 53f4 	subw	r3, r3, #1524	; 0x5f4
    8144:	6018      	str	r0, [r3, #0]
    8146:	2300      	movs	r3, #0
    8148:	f8c7 35f4 	str.w	r3, [r7, #1524]	; 0x5f4
    814c:	f006 bb3a 	b.w	e7c4 <benchmark_body+0x6690>
    8150:	4ba3      	ldr	r3, [pc, #652]	; (83e0 <benchmark_body+0x2ac>)
    8152:	2203      	movs	r2, #3
    8154:	601a      	str	r2, [r3, #0]
    8156:	4ba3      	ldr	r3, [pc, #652]	; (83e4 <benchmark_body+0x2b0>)
    8158:	2205      	movs	r2, #5
    815a:	601a      	str	r2, [r3, #0]
    815c:	4ba2      	ldr	r3, [pc, #648]	; (83e8 <benchmark_body+0x2b4>)
    815e:	2200      	movs	r2, #0
    8160:	601a      	str	r2, [r3, #0]
    8162:	4b9f      	ldr	r3, [pc, #636]	; (83e0 <benchmark_body+0x2ac>)
    8164:	681b      	ldr	r3, [r3, #0]
    8166:	2b02      	cmp	r3, #2
    8168:	dd3f      	ble.n	81ea <benchmark_body+0xb6>
    816a:	4b9f      	ldr	r3, [pc, #636]	; (83e8 <benchmark_body+0x2b4>)
    816c:	681b      	ldr	r3, [r3, #0]
    816e:	2b03      	cmp	r3, #3
    8170:	dc3b      	bgt.n	81ea <benchmark_body+0xb6>
    8172:	4b9e      	ldr	r3, [pc, #632]	; (83ec <benchmark_body+0x2b8>)
    8174:	685a      	ldr	r2, [r3, #4]
    8176:	4b9d      	ldr	r3, [pc, #628]	; (83ec <benchmark_body+0x2b8>)
    8178:	689b      	ldr	r3, [r3, #8]
    817a:	429a      	cmp	r2, r3
    817c:	d135      	bne.n	81ea <benchmark_body+0xb6>
    817e:	4b9b      	ldr	r3, [pc, #620]	; (83ec <benchmark_body+0x2b8>)
    8180:	681b      	ldr	r3, [r3, #0]
    8182:	f8c7 35f0 	str.w	r3, [r7, #1520]	; 0x5f0
    8186:	4b99      	ldr	r3, [pc, #612]	; (83ec <benchmark_body+0x2b8>)
    8188:	685b      	ldr	r3, [r3, #4]
    818a:	f8c7 35ec 	str.w	r3, [r7, #1516]	; 0x5ec
    818e:	f8d7 25f0 	ldr.w	r2, [r7, #1520]	; 0x5f0
    8192:	f8d7 35ec 	ldr.w	r3, [r7, #1516]	; 0x5ec
    8196:	429a      	cmp	r2, r3
    8198:	da27      	bge.n	81ea <benchmark_body+0xb6>
    819a:	4b91      	ldr	r3, [pc, #580]	; (83e0 <benchmark_body+0x2ac>)
    819c:	681b      	ldr	r3, [r3, #0]
    819e:	3b03      	subs	r3, #3
    81a0:	4a8f      	ldr	r2, [pc, #572]	; (83e0 <benchmark_body+0x2ac>)
    81a2:	6013      	str	r3, [r2, #0]
    81a4:	f8d7 25f0 	ldr.w	r2, [r7, #1520]	; 0x5f0
    81a8:	f8d7 35ec 	ldr.w	r3, [r7, #1516]	; 0x5ec
    81ac:	1ad3      	subs	r3, r2, r3
    81ae:	f8c7 35e8 	str.w	r3, [r7, #1512]	; 0x5e8
    81b2:	4b8d      	ldr	r3, [pc, #564]	; (83e8 <benchmark_body+0x2b4>)
    81b4:	681b      	ldr	r3, [r3, #0]
    81b6:	498e      	ldr	r1, [pc, #568]	; (83f0 <benchmark_body+0x2bc>)
    81b8:	f8d7 25f0 	ldr.w	r2, [r7, #1520]	; 0x5f0
    81bc:	f841 2023 	str.w	r2, [r1, r3, lsl #2]
    81c0:	4b89      	ldr	r3, [pc, #548]	; (83e8 <benchmark_body+0x2b4>)
    81c2:	681b      	ldr	r3, [r3, #0]
    81c4:	3301      	adds	r3, #1
    81c6:	498a      	ldr	r1, [pc, #552]	; (83f0 <benchmark_body+0x2bc>)
    81c8:	f8d7 25ec 	ldr.w	r2, [r7, #1516]	; 0x5ec
    81cc:	f841 2023 	str.w	r2, [r1, r3, lsl #2]
    81d0:	4b85      	ldr	r3, [pc, #532]	; (83e8 <benchmark_body+0x2b4>)
    81d2:	681b      	ldr	r3, [r3, #0]
    81d4:	3302      	adds	r3, #2
    81d6:	4986      	ldr	r1, [pc, #536]	; (83f0 <benchmark_body+0x2bc>)
    81d8:	f8d7 25e8 	ldr.w	r2, [r7, #1512]	; 0x5e8
    81dc:	f841 2023 	str.w	r2, [r1, r3, lsl #2]
    81e0:	4b81      	ldr	r3, [pc, #516]	; (83e8 <benchmark_body+0x2b4>)
    81e2:	681b      	ldr	r3, [r3, #0]
    81e4:	3303      	adds	r3, #3
    81e6:	4a80      	ldr	r2, [pc, #512]	; (83e8 <benchmark_body+0x2b4>)
    81e8:	6013      	str	r3, [r2, #0]
    81ea:	4b7d      	ldr	r3, [pc, #500]	; (83e0 <benchmark_body+0x2ac>)
    81ec:	681b      	ldr	r3, [r3, #0]
    81ee:	2b02      	cmp	r3, #2
    81f0:	dd3f      	ble.n	8272 <benchmark_body+0x13e>
    81f2:	4b7d      	ldr	r3, [pc, #500]	; (83e8 <benchmark_body+0x2b4>)
    81f4:	681b      	ldr	r3, [r3, #0]
    81f6:	2b03      	cmp	r3, #3
    81f8:	dc3b      	bgt.n	8272 <benchmark_body+0x13e>
    81fa:	4b7c      	ldr	r3, [pc, #496]	; (83ec <benchmark_body+0x2b8>)
    81fc:	689a      	ldr	r2, [r3, #8]
    81fe:	4b7b      	ldr	r3, [pc, #492]	; (83ec <benchmark_body+0x2b8>)
    8200:	685b      	ldr	r3, [r3, #4]
    8202:	429a      	cmp	r2, r3
    8204:	d135      	bne.n	8272 <benchmark_body+0x13e>
    8206:	4b79      	ldr	r3, [pc, #484]	; (83ec <benchmark_body+0x2b8>)
    8208:	681b      	ldr	r3, [r3, #0]
    820a:	f8c7 35e4 	str.w	r3, [r7, #1508]	; 0x5e4
    820e:	4b77      	ldr	r3, [pc, #476]	; (83ec <benchmark_body+0x2b8>)
    8210:	689b      	ldr	r3, [r3, #8]
    8212:	f8c7 35e0 	str.w	r3, [r7, #1504]	; 0x5e0
    8216:	f8d7 25e4 	ldr.w	r2, [r7, #1508]	; 0x5e4
    821a:	f8d7 35e0 	ldr.w	r3, [r7, #1504]	; 0x5e0
    821e:	429a      	cmp	r2, r3
    8220:	da27      	bge.n	8272 <benchmark_body+0x13e>
    8222:	4b6f      	ldr	r3, [pc, #444]	; (83e0 <benchmark_body+0x2ac>)
    8224:	681b      	ldr	r3, [r3, #0]
    8226:	3b03      	subs	r3, #3
    8228:	4a6d      	ldr	r2, [pc, #436]	; (83e0 <benchmark_body+0x2ac>)
    822a:	6013      	str	r3, [r2, #0]
    822c:	f8d7 25e4 	ldr.w	r2, [r7, #1508]	; 0x5e4
    8230:	f8d7 35e0 	ldr.w	r3, [r7, #1504]	; 0x5e0
    8234:	1ad3      	subs	r3, r2, r3
    8236:	f8c7 35dc 	str.w	r3, [r7, #1500]	; 0x5dc
    823a:	4b6b      	ldr	r3, [pc, #428]	; (83e8 <benchmark_body+0x2b4>)
    823c:	681b      	ldr	r3, [r3, #0]
    823e:	496c      	ldr	r1, [pc, #432]	; (83f0 <benchmark_body+0x2bc>)
    8240:	f8d7 25e4 	ldr.w	r2, [r7, #1508]	; 0x5e4
    8244:	f841 2023 	str.w	r2, [r1, r3, lsl #2]
    8248:	4b67      	ldr	r3, [pc, #412]	; (83e8 <benchmark_body+0x2b4>)
    824a:	681b      	ldr	r3, [r3, #0]
    824c:	3301      	adds	r3, #1
    824e:	4968      	ldr	r1, [pc, #416]	; (83f0 <benchmark_body+0x2bc>)
    8250:	f8d7 25e0 	ldr.w	r2, [r7, #1504]	; 0x5e0
    8254:	f841 2023 	str.w	r2, [r1, r3, lsl #2]
    8258:	4b63      	ldr	r3, [pc, #396]	; (83e8 <benchmark_body+0x2b4>)
    825a:	681b      	ldr	r3, [r3, #0]
    825c:	3302      	adds	r3, #2
    825e:	4964      	ldr	r1, [pc, #400]	; (83f0 <benchmark_body+0x2bc>)
    8260:	f8d7 25dc 	ldr.w	r2, [r7, #1500]	; 0x5dc
    8264:	f841 2023 	str.w	r2, [r1, r3, lsl #2]
    8268:	4b5f      	ldr	r3, [pc, #380]	; (83e8 <benchmark_body+0x2b4>)
    826a:	681b      	ldr	r3, [r3, #0]
    826c:	3303      	adds	r3, #3
    826e:	4a5e      	ldr	r2, [pc, #376]	; (83e8 <benchmark_body+0x2b4>)
    8270:	6013      	str	r3, [r2, #0]
    8272:	4b5b      	ldr	r3, [pc, #364]	; (83e0 <benchmark_body+0x2ac>)
    8274:	681b      	ldr	r3, [r3, #0]
    8276:	2b02      	cmp	r3, #2
    8278:	dd3f      	ble.n	82fa <benchmark_body+0x1c6>
    827a:	4b5b      	ldr	r3, [pc, #364]	; (83e8 <benchmark_body+0x2b4>)
    827c:	681b      	ldr	r3, [r3, #0]
    827e:	2b03      	cmp	r3, #3
    8280:	dc3b      	bgt.n	82fa <benchmark_body+0x1c6>
    8282:	4b5a      	ldr	r3, [pc, #360]	; (83ec <benchmark_body+0x2b8>)
    8284:	681a      	ldr	r2, [r3, #0]
    8286:	4b59      	ldr	r3, [pc, #356]	; (83ec <benchmark_body+0x2b8>)
    8288:	689b      	ldr	r3, [r3, #8]
    828a:	429a      	cmp	r2, r3
    828c:	d135      	bne.n	82fa <benchmark_body+0x1c6>
    828e:	4b57      	ldr	r3, [pc, #348]	; (83ec <benchmark_body+0x2b8>)
    8290:	685b      	ldr	r3, [r3, #4]
    8292:	f8c7 35d8 	str.w	r3, [r7, #1496]	; 0x5d8
    8296:	4b55      	ldr	r3, [pc, #340]	; (83ec <benchmark_body+0x2b8>)
    8298:	681b      	ldr	r3, [r3, #0]
    829a:	f8c7 35d4 	str.w	r3, [r7, #1492]	; 0x5d4
    829e:	f8d7 25d8 	ldr.w	r2, [r7, #1496]	; 0x5d8
    82a2:	f8d7 35d4 	ldr.w	r3, [r7, #1492]	; 0x5d4
    82a6:	429a      	cmp	r2, r3
    82a8:	da27      	bge.n	82fa <benchmark_body+0x1c6>
    82aa:	4b4d      	ldr	r3, [pc, #308]	; (83e0 <benchmark_body+0x2ac>)
    82ac:	681b      	ldr	r3, [r3, #0]
    82ae:	3b03      	subs	r3, #3
    82b0:	4a4b      	ldr	r2, [pc, #300]	; (83e0 <benchmark_body+0x2ac>)
    82b2:	6013      	str	r3, [r2, #0]
    82b4:	f8d7 25d8 	ldr.w	r2, [r7, #1496]	; 0x5d8
    82b8:	f8d7 35d4 	ldr.w	r3, [r7, #1492]	; 0x5d4
    82bc:	1ad3      	subs	r3, r2, r3
    82be:	f8c7 35d0 	str.w	r3, [r7, #1488]	; 0x5d0
    82c2:	4b49      	ldr	r3, [pc, #292]	; (83e8 <benchmark_body+0x2b4>)
    82c4:	681b      	ldr	r3, [r3, #0]
    82c6:	494a      	ldr	r1, [pc, #296]	; (83f0 <benchmark_body+0x2bc>)
    82c8:	f8d7 25d8 	ldr.w	r2, [r7, #1496]	; 0x5d8
    82cc:	f841 2023 	str.w	r2, [r1, r3, lsl #2]
    82d0:	4b45      	ldr	r3, [pc, #276]	; (83e8 <benchmark_body+0x2b4>)
    82d2:	681b      	ldr	r3, [r3, #0]
    82d4:	3301      	adds	r3, #1
    82d6:	4946      	ldr	r1, [pc, #280]	; (83f0 <benchmark_body+0x2bc>)
    82d8:	f8d7 25d4 	ldr.w	r2, [r7, #1492]	; 0x5d4
    82dc:	f841 2023 	str.w	r2, [r1, r3, lsl #2]
    82e0:	4b41      	ldr	r3, [pc, #260]	; (83e8 <benchmark_body+0x2b4>)
    82e2:	681b      	ldr	r3, [r3, #0]
    82e4:	3302      	adds	r3, #2
    82e6:	4942      	ldr	r1, [pc, #264]	; (83f0 <benchmark_body+0x2bc>)
    82e8:	f8d7 25d0 	ldr.w	r2, [r7, #1488]	; 0x5d0
    82ec:	f841 2023 	str.w	r2, [r1, r3, lsl #2]
    82f0:	4b3d      	ldr	r3, [pc, #244]	; (83e8 <benchmark_body+0x2b4>)
    82f2:	681b      	ldr	r3, [r3, #0]
    82f4:	3303      	adds	r3, #3
    82f6:	4a3c      	ldr	r2, [pc, #240]	; (83e8 <benchmark_body+0x2b4>)
    82f8:	6013      	str	r3, [r2, #0]
    82fa:	4b39      	ldr	r3, [pc, #228]	; (83e0 <benchmark_body+0x2ac>)
    82fc:	681b      	ldr	r3, [r3, #0]
    82fe:	2b02      	cmp	r3, #2
    8300:	dd3f      	ble.n	8382 <benchmark_body+0x24e>
    8302:	4b39      	ldr	r3, [pc, #228]	; (83e8 <benchmark_body+0x2b4>)
    8304:	681b      	ldr	r3, [r3, #0]
    8306:	2b03      	cmp	r3, #3
    8308:	dc3b      	bgt.n	8382 <benchmark_body+0x24e>
    830a:	4b38      	ldr	r3, [pc, #224]	; (83ec <benchmark_body+0x2b8>)
    830c:	689a      	ldr	r2, [r3, #8]
    830e:	4b37      	ldr	r3, [pc, #220]	; (83ec <benchmark_body+0x2b8>)
    8310:	681b      	ldr	r3, [r3, #0]
    8312:	429a      	cmp	r2, r3
    8314:	d135      	bne.n	8382 <benchmark_body+0x24e>
    8316:	4b35      	ldr	r3, [pc, #212]	; (83ec <benchmark_body+0x2b8>)
    8318:	685b      	ldr	r3, [r3, #4]
    831a:	f8c7 35cc 	str.w	r3, [r7, #1484]	; 0x5cc
    831e:	4b33      	ldr	r3, [pc, #204]	; (83ec <benchmark_body+0x2b8>)
    8320:	689b      	ldr	r3, [r3, #8]
    8322:	f8c7 35c8 	str.w	r3, [r7, #1480]	; 0x5c8
    8326:	f8d7 25cc 	ldr.w	r2, [r7, #1484]	; 0x5cc
    832a:	f8d7 35c8 	ldr.w	r3, [r7, #1480]	; 0x5c8
    832e:	429a      	cmp	r2, r3
    8330:	da27      	bge.n	8382 <benchmark_body+0x24e>
    8332:	4b2b      	ldr	r3, [pc, #172]	; (83e0 <benchmark_body+0x2ac>)
    8334:	681b      	ldr	r3, [r3, #0]
    8336:	3b03      	subs	r3, #3
    8338:	4a29      	ldr	r2, [pc, #164]	; (83e0 <benchmark_body+0x2ac>)
    833a:	6013      	str	r3, [r2, #0]
    833c:	f8d7 25cc 	ldr.w	r2, [r7, #1484]	; 0x5cc
    8340:	f8d7 35c8 	ldr.w	r3, [r7, #1480]	; 0x5c8
    8344:	1ad3      	subs	r3, r2, r3
    8346:	f8c7 35c4 	str.w	r3, [r7, #1476]	; 0x5c4
    834a:	4b27      	ldr	r3, [pc, #156]	; (83e8 <benchmark_body+0x2b4>)
    834c:	681b      	ldr	r3, [r3, #0]
    834e:	4928      	ldr	r1, [pc, #160]	; (83f0 <benchmark_body+0x2bc>)
    8350:	f8d7 25cc 	ldr.w	r2, [r7, #1484]	; 0x5cc
    8354:	f841 2023 	str.w	r2, [r1, r3, lsl #2]
    8358:	4b23      	ldr	r3, [pc, #140]	; (83e8 <benchmark_body+0x2b4>)
    835a:	681b      	ldr	r3, [r3, #0]
    835c:	3301      	adds	r3, #1
    835e:	4924      	ldr	r1, [pc, #144]	; (83f0 <benchmark_body+0x2bc>)
    8360:	f8d7 25c8 	ldr.w	r2, [r7, #1480]	; 0x5c8
    8364:	f841 2023 	str.w	r2, [r1, r3, lsl #2]
    8368:	4b1f      	ldr	r3, [pc, #124]	; (83e8 <benchmark_body+0x2b4>)
    836a:	681b      	ldr	r3, [r3, #0]
    836c:	3302      	adds	r3, #2
    836e:	4920      	ldr	r1, [pc, #128]	; (83f0 <benchmark_body+0x2bc>)
    8370:	f8d7 25c4 	ldr.w	r2, [r7, #1476]	; 0x5c4
    8374:	f841 2023 	str.w	r2, [r1, r3, lsl #2]
    8378:	4b1b      	ldr	r3, [pc, #108]	; (83e8 <benchmark_body+0x2b4>)
    837a:	681b      	ldr	r3, [r3, #0]
    837c:	3303      	adds	r3, #3
    837e:	4a1a      	ldr	r2, [pc, #104]	; (83e8 <benchmark_body+0x2b4>)
    8380:	6013      	str	r3, [r2, #0]
    8382:	4b17      	ldr	r3, [pc, #92]	; (83e0 <benchmark_body+0x2ac>)
    8384:	681b      	ldr	r3, [r3, #0]
    8386:	2b02      	cmp	r3, #2
    8388:	dd4b      	ble.n	8422 <benchmark_body+0x2ee>
    838a:	4b17      	ldr	r3, [pc, #92]	; (83e8 <benchmark_body+0x2b4>)
    838c:	681b      	ldr	r3, [r3, #0]
    838e:	2b03      	cmp	r3, #3
    8390:	dc47      	bgt.n	8422 <benchmark_body+0x2ee>
    8392:	4b16      	ldr	r3, [pc, #88]	; (83ec <benchmark_body+0x2b8>)
    8394:	681a      	ldr	r2, [r3, #0]
    8396:	4b15      	ldr	r3, [pc, #84]	; (83ec <benchmark_body+0x2b8>)
    8398:	685b      	ldr	r3, [r3, #4]
    839a:	429a      	cmp	r2, r3
    839c:	d141      	bne.n	8422 <benchmark_body+0x2ee>
    839e:	4b13      	ldr	r3, [pc, #76]	; (83ec <benchmark_body+0x2b8>)
    83a0:	689b      	ldr	r3, [r3, #8]
    83a2:	f8c7 35c0 	str.w	r3, [r7, #1472]	; 0x5c0
    83a6:	4b11      	ldr	r3, [pc, #68]	; (83ec <benchmark_body+0x2b8>)
    83a8:	681b      	ldr	r3, [r3, #0]
    83aa:	f8c7 35bc 	str.w	r3, [r7, #1468]	; 0x5bc
    83ae:	f8d7 25c0 	ldr.w	r2, [r7, #1472]	; 0x5c0
    83b2:	f8d7 35bc 	ldr.w	r3, [r7, #1468]	; 0x5bc
    83b6:	429a      	cmp	r2, r3
    83b8:	da33      	bge.n	8422 <benchmark_body+0x2ee>
    83ba:	4b09      	ldr	r3, [pc, #36]	; (83e0 <benchmark_body+0x2ac>)
    83bc:	681b      	ldr	r3, [r3, #0]
    83be:	3b03      	subs	r3, #3
    83c0:	4a07      	ldr	r2, [pc, #28]	; (83e0 <benchmark_body+0x2ac>)
    83c2:	6013      	str	r3, [r2, #0]
    83c4:	f8d7 25c0 	ldr.w	r2, [r7, #1472]	; 0x5c0
    83c8:	f8d7 35bc 	ldr.w	r3, [r7, #1468]	; 0x5bc
    83cc:	1ad3      	subs	r3, r2, r3
    83ce:	f8c7 35b8 	str.w	r3, [r7, #1464]	; 0x5b8
    83d2:	4b05      	ldr	r3, [pc, #20]	; (83e8 <benchmark_body+0x2b4>)
    83d4:	681b      	ldr	r3, [r3, #0]
    83d6:	4906      	ldr	r1, [pc, #24]	; (83f0 <benchmark_body+0x2bc>)
    83d8:	f8d7 25c0 	ldr.w	r2, [r7, #1472]	; 0x5c0
    83dc:	e00a      	b.n	83f4 <benchmark_body+0x2c0>
    83de:	bf00      	nop
    83e0:	0001eca8 	.word	0x0001eca8
    83e4:	0001ecac 	.word	0x0001ecac
    83e8:	0001f118 	.word	0x0001f118
    83ec:	0001f0f8 	.word	0x0001f0f8
    83f0:	0001f11c 	.word	0x0001f11c
    83f4:	f841 2023 	str.w	r2, [r1, r3, lsl #2]
    83f8:	4ba0      	ldr	r3, [pc, #640]	; (867c <benchmark_body+0x548>)
    83fa:	681b      	ldr	r3, [r3, #0]
    83fc:	3301      	adds	r3, #1
    83fe:	49a0      	ldr	r1, [pc, #640]	; (8680 <benchmark_body+0x54c>)
    8400:	f8d7 25bc 	ldr.w	r2, [r7, #1468]	; 0x5bc
    8404:	f841 2023 	str.w	r2, [r1, r3, lsl #2]
    8408:	4b9c      	ldr	r3, [pc, #624]	; (867c <benchmark_body+0x548>)
    840a:	681b      	ldr	r3, [r3, #0]
    840c:	3302      	adds	r3, #2
    840e:	499c      	ldr	r1, [pc, #624]	; (8680 <benchmark_body+0x54c>)
    8410:	f8d7 25b8 	ldr.w	r2, [r7, #1464]	; 0x5b8
    8414:	f841 2023 	str.w	r2, [r1, r3, lsl #2]
    8418:	4b98      	ldr	r3, [pc, #608]	; (867c <benchmark_body+0x548>)
    841a:	681b      	ldr	r3, [r3, #0]
    841c:	3303      	adds	r3, #3
    841e:	4a97      	ldr	r2, [pc, #604]	; (867c <benchmark_body+0x548>)
    8420:	6013      	str	r3, [r2, #0]
    8422:	4b98      	ldr	r3, [pc, #608]	; (8684 <benchmark_body+0x550>)
    8424:	681b      	ldr	r3, [r3, #0]
    8426:	2b02      	cmp	r3, #2
    8428:	dd3f      	ble.n	84aa <benchmark_body+0x376>
    842a:	4b94      	ldr	r3, [pc, #592]	; (867c <benchmark_body+0x548>)
    842c:	681b      	ldr	r3, [r3, #0]
    842e:	2b03      	cmp	r3, #3
    8430:	dc3b      	bgt.n	84aa <benchmark_body+0x376>
    8432:	4b95      	ldr	r3, [pc, #596]	; (8688 <benchmark_body+0x554>)
    8434:	685a      	ldr	r2, [r3, #4]
    8436:	4b94      	ldr	r3, [pc, #592]	; (8688 <benchmark_body+0x554>)
    8438:	681b      	ldr	r3, [r3, #0]
    843a:	429a      	cmp	r2, r3
    843c:	d135      	bne.n	84aa <benchmark_body+0x376>
    843e:	4b92      	ldr	r3, [pc, #584]	; (8688 <benchmark_body+0x554>)
    8440:	689b      	ldr	r3, [r3, #8]
    8442:	f8c7 35b4 	str.w	r3, [r7, #1460]	; 0x5b4
    8446:	4b90      	ldr	r3, [pc, #576]	; (8688 <benchmark_body+0x554>)
    8448:	685b      	ldr	r3, [r3, #4]
    844a:	f8c7 35b0 	str.w	r3, [r7, #1456]	; 0x5b0
    844e:	f8d7 25b4 	ldr.w	r2, [r7, #1460]	; 0x5b4
    8452:	f8d7 35b0 	ldr.w	r3, [r7, #1456]	; 0x5b0
    8456:	429a      	cmp	r2, r3
    8458:	da27      	bge.n	84aa <benchmark_body+0x376>
    845a:	4b8a      	ldr	r3, [pc, #552]	; (8684 <benchmark_body+0x550>)
    845c:	681b      	ldr	r3, [r3, #0]
    845e:	3b03      	subs	r3, #3
    8460:	4a88      	ldr	r2, [pc, #544]	; (8684 <benchmark_body+0x550>)
    8462:	6013      	str	r3, [r2, #0]
    8464:	f8d7 25b4 	ldr.w	r2, [r7, #1460]	; 0x5b4
    8468:	f8d7 35b0 	ldr.w	r3, [r7, #1456]	; 0x5b0
    846c:	1ad3      	subs	r3, r2, r3
    846e:	f8c7 35ac 	str.w	r3, [r7, #1452]	; 0x5ac
    8472:	4b82      	ldr	r3, [pc, #520]	; (867c <benchmark_body+0x548>)
    8474:	681b      	ldr	r3, [r3, #0]
    8476:	4982      	ldr	r1, [pc, #520]	; (8680 <benchmark_body+0x54c>)
    8478:	f8d7 25b4 	ldr.w	r2, [r7, #1460]	; 0x5b4
    847c:	f841 2023 	str.w	r2, [r1, r3, lsl #2]
    8480:	4b7e      	ldr	r3, [pc, #504]	; (867c <benchmark_body+0x548>)
    8482:	681b      	ldr	r3, [r3, #0]
    8484:	3301      	adds	r3, #1
    8486:	497e      	ldr	r1, [pc, #504]	; (8680 <benchmark_body+0x54c>)
    8488:	f8d7 25b0 	ldr.w	r2, [r7, #1456]	; 0x5b0
    848c:	f841 2023 	str.w	r2, [r1, r3, lsl #2]
    8490:	4b7a      	ldr	r3, [pc, #488]	; (867c <benchmark_body+0x548>)
    8492:	681b      	ldr	r3, [r3, #0]
    8494:	3302      	adds	r3, #2
    8496:	497a      	ldr	r1, [pc, #488]	; (8680 <benchmark_body+0x54c>)
    8498:	f8d7 25ac 	ldr.w	r2, [r7, #1452]	; 0x5ac
    849c:	f841 2023 	str.w	r2, [r1, r3, lsl #2]
    84a0:	4b76      	ldr	r3, [pc, #472]	; (867c <benchmark_body+0x548>)
    84a2:	681b      	ldr	r3, [r3, #0]
    84a4:	3303      	adds	r3, #3
    84a6:	4a75      	ldr	r2, [pc, #468]	; (867c <benchmark_body+0x548>)
    84a8:	6013      	str	r3, [r2, #0]
    84aa:	4b78      	ldr	r3, [pc, #480]	; (868c <benchmark_body+0x558>)
    84ac:	681b      	ldr	r3, [r3, #0]
    84ae:	2b03      	cmp	r3, #3
    84b0:	dd45      	ble.n	853e <benchmark_body+0x40a>
    84b2:	4b72      	ldr	r3, [pc, #456]	; (867c <benchmark_body+0x548>)
    84b4:	681b      	ldr	r3, [r3, #0]
    84b6:	2b03      	cmp	r3, #3
    84b8:	dc41      	bgt.n	853e <benchmark_body+0x40a>
    84ba:	4b75      	ldr	r3, [pc, #468]	; (8690 <benchmark_body+0x55c>)
    84bc:	685a      	ldr	r2, [r3, #4]
    84be:	4b74      	ldr	r3, [pc, #464]	; (8690 <benchmark_body+0x55c>)
    84c0:	689b      	ldr	r3, [r3, #8]
    84c2:	429a      	cmp	r2, r3
    84c4:	d13b      	bne.n	853e <benchmark_body+0x40a>
    84c6:	4b72      	ldr	r3, [pc, #456]	; (8690 <benchmark_body+0x55c>)
    84c8:	685a      	ldr	r2, [r3, #4]
    84ca:	4b71      	ldr	r3, [pc, #452]	; (8690 <benchmark_body+0x55c>)
    84cc:	68db      	ldr	r3, [r3, #12]
    84ce:	429a      	cmp	r2, r3
    84d0:	d135      	bne.n	853e <benchmark_body+0x40a>
    84d2:	4b6f      	ldr	r3, [pc, #444]	; (8690 <benchmark_body+0x55c>)
    84d4:	681b      	ldr	r3, [r3, #0]
    84d6:	f8c7 35a8 	str.w	r3, [r7, #1448]	; 0x5a8
    84da:	4b6d      	ldr	r3, [pc, #436]	; (8690 <benchmark_body+0x55c>)
    84dc:	685b      	ldr	r3, [r3, #4]
    84de:	f8c7 35a4 	str.w	r3, [r7, #1444]	; 0x5a4
    84e2:	f8d7 25a4 	ldr.w	r2, [r7, #1444]	; 0x5a4
    84e6:	f8d7 35a8 	ldr.w	r3, [r7, #1448]	; 0x5a8
    84ea:	429a      	cmp	r2, r3
    84ec:	dd27      	ble.n	853e <benchmark_body+0x40a>
    84ee:	4b67      	ldr	r3, [pc, #412]	; (868c <benchmark_body+0x558>)
    84f0:	681b      	ldr	r3, [r3, #0]
    84f2:	3b04      	subs	r3, #4
    84f4:	4a65      	ldr	r2, [pc, #404]	; (868c <benchmark_body+0x558>)
    84f6:	6013      	str	r3, [r2, #0]
    84f8:	f8d7 25a8 	ldr.w	r2, [r7, #1448]	; 0x5a8
    84fc:	f8d7 35a4 	ldr.w	r3, [r7, #1444]	; 0x5a4
    8500:	4413      	add	r3, r2
    8502:	f8c7 35a0 	str.w	r3, [r7, #1440]	; 0x5a0
    8506:	4b5d      	ldr	r3, [pc, #372]	; (867c <benchmark_body+0x548>)
    8508:	681b      	ldr	r3, [r3, #0]
    850a:	495d      	ldr	r1, [pc, #372]	; (8680 <benchmark_body+0x54c>)
    850c:	f8d7 25a8 	ldr.w	r2, [r7, #1448]	; 0x5a8
    8510:	f841 2023 	str.w	r2, [r1, r3, lsl #2]
    8514:	4b59      	ldr	r3, [pc, #356]	; (867c <benchmark_body+0x548>)
    8516:	681b      	ldr	r3, [r3, #0]
    8518:	3301      	adds	r3, #1
    851a:	4959      	ldr	r1, [pc, #356]	; (8680 <benchmark_body+0x54c>)
    851c:	f8d7 25a4 	ldr.w	r2, [r7, #1444]	; 0x5a4
    8520:	f841 2023 	str.w	r2, [r1, r3, lsl #2]
    8524:	4b55      	ldr	r3, [pc, #340]	; (867c <benchmark_body+0x548>)
    8526:	681b      	ldr	r3, [r3, #0]
    8528:	3302      	adds	r3, #2
    852a:	4955      	ldr	r1, [pc, #340]	; (8680 <benchmark_body+0x54c>)
    852c:	f8d7 25a0 	ldr.w	r2, [r7, #1440]	; 0x5a0
    8530:	f841 2023 	str.w	r2, [r1, r3, lsl #2]
    8534:	4b51      	ldr	r3, [pc, #324]	; (867c <benchmark_body+0x548>)
    8536:	681b      	ldr	r3, [r3, #0]
    8538:	3303      	adds	r3, #3
    853a:	4a50      	ldr	r2, [pc, #320]	; (867c <benchmark_body+0x548>)
    853c:	6013      	str	r3, [r2, #0]
    853e:	4b53      	ldr	r3, [pc, #332]	; (868c <benchmark_body+0x558>)
    8540:	681b      	ldr	r3, [r3, #0]
    8542:	2b03      	cmp	r3, #3
    8544:	dd45      	ble.n	85d2 <benchmark_body+0x49e>
    8546:	4b4d      	ldr	r3, [pc, #308]	; (867c <benchmark_body+0x548>)
    8548:	681b      	ldr	r3, [r3, #0]
    854a:	2b03      	cmp	r3, #3
    854c:	dc41      	bgt.n	85d2 <benchmark_body+0x49e>
    854e:	4b50      	ldr	r3, [pc, #320]	; (8690 <benchmark_body+0x55c>)
    8550:	685a      	ldr	r2, [r3, #4]
    8552:	4b4f      	ldr	r3, [pc, #316]	; (8690 <benchmark_body+0x55c>)
    8554:	68db      	ldr	r3, [r3, #12]
    8556:	429a      	cmp	r2, r3
    8558:	d13b      	bne.n	85d2 <benchmark_body+0x49e>
    855a:	4b4d      	ldr	r3, [pc, #308]	; (8690 <benchmark_body+0x55c>)
    855c:	685a      	ldr	r2, [r3, #4]
    855e:	4b4c      	ldr	r3, [pc, #304]	; (8690 <benchmark_body+0x55c>)
    8560:	689b      	ldr	r3, [r3, #8]
    8562:	429a      	cmp	r2, r3
    8564:	d135      	bne.n	85d2 <benchmark_body+0x49e>
    8566:	4b4a      	ldr	r3, [pc, #296]	; (8690 <benchmark_body+0x55c>)
    8568:	681b      	ldr	r3, [r3, #0]
    856a:	f8c7 359c 	str.w	r3, [r7, #1436]	; 0x59c
    856e:	4b48      	ldr	r3, [pc, #288]	; (8690 <benchmark_body+0x55c>)
    8570:	685b      	ldr	r3, [r3, #4]
    8572:	f8c7 3598 	str.w	r3, [r7, #1432]	; 0x598
    8576:	f8d7 2598 	ldr.w	r2, [r7, #1432]	; 0x598
    857a:	f8d7 359c 	ldr.w	r3, [r7, #1436]	; 0x59c
    857e:	429a      	cmp	r2, r3
    8580:	dd27      	ble.n	85d2 <benchmark_body+0x49e>
    8582:	4b42      	ldr	r3, [pc, #264]	; (868c <benchmark_body+0x558>)
    8584:	681b      	ldr	r3, [r3, #0]
    8586:	3b04      	subs	r3, #4
    8588:	4a40      	ldr	r2, [pc, #256]	; (868c <benchmark_body+0x558>)
    858a:	6013      	str	r3, [r2, #0]
    858c:	f8d7 259c 	ldr.w	r2, [r7, #1436]	; 0x59c
    8590:	f8d7 3598 	ldr.w	r3, [r7, #1432]	; 0x598
    8594:	4413      	add	r3, r2
    8596:	f8c7 3594 	str.w	r3, [r7, #1428]	; 0x594
    859a:	4b38      	ldr	r3, [pc, #224]	; (867c <benchmark_body+0x548>)
    859c:	681b      	ldr	r3, [r3, #0]
    859e:	4938      	ldr	r1, [pc, #224]	; (8680 <benchmark_body+0x54c>)
    85a0:	f8d7 259c 	ldr.w	r2, [r7, #1436]	; 0x59c
    85a4:	f841 2023 	str.w	r2, [r1, r3, lsl #2]
    85a8:	4b34      	ldr	r3, [pc, #208]	; (867c <benchmark_body+0x548>)
    85aa:	681b      	ldr	r3, [r3, #0]
    85ac:	3301      	adds	r3, #1
    85ae:	4934      	ldr	r1, [pc, #208]	; (8680 <benchmark_body+0x54c>)
    85b0:	f8d7 2598 	ldr.w	r2, [r7, #1432]	; 0x598
    85b4:	f841 2023 	str.w	r2, [r1, r3, lsl #2]
    85b8:	4b30      	ldr	r3, [pc, #192]	; (867c <benchmark_body+0x548>)
    85ba:	681b      	ldr	r3, [r3, #0]
    85bc:	3302      	adds	r3, #2
    85be:	4930      	ldr	r1, [pc, #192]	; (8680 <benchmark_body+0x54c>)
    85c0:	f8d7 2594 	ldr.w	r2, [r7, #1428]	; 0x594
    85c4:	f841 2023 	str.w	r2, [r1, r3, lsl #2]
    85c8:	4b2c      	ldr	r3, [pc, #176]	; (867c <benchmark_body+0x548>)
    85ca:	681b      	ldr	r3, [r3, #0]
    85cc:	3303      	adds	r3, #3
    85ce:	4a2b      	ldr	r2, [pc, #172]	; (867c <benchmark_body+0x548>)
    85d0:	6013      	str	r3, [r2, #0]
    85d2:	4b2e      	ldr	r3, [pc, #184]	; (868c <benchmark_body+0x558>)
    85d4:	681b      	ldr	r3, [r3, #0]
    85d6:	2b03      	cmp	r3, #3
    85d8:	dd45      	ble.n	8666 <benchmark_body+0x532>
    85da:	4b28      	ldr	r3, [pc, #160]	; (867c <benchmark_body+0x548>)
    85dc:	681b      	ldr	r3, [r3, #0]
    85de:	2b03      	cmp	r3, #3
    85e0:	dc41      	bgt.n	8666 <benchmark_body+0x532>
    85e2:	4b2b      	ldr	r3, [pc, #172]	; (8690 <benchmark_body+0x55c>)
    85e4:	689a      	ldr	r2, [r3, #8]
    85e6:	4b2a      	ldr	r3, [pc, #168]	; (8690 <benchmark_body+0x55c>)
    85e8:	685b      	ldr	r3, [r3, #4]
    85ea:	429a      	cmp	r2, r3
    85ec:	d13b      	bne.n	8666 <benchmark_body+0x532>
    85ee:	4b28      	ldr	r3, [pc, #160]	; (8690 <benchmark_body+0x55c>)
    85f0:	689a      	ldr	r2, [r3, #8]
    85f2:	4b27      	ldr	r3, [pc, #156]	; (8690 <benchmark_body+0x55c>)
    85f4:	68db      	ldr	r3, [r3, #12]
    85f6:	429a      	cmp	r2, r3
    85f8:	d135      	bne.n	8666 <benchmark_body+0x532>
    85fa:	4b25      	ldr	r3, [pc, #148]	; (8690 <benchmark_body+0x55c>)
    85fc:	681b      	ldr	r3, [r3, #0]
    85fe:	f8c7 3590 	str.w	r3, [r7, #1424]	; 0x590
    8602:	4b23      	ldr	r3, [pc, #140]	; (8690 <benchmark_body+0x55c>)
    8604:	689b      	ldr	r3, [r3, #8]
    8606:	f8c7 358c 	str.w	r3, [r7, #1420]	; 0x58c
    860a:	f8d7 258c 	ldr.w	r2, [r7, #1420]	; 0x58c
    860e:	f8d7 3590 	ldr.w	r3, [r7, #1424]	; 0x590
    8612:	429a      	cmp	r2, r3
    8614:	dd27      	ble.n	8666 <benchmark_body+0x532>
    8616:	4b1d      	ldr	r3, [pc, #116]	; (868c <benchmark_body+0x558>)
    8618:	681b      	ldr	r3, [r3, #0]
    861a:	3b04      	subs	r3, #4
    861c:	4a1b      	ldr	r2, [pc, #108]	; (868c <benchmark_body+0x558>)
    861e:	6013      	str	r3, [r2, #0]
    8620:	f8d7 2590 	ldr.w	r2, [r7, #1424]	; 0x590
    8624:	f8d7 358c 	ldr.w	r3, [r7, #1420]	; 0x58c
    8628:	4413      	add	r3, r2
    862a:	f8c7 3588 	str.w	r3, [r7, #1416]	; 0x588
    862e:	4b13      	ldr	r3, [pc, #76]	; (867c <benchmark_body+0x548>)
    8630:	681b      	ldr	r3, [r3, #0]
    8632:	4913      	ldr	r1, [pc, #76]	; (8680 <benchmark_body+0x54c>)
    8634:	f8d7 2590 	ldr.w	r2, [r7, #1424]	; 0x590
    8638:	f841 2023 	str.w	r2, [r1, r3, lsl #2]
    863c:	4b0f      	ldr	r3, [pc, #60]	; (867c <benchmark_body+0x548>)
    863e:	681b      	ldr	r3, [r3, #0]
    8640:	3301      	adds	r3, #1
    8642:	490f      	ldr	r1, [pc, #60]	; (8680 <benchmark_body+0x54c>)
    8644:	f8d7 258c 	ldr.w	r2, [r7, #1420]	; 0x58c
    8648:	f841 2023 	str.w	r2, [r1, r3, lsl #2]
    864c:	4b0b      	ldr	r3, [pc, #44]	; (867c <benchmark_body+0x548>)
    864e:	681b      	ldr	r3, [r3, #0]
    8650:	3302      	adds	r3, #2
    8652:	490b      	ldr	r1, [pc, #44]	; (8680 <benchmark_body+0x54c>)
    8654:	f8d7 2588 	ldr.w	r2, [r7, #1416]	; 0x588
    8658:	f841 2023 	str.w	r2, [r1, r3, lsl #2]
    865c:	4b07      	ldr	r3, [pc, #28]	; (867c <benchmark_body+0x548>)
    865e:	681b      	ldr	r3, [r3, #0]
    8660:	3303      	adds	r3, #3
    8662:	4a06      	ldr	r2, [pc, #24]	; (867c <benchmark_body+0x548>)
    8664:	6013      	str	r3, [r2, #0]
    8666:	4b09      	ldr	r3, [pc, #36]	; (868c <benchmark_body+0x558>)
    8668:	681b      	ldr	r3, [r3, #0]
    866a:	2b03      	cmp	r3, #3
    866c:	dd52      	ble.n	8714 <benchmark_body+0x5e0>
    866e:	4b03      	ldr	r3, [pc, #12]	; (867c <benchmark_body+0x548>)
    8670:	681b      	ldr	r3, [r3, #0]
    8672:	2b03      	cmp	r3, #3
    8674:	dc4e      	bgt.n	8714 <benchmark_body+0x5e0>
    8676:	4b06      	ldr	r3, [pc, #24]	; (8690 <benchmark_body+0x55c>)
    8678:	689a      	ldr	r2, [r3, #8]
    867a:	e00b      	b.n	8694 <benchmark_body+0x560>
    867c:	0001f118 	.word	0x0001f118
    8680:	0001f11c 	.word	0x0001f11c
    8684:	0001eca8 	.word	0x0001eca8
    8688:	0001f0f8 	.word	0x0001f0f8
    868c:	0001ecac 	.word	0x0001ecac
    8690:	0001f104 	.word	0x0001f104
    8694:	4ba0      	ldr	r3, [pc, #640]	; (8918 <benchmark_body+0x7e4>)
    8696:	68db      	ldr	r3, [r3, #12]
    8698:	429a      	cmp	r2, r3
    869a:	d13b      	bne.n	8714 <benchmark_body+0x5e0>
    869c:	4b9e      	ldr	r3, [pc, #632]	; (8918 <benchmark_body+0x7e4>)
    869e:	689a      	ldr	r2, [r3, #8]
    86a0:	4b9d      	ldr	r3, [pc, #628]	; (8918 <benchmark_body+0x7e4>)
    86a2:	685b      	ldr	r3, [r3, #4]
    86a4:	429a      	cmp	r2, r3
    86a6:	d135      	bne.n	8714 <benchmark_body+0x5e0>
    86a8:	4b9b      	ldr	r3, [pc, #620]	; (8918 <benchmark_body+0x7e4>)
    86aa:	681b      	ldr	r3, [r3, #0]
    86ac:	f8c7 3584 	str.w	r3, [r7, #1412]	; 0x584
    86b0:	4b99      	ldr	r3, [pc, #612]	; (8918 <benchmark_body+0x7e4>)
    86b2:	689b      	ldr	r3, [r3, #8]
    86b4:	f8c7 3580 	str.w	r3, [r7, #1408]	; 0x580
    86b8:	f8d7 2580 	ldr.w	r2, [r7, #1408]	; 0x580
    86bc:	f8d7 3584 	ldr.w	r3, [r7, #1412]	; 0x584
    86c0:	429a      	cmp	r2, r3
    86c2:	dd27      	ble.n	8714 <benchmark_body+0x5e0>
    86c4:	4b95      	ldr	r3, [pc, #596]	; (891c <benchmark_body+0x7e8>)
    86c6:	681b      	ldr	r3, [r3, #0]
    86c8:	3b04      	subs	r3, #4
    86ca:	4a94      	ldr	r2, [pc, #592]	; (891c <benchmark_body+0x7e8>)
    86cc:	6013      	str	r3, [r2, #0]
    86ce:	f8d7 2584 	ldr.w	r2, [r7, #1412]	; 0x584
    86d2:	f8d7 3580 	ldr.w	r3, [r7, #1408]	; 0x580
    86d6:	4413      	add	r3, r2
    86d8:	f8c7 357c 	str.w	r3, [r7, #1404]	; 0x57c
    86dc:	4b90      	ldr	r3, [pc, #576]	; (8920 <benchmark_body+0x7ec>)
    86de:	681b      	ldr	r3, [r3, #0]
    86e0:	4990      	ldr	r1, [pc, #576]	; (8924 <benchmark_body+0x7f0>)
    86e2:	f8d7 2584 	ldr.w	r2, [r7, #1412]	; 0x584
    86e6:	f841 2023 	str.w	r2, [r1, r3, lsl #2]
    86ea:	4b8d      	ldr	r3, [pc, #564]	; (8920 <benchmark_body+0x7ec>)
    86ec:	681b      	ldr	r3, [r3, #0]
    86ee:	3301      	adds	r3, #1
    86f0:	498c      	ldr	r1, [pc, #560]	; (8924 <benchmark_body+0x7f0>)
    86f2:	f8d7 2580 	ldr.w	r2, [r7, #1408]	; 0x580
    86f6:	f841 2023 	str.w	r2, [r1, r3, lsl #2]
    86fa:	4b89      	ldr	r3, [pc, #548]	; (8920 <benchmark_body+0x7ec>)
    86fc:	681b      	ldr	r3, [r3, #0]
    86fe:	3302      	adds	r3, #2
    8700:	4988      	ldr	r1, [pc, #544]	; (8924 <benchmark_body+0x7f0>)
    8702:	f8d7 257c 	ldr.w	r2, [r7, #1404]	; 0x57c
    8706:	f841 2023 	str.w	r2, [r1, r3, lsl #2]
    870a:	4b85      	ldr	r3, [pc, #532]	; (8920 <benchmark_body+0x7ec>)
    870c:	681b      	ldr	r3, [r3, #0]
    870e:	3303      	adds	r3, #3
    8710:	4a83      	ldr	r2, [pc, #524]	; (8920 <benchmark_body+0x7ec>)
    8712:	6013      	str	r3, [r2, #0]
    8714:	4b81      	ldr	r3, [pc, #516]	; (891c <benchmark_body+0x7e8>)
    8716:	681b      	ldr	r3, [r3, #0]
    8718:	2b03      	cmp	r3, #3
    871a:	dd45      	ble.n	87a8 <benchmark_body+0x674>
    871c:	4b80      	ldr	r3, [pc, #512]	; (8920 <benchmark_body+0x7ec>)
    871e:	681b      	ldr	r3, [r3, #0]
    8720:	2b03      	cmp	r3, #3
    8722:	dc41      	bgt.n	87a8 <benchmark_body+0x674>
    8724:	4b7c      	ldr	r3, [pc, #496]	; (8918 <benchmark_body+0x7e4>)
    8726:	68da      	ldr	r2, [r3, #12]
    8728:	4b7b      	ldr	r3, [pc, #492]	; (8918 <benchmark_body+0x7e4>)
    872a:	685b      	ldr	r3, [r3, #4]
    872c:	429a      	cmp	r2, r3
    872e:	d13b      	bne.n	87a8 <benchmark_body+0x674>
    8730:	4b79      	ldr	r3, [pc, #484]	; (8918 <benchmark_body+0x7e4>)
    8732:	68da      	ldr	r2, [r3, #12]
    8734:	4b78      	ldr	r3, [pc, #480]	; (8918 <benchmark_body+0x7e4>)
    8736:	689b      	ldr	r3, [r3, #8]
    8738:	429a      	cmp	r2, r3
    873a:	d135      	bne.n	87a8 <benchmark_body+0x674>
    873c:	4b76      	ldr	r3, [pc, #472]	; (8918 <benchmark_body+0x7e4>)
    873e:	681b      	ldr	r3, [r3, #0]
    8740:	f8c7 3578 	str.w	r3, [r7, #1400]	; 0x578
    8744:	4b74      	ldr	r3, [pc, #464]	; (8918 <benchmark_body+0x7e4>)
    8746:	68db      	ldr	r3, [r3, #12]
    8748:	f8c7 3574 	str.w	r3, [r7, #1396]	; 0x574
    874c:	f8d7 2574 	ldr.w	r2, [r7, #1396]	; 0x574
    8750:	f8d7 3578 	ldr.w	r3, [r7, #1400]	; 0x578
    8754:	429a      	cmp	r2, r3
    8756:	dd27      	ble.n	87a8 <benchmark_body+0x674>
    8758:	4b70      	ldr	r3, [pc, #448]	; (891c <benchmark_body+0x7e8>)
    875a:	681b      	ldr	r3, [r3, #0]
    875c:	3b04      	subs	r3, #4
    875e:	4a6f      	ldr	r2, [pc, #444]	; (891c <benchmark_body+0x7e8>)
    8760:	6013      	str	r3, [r2, #0]
    8762:	f8d7 2578 	ldr.w	r2, [r7, #1400]	; 0x578
    8766:	f8d7 3574 	ldr.w	r3, [r7, #1396]	; 0x574
    876a:	4413      	add	r3, r2
    876c:	f8c7 3570 	str.w	r3, [r7, #1392]	; 0x570
    8770:	4b6b      	ldr	r3, [pc, #428]	; (8920 <benchmark_body+0x7ec>)
    8772:	681b      	ldr	r3, [r3, #0]
    8774:	496b      	ldr	r1, [pc, #428]	; (8924 <benchmark_body+0x7f0>)
    8776:	f8d7 2578 	ldr.w	r2, [r7, #1400]	; 0x578
    877a:	f841 2023 	str.w	r2, [r1, r3, lsl #2]
    877e:	4b68      	ldr	r3, [pc, #416]	; (8920 <benchmark_body+0x7ec>)
    8780:	681b      	ldr	r3, [r3, #0]
    8782:	3301      	adds	r3, #1
    8784:	4967      	ldr	r1, [pc, #412]	; (8924 <benchmark_body+0x7f0>)
    8786:	f8d7 2574 	ldr.w	r2, [r7, #1396]	; 0x574
    878a:	f841 2023 	str.w	r2, [r1, r3, lsl #2]
    878e:	4b64      	ldr	r3, [pc, #400]	; (8920 <benchmark_body+0x7ec>)
    8790:	681b      	ldr	r3, [r3, #0]
    8792:	3302      	adds	r3, #2
    8794:	4963      	ldr	r1, [pc, #396]	; (8924 <benchmark_body+0x7f0>)
    8796:	f8d7 2570 	ldr.w	r2, [r7, #1392]	; 0x570
    879a:	f841 2023 	str.w	r2, [r1, r3, lsl #2]
    879e:	4b60      	ldr	r3, [pc, #384]	; (8920 <benchmark_body+0x7ec>)
    87a0:	681b      	ldr	r3, [r3, #0]
    87a2:	3303      	adds	r3, #3
    87a4:	4a5e      	ldr	r2, [pc, #376]	; (8920 <benchmark_body+0x7ec>)
    87a6:	6013      	str	r3, [r2, #0]
    87a8:	4b5c      	ldr	r3, [pc, #368]	; (891c <benchmark_body+0x7e8>)
    87aa:	681b      	ldr	r3, [r3, #0]
    87ac:	2b03      	cmp	r3, #3
    87ae:	dd45      	ble.n	883c <benchmark_body+0x708>
    87b0:	4b5b      	ldr	r3, [pc, #364]	; (8920 <benchmark_body+0x7ec>)
    87b2:	681b      	ldr	r3, [r3, #0]
    87b4:	2b03      	cmp	r3, #3
    87b6:	dc41      	bgt.n	883c <benchmark_body+0x708>
    87b8:	4b57      	ldr	r3, [pc, #348]	; (8918 <benchmark_body+0x7e4>)
    87ba:	68da      	ldr	r2, [r3, #12]
    87bc:	4b56      	ldr	r3, [pc, #344]	; (8918 <benchmark_body+0x7e4>)
    87be:	689b      	ldr	r3, [r3, #8]
    87c0:	429a      	cmp	r2, r3
    87c2:	d13b      	bne.n	883c <benchmark_body+0x708>
    87c4:	4b54      	ldr	r3, [pc, #336]	; (8918 <benchmark_body+0x7e4>)
    87c6:	68da      	ldr	r2, [r3, #12]
    87c8:	4b53      	ldr	r3, [pc, #332]	; (8918 <benchmark_body+0x7e4>)
    87ca:	685b      	ldr	r3, [r3, #4]
    87cc:	429a      	cmp	r2, r3
    87ce:	d135      	bne.n	883c <benchmark_body+0x708>
    87d0:	4b51      	ldr	r3, [pc, #324]	; (8918 <benchmark_body+0x7e4>)
    87d2:	681b      	ldr	r3, [r3, #0]
    87d4:	f8c7 356c 	str.w	r3, [r7, #1388]	; 0x56c
    87d8:	4b4f      	ldr	r3, [pc, #316]	; (8918 <benchmark_body+0x7e4>)
    87da:	68db      	ldr	r3, [r3, #12]
    87dc:	f8c7 3568 	str.w	r3, [r7, #1384]	; 0x568
    87e0:	f8d7 2568 	ldr.w	r2, [r7, #1384]	; 0x568
    87e4:	f8d7 356c 	ldr.w	r3, [r7, #1388]	; 0x56c
    87e8:	429a      	cmp	r2, r3
    87ea:	dd27      	ble.n	883c <benchmark_body+0x708>
    87ec:	4b4b      	ldr	r3, [pc, #300]	; (891c <benchmark_body+0x7e8>)
    87ee:	681b      	ldr	r3, [r3, #0]
    87f0:	3b04      	subs	r3, #4
    87f2:	4a4a      	ldr	r2, [pc, #296]	; (891c <benchmark_body+0x7e8>)
    87f4:	6013      	str	r3, [r2, #0]
    87f6:	f8d7 256c 	ldr.w	r2, [r7, #1388]	; 0x56c
    87fa:	f8d7 3568 	ldr.w	r3, [r7, #1384]	; 0x568
    87fe:	4413      	add	r3, r2
    8800:	f8c7 3564 	str.w	r3, [r7, #1380]	; 0x564
    8804:	4b46      	ldr	r3, [pc, #280]	; (8920 <benchmark_body+0x7ec>)
    8806:	681b      	ldr	r3, [r3, #0]
    8808:	4946      	ldr	r1, [pc, #280]	; (8924 <benchmark_body+0x7f0>)
    880a:	f8d7 256c 	ldr.w	r2, [r7, #1388]	; 0x56c
    880e:	f841 2023 	str.w	r2, [r1, r3, lsl #2]
    8812:	4b43      	ldr	r3, [pc, #268]	; (8920 <benchmark_body+0x7ec>)
    8814:	681b      	ldr	r3, [r3, #0]
    8816:	3301      	adds	r3, #1
    8818:	4942      	ldr	r1, [pc, #264]	; (8924 <benchmark_body+0x7f0>)
    881a:	f8d7 2568 	ldr.w	r2, [r7, #1384]	; 0x568
    881e:	f841 2023 	str.w	r2, [r1, r3, lsl #2]
    8822:	4b3f      	ldr	r3, [pc, #252]	; (8920 <benchmark_body+0x7ec>)
    8824:	681b      	ldr	r3, [r3, #0]
    8826:	3302      	adds	r3, #2
    8828:	493e      	ldr	r1, [pc, #248]	; (8924 <benchmark_body+0x7f0>)
    882a:	f8d7 2564 	ldr.w	r2, [r7, #1380]	; 0x564
    882e:	f841 2023 	str.w	r2, [r1, r3, lsl #2]
    8832:	4b3b      	ldr	r3, [pc, #236]	; (8920 <benchmark_body+0x7ec>)
    8834:	681b      	ldr	r3, [r3, #0]
    8836:	3303      	adds	r3, #3
    8838:	4a39      	ldr	r2, [pc, #228]	; (8920 <benchmark_body+0x7ec>)
    883a:	6013      	str	r3, [r2, #0]
    883c:	4b37      	ldr	r3, [pc, #220]	; (891c <benchmark_body+0x7e8>)
    883e:	681b      	ldr	r3, [r3, #0]
    8840:	2b03      	cmp	r3, #3
    8842:	dd45      	ble.n	88d0 <benchmark_body+0x79c>
    8844:	4b36      	ldr	r3, [pc, #216]	; (8920 <benchmark_body+0x7ec>)
    8846:	681b      	ldr	r3, [r3, #0]
    8848:	2b03      	cmp	r3, #3
    884a:	dc41      	bgt.n	88d0 <benchmark_body+0x79c>
    884c:	4b32      	ldr	r3, [pc, #200]	; (8918 <benchmark_body+0x7e4>)
    884e:	681a      	ldr	r2, [r3, #0]
    8850:	4b31      	ldr	r3, [pc, #196]	; (8918 <benchmark_body+0x7e4>)
    8852:	689b      	ldr	r3, [r3, #8]
    8854:	429a      	cmp	r2, r3
    8856:	d13b      	bne.n	88d0 <benchmark_body+0x79c>
    8858:	4b2f      	ldr	r3, [pc, #188]	; (8918 <benchmark_body+0x7e4>)
    885a:	681a      	ldr	r2, [r3, #0]
    885c:	4b2e      	ldr	r3, [pc, #184]	; (8918 <benchmark_body+0x7e4>)
    885e:	68db      	ldr	r3, [r3, #12]
    8860:	429a      	cmp	r2, r3
    8862:	d135      	bne.n	88d0 <benchmark_body+0x79c>
    8864:	4b2c      	ldr	r3, [pc, #176]	; (8918 <benchmark_body+0x7e4>)
    8866:	685b      	ldr	r3, [r3, #4]
    8868:	f8c7 3560 	str.w	r3, [r7, #1376]	; 0x560
    886c:	4b2a      	ldr	r3, [pc, #168]	; (8918 <benchmark_body+0x7e4>)
    886e:	681b      	ldr	r3, [r3, #0]
    8870:	f8c7 355c 	str.w	r3, [r7, #1372]	; 0x55c
    8874:	f8d7 255c 	ldr.w	r2, [r7, #1372]	; 0x55c
    8878:	f8d7 3560 	ldr.w	r3, [r7, #1376]	; 0x560
    887c:	429a      	cmp	r2, r3
    887e:	dd27      	ble.n	88d0 <benchmark_body+0x79c>
    8880:	4b26      	ldr	r3, [pc, #152]	; (891c <benchmark_body+0x7e8>)
    8882:	681b      	ldr	r3, [r3, #0]
    8884:	3b04      	subs	r3, #4
    8886:	4a25      	ldr	r2, [pc, #148]	; (891c <benchmark_body+0x7e8>)
    8888:	6013      	str	r3, [r2, #0]
    888a:	f8d7 2560 	ldr.w	r2, [r7, #1376]	; 0x560
    888e:	f8d7 355c 	ldr.w	r3, [r7, #1372]	; 0x55c
    8892:	4413      	add	r3, r2
    8894:	f8c7 3558 	str.w	r3, [r7, #1368]	; 0x558
    8898:	4b21      	ldr	r3, [pc, #132]	; (8920 <benchmark_body+0x7ec>)
    889a:	681b      	ldr	r3, [r3, #0]
    889c:	4921      	ldr	r1, [pc, #132]	; (8924 <benchmark_body+0x7f0>)
    889e:	f8d7 2560 	ldr.w	r2, [r7, #1376]	; 0x560
    88a2:	f841 2023 	str.w	r2, [r1, r3, lsl #2]
    88a6:	4b1e      	ldr	r3, [pc, #120]	; (8920 <benchmark_body+0x7ec>)
    88a8:	681b      	ldr	r3, [r3, #0]
    88aa:	3301      	adds	r3, #1
    88ac:	491d      	ldr	r1, [pc, #116]	; (8924 <benchmark_body+0x7f0>)
    88ae:	f8d7 255c 	ldr.w	r2, [r7, #1372]	; 0x55c
    88b2:	f841 2023 	str.w	r2, [r1, r3, lsl #2]
    88b6:	4b1a      	ldr	r3, [pc, #104]	; (8920 <benchmark_body+0x7ec>)
    88b8:	681b      	ldr	r3, [r3, #0]
    88ba:	3302      	adds	r3, #2
    88bc:	4919      	ldr	r1, [pc, #100]	; (8924 <benchmark_body+0x7f0>)
    88be:	f8d7 2558 	ldr.w	r2, [r7, #1368]	; 0x558
    88c2:	f841 2023 	str.w	r2, [r1, r3, lsl #2]
    88c6:	4b16      	ldr	r3, [pc, #88]	; (8920 <benchmark_body+0x7ec>)
    88c8:	681b      	ldr	r3, [r3, #0]
    88ca:	3303      	adds	r3, #3
    88cc:	4a14      	ldr	r2, [pc, #80]	; (8920 <benchmark_body+0x7ec>)
    88ce:	6013      	str	r3, [r2, #0]
    88d0:	4b12      	ldr	r3, [pc, #72]	; (891c <benchmark_body+0x7e8>)
    88d2:	681b      	ldr	r3, [r3, #0]
    88d4:	2b03      	cmp	r3, #3
    88d6:	dd4f      	ble.n	8978 <benchmark_body+0x844>
    88d8:	4b11      	ldr	r3, [pc, #68]	; (8920 <benchmark_body+0x7ec>)
    88da:	681b      	ldr	r3, [r3, #0]
    88dc:	2b03      	cmp	r3, #3
    88de:	dc4b      	bgt.n	8978 <benchmark_body+0x844>
    88e0:	4b0d      	ldr	r3, [pc, #52]	; (8918 <benchmark_body+0x7e4>)
    88e2:	681a      	ldr	r2, [r3, #0]
    88e4:	4b0c      	ldr	r3, [pc, #48]	; (8918 <benchmark_body+0x7e4>)
    88e6:	68db      	ldr	r3, [r3, #12]
    88e8:	429a      	cmp	r2, r3
    88ea:	d145      	bne.n	8978 <benchmark_body+0x844>
    88ec:	4b0a      	ldr	r3, [pc, #40]	; (8918 <benchmark_body+0x7e4>)
    88ee:	681a      	ldr	r2, [r3, #0]
    88f0:	4b09      	ldr	r3, [pc, #36]	; (8918 <benchmark_body+0x7e4>)
    88f2:	689b      	ldr	r3, [r3, #8]
    88f4:	429a      	cmp	r2, r3
    88f6:	d13f      	bne.n	8978 <benchmark_body+0x844>
    88f8:	4b07      	ldr	r3, [pc, #28]	; (8918 <benchmark_body+0x7e4>)
    88fa:	685b      	ldr	r3, [r3, #4]
    88fc:	f8c7 3554 	str.w	r3, [r7, #1364]	; 0x554
    8900:	4b05      	ldr	r3, [pc, #20]	; (8918 <benchmark_body+0x7e4>)
    8902:	681b      	ldr	r3, [r3, #0]
    8904:	f8c7 3550 	str.w	r3, [r7, #1360]	; 0x550
    8908:	f8d7 2550 	ldr.w	r2, [r7, #1360]	; 0x550
    890c:	f8d7 3554 	ldr.w	r3, [r7, #1364]	; 0x554
    8910:	429a      	cmp	r2, r3
    8912:	dd31      	ble.n	8978 <benchmark_body+0x844>
    8914:	e008      	b.n	8928 <benchmark_body+0x7f4>
    8916:	bf00      	nop
    8918:	0001f104 	.word	0x0001f104
    891c:	0001ecac 	.word	0x0001ecac
    8920:	0001f118 	.word	0x0001f118
    8924:	0001f11c 	.word	0x0001f11c
    8928:	4ba1      	ldr	r3, [pc, #644]	; (8bb0 <benchmark_body+0xa7c>)
    892a:	681b      	ldr	r3, [r3, #0]
    892c:	3b04      	subs	r3, #4
    892e:	4aa0      	ldr	r2, [pc, #640]	; (8bb0 <benchmark_body+0xa7c>)
    8930:	6013      	str	r3, [r2, #0]
    8932:	f8d7 2554 	ldr.w	r2, [r7, #1364]	; 0x554
    8936:	f8d7 3550 	ldr.w	r3, [r7, #1360]	; 0x550
    893a:	4413      	add	r3, r2
    893c:	f8c7 354c 	str.w	r3, [r7, #1356]	; 0x54c
    8940:	4b9c      	ldr	r3, [pc, #624]	; (8bb4 <benchmark_body+0xa80>)
    8942:	681b      	ldr	r3, [r3, #0]
    8944:	499c      	ldr	r1, [pc, #624]	; (8bb8 <benchmark_body+0xa84>)
    8946:	f8d7 2554 	ldr.w	r2, [r7, #1364]	; 0x554
    894a:	f841 2023 	str.w	r2, [r1, r3, lsl #2]
    894e:	4b99      	ldr	r3, [pc, #612]	; (8bb4 <benchmark_body+0xa80>)
    8950:	681b      	ldr	r3, [r3, #0]
    8952:	3301      	adds	r3, #1
    8954:	4998      	ldr	r1, [pc, #608]	; (8bb8 <benchmark_body+0xa84>)
    8956:	f8d7 2550 	ldr.w	r2, [r7, #1360]	; 0x550
    895a:	f841 2023 	str.w	r2, [r1, r3, lsl #2]
    895e:	4b95      	ldr	r3, [pc, #596]	; (8bb4 <benchmark_body+0xa80>)
    8960:	681b      	ldr	r3, [r3, #0]
    8962:	3302      	adds	r3, #2
    8964:	4994      	ldr	r1, [pc, #592]	; (8bb8 <benchmark_body+0xa84>)
    8966:	f8d7 254c 	ldr.w	r2, [r7, #1356]	; 0x54c
    896a:	f841 2023 	str.w	r2, [r1, r3, lsl #2]
    896e:	4b91      	ldr	r3, [pc, #580]	; (8bb4 <benchmark_body+0xa80>)
    8970:	681b      	ldr	r3, [r3, #0]
    8972:	3303      	adds	r3, #3
    8974:	4a8f      	ldr	r2, [pc, #572]	; (8bb4 <benchmark_body+0xa80>)
    8976:	6013      	str	r3, [r2, #0]
    8978:	4b8d      	ldr	r3, [pc, #564]	; (8bb0 <benchmark_body+0xa7c>)
    897a:	681b      	ldr	r3, [r3, #0]
    897c:	2b03      	cmp	r3, #3
    897e:	dd45      	ble.n	8a0c <benchmark_body+0x8d8>
    8980:	4b8c      	ldr	r3, [pc, #560]	; (8bb4 <benchmark_body+0xa80>)
    8982:	681b      	ldr	r3, [r3, #0]
    8984:	2b03      	cmp	r3, #3
    8986:	dc41      	bgt.n	8a0c <benchmark_body+0x8d8>
    8988:	4b8c      	ldr	r3, [pc, #560]	; (8bbc <benchmark_body+0xa88>)
    898a:	689a      	ldr	r2, [r3, #8]
    898c:	4b8b      	ldr	r3, [pc, #556]	; (8bbc <benchmark_body+0xa88>)
    898e:	681b      	ldr	r3, [r3, #0]
    8990:	429a      	cmp	r2, r3
    8992:	d13b      	bne.n	8a0c <benchmark_body+0x8d8>
    8994:	4b89      	ldr	r3, [pc, #548]	; (8bbc <benchmark_body+0xa88>)
    8996:	689a      	ldr	r2, [r3, #8]
    8998:	4b88      	ldr	r3, [pc, #544]	; (8bbc <benchmark_body+0xa88>)
    899a:	68db      	ldr	r3, [r3, #12]
    899c:	429a      	cmp	r2, r3
    899e:	d135      	bne.n	8a0c <benchmark_body+0x8d8>
    89a0:	4b86      	ldr	r3, [pc, #536]	; (8bbc <benchmark_body+0xa88>)
    89a2:	685b      	ldr	r3, [r3, #4]
    89a4:	f8c7 3548 	str.w	r3, [r7, #1352]	; 0x548
    89a8:	4b84      	ldr	r3, [pc, #528]	; (8bbc <benchmark_body+0xa88>)
    89aa:	689b      	ldr	r3, [r3, #8]
    89ac:	f8c7 3544 	str.w	r3, [r7, #1348]	; 0x544
    89b0:	f8d7 2544 	ldr.w	r2, [r7, #1348]	; 0x544
    89b4:	f8d7 3548 	ldr.w	r3, [r7, #1352]	; 0x548
    89b8:	429a      	cmp	r2, r3
    89ba:	dd27      	ble.n	8a0c <benchmark_body+0x8d8>
    89bc:	4b7c      	ldr	r3, [pc, #496]	; (8bb0 <benchmark_body+0xa7c>)
    89be:	681b      	ldr	r3, [r3, #0]
    89c0:	3b04      	subs	r3, #4
    89c2:	4a7b      	ldr	r2, [pc, #492]	; (8bb0 <benchmark_body+0xa7c>)
    89c4:	6013      	str	r3, [r2, #0]
    89c6:	f8d7 2548 	ldr.w	r2, [r7, #1352]	; 0x548
    89ca:	f8d7 3544 	ldr.w	r3, [r7, #1348]	; 0x544
    89ce:	4413      	add	r3, r2
    89d0:	f8c7 3540 	str.w	r3, [r7, #1344]	; 0x540
    89d4:	4b77      	ldr	r3, [pc, #476]	; (8bb4 <benchmark_body+0xa80>)
    89d6:	681b      	ldr	r3, [r3, #0]
    89d8:	4977      	ldr	r1, [pc, #476]	; (8bb8 <benchmark_body+0xa84>)
    89da:	f8d7 2548 	ldr.w	r2, [r7, #1352]	; 0x548
    89de:	f841 2023 	str.w	r2, [r1, r3, lsl #2]
    89e2:	4b74      	ldr	r3, [pc, #464]	; (8bb4 <benchmark_body+0xa80>)
    89e4:	681b      	ldr	r3, [r3, #0]
    89e6:	3301      	adds	r3, #1
    89e8:	4973      	ldr	r1, [pc, #460]	; (8bb8 <benchmark_body+0xa84>)
    89ea:	f8d7 2544 	ldr.w	r2, [r7, #1348]	; 0x544
    89ee:	f841 2023 	str.w	r2, [r1, r3, lsl #2]
    89f2:	4b70      	ldr	r3, [pc, #448]	; (8bb4 <benchmark_body+0xa80>)
    89f4:	681b      	ldr	r3, [r3, #0]
    89f6:	3302      	adds	r3, #2
    89f8:	496f      	ldr	r1, [pc, #444]	; (8bb8 <benchmark_body+0xa84>)
    89fa:	f8d7 2540 	ldr.w	r2, [r7, #1344]	; 0x540
    89fe:	f841 2023 	str.w	r2, [r1, r3, lsl #2]
    8a02:	4b6c      	ldr	r3, [pc, #432]	; (8bb4 <benchmark_body+0xa80>)
    8a04:	681b      	ldr	r3, [r3, #0]
    8a06:	3303      	adds	r3, #3
    8a08:	4a6a      	ldr	r2, [pc, #424]	; (8bb4 <benchmark_body+0xa80>)
    8a0a:	6013      	str	r3, [r2, #0]
    8a0c:	4b68      	ldr	r3, [pc, #416]	; (8bb0 <benchmark_body+0xa7c>)
    8a0e:	681b      	ldr	r3, [r3, #0]
    8a10:	2b03      	cmp	r3, #3
    8a12:	dd45      	ble.n	8aa0 <benchmark_body+0x96c>
    8a14:	4b67      	ldr	r3, [pc, #412]	; (8bb4 <benchmark_body+0xa80>)
    8a16:	681b      	ldr	r3, [r3, #0]
    8a18:	2b03      	cmp	r3, #3
    8a1a:	dc41      	bgt.n	8aa0 <benchmark_body+0x96c>
    8a1c:	4b67      	ldr	r3, [pc, #412]	; (8bbc <benchmark_body+0xa88>)
    8a1e:	689a      	ldr	r2, [r3, #8]
    8a20:	4b66      	ldr	r3, [pc, #408]	; (8bbc <benchmark_body+0xa88>)
    8a22:	68db      	ldr	r3, [r3, #12]
    8a24:	429a      	cmp	r2, r3
    8a26:	d13b      	bne.n	8aa0 <benchmark_body+0x96c>
    8a28:	4b64      	ldr	r3, [pc, #400]	; (8bbc <benchmark_body+0xa88>)
    8a2a:	689a      	ldr	r2, [r3, #8]
    8a2c:	4b63      	ldr	r3, [pc, #396]	; (8bbc <benchmark_body+0xa88>)
    8a2e:	681b      	ldr	r3, [r3, #0]
    8a30:	429a      	cmp	r2, r3
    8a32:	d135      	bne.n	8aa0 <benchmark_body+0x96c>
    8a34:	4b61      	ldr	r3, [pc, #388]	; (8bbc <benchmark_body+0xa88>)
    8a36:	685b      	ldr	r3, [r3, #4]
    8a38:	f8c7 353c 	str.w	r3, [r7, #1340]	; 0x53c
    8a3c:	4b5f      	ldr	r3, [pc, #380]	; (8bbc <benchmark_body+0xa88>)
    8a3e:	689b      	ldr	r3, [r3, #8]
    8a40:	f8c7 3538 	str.w	r3, [r7, #1336]	; 0x538
    8a44:	f8d7 2538 	ldr.w	r2, [r7, #1336]	; 0x538
    8a48:	f8d7 353c 	ldr.w	r3, [r7, #1340]	; 0x53c
    8a4c:	429a      	cmp	r2, r3
    8a4e:	dd27      	ble.n	8aa0 <benchmark_body+0x96c>
    8a50:	4b57      	ldr	r3, [pc, #348]	; (8bb0 <benchmark_body+0xa7c>)
    8a52:	681b      	ldr	r3, [r3, #0]
    8a54:	3b04      	subs	r3, #4
    8a56:	4a56      	ldr	r2, [pc, #344]	; (8bb0 <benchmark_body+0xa7c>)
    8a58:	6013      	str	r3, [r2, #0]
    8a5a:	f8d7 253c 	ldr.w	r2, [r7, #1340]	; 0x53c
    8a5e:	f8d7 3538 	ldr.w	r3, [r7, #1336]	; 0x538
    8a62:	4413      	add	r3, r2
    8a64:	f8c7 3534 	str.w	r3, [r7, #1332]	; 0x534
    8a68:	4b52      	ldr	r3, [pc, #328]	; (8bb4 <benchmark_body+0xa80>)
    8a6a:	681b      	ldr	r3, [r3, #0]
    8a6c:	4952      	ldr	r1, [pc, #328]	; (8bb8 <benchmark_body+0xa84>)
    8a6e:	f8d7 253c 	ldr.w	r2, [r7, #1340]	; 0x53c
    8a72:	f841 2023 	str.w	r2, [r1, r3, lsl #2]
    8a76:	4b4f      	ldr	r3, [pc, #316]	; (8bb4 <benchmark_body+0xa80>)
    8a78:	681b      	ldr	r3, [r3, #0]
    8a7a:	3301      	adds	r3, #1
    8a7c:	494e      	ldr	r1, [pc, #312]	; (8bb8 <benchmark_body+0xa84>)
    8a7e:	f8d7 2538 	ldr.w	r2, [r7, #1336]	; 0x538
    8a82:	f841 2023 	str.w	r2, [r1, r3, lsl #2]
    8a86:	4b4b      	ldr	r3, [pc, #300]	; (8bb4 <benchmark_body+0xa80>)
    8a88:	681b      	ldr	r3, [r3, #0]
    8a8a:	3302      	adds	r3, #2
    8a8c:	494a      	ldr	r1, [pc, #296]	; (8bb8 <benchmark_body+0xa84>)
    8a8e:	f8d7 2534 	ldr.w	r2, [r7, #1332]	; 0x534
    8a92:	f841 2023 	str.w	r2, [r1, r3, lsl #2]
    8a96:	4b47      	ldr	r3, [pc, #284]	; (8bb4 <benchmark_body+0xa80>)
    8a98:	681b      	ldr	r3, [r3, #0]
    8a9a:	3303      	adds	r3, #3
    8a9c:	4a45      	ldr	r2, [pc, #276]	; (8bb4 <benchmark_body+0xa80>)
    8a9e:	6013      	str	r3, [r2, #0]
    8aa0:	4b43      	ldr	r3, [pc, #268]	; (8bb0 <benchmark_body+0xa7c>)
    8aa2:	681b      	ldr	r3, [r3, #0]
    8aa4:	2b03      	cmp	r3, #3
    8aa6:	dd45      	ble.n	8b34 <benchmark_body+0xa00>
    8aa8:	4b42      	ldr	r3, [pc, #264]	; (8bb4 <benchmark_body+0xa80>)
    8aaa:	681b      	ldr	r3, [r3, #0]
    8aac:	2b03      	cmp	r3, #3
    8aae:	dc41      	bgt.n	8b34 <benchmark_body+0xa00>
    8ab0:	4b42      	ldr	r3, [pc, #264]	; (8bbc <benchmark_body+0xa88>)
    8ab2:	68da      	ldr	r2, [r3, #12]
    8ab4:	4b41      	ldr	r3, [pc, #260]	; (8bbc <benchmark_body+0xa88>)
    8ab6:	681b      	ldr	r3, [r3, #0]
    8ab8:	429a      	cmp	r2, r3
    8aba:	d13b      	bne.n	8b34 <benchmark_body+0xa00>
    8abc:	4b3f      	ldr	r3, [pc, #252]	; (8bbc <benchmark_body+0xa88>)
    8abe:	68da      	ldr	r2, [r3, #12]
    8ac0:	4b3e      	ldr	r3, [pc, #248]	; (8bbc <benchmark_body+0xa88>)
    8ac2:	689b      	ldr	r3, [r3, #8]
    8ac4:	429a      	cmp	r2, r3
    8ac6:	d135      	bne.n	8b34 <benchmark_body+0xa00>
    8ac8:	4b3c      	ldr	r3, [pc, #240]	; (8bbc <benchmark_body+0xa88>)
    8aca:	685b      	ldr	r3, [r3, #4]
    8acc:	f8c7 3530 	str.w	r3, [r7, #1328]	; 0x530
    8ad0:	4b3a      	ldr	r3, [pc, #232]	; (8bbc <benchmark_body+0xa88>)
    8ad2:	68db      	ldr	r3, [r3, #12]
    8ad4:	f8c7 352c 	str.w	r3, [r7, #1324]	; 0x52c
    8ad8:	f8d7 252c 	ldr.w	r2, [r7, #1324]	; 0x52c
    8adc:	f8d7 3530 	ldr.w	r3, [r7, #1328]	; 0x530
    8ae0:	429a      	cmp	r2, r3
    8ae2:	dd27      	ble.n	8b34 <benchmark_body+0xa00>
    8ae4:	4b32      	ldr	r3, [pc, #200]	; (8bb0 <benchmark_body+0xa7c>)
    8ae6:	681b      	ldr	r3, [r3, #0]
    8ae8:	3b04      	subs	r3, #4
    8aea:	4a31      	ldr	r2, [pc, #196]	; (8bb0 <benchmark_body+0xa7c>)
    8aec:	6013      	str	r3, [r2, #0]
    8aee:	f8d7 2530 	ldr.w	r2, [r7, #1328]	; 0x530
    8af2:	f8d7 352c 	ldr.w	r3, [r7, #1324]	; 0x52c
    8af6:	4413      	add	r3, r2
    8af8:	f8c7 3528 	str.w	r3, [r7, #1320]	; 0x528
    8afc:	4b2d      	ldr	r3, [pc, #180]	; (8bb4 <benchmark_body+0xa80>)
    8afe:	681b      	ldr	r3, [r3, #0]
    8b00:	492d      	ldr	r1, [pc, #180]	; (8bb8 <benchmark_body+0xa84>)
    8b02:	f8d7 2530 	ldr.w	r2, [r7, #1328]	; 0x530
    8b06:	f841 2023 	str.w	r2, [r1, r3, lsl #2]
    8b0a:	4b2a      	ldr	r3, [pc, #168]	; (8bb4 <benchmark_body+0xa80>)
    8b0c:	681b      	ldr	r3, [r3, #0]
    8b0e:	3301      	adds	r3, #1
    8b10:	4929      	ldr	r1, [pc, #164]	; (8bb8 <benchmark_body+0xa84>)
    8b12:	f8d7 252c 	ldr.w	r2, [r7, #1324]	; 0x52c
    8b16:	f841 2023 	str.w	r2, [r1, r3, lsl #2]
    8b1a:	4b26      	ldr	r3, [pc, #152]	; (8bb4 <benchmark_body+0xa80>)
    8b1c:	681b      	ldr	r3, [r3, #0]
    8b1e:	3302      	adds	r3, #2
    8b20:	4925      	ldr	r1, [pc, #148]	; (8bb8 <benchmark_body+0xa84>)
    8b22:	f8d7 2528 	ldr.w	r2, [r7, #1320]	; 0x528
    8b26:	f841 2023 	str.w	r2, [r1, r3, lsl #2]
    8b2a:	4b22      	ldr	r3, [pc, #136]	; (8bb4 <benchmark_body+0xa80>)
    8b2c:	681b      	ldr	r3, [r3, #0]
    8b2e:	3303      	adds	r3, #3
    8b30:	4a20      	ldr	r2, [pc, #128]	; (8bb4 <benchmark_body+0xa80>)
    8b32:	6013      	str	r3, [r2, #0]
    8b34:	4b1e      	ldr	r3, [pc, #120]	; (8bb0 <benchmark_body+0xa7c>)
    8b36:	681b      	ldr	r3, [r3, #0]
    8b38:	2b03      	cmp	r3, #3
    8b3a:	dd4e      	ble.n	8bda <benchmark_body+0xaa6>
    8b3c:	4b1d      	ldr	r3, [pc, #116]	; (8bb4 <benchmark_body+0xa80>)
    8b3e:	681b      	ldr	r3, [r3, #0]
    8b40:	2b03      	cmp	r3, #3
    8b42:	dc4a      	bgt.n	8bda <benchmark_body+0xaa6>
    8b44:	4b1d      	ldr	r3, [pc, #116]	; (8bbc <benchmark_body+0xa88>)
    8b46:	68da      	ldr	r2, [r3, #12]
    8b48:	4b1c      	ldr	r3, [pc, #112]	; (8bbc <benchmark_body+0xa88>)
    8b4a:	689b      	ldr	r3, [r3, #8]
    8b4c:	429a      	cmp	r2, r3
    8b4e:	d144      	bne.n	8bda <benchmark_body+0xaa6>
    8b50:	4b1a      	ldr	r3, [pc, #104]	; (8bbc <benchmark_body+0xa88>)
    8b52:	68da      	ldr	r2, [r3, #12]
    8b54:	4b19      	ldr	r3, [pc, #100]	; (8bbc <benchmark_body+0xa88>)
    8b56:	681b      	ldr	r3, [r3, #0]
    8b58:	429a      	cmp	r2, r3
    8b5a:	d13e      	bne.n	8bda <benchmark_body+0xaa6>
    8b5c:	4b17      	ldr	r3, [pc, #92]	; (8bbc <benchmark_body+0xa88>)
    8b5e:	685b      	ldr	r3, [r3, #4]
    8b60:	f8c7 3524 	str.w	r3, [r7, #1316]	; 0x524
    8b64:	4b15      	ldr	r3, [pc, #84]	; (8bbc <benchmark_body+0xa88>)
    8b66:	68db      	ldr	r3, [r3, #12]
    8b68:	f8c7 3520 	str.w	r3, [r7, #1312]	; 0x520
    8b6c:	f8d7 2520 	ldr.w	r2, [r7, #1312]	; 0x520
    8b70:	f8d7 3524 	ldr.w	r3, [r7, #1316]	; 0x524
    8b74:	429a      	cmp	r2, r3
    8b76:	dd30      	ble.n	8bda <benchmark_body+0xaa6>
    8b78:	4b0d      	ldr	r3, [pc, #52]	; (8bb0 <benchmark_body+0xa7c>)
    8b7a:	681b      	ldr	r3, [r3, #0]
    8b7c:	3b04      	subs	r3, #4
    8b7e:	4a0c      	ldr	r2, [pc, #48]	; (8bb0 <benchmark_body+0xa7c>)
    8b80:	6013      	str	r3, [r2, #0]
    8b82:	f8d7 2524 	ldr.w	r2, [r7, #1316]	; 0x524
    8b86:	f8d7 3520 	ldr.w	r3, [r7, #1312]	; 0x520
    8b8a:	4413      	add	r3, r2
    8b8c:	f8c7 351c 	str.w	r3, [r7, #1308]	; 0x51c
    8b90:	4b08      	ldr	r3, [pc, #32]	; (8bb4 <benchmark_body+0xa80>)
    8b92:	681b      	ldr	r3, [r3, #0]
    8b94:	4908      	ldr	r1, [pc, #32]	; (8bb8 <benchmark_body+0xa84>)
    8b96:	f8d7 2524 	ldr.w	r2, [r7, #1316]	; 0x524
    8b9a:	f841 2023 	str.w	r2, [r1, r3, lsl #2]
    8b9e:	4b05      	ldr	r3, [pc, #20]	; (8bb4 <benchmark_body+0xa80>)
    8ba0:	681b      	ldr	r3, [r3, #0]
    8ba2:	3301      	adds	r3, #1
    8ba4:	4904      	ldr	r1, [pc, #16]	; (8bb8 <benchmark_body+0xa84>)
    8ba6:	f8d7 2520 	ldr.w	r2, [r7, #1312]	; 0x520
    8baa:	f841 2023 	str.w	r2, [r1, r3, lsl #2]
    8bae:	e007      	b.n	8bc0 <benchmark_body+0xa8c>
    8bb0:	0001ecac 	.word	0x0001ecac
    8bb4:	0001f118 	.word	0x0001f118
    8bb8:	0001f11c 	.word	0x0001f11c
    8bbc:	0001f104 	.word	0x0001f104
    8bc0:	4ba3      	ldr	r3, [pc, #652]	; (8e50 <benchmark_body+0xd1c>)
    8bc2:	681b      	ldr	r3, [r3, #0]
    8bc4:	3302      	adds	r3, #2
    8bc6:	49a3      	ldr	r1, [pc, #652]	; (8e54 <benchmark_body+0xd20>)
    8bc8:	f8d7 251c 	ldr.w	r2, [r7, #1308]	; 0x51c
    8bcc:	f841 2023 	str.w	r2, [r1, r3, lsl #2]
    8bd0:	4b9f      	ldr	r3, [pc, #636]	; (8e50 <benchmark_body+0xd1c>)
    8bd2:	681b      	ldr	r3, [r3, #0]
    8bd4:	3303      	adds	r3, #3
    8bd6:	4a9e      	ldr	r2, [pc, #632]	; (8e50 <benchmark_body+0xd1c>)
    8bd8:	6013      	str	r3, [r2, #0]
    8bda:	4b9f      	ldr	r3, [pc, #636]	; (8e58 <benchmark_body+0xd24>)
    8bdc:	681b      	ldr	r3, [r3, #0]
    8bde:	2b03      	cmp	r3, #3
    8be0:	dd45      	ble.n	8c6e <benchmark_body+0xb3a>
    8be2:	4b9b      	ldr	r3, [pc, #620]	; (8e50 <benchmark_body+0xd1c>)
    8be4:	681b      	ldr	r3, [r3, #0]
    8be6:	2b03      	cmp	r3, #3
    8be8:	dc41      	bgt.n	8c6e <benchmark_body+0xb3a>
    8bea:	4b9c      	ldr	r3, [pc, #624]	; (8e5c <benchmark_body+0xd28>)
    8bec:	681a      	ldr	r2, [r3, #0]
    8bee:	4b9b      	ldr	r3, [pc, #620]	; (8e5c <benchmark_body+0xd28>)
    8bf0:	685b      	ldr	r3, [r3, #4]
    8bf2:	429a      	cmp	r2, r3
    8bf4:	d13b      	bne.n	8c6e <benchmark_body+0xb3a>
    8bf6:	4b99      	ldr	r3, [pc, #612]	; (8e5c <benchmark_body+0xd28>)
    8bf8:	681a      	ldr	r2, [r3, #0]
    8bfa:	4b98      	ldr	r3, [pc, #608]	; (8e5c <benchmark_body+0xd28>)
    8bfc:	68db      	ldr	r3, [r3, #12]
    8bfe:	429a      	cmp	r2, r3
    8c00:	d135      	bne.n	8c6e <benchmark_body+0xb3a>
    8c02:	4b96      	ldr	r3, [pc, #600]	; (8e5c <benchmark_body+0xd28>)
    8c04:	689b      	ldr	r3, [r3, #8]
    8c06:	f8c7 3518 	str.w	r3, [r7, #1304]	; 0x518
    8c0a:	4b94      	ldr	r3, [pc, #592]	; (8e5c <benchmark_body+0xd28>)
    8c0c:	681b      	ldr	r3, [r3, #0]
    8c0e:	f8c7 3514 	str.w	r3, [r7, #1300]	; 0x514
    8c12:	f8d7 2514 	ldr.w	r2, [r7, #1300]	; 0x514
    8c16:	f8d7 3518 	ldr.w	r3, [r7, #1304]	; 0x518
    8c1a:	429a      	cmp	r2, r3
    8c1c:	dd27      	ble.n	8c6e <benchmark_body+0xb3a>
    8c1e:	4b8e      	ldr	r3, [pc, #568]	; (8e58 <benchmark_body+0xd24>)
    8c20:	681b      	ldr	r3, [r3, #0]
    8c22:	3b04      	subs	r3, #4
    8c24:	4a8c      	ldr	r2, [pc, #560]	; (8e58 <benchmark_body+0xd24>)
    8c26:	6013      	str	r3, [r2, #0]
    8c28:	f8d7 2518 	ldr.w	r2, [r7, #1304]	; 0x518
    8c2c:	f8d7 3514 	ldr.w	r3, [r7, #1300]	; 0x514
    8c30:	4413      	add	r3, r2
    8c32:	f8c7 3510 	str.w	r3, [r7, #1296]	; 0x510
    8c36:	4b86      	ldr	r3, [pc, #536]	; (8e50 <benchmark_body+0xd1c>)
    8c38:	681b      	ldr	r3, [r3, #0]
    8c3a:	4986      	ldr	r1, [pc, #536]	; (8e54 <benchmark_body+0xd20>)
    8c3c:	f8d7 2518 	ldr.w	r2, [r7, #1304]	; 0x518
    8c40:	f841 2023 	str.w	r2, [r1, r3, lsl #2]
    8c44:	4b82      	ldr	r3, [pc, #520]	; (8e50 <benchmark_body+0xd1c>)
    8c46:	681b      	ldr	r3, [r3, #0]
    8c48:	3301      	adds	r3, #1
    8c4a:	4982      	ldr	r1, [pc, #520]	; (8e54 <benchmark_body+0xd20>)
    8c4c:	f8d7 2514 	ldr.w	r2, [r7, #1300]	; 0x514
    8c50:	f841 2023 	str.w	r2, [r1, r3, lsl #2]
    8c54:	4b7e      	ldr	r3, [pc, #504]	; (8e50 <benchmark_body+0xd1c>)
    8c56:	681b      	ldr	r3, [r3, #0]
    8c58:	3302      	adds	r3, #2
    8c5a:	497e      	ldr	r1, [pc, #504]	; (8e54 <benchmark_body+0xd20>)
    8c5c:	f8d7 2510 	ldr.w	r2, [r7, #1296]	; 0x510
    8c60:	f841 2023 	str.w	r2, [r1, r3, lsl #2]
    8c64:	4b7a      	ldr	r3, [pc, #488]	; (8e50 <benchmark_body+0xd1c>)
    8c66:	681b      	ldr	r3, [r3, #0]
    8c68:	3303      	adds	r3, #3
    8c6a:	4a79      	ldr	r2, [pc, #484]	; (8e50 <benchmark_body+0xd1c>)
    8c6c:	6013      	str	r3, [r2, #0]
    8c6e:	4b7a      	ldr	r3, [pc, #488]	; (8e58 <benchmark_body+0xd24>)
    8c70:	681b      	ldr	r3, [r3, #0]
    8c72:	2b03      	cmp	r3, #3
    8c74:	dd45      	ble.n	8d02 <benchmark_body+0xbce>
    8c76:	4b76      	ldr	r3, [pc, #472]	; (8e50 <benchmark_body+0xd1c>)
    8c78:	681b      	ldr	r3, [r3, #0]
    8c7a:	2b03      	cmp	r3, #3
    8c7c:	dc41      	bgt.n	8d02 <benchmark_body+0xbce>
    8c7e:	4b77      	ldr	r3, [pc, #476]	; (8e5c <benchmark_body+0xd28>)
    8c80:	681a      	ldr	r2, [r3, #0]
    8c82:	4b76      	ldr	r3, [pc, #472]	; (8e5c <benchmark_body+0xd28>)
    8c84:	68db      	ldr	r3, [r3, #12]
    8c86:	429a      	cmp	r2, r3
    8c88:	d13b      	bne.n	8d02 <benchmark_body+0xbce>
    8c8a:	4b74      	ldr	r3, [pc, #464]	; (8e5c <benchmark_body+0xd28>)
    8c8c:	681a      	ldr	r2, [r3, #0]
    8c8e:	4b73      	ldr	r3, [pc, #460]	; (8e5c <benchmark_body+0xd28>)
    8c90:	685b      	ldr	r3, [r3, #4]
    8c92:	429a      	cmp	r2, r3
    8c94:	d135      	bne.n	8d02 <benchmark_body+0xbce>
    8c96:	4b71      	ldr	r3, [pc, #452]	; (8e5c <benchmark_body+0xd28>)
    8c98:	689b      	ldr	r3, [r3, #8]
    8c9a:	f8c7 350c 	str.w	r3, [r7, #1292]	; 0x50c
    8c9e:	4b6f      	ldr	r3, [pc, #444]	; (8e5c <benchmark_body+0xd28>)
    8ca0:	681b      	ldr	r3, [r3, #0]
    8ca2:	f8c7 3508 	str.w	r3, [r7, #1288]	; 0x508
    8ca6:	f8d7 2508 	ldr.w	r2, [r7, #1288]	; 0x508
    8caa:	f8d7 350c 	ldr.w	r3, [r7, #1292]	; 0x50c
    8cae:	429a      	cmp	r2, r3
    8cb0:	dd27      	ble.n	8d02 <benchmark_body+0xbce>
    8cb2:	4b69      	ldr	r3, [pc, #420]	; (8e58 <benchmark_body+0xd24>)
    8cb4:	681b      	ldr	r3, [r3, #0]
    8cb6:	3b04      	subs	r3, #4
    8cb8:	4a67      	ldr	r2, [pc, #412]	; (8e58 <benchmark_body+0xd24>)
    8cba:	6013      	str	r3, [r2, #0]
    8cbc:	f8d7 250c 	ldr.w	r2, [r7, #1292]	; 0x50c
    8cc0:	f8d7 3508 	ldr.w	r3, [r7, #1288]	; 0x508
    8cc4:	4413      	add	r3, r2
    8cc6:	f8c7 3504 	str.w	r3, [r7, #1284]	; 0x504
    8cca:	4b61      	ldr	r3, [pc, #388]	; (8e50 <benchmark_body+0xd1c>)
    8ccc:	681b      	ldr	r3, [r3, #0]
    8cce:	4961      	ldr	r1, [pc, #388]	; (8e54 <benchmark_body+0xd20>)
    8cd0:	f8d7 250c 	ldr.w	r2, [r7, #1292]	; 0x50c
    8cd4:	f841 2023 	str.w	r2, [r1, r3, lsl #2]
    8cd8:	4b5d      	ldr	r3, [pc, #372]	; (8e50 <benchmark_body+0xd1c>)
    8cda:	681b      	ldr	r3, [r3, #0]
    8cdc:	3301      	adds	r3, #1
    8cde:	495d      	ldr	r1, [pc, #372]	; (8e54 <benchmark_body+0xd20>)
    8ce0:	f8d7 2508 	ldr.w	r2, [r7, #1288]	; 0x508
    8ce4:	f841 2023 	str.w	r2, [r1, r3, lsl #2]
    8ce8:	4b59      	ldr	r3, [pc, #356]	; (8e50 <benchmark_body+0xd1c>)
    8cea:	681b      	ldr	r3, [r3, #0]
    8cec:	3302      	adds	r3, #2
    8cee:	4959      	ldr	r1, [pc, #356]	; (8e54 <benchmark_body+0xd20>)
    8cf0:	f8d7 2504 	ldr.w	r2, [r7, #1284]	; 0x504
    8cf4:	f841 2023 	str.w	r2, [r1, r3, lsl #2]
    8cf8:	4b55      	ldr	r3, [pc, #340]	; (8e50 <benchmark_body+0xd1c>)
    8cfa:	681b      	ldr	r3, [r3, #0]
    8cfc:	3303      	adds	r3, #3
    8cfe:	4a54      	ldr	r2, [pc, #336]	; (8e50 <benchmark_body+0xd1c>)
    8d00:	6013      	str	r3, [r2, #0]
    8d02:	4b55      	ldr	r3, [pc, #340]	; (8e58 <benchmark_body+0xd24>)
    8d04:	681b      	ldr	r3, [r3, #0]
    8d06:	2b03      	cmp	r3, #3
    8d08:	dd4b      	ble.n	8da2 <benchmark_body+0xc6e>
    8d0a:	4b51      	ldr	r3, [pc, #324]	; (8e50 <benchmark_body+0xd1c>)
    8d0c:	681b      	ldr	r3, [r3, #0]
    8d0e:	2b03      	cmp	r3, #3
    8d10:	dc47      	bgt.n	8da2 <benchmark_body+0xc6e>
    8d12:	4b52      	ldr	r3, [pc, #328]	; (8e5c <benchmark_body+0xd28>)
    8d14:	685a      	ldr	r2, [r3, #4]
    8d16:	4b51      	ldr	r3, [pc, #324]	; (8e5c <benchmark_body+0xd28>)
    8d18:	681b      	ldr	r3, [r3, #0]
    8d1a:	429a      	cmp	r2, r3
    8d1c:	d141      	bne.n	8da2 <benchmark_body+0xc6e>
    8d1e:	4b4f      	ldr	r3, [pc, #316]	; (8e5c <benchmark_body+0xd28>)
    8d20:	685a      	ldr	r2, [r3, #4]
    8d22:	4b4e      	ldr	r3, [pc, #312]	; (8e5c <benchmark_body+0xd28>)
    8d24:	68db      	ldr	r3, [r3, #12]
    8d26:	429a      	cmp	r2, r3
    8d28:	d13b      	bne.n	8da2 <benchmark_body+0xc6e>
    8d2a:	4b4c      	ldr	r3, [pc, #304]	; (8e5c <benchmark_body+0xd28>)
    8d2c:	689b      	ldr	r3, [r3, #8]
    8d2e:	f8c7 3500 	str.w	r3, [r7, #1280]	; 0x500
    8d32:	4b4a      	ldr	r3, [pc, #296]	; (8e5c <benchmark_body+0xd28>)
    8d34:	685b      	ldr	r3, [r3, #4]
    8d36:	f8c7 34fc 	str.w	r3, [r7, #1276]	; 0x4fc
    8d3a:	f8d7 24fc 	ldr.w	r2, [r7, #1276]	; 0x4fc
    8d3e:	f8d7 3500 	ldr.w	r3, [r7, #1280]	; 0x500
    8d42:	429a      	cmp	r2, r3
    8d44:	dd2d      	ble.n	8da2 <benchmark_body+0xc6e>
    8d46:	4b44      	ldr	r3, [pc, #272]	; (8e58 <benchmark_body+0xd24>)
    8d48:	681b      	ldr	r3, [r3, #0]
    8d4a:	3b04      	subs	r3, #4
    8d4c:	4a42      	ldr	r2, [pc, #264]	; (8e58 <benchmark_body+0xd24>)
    8d4e:	6013      	str	r3, [r2, #0]
    8d50:	f507 63bf 	add.w	r3, r7, #1528	; 0x5f8
    8d54:	f5a3 7380 	sub.w	r3, r3, #256	; 0x100
    8d58:	f8d7 1500 	ldr.w	r1, [r7, #1280]	; 0x500
    8d5c:	f8d7 24fc 	ldr.w	r2, [r7, #1276]	; 0x4fc
    8d60:	440a      	add	r2, r1
    8d62:	601a      	str	r2, [r3, #0]
    8d64:	4b3a      	ldr	r3, [pc, #232]	; (8e50 <benchmark_body+0xd1c>)
    8d66:	681b      	ldr	r3, [r3, #0]
    8d68:	493a      	ldr	r1, [pc, #232]	; (8e54 <benchmark_body+0xd20>)
    8d6a:	f8d7 2500 	ldr.w	r2, [r7, #1280]	; 0x500
    8d6e:	f841 2023 	str.w	r2, [r1, r3, lsl #2]
    8d72:	4b37      	ldr	r3, [pc, #220]	; (8e50 <benchmark_body+0xd1c>)
    8d74:	681b      	ldr	r3, [r3, #0]
    8d76:	3301      	adds	r3, #1
    8d78:	4936      	ldr	r1, [pc, #216]	; (8e54 <benchmark_body+0xd20>)
    8d7a:	f8d7 24fc 	ldr.w	r2, [r7, #1276]	; 0x4fc
    8d7e:	f841 2023 	str.w	r2, [r1, r3, lsl #2]
    8d82:	4b33      	ldr	r3, [pc, #204]	; (8e50 <benchmark_body+0xd1c>)
    8d84:	681b      	ldr	r3, [r3, #0]
    8d86:	3302      	adds	r3, #2
    8d88:	4932      	ldr	r1, [pc, #200]	; (8e54 <benchmark_body+0xd20>)
    8d8a:	f507 62bf 	add.w	r2, r7, #1528	; 0x5f8
    8d8e:	f5a2 7280 	sub.w	r2, r2, #256	; 0x100
    8d92:	6812      	ldr	r2, [r2, #0]
    8d94:	f841 2023 	str.w	r2, [r1, r3, lsl #2]
    8d98:	4b2d      	ldr	r3, [pc, #180]	; (8e50 <benchmark_body+0xd1c>)
    8d9a:	681b      	ldr	r3, [r3, #0]
    8d9c:	3303      	adds	r3, #3
    8d9e:	4a2c      	ldr	r2, [pc, #176]	; (8e50 <benchmark_body+0xd1c>)
    8da0:	6013      	str	r3, [r2, #0]
    8da2:	4b2d      	ldr	r3, [pc, #180]	; (8e58 <benchmark_body+0xd24>)
    8da4:	681b      	ldr	r3, [r3, #0]
    8da6:	2b03      	cmp	r3, #3
    8da8:	dd6d      	ble.n	8e86 <benchmark_body+0xd52>
    8daa:	4b29      	ldr	r3, [pc, #164]	; (8e50 <benchmark_body+0xd1c>)
    8dac:	681b      	ldr	r3, [r3, #0]
    8dae:	2b03      	cmp	r3, #3
    8db0:	dc69      	bgt.n	8e86 <benchmark_body+0xd52>
    8db2:	4b2a      	ldr	r3, [pc, #168]	; (8e5c <benchmark_body+0xd28>)
    8db4:	685a      	ldr	r2, [r3, #4]
    8db6:	4b29      	ldr	r3, [pc, #164]	; (8e5c <benchmark_body+0xd28>)
    8db8:	68db      	ldr	r3, [r3, #12]
    8dba:	429a      	cmp	r2, r3
    8dbc:	d163      	bne.n	8e86 <benchmark_body+0xd52>
    8dbe:	4b27      	ldr	r3, [pc, #156]	; (8e5c <benchmark_body+0xd28>)
    8dc0:	685a      	ldr	r2, [r3, #4]
    8dc2:	4b26      	ldr	r3, [pc, #152]	; (8e5c <benchmark_body+0xd28>)
    8dc4:	681b      	ldr	r3, [r3, #0]
    8dc6:	429a      	cmp	r2, r3
    8dc8:	d15d      	bne.n	8e86 <benchmark_body+0xd52>
    8dca:	f507 63bf 	add.w	r3, r7, #1528	; 0x5f8
    8dce:	f5a3 7382 	sub.w	r3, r3, #260	; 0x104
    8dd2:	4a22      	ldr	r2, [pc, #136]	; (8e5c <benchmark_body+0xd28>)
    8dd4:	6892      	ldr	r2, [r2, #8]
    8dd6:	601a      	str	r2, [r3, #0]
    8dd8:	f507 63bf 	add.w	r3, r7, #1528	; 0x5f8
    8ddc:	f5a3 7384 	sub.w	r3, r3, #264	; 0x108
    8de0:	4a1e      	ldr	r2, [pc, #120]	; (8e5c <benchmark_body+0xd28>)
    8de2:	6852      	ldr	r2, [r2, #4]
    8de4:	601a      	str	r2, [r3, #0]
    8de6:	f507 63bf 	add.w	r3, r7, #1528	; 0x5f8
    8dea:	f5a3 7284 	sub.w	r2, r3, #264	; 0x108
    8dee:	f507 63bf 	add.w	r3, r7, #1528	; 0x5f8
    8df2:	f5a3 7382 	sub.w	r3, r3, #260	; 0x104
    8df6:	6812      	ldr	r2, [r2, #0]
    8df8:	681b      	ldr	r3, [r3, #0]
    8dfa:	429a      	cmp	r2, r3
    8dfc:	dd43      	ble.n	8e86 <benchmark_body+0xd52>
    8dfe:	4b16      	ldr	r3, [pc, #88]	; (8e58 <benchmark_body+0xd24>)
    8e00:	681b      	ldr	r3, [r3, #0]
    8e02:	3b04      	subs	r3, #4
    8e04:	4a14      	ldr	r2, [pc, #80]	; (8e58 <benchmark_body+0xd24>)
    8e06:	6013      	str	r3, [r2, #0]
    8e08:	f507 63bf 	add.w	r3, r7, #1528	; 0x5f8
    8e0c:	f5a3 7386 	sub.w	r3, r3, #268	; 0x10c
    8e10:	f507 62bf 	add.w	r2, r7, #1528	; 0x5f8
    8e14:	f5a2 7182 	sub.w	r1, r2, #260	; 0x104
    8e18:	f507 62bf 	add.w	r2, r7, #1528	; 0x5f8
    8e1c:	f5a2 7284 	sub.w	r2, r2, #264	; 0x108
    8e20:	6809      	ldr	r1, [r1, #0]
    8e22:	6812      	ldr	r2, [r2, #0]
    8e24:	440a      	add	r2, r1
    8e26:	601a      	str	r2, [r3, #0]
    8e28:	4b09      	ldr	r3, [pc, #36]	; (8e50 <benchmark_body+0xd1c>)
    8e2a:	681b      	ldr	r3, [r3, #0]
    8e2c:	4909      	ldr	r1, [pc, #36]	; (8e54 <benchmark_body+0xd20>)
    8e2e:	f507 62bf 	add.w	r2, r7, #1528	; 0x5f8
    8e32:	f5a2 7282 	sub.w	r2, r2, #260	; 0x104
    8e36:	6812      	ldr	r2, [r2, #0]
    8e38:	f841 2023 	str.w	r2, [r1, r3, lsl #2]
    8e3c:	4b04      	ldr	r3, [pc, #16]	; (8e50 <benchmark_body+0xd1c>)
    8e3e:	681b      	ldr	r3, [r3, #0]
    8e40:	3301      	adds	r3, #1
    8e42:	4904      	ldr	r1, [pc, #16]	; (8e54 <benchmark_body+0xd20>)
    8e44:	f507 62bf 	add.w	r2, r7, #1528	; 0x5f8
    8e48:	f5a2 7284 	sub.w	r2, r2, #264	; 0x108
    8e4c:	e008      	b.n	8e60 <benchmark_body+0xd2c>
    8e4e:	bf00      	nop
    8e50:	0001f118 	.word	0x0001f118
    8e54:	0001f11c 	.word	0x0001f11c
    8e58:	0001ecac 	.word	0x0001ecac
    8e5c:	0001f104 	.word	0x0001f104
    8e60:	6812      	ldr	r2, [r2, #0]
    8e62:	f841 2023 	str.w	r2, [r1, r3, lsl #2]
    8e66:	4ba8      	ldr	r3, [pc, #672]	; (9108 <benchmark_body+0xfd4>)
    8e68:	681b      	ldr	r3, [r3, #0]
    8e6a:	3302      	adds	r3, #2
    8e6c:	49a7      	ldr	r1, [pc, #668]	; (910c <benchmark_body+0xfd8>)
    8e6e:	f507 62bf 	add.w	r2, r7, #1528	; 0x5f8
    8e72:	f5a2 7286 	sub.w	r2, r2, #268	; 0x10c
    8e76:	6812      	ldr	r2, [r2, #0]
    8e78:	f841 2023 	str.w	r2, [r1, r3, lsl #2]
    8e7c:	4ba2      	ldr	r3, [pc, #648]	; (9108 <benchmark_body+0xfd4>)
    8e7e:	681b      	ldr	r3, [r3, #0]
    8e80:	3303      	adds	r3, #3
    8e82:	4aa1      	ldr	r2, [pc, #644]	; (9108 <benchmark_body+0xfd4>)
    8e84:	6013      	str	r3, [r2, #0]
    8e86:	4ba2      	ldr	r3, [pc, #648]	; (9110 <benchmark_body+0xfdc>)
    8e88:	681b      	ldr	r3, [r3, #0]
    8e8a:	2b03      	cmp	r3, #3
    8e8c:	dd63      	ble.n	8f56 <benchmark_body+0xe22>
    8e8e:	4b9e      	ldr	r3, [pc, #632]	; (9108 <benchmark_body+0xfd4>)
    8e90:	681b      	ldr	r3, [r3, #0]
    8e92:	2b03      	cmp	r3, #3
    8e94:	dc5f      	bgt.n	8f56 <benchmark_body+0xe22>
    8e96:	4b9f      	ldr	r3, [pc, #636]	; (9114 <benchmark_body+0xfe0>)
    8e98:	68da      	ldr	r2, [r3, #12]
    8e9a:	4b9e      	ldr	r3, [pc, #632]	; (9114 <benchmark_body+0xfe0>)
    8e9c:	681b      	ldr	r3, [r3, #0]
    8e9e:	429a      	cmp	r2, r3
    8ea0:	d159      	bne.n	8f56 <benchmark_body+0xe22>
    8ea2:	4b9c      	ldr	r3, [pc, #624]	; (9114 <benchmark_body+0xfe0>)
    8ea4:	68da      	ldr	r2, [r3, #12]
    8ea6:	4b9b      	ldr	r3, [pc, #620]	; (9114 <benchmark_body+0xfe0>)
    8ea8:	685b      	ldr	r3, [r3, #4]
    8eaa:	429a      	cmp	r2, r3
    8eac:	d153      	bne.n	8f56 <benchmark_body+0xe22>
    8eae:	f507 63bf 	add.w	r3, r7, #1528	; 0x5f8
    8eb2:	f5a3 7388 	sub.w	r3, r3, #272	; 0x110
    8eb6:	4a97      	ldr	r2, [pc, #604]	; (9114 <benchmark_body+0xfe0>)
    8eb8:	6892      	ldr	r2, [r2, #8]
    8eba:	601a      	str	r2, [r3, #0]
    8ebc:	f507 63bf 	add.w	r3, r7, #1528	; 0x5f8
    8ec0:	f5a3 738a 	sub.w	r3, r3, #276	; 0x114
    8ec4:	4a93      	ldr	r2, [pc, #588]	; (9114 <benchmark_body+0xfe0>)
    8ec6:	68d2      	ldr	r2, [r2, #12]
    8ec8:	601a      	str	r2, [r3, #0]
    8eca:	f507 63bf 	add.w	r3, r7, #1528	; 0x5f8
    8ece:	f5a3 728a 	sub.w	r2, r3, #276	; 0x114
    8ed2:	f507 63bf 	add.w	r3, r7, #1528	; 0x5f8
    8ed6:	f5a3 7388 	sub.w	r3, r3, #272	; 0x110
    8eda:	6812      	ldr	r2, [r2, #0]
    8edc:	681b      	ldr	r3, [r3, #0]
    8ede:	429a      	cmp	r2, r3
    8ee0:	dd39      	ble.n	8f56 <benchmark_body+0xe22>
    8ee2:	4b8b      	ldr	r3, [pc, #556]	; (9110 <benchmark_body+0xfdc>)
    8ee4:	681b      	ldr	r3, [r3, #0]
    8ee6:	3b04      	subs	r3, #4
    8ee8:	4a89      	ldr	r2, [pc, #548]	; (9110 <benchmark_body+0xfdc>)
    8eea:	6013      	str	r3, [r2, #0]
    8eec:	f507 63bf 	add.w	r3, r7, #1528	; 0x5f8
    8ef0:	f5a3 738c 	sub.w	r3, r3, #280	; 0x118
    8ef4:	f507 62bf 	add.w	r2, r7, #1528	; 0x5f8
    8ef8:	f5a2 7188 	sub.w	r1, r2, #272	; 0x110
    8efc:	f507 62bf 	add.w	r2, r7, #1528	; 0x5f8
    8f00:	f5a2 728a 	sub.w	r2, r2, #276	; 0x114
    8f04:	6809      	ldr	r1, [r1, #0]
    8f06:	6812      	ldr	r2, [r2, #0]
    8f08:	440a      	add	r2, r1
    8f0a:	601a      	str	r2, [r3, #0]
    8f0c:	4b7e      	ldr	r3, [pc, #504]	; (9108 <benchmark_body+0xfd4>)
    8f0e:	681b      	ldr	r3, [r3, #0]
    8f10:	497e      	ldr	r1, [pc, #504]	; (910c <benchmark_body+0xfd8>)
    8f12:	f507 62bf 	add.w	r2, r7, #1528	; 0x5f8
    8f16:	f5a2 7288 	sub.w	r2, r2, #272	; 0x110
    8f1a:	6812      	ldr	r2, [r2, #0]
    8f1c:	f841 2023 	str.w	r2, [r1, r3, lsl #2]
    8f20:	4b79      	ldr	r3, [pc, #484]	; (9108 <benchmark_body+0xfd4>)
    8f22:	681b      	ldr	r3, [r3, #0]
    8f24:	3301      	adds	r3, #1
    8f26:	4979      	ldr	r1, [pc, #484]	; (910c <benchmark_body+0xfd8>)
    8f28:	f507 62bf 	add.w	r2, r7, #1528	; 0x5f8
    8f2c:	f5a2 728a 	sub.w	r2, r2, #276	; 0x114
    8f30:	6812      	ldr	r2, [r2, #0]
    8f32:	f841 2023 	str.w	r2, [r1, r3, lsl #2]
    8f36:	4b74      	ldr	r3, [pc, #464]	; (9108 <benchmark_body+0xfd4>)
    8f38:	681b      	ldr	r3, [r3, #0]
    8f3a:	3302      	adds	r3, #2
    8f3c:	4973      	ldr	r1, [pc, #460]	; (910c <benchmark_body+0xfd8>)
    8f3e:	f507 62bf 	add.w	r2, r7, #1528	; 0x5f8
    8f42:	f5a2 728c 	sub.w	r2, r2, #280	; 0x118
    8f46:	6812      	ldr	r2, [r2, #0]
    8f48:	f841 2023 	str.w	r2, [r1, r3, lsl #2]
    8f4c:	4b6e      	ldr	r3, [pc, #440]	; (9108 <benchmark_body+0xfd4>)
    8f4e:	681b      	ldr	r3, [r3, #0]
    8f50:	3303      	adds	r3, #3
    8f52:	4a6d      	ldr	r2, [pc, #436]	; (9108 <benchmark_body+0xfd4>)
    8f54:	6013      	str	r3, [r2, #0]
    8f56:	4b6e      	ldr	r3, [pc, #440]	; (9110 <benchmark_body+0xfdc>)
    8f58:	681b      	ldr	r3, [r3, #0]
    8f5a:	2b03      	cmp	r3, #3
    8f5c:	dd63      	ble.n	9026 <benchmark_body+0xef2>
    8f5e:	4b6a      	ldr	r3, [pc, #424]	; (9108 <benchmark_body+0xfd4>)
    8f60:	681b      	ldr	r3, [r3, #0]
    8f62:	2b03      	cmp	r3, #3
    8f64:	dc5f      	bgt.n	9026 <benchmark_body+0xef2>
    8f66:	4b6b      	ldr	r3, [pc, #428]	; (9114 <benchmark_body+0xfe0>)
    8f68:	68da      	ldr	r2, [r3, #12]
    8f6a:	4b6a      	ldr	r3, [pc, #424]	; (9114 <benchmark_body+0xfe0>)
    8f6c:	685b      	ldr	r3, [r3, #4]
    8f6e:	429a      	cmp	r2, r3
    8f70:	d159      	bne.n	9026 <benchmark_body+0xef2>
    8f72:	4b68      	ldr	r3, [pc, #416]	; (9114 <benchmark_body+0xfe0>)
    8f74:	68da      	ldr	r2, [r3, #12]
    8f76:	4b67      	ldr	r3, [pc, #412]	; (9114 <benchmark_body+0xfe0>)
    8f78:	681b      	ldr	r3, [r3, #0]
    8f7a:	429a      	cmp	r2, r3
    8f7c:	d153      	bne.n	9026 <benchmark_body+0xef2>
    8f7e:	f507 63bf 	add.w	r3, r7, #1528	; 0x5f8
    8f82:	f5a3 738e 	sub.w	r3, r3, #284	; 0x11c
    8f86:	4a63      	ldr	r2, [pc, #396]	; (9114 <benchmark_body+0xfe0>)
    8f88:	6892      	ldr	r2, [r2, #8]
    8f8a:	601a      	str	r2, [r3, #0]
    8f8c:	f507 63bf 	add.w	r3, r7, #1528	; 0x5f8
    8f90:	f5a3 7390 	sub.w	r3, r3, #288	; 0x120
    8f94:	4a5f      	ldr	r2, [pc, #380]	; (9114 <benchmark_body+0xfe0>)
    8f96:	68d2      	ldr	r2, [r2, #12]
    8f98:	601a      	str	r2, [r3, #0]
    8f9a:	f507 63bf 	add.w	r3, r7, #1528	; 0x5f8
    8f9e:	f5a3 7290 	sub.w	r2, r3, #288	; 0x120
    8fa2:	f507 63bf 	add.w	r3, r7, #1528	; 0x5f8
    8fa6:	f5a3 738e 	sub.w	r3, r3, #284	; 0x11c
    8faa:	6812      	ldr	r2, [r2, #0]
    8fac:	681b      	ldr	r3, [r3, #0]
    8fae:	429a      	cmp	r2, r3
    8fb0:	dd39      	ble.n	9026 <benchmark_body+0xef2>
    8fb2:	4b57      	ldr	r3, [pc, #348]	; (9110 <benchmark_body+0xfdc>)
    8fb4:	681b      	ldr	r3, [r3, #0]
    8fb6:	3b04      	subs	r3, #4
    8fb8:	4a55      	ldr	r2, [pc, #340]	; (9110 <benchmark_body+0xfdc>)
    8fba:	6013      	str	r3, [r2, #0]
    8fbc:	f507 63bf 	add.w	r3, r7, #1528	; 0x5f8
    8fc0:	f5a3 7392 	sub.w	r3, r3, #292	; 0x124
    8fc4:	f507 62bf 	add.w	r2, r7, #1528	; 0x5f8
    8fc8:	f5a2 718e 	sub.w	r1, r2, #284	; 0x11c
    8fcc:	f507 62bf 	add.w	r2, r7, #1528	; 0x5f8
    8fd0:	f5a2 7290 	sub.w	r2, r2, #288	; 0x120
    8fd4:	6809      	ldr	r1, [r1, #0]
    8fd6:	6812      	ldr	r2, [r2, #0]
    8fd8:	440a      	add	r2, r1
    8fda:	601a      	str	r2, [r3, #0]
    8fdc:	4b4a      	ldr	r3, [pc, #296]	; (9108 <benchmark_body+0xfd4>)
    8fde:	681b      	ldr	r3, [r3, #0]
    8fe0:	494a      	ldr	r1, [pc, #296]	; (910c <benchmark_body+0xfd8>)
    8fe2:	f507 62bf 	add.w	r2, r7, #1528	; 0x5f8
    8fe6:	f5a2 728e 	sub.w	r2, r2, #284	; 0x11c
    8fea:	6812      	ldr	r2, [r2, #0]
    8fec:	f841 2023 	str.w	r2, [r1, r3, lsl #2]
    8ff0:	4b45      	ldr	r3, [pc, #276]	; (9108 <benchmark_body+0xfd4>)
    8ff2:	681b      	ldr	r3, [r3, #0]
    8ff4:	3301      	adds	r3, #1
    8ff6:	4945      	ldr	r1, [pc, #276]	; (910c <benchmark_body+0xfd8>)
    8ff8:	f507 62bf 	add.w	r2, r7, #1528	; 0x5f8
    8ffc:	f5a2 7290 	sub.w	r2, r2, #288	; 0x120
    9000:	6812      	ldr	r2, [r2, #0]
    9002:	f841 2023 	str.w	r2, [r1, r3, lsl #2]
    9006:	4b40      	ldr	r3, [pc, #256]	; (9108 <benchmark_body+0xfd4>)
    9008:	681b      	ldr	r3, [r3, #0]
    900a:	3302      	adds	r3, #2
    900c:	493f      	ldr	r1, [pc, #252]	; (910c <benchmark_body+0xfd8>)
    900e:	f507 62bf 	add.w	r2, r7, #1528	; 0x5f8
    9012:	f5a2 7292 	sub.w	r2, r2, #292	; 0x124
    9016:	6812      	ldr	r2, [r2, #0]
    9018:	f841 2023 	str.w	r2, [r1, r3, lsl #2]
    901c:	4b3a      	ldr	r3, [pc, #232]	; (9108 <benchmark_body+0xfd4>)
    901e:	681b      	ldr	r3, [r3, #0]
    9020:	3303      	adds	r3, #3
    9022:	4a39      	ldr	r2, [pc, #228]	; (9108 <benchmark_body+0xfd4>)
    9024:	6013      	str	r3, [r2, #0]
    9026:	4b3a      	ldr	r3, [pc, #232]	; (9110 <benchmark_body+0xfdc>)
    9028:	681b      	ldr	r3, [r3, #0]
    902a:	2b03      	cmp	r3, #3
    902c:	dd63      	ble.n	90f6 <benchmark_body+0xfc2>
    902e:	4b36      	ldr	r3, [pc, #216]	; (9108 <benchmark_body+0xfd4>)
    9030:	681b      	ldr	r3, [r3, #0]
    9032:	2b03      	cmp	r3, #3
    9034:	dc5f      	bgt.n	90f6 <benchmark_body+0xfc2>
    9036:	4b37      	ldr	r3, [pc, #220]	; (9114 <benchmark_body+0xfe0>)
    9038:	681a      	ldr	r2, [r3, #0]
    903a:	4b36      	ldr	r3, [pc, #216]	; (9114 <benchmark_body+0xfe0>)
    903c:	685b      	ldr	r3, [r3, #4]
    903e:	429a      	cmp	r2, r3
    9040:	d159      	bne.n	90f6 <benchmark_body+0xfc2>
    9042:	4b34      	ldr	r3, [pc, #208]	; (9114 <benchmark_body+0xfe0>)
    9044:	681a      	ldr	r2, [r3, #0]
    9046:	4b33      	ldr	r3, [pc, #204]	; (9114 <benchmark_body+0xfe0>)
    9048:	689b      	ldr	r3, [r3, #8]
    904a:	429a      	cmp	r2, r3
    904c:	d153      	bne.n	90f6 <benchmark_body+0xfc2>
    904e:	f507 63bf 	add.w	r3, r7, #1528	; 0x5f8
    9052:	f5a3 7394 	sub.w	r3, r3, #296	; 0x128
    9056:	4a2f      	ldr	r2, [pc, #188]	; (9114 <benchmark_body+0xfe0>)
    9058:	68d2      	ldr	r2, [r2, #12]
    905a:	601a      	str	r2, [r3, #0]
    905c:	f507 63bf 	add.w	r3, r7, #1528	; 0x5f8
    9060:	f5a3 7396 	sub.w	r3, r3, #300	; 0x12c
    9064:	4a2b      	ldr	r2, [pc, #172]	; (9114 <benchmark_body+0xfe0>)
    9066:	6812      	ldr	r2, [r2, #0]
    9068:	601a      	str	r2, [r3, #0]
    906a:	f507 63bf 	add.w	r3, r7, #1528	; 0x5f8
    906e:	f5a3 7296 	sub.w	r2, r3, #300	; 0x12c
    9072:	f507 63bf 	add.w	r3, r7, #1528	; 0x5f8
    9076:	f5a3 7394 	sub.w	r3, r3, #296	; 0x128
    907a:	6812      	ldr	r2, [r2, #0]
    907c:	681b      	ldr	r3, [r3, #0]
    907e:	429a      	cmp	r2, r3
    9080:	dd39      	ble.n	90f6 <benchmark_body+0xfc2>
    9082:	4b23      	ldr	r3, [pc, #140]	; (9110 <benchmark_body+0xfdc>)
    9084:	681b      	ldr	r3, [r3, #0]
    9086:	3b04      	subs	r3, #4
    9088:	4a21      	ldr	r2, [pc, #132]	; (9110 <benchmark_body+0xfdc>)
    908a:	6013      	str	r3, [r2, #0]
    908c:	f507 63bf 	add.w	r3, r7, #1528	; 0x5f8
    9090:	f5a3 7398 	sub.w	r3, r3, #304	; 0x130
    9094:	f507 62bf 	add.w	r2, r7, #1528	; 0x5f8
    9098:	f5a2 7194 	sub.w	r1, r2, #296	; 0x128
    909c:	f507 62bf 	add.w	r2, r7, #1528	; 0x5f8
    90a0:	f5a2 7296 	sub.w	r2, r2, #300	; 0x12c
    90a4:	6809      	ldr	r1, [r1, #0]
    90a6:	6812      	ldr	r2, [r2, #0]
    90a8:	440a      	add	r2, r1
    90aa:	601a      	str	r2, [r3, #0]
    90ac:	4b16      	ldr	r3, [pc, #88]	; (9108 <benchmark_body+0xfd4>)
    90ae:	681b      	ldr	r3, [r3, #0]
    90b0:	4916      	ldr	r1, [pc, #88]	; (910c <benchmark_body+0xfd8>)
    90b2:	f507 62bf 	add.w	r2, r7, #1528	; 0x5f8
    90b6:	f5a2 7294 	sub.w	r2, r2, #296	; 0x128
    90ba:	6812      	ldr	r2, [r2, #0]
    90bc:	f841 2023 	str.w	r2, [r1, r3, lsl #2]
    90c0:	4b11      	ldr	r3, [pc, #68]	; (9108 <benchmark_body+0xfd4>)
    90c2:	681b      	ldr	r3, [r3, #0]
    90c4:	3301      	adds	r3, #1
    90c6:	4911      	ldr	r1, [pc, #68]	; (910c <benchmark_body+0xfd8>)
    90c8:	f507 62bf 	add.w	r2, r7, #1528	; 0x5f8
    90cc:	f5a2 7296 	sub.w	r2, r2, #300	; 0x12c
    90d0:	6812      	ldr	r2, [r2, #0]
    90d2:	f841 2023 	str.w	r2, [r1, r3, lsl #2]
    90d6:	4b0c      	ldr	r3, [pc, #48]	; (9108 <benchmark_body+0xfd4>)
    90d8:	681b      	ldr	r3, [r3, #0]
    90da:	3302      	adds	r3, #2
    90dc:	490b      	ldr	r1, [pc, #44]	; (910c <benchmark_body+0xfd8>)
    90de:	f507 62bf 	add.w	r2, r7, #1528	; 0x5f8
    90e2:	f5a2 7298 	sub.w	r2, r2, #304	; 0x130
    90e6:	6812      	ldr	r2, [r2, #0]
    90e8:	f841 2023 	str.w	r2, [r1, r3, lsl #2]
    90ec:	4b06      	ldr	r3, [pc, #24]	; (9108 <benchmark_body+0xfd4>)
    90ee:	681b      	ldr	r3, [r3, #0]
    90f0:	3303      	adds	r3, #3
    90f2:	4a05      	ldr	r2, [pc, #20]	; (9108 <benchmark_body+0xfd4>)
    90f4:	6013      	str	r3, [r2, #0]
    90f6:	4b06      	ldr	r3, [pc, #24]	; (9110 <benchmark_body+0xfdc>)
    90f8:	681b      	ldr	r3, [r3, #0]
    90fa:	2b03      	cmp	r3, #3
    90fc:	dd6d      	ble.n	91da <benchmark_body+0x10a6>
    90fe:	4b02      	ldr	r3, [pc, #8]	; (9108 <benchmark_body+0xfd4>)
    9100:	681b      	ldr	r3, [r3, #0]
    9102:	2b03      	cmp	r3, #3
    9104:	e008      	b.n	9118 <benchmark_body+0xfe4>
    9106:	bf00      	nop
    9108:	0001f118 	.word	0x0001f118
    910c:	0001f11c 	.word	0x0001f11c
    9110:	0001ecac 	.word	0x0001ecac
    9114:	0001f104 	.word	0x0001f104
    9118:	dc5f      	bgt.n	91da <benchmark_body+0x10a6>
    911a:	4ba7      	ldr	r3, [pc, #668]	; (93b8 <benchmark_body+0x1284>)
    911c:	681a      	ldr	r2, [r3, #0]
    911e:	4ba6      	ldr	r3, [pc, #664]	; (93b8 <benchmark_body+0x1284>)
    9120:	689b      	ldr	r3, [r3, #8]
    9122:	429a      	cmp	r2, r3
    9124:	d159      	bne.n	91da <benchmark_body+0x10a6>
    9126:	4ba4      	ldr	r3, [pc, #656]	; (93b8 <benchmark_body+0x1284>)
    9128:	681a      	ldr	r2, [r3, #0]
    912a:	4ba3      	ldr	r3, [pc, #652]	; (93b8 <benchmark_body+0x1284>)
    912c:	685b      	ldr	r3, [r3, #4]
    912e:	429a      	cmp	r2, r3
    9130:	d153      	bne.n	91da <benchmark_body+0x10a6>
    9132:	f507 63bf 	add.w	r3, r7, #1528	; 0x5f8
    9136:	f5a3 739a 	sub.w	r3, r3, #308	; 0x134
    913a:	4a9f      	ldr	r2, [pc, #636]	; (93b8 <benchmark_body+0x1284>)
    913c:	68d2      	ldr	r2, [r2, #12]
    913e:	601a      	str	r2, [r3, #0]
    9140:	f507 63bf 	add.w	r3, r7, #1528	; 0x5f8
    9144:	f5a3 739c 	sub.w	r3, r3, #312	; 0x138
    9148:	4a9b      	ldr	r2, [pc, #620]	; (93b8 <benchmark_body+0x1284>)
    914a:	6812      	ldr	r2, [r2, #0]
    914c:	601a      	str	r2, [r3, #0]
    914e:	f507 63bf 	add.w	r3, r7, #1528	; 0x5f8
    9152:	f5a3 729c 	sub.w	r2, r3, #312	; 0x138
    9156:	f507 63bf 	add.w	r3, r7, #1528	; 0x5f8
    915a:	f5a3 739a 	sub.w	r3, r3, #308	; 0x134
    915e:	6812      	ldr	r2, [r2, #0]
    9160:	681b      	ldr	r3, [r3, #0]
    9162:	429a      	cmp	r2, r3
    9164:	dd39      	ble.n	91da <benchmark_body+0x10a6>
    9166:	4b95      	ldr	r3, [pc, #596]	; (93bc <benchmark_body+0x1288>)
    9168:	681b      	ldr	r3, [r3, #0]
    916a:	3b04      	subs	r3, #4
    916c:	4a93      	ldr	r2, [pc, #588]	; (93bc <benchmark_body+0x1288>)
    916e:	6013      	str	r3, [r2, #0]
    9170:	f507 63bf 	add.w	r3, r7, #1528	; 0x5f8
    9174:	f5a3 739e 	sub.w	r3, r3, #316	; 0x13c
    9178:	f507 62bf 	add.w	r2, r7, #1528	; 0x5f8
    917c:	f5a2 719a 	sub.w	r1, r2, #308	; 0x134
    9180:	f507 62bf 	add.w	r2, r7, #1528	; 0x5f8
    9184:	f5a2 729c 	sub.w	r2, r2, #312	; 0x138
    9188:	6809      	ldr	r1, [r1, #0]
    918a:	6812      	ldr	r2, [r2, #0]
    918c:	440a      	add	r2, r1
    918e:	601a      	str	r2, [r3, #0]
    9190:	4b8b      	ldr	r3, [pc, #556]	; (93c0 <benchmark_body+0x128c>)
    9192:	681b      	ldr	r3, [r3, #0]
    9194:	498b      	ldr	r1, [pc, #556]	; (93c4 <benchmark_body+0x1290>)
    9196:	f507 62bf 	add.w	r2, r7, #1528	; 0x5f8
    919a:	f5a2 729a 	sub.w	r2, r2, #308	; 0x134
    919e:	6812      	ldr	r2, [r2, #0]
    91a0:	f841 2023 	str.w	r2, [r1, r3, lsl #2]
    91a4:	4b86      	ldr	r3, [pc, #536]	; (93c0 <benchmark_body+0x128c>)
    91a6:	681b      	ldr	r3, [r3, #0]
    91a8:	3301      	adds	r3, #1
    91aa:	4986      	ldr	r1, [pc, #536]	; (93c4 <benchmark_body+0x1290>)
    91ac:	f507 62bf 	add.w	r2, r7, #1528	; 0x5f8
    91b0:	f5a2 729c 	sub.w	r2, r2, #312	; 0x138
    91b4:	6812      	ldr	r2, [r2, #0]
    91b6:	f841 2023 	str.w	r2, [r1, r3, lsl #2]
    91ba:	4b81      	ldr	r3, [pc, #516]	; (93c0 <benchmark_body+0x128c>)
    91bc:	681b      	ldr	r3, [r3, #0]
    91be:	3302      	adds	r3, #2
    91c0:	4980      	ldr	r1, [pc, #512]	; (93c4 <benchmark_body+0x1290>)
    91c2:	f507 62bf 	add.w	r2, r7, #1528	; 0x5f8
    91c6:	f5a2 729e 	sub.w	r2, r2, #316	; 0x13c
    91ca:	6812      	ldr	r2, [r2, #0]
    91cc:	f841 2023 	str.w	r2, [r1, r3, lsl #2]
    91d0:	4b7b      	ldr	r3, [pc, #492]	; (93c0 <benchmark_body+0x128c>)
    91d2:	681b      	ldr	r3, [r3, #0]
    91d4:	3303      	adds	r3, #3
    91d6:	4a7a      	ldr	r2, [pc, #488]	; (93c0 <benchmark_body+0x128c>)
    91d8:	6013      	str	r3, [r2, #0]
    91da:	4b78      	ldr	r3, [pc, #480]	; (93bc <benchmark_body+0x1288>)
    91dc:	681b      	ldr	r3, [r3, #0]
    91de:	2b03      	cmp	r3, #3
    91e0:	dd63      	ble.n	92aa <benchmark_body+0x1176>
    91e2:	4b77      	ldr	r3, [pc, #476]	; (93c0 <benchmark_body+0x128c>)
    91e4:	681b      	ldr	r3, [r3, #0]
    91e6:	2b03      	cmp	r3, #3
    91e8:	dc5f      	bgt.n	92aa <benchmark_body+0x1176>
    91ea:	4b73      	ldr	r3, [pc, #460]	; (93b8 <benchmark_body+0x1284>)
    91ec:	685a      	ldr	r2, [r3, #4]
    91ee:	4b72      	ldr	r3, [pc, #456]	; (93b8 <benchmark_body+0x1284>)
    91f0:	681b      	ldr	r3, [r3, #0]
    91f2:	429a      	cmp	r2, r3
    91f4:	d159      	bne.n	92aa <benchmark_body+0x1176>
    91f6:	4b70      	ldr	r3, [pc, #448]	; (93b8 <benchmark_body+0x1284>)
    91f8:	685a      	ldr	r2, [r3, #4]
    91fa:	4b6f      	ldr	r3, [pc, #444]	; (93b8 <benchmark_body+0x1284>)
    91fc:	689b      	ldr	r3, [r3, #8]
    91fe:	429a      	cmp	r2, r3
    9200:	d153      	bne.n	92aa <benchmark_body+0x1176>
    9202:	f507 63bf 	add.w	r3, r7, #1528	; 0x5f8
    9206:	f5a3 73a0 	sub.w	r3, r3, #320	; 0x140
    920a:	4a6b      	ldr	r2, [pc, #428]	; (93b8 <benchmark_body+0x1284>)
    920c:	68d2      	ldr	r2, [r2, #12]
    920e:	601a      	str	r2, [r3, #0]
    9210:	f507 63bf 	add.w	r3, r7, #1528	; 0x5f8
    9214:	f5a3 73a2 	sub.w	r3, r3, #324	; 0x144
    9218:	4a67      	ldr	r2, [pc, #412]	; (93b8 <benchmark_body+0x1284>)
    921a:	6852      	ldr	r2, [r2, #4]
    921c:	601a      	str	r2, [r3, #0]
    921e:	f507 63bf 	add.w	r3, r7, #1528	; 0x5f8
    9222:	f5a3 72a2 	sub.w	r2, r3, #324	; 0x144
    9226:	f507 63bf 	add.w	r3, r7, #1528	; 0x5f8
    922a:	f5a3 73a0 	sub.w	r3, r3, #320	; 0x140
    922e:	6812      	ldr	r2, [r2, #0]
    9230:	681b      	ldr	r3, [r3, #0]
    9232:	429a      	cmp	r2, r3
    9234:	dd39      	ble.n	92aa <benchmark_body+0x1176>
    9236:	4b61      	ldr	r3, [pc, #388]	; (93bc <benchmark_body+0x1288>)
    9238:	681b      	ldr	r3, [r3, #0]
    923a:	3b04      	subs	r3, #4
    923c:	4a5f      	ldr	r2, [pc, #380]	; (93bc <benchmark_body+0x1288>)
    923e:	6013      	str	r3, [r2, #0]
    9240:	f507 63bf 	add.w	r3, r7, #1528	; 0x5f8
    9244:	f5a3 73a4 	sub.w	r3, r3, #328	; 0x148
    9248:	f507 62bf 	add.w	r2, r7, #1528	; 0x5f8
    924c:	f5a2 71a0 	sub.w	r1, r2, #320	; 0x140
    9250:	f507 62bf 	add.w	r2, r7, #1528	; 0x5f8
    9254:	f5a2 72a2 	sub.w	r2, r2, #324	; 0x144
    9258:	6809      	ldr	r1, [r1, #0]
    925a:	6812      	ldr	r2, [r2, #0]
    925c:	440a      	add	r2, r1
    925e:	601a      	str	r2, [r3, #0]
    9260:	4b57      	ldr	r3, [pc, #348]	; (93c0 <benchmark_body+0x128c>)
    9262:	681b      	ldr	r3, [r3, #0]
    9264:	4957      	ldr	r1, [pc, #348]	; (93c4 <benchmark_body+0x1290>)
    9266:	f507 62bf 	add.w	r2, r7, #1528	; 0x5f8
    926a:	f5a2 72a0 	sub.w	r2, r2, #320	; 0x140
    926e:	6812      	ldr	r2, [r2, #0]
    9270:	f841 2023 	str.w	r2, [r1, r3, lsl #2]
    9274:	4b52      	ldr	r3, [pc, #328]	; (93c0 <benchmark_body+0x128c>)
    9276:	681b      	ldr	r3, [r3, #0]
    9278:	3301      	adds	r3, #1
    927a:	4952      	ldr	r1, [pc, #328]	; (93c4 <benchmark_body+0x1290>)
    927c:	f507 62bf 	add.w	r2, r7, #1528	; 0x5f8
    9280:	f5a2 72a2 	sub.w	r2, r2, #324	; 0x144
    9284:	6812      	ldr	r2, [r2, #0]
    9286:	f841 2023 	str.w	r2, [r1, r3, lsl #2]
    928a:	4b4d      	ldr	r3, [pc, #308]	; (93c0 <benchmark_body+0x128c>)
    928c:	681b      	ldr	r3, [r3, #0]
    928e:	3302      	adds	r3, #2
    9290:	494c      	ldr	r1, [pc, #304]	; (93c4 <benchmark_body+0x1290>)
    9292:	f507 62bf 	add.w	r2, r7, #1528	; 0x5f8
    9296:	f5a2 72a4 	sub.w	r2, r2, #328	; 0x148
    929a:	6812      	ldr	r2, [r2, #0]
    929c:	f841 2023 	str.w	r2, [r1, r3, lsl #2]
    92a0:	4b47      	ldr	r3, [pc, #284]	; (93c0 <benchmark_body+0x128c>)
    92a2:	681b      	ldr	r3, [r3, #0]
    92a4:	3303      	adds	r3, #3
    92a6:	4a46      	ldr	r2, [pc, #280]	; (93c0 <benchmark_body+0x128c>)
    92a8:	6013      	str	r3, [r2, #0]
    92aa:	4b44      	ldr	r3, [pc, #272]	; (93bc <benchmark_body+0x1288>)
    92ac:	681b      	ldr	r3, [r3, #0]
    92ae:	2b03      	cmp	r3, #3
    92b0:	dd63      	ble.n	937a <benchmark_body+0x1246>
    92b2:	4b43      	ldr	r3, [pc, #268]	; (93c0 <benchmark_body+0x128c>)
    92b4:	681b      	ldr	r3, [r3, #0]
    92b6:	2b03      	cmp	r3, #3
    92b8:	dc5f      	bgt.n	937a <benchmark_body+0x1246>
    92ba:	4b3f      	ldr	r3, [pc, #252]	; (93b8 <benchmark_body+0x1284>)
    92bc:	685a      	ldr	r2, [r3, #4]
    92be:	4b3e      	ldr	r3, [pc, #248]	; (93b8 <benchmark_body+0x1284>)
    92c0:	689b      	ldr	r3, [r3, #8]
    92c2:	429a      	cmp	r2, r3
    92c4:	d159      	bne.n	937a <benchmark_body+0x1246>
    92c6:	4b3c      	ldr	r3, [pc, #240]	; (93b8 <benchmark_body+0x1284>)
    92c8:	685a      	ldr	r2, [r3, #4]
    92ca:	4b3b      	ldr	r3, [pc, #236]	; (93b8 <benchmark_body+0x1284>)
    92cc:	681b      	ldr	r3, [r3, #0]
    92ce:	429a      	cmp	r2, r3
    92d0:	d153      	bne.n	937a <benchmark_body+0x1246>
    92d2:	f507 63bf 	add.w	r3, r7, #1528	; 0x5f8
    92d6:	f5a3 73a6 	sub.w	r3, r3, #332	; 0x14c
    92da:	4a37      	ldr	r2, [pc, #220]	; (93b8 <benchmark_body+0x1284>)
    92dc:	68d2      	ldr	r2, [r2, #12]
    92de:	601a      	str	r2, [r3, #0]
    92e0:	f507 63bf 	add.w	r3, r7, #1528	; 0x5f8
    92e4:	f5a3 73a8 	sub.w	r3, r3, #336	; 0x150
    92e8:	4a33      	ldr	r2, [pc, #204]	; (93b8 <benchmark_body+0x1284>)
    92ea:	6852      	ldr	r2, [r2, #4]
    92ec:	601a      	str	r2, [r3, #0]
    92ee:	f507 63bf 	add.w	r3, r7, #1528	; 0x5f8
    92f2:	f5a3 72a8 	sub.w	r2, r3, #336	; 0x150
    92f6:	f507 63bf 	add.w	r3, r7, #1528	; 0x5f8
    92fa:	f5a3 73a6 	sub.w	r3, r3, #332	; 0x14c
    92fe:	6812      	ldr	r2, [r2, #0]
    9300:	681b      	ldr	r3, [r3, #0]
    9302:	429a      	cmp	r2, r3
    9304:	dd39      	ble.n	937a <benchmark_body+0x1246>
    9306:	4b2d      	ldr	r3, [pc, #180]	; (93bc <benchmark_body+0x1288>)
    9308:	681b      	ldr	r3, [r3, #0]
    930a:	3b04      	subs	r3, #4
    930c:	4a2b      	ldr	r2, [pc, #172]	; (93bc <benchmark_body+0x1288>)
    930e:	6013      	str	r3, [r2, #0]
    9310:	f507 63bf 	add.w	r3, r7, #1528	; 0x5f8
    9314:	f5a3 73aa 	sub.w	r3, r3, #340	; 0x154
    9318:	f507 62bf 	add.w	r2, r7, #1528	; 0x5f8
    931c:	f5a2 71a6 	sub.w	r1, r2, #332	; 0x14c
    9320:	f507 62bf 	add.w	r2, r7, #1528	; 0x5f8
    9324:	f5a2 72a8 	sub.w	r2, r2, #336	; 0x150
    9328:	6809      	ldr	r1, [r1, #0]
    932a:	6812      	ldr	r2, [r2, #0]
    932c:	440a      	add	r2, r1
    932e:	601a      	str	r2, [r3, #0]
    9330:	4b23      	ldr	r3, [pc, #140]	; (93c0 <benchmark_body+0x128c>)
    9332:	681b      	ldr	r3, [r3, #0]
    9334:	4923      	ldr	r1, [pc, #140]	; (93c4 <benchmark_body+0x1290>)
    9336:	f507 62bf 	add.w	r2, r7, #1528	; 0x5f8
    933a:	f5a2 72a6 	sub.w	r2, r2, #332	; 0x14c
    933e:	6812      	ldr	r2, [r2, #0]
    9340:	f841 2023 	str.w	r2, [r1, r3, lsl #2]
    9344:	4b1e      	ldr	r3, [pc, #120]	; (93c0 <benchmark_body+0x128c>)
    9346:	681b      	ldr	r3, [r3, #0]
    9348:	3301      	adds	r3, #1
    934a:	491e      	ldr	r1, [pc, #120]	; (93c4 <benchmark_body+0x1290>)
    934c:	f507 62bf 	add.w	r2, r7, #1528	; 0x5f8
    9350:	f5a2 72a8 	sub.w	r2, r2, #336	; 0x150
    9354:	6812      	ldr	r2, [r2, #0]
    9356:	f841 2023 	str.w	r2, [r1, r3, lsl #2]
    935a:	4b19      	ldr	r3, [pc, #100]	; (93c0 <benchmark_body+0x128c>)
    935c:	681b      	ldr	r3, [r3, #0]
    935e:	3302      	adds	r3, #2
    9360:	4918      	ldr	r1, [pc, #96]	; (93c4 <benchmark_body+0x1290>)
    9362:	f507 62bf 	add.w	r2, r7, #1528	; 0x5f8
    9366:	f5a2 72aa 	sub.w	r2, r2, #340	; 0x154
    936a:	6812      	ldr	r2, [r2, #0]
    936c:	f841 2023 	str.w	r2, [r1, r3, lsl #2]
    9370:	4b13      	ldr	r3, [pc, #76]	; (93c0 <benchmark_body+0x128c>)
    9372:	681b      	ldr	r3, [r3, #0]
    9374:	3303      	adds	r3, #3
    9376:	4a12      	ldr	r2, [pc, #72]	; (93c0 <benchmark_body+0x128c>)
    9378:	6013      	str	r3, [r2, #0]
    937a:	4b10      	ldr	r3, [pc, #64]	; (93bc <benchmark_body+0x1288>)
    937c:	681b      	ldr	r3, [r3, #0]
    937e:	2b03      	cmp	r3, #3
    9380:	dd6d      	ble.n	945e <benchmark_body+0x132a>
    9382:	4b0f      	ldr	r3, [pc, #60]	; (93c0 <benchmark_body+0x128c>)
    9384:	681b      	ldr	r3, [r3, #0]
    9386:	2b03      	cmp	r3, #3
    9388:	dc69      	bgt.n	945e <benchmark_body+0x132a>
    938a:	4b0b      	ldr	r3, [pc, #44]	; (93b8 <benchmark_body+0x1284>)
    938c:	689a      	ldr	r2, [r3, #8]
    938e:	4b0a      	ldr	r3, [pc, #40]	; (93b8 <benchmark_body+0x1284>)
    9390:	681b      	ldr	r3, [r3, #0]
    9392:	429a      	cmp	r2, r3
    9394:	d163      	bne.n	945e <benchmark_body+0x132a>
    9396:	4b08      	ldr	r3, [pc, #32]	; (93b8 <benchmark_body+0x1284>)
    9398:	689a      	ldr	r2, [r3, #8]
    939a:	4b07      	ldr	r3, [pc, #28]	; (93b8 <benchmark_body+0x1284>)
    939c:	685b      	ldr	r3, [r3, #4]
    939e:	429a      	cmp	r2, r3
    93a0:	d15d      	bne.n	945e <benchmark_body+0x132a>
    93a2:	f507 63bf 	add.w	r3, r7, #1528	; 0x5f8
    93a6:	f5a3 73ac 	sub.w	r3, r3, #344	; 0x158
    93aa:	4a03      	ldr	r2, [pc, #12]	; (93b8 <benchmark_body+0x1284>)
    93ac:	68d2      	ldr	r2, [r2, #12]
    93ae:	601a      	str	r2, [r3, #0]
    93b0:	f507 63bf 	add.w	r3, r7, #1528	; 0x5f8
    93b4:	e008      	b.n	93c8 <benchmark_body+0x1294>
    93b6:	bf00      	nop
    93b8:	0001f104 	.word	0x0001f104
    93bc:	0001ecac 	.word	0x0001ecac
    93c0:	0001f118 	.word	0x0001f118
    93c4:	0001f11c 	.word	0x0001f11c
    93c8:	f5a3 73ae 	sub.w	r3, r3, #348	; 0x15c
    93cc:	4aa6      	ldr	r2, [pc, #664]	; (9668 <benchmark_body+0x1534>)
    93ce:	6892      	ldr	r2, [r2, #8]
    93d0:	601a      	str	r2, [r3, #0]
    93d2:	f507 63bf 	add.w	r3, r7, #1528	; 0x5f8
    93d6:	f5a3 72ae 	sub.w	r2, r3, #348	; 0x15c
    93da:	f507 63bf 	add.w	r3, r7, #1528	; 0x5f8
    93de:	f5a3 73ac 	sub.w	r3, r3, #344	; 0x158
    93e2:	6812      	ldr	r2, [r2, #0]
    93e4:	681b      	ldr	r3, [r3, #0]
    93e6:	429a      	cmp	r2, r3
    93e8:	dd39      	ble.n	945e <benchmark_body+0x132a>
    93ea:	4ba0      	ldr	r3, [pc, #640]	; (966c <benchmark_body+0x1538>)
    93ec:	681b      	ldr	r3, [r3, #0]
    93ee:	3b04      	subs	r3, #4
    93f0:	4a9e      	ldr	r2, [pc, #632]	; (966c <benchmark_body+0x1538>)
    93f2:	6013      	str	r3, [r2, #0]
    93f4:	f507 63bf 	add.w	r3, r7, #1528	; 0x5f8
    93f8:	f5a3 73b0 	sub.w	r3, r3, #352	; 0x160
    93fc:	f507 62bf 	add.w	r2, r7, #1528	; 0x5f8
    9400:	f5a2 71ac 	sub.w	r1, r2, #344	; 0x158
    9404:	f507 62bf 	add.w	r2, r7, #1528	; 0x5f8
    9408:	f5a2 72ae 	sub.w	r2, r2, #348	; 0x15c
    940c:	6809      	ldr	r1, [r1, #0]
    940e:	6812      	ldr	r2, [r2, #0]
    9410:	440a      	add	r2, r1
    9412:	601a      	str	r2, [r3, #0]
    9414:	4b96      	ldr	r3, [pc, #600]	; (9670 <benchmark_body+0x153c>)
    9416:	681b      	ldr	r3, [r3, #0]
    9418:	4996      	ldr	r1, [pc, #600]	; (9674 <benchmark_body+0x1540>)
    941a:	f507 62bf 	add.w	r2, r7, #1528	; 0x5f8
    941e:	f5a2 72ac 	sub.w	r2, r2, #344	; 0x158
    9422:	6812      	ldr	r2, [r2, #0]
    9424:	f841 2023 	str.w	r2, [r1, r3, lsl #2]
    9428:	4b91      	ldr	r3, [pc, #580]	; (9670 <benchmark_body+0x153c>)
    942a:	681b      	ldr	r3, [r3, #0]
    942c:	3301      	adds	r3, #1
    942e:	4991      	ldr	r1, [pc, #580]	; (9674 <benchmark_body+0x1540>)
    9430:	f507 62bf 	add.w	r2, r7, #1528	; 0x5f8
    9434:	f5a2 72ae 	sub.w	r2, r2, #348	; 0x15c
    9438:	6812      	ldr	r2, [r2, #0]
    943a:	f841 2023 	str.w	r2, [r1, r3, lsl #2]
    943e:	4b8c      	ldr	r3, [pc, #560]	; (9670 <benchmark_body+0x153c>)
    9440:	681b      	ldr	r3, [r3, #0]
    9442:	3302      	adds	r3, #2
    9444:	498b      	ldr	r1, [pc, #556]	; (9674 <benchmark_body+0x1540>)
    9446:	f507 62bf 	add.w	r2, r7, #1528	; 0x5f8
    944a:	f5a2 72b0 	sub.w	r2, r2, #352	; 0x160
    944e:	6812      	ldr	r2, [r2, #0]
    9450:	f841 2023 	str.w	r2, [r1, r3, lsl #2]
    9454:	4b86      	ldr	r3, [pc, #536]	; (9670 <benchmark_body+0x153c>)
    9456:	681b      	ldr	r3, [r3, #0]
    9458:	3303      	adds	r3, #3
    945a:	4a85      	ldr	r2, [pc, #532]	; (9670 <benchmark_body+0x153c>)
    945c:	6013      	str	r3, [r2, #0]
    945e:	4b83      	ldr	r3, [pc, #524]	; (966c <benchmark_body+0x1538>)
    9460:	681b      	ldr	r3, [r3, #0]
    9462:	2b03      	cmp	r3, #3
    9464:	dd63      	ble.n	952e <benchmark_body+0x13fa>
    9466:	4b82      	ldr	r3, [pc, #520]	; (9670 <benchmark_body+0x153c>)
    9468:	681b      	ldr	r3, [r3, #0]
    946a:	2b03      	cmp	r3, #3
    946c:	dc5f      	bgt.n	952e <benchmark_body+0x13fa>
    946e:	4b7e      	ldr	r3, [pc, #504]	; (9668 <benchmark_body+0x1534>)
    9470:	689a      	ldr	r2, [r3, #8]
    9472:	4b7d      	ldr	r3, [pc, #500]	; (9668 <benchmark_body+0x1534>)
    9474:	685b      	ldr	r3, [r3, #4]
    9476:	429a      	cmp	r2, r3
    9478:	d159      	bne.n	952e <benchmark_body+0x13fa>
    947a:	4b7b      	ldr	r3, [pc, #492]	; (9668 <benchmark_body+0x1534>)
    947c:	689a      	ldr	r2, [r3, #8]
    947e:	4b7a      	ldr	r3, [pc, #488]	; (9668 <benchmark_body+0x1534>)
    9480:	681b      	ldr	r3, [r3, #0]
    9482:	429a      	cmp	r2, r3
    9484:	d153      	bne.n	952e <benchmark_body+0x13fa>
    9486:	f507 63bf 	add.w	r3, r7, #1528	; 0x5f8
    948a:	f5a3 73b2 	sub.w	r3, r3, #356	; 0x164
    948e:	4a76      	ldr	r2, [pc, #472]	; (9668 <benchmark_body+0x1534>)
    9490:	68d2      	ldr	r2, [r2, #12]
    9492:	601a      	str	r2, [r3, #0]
    9494:	f507 63bf 	add.w	r3, r7, #1528	; 0x5f8
    9498:	f5a3 73b4 	sub.w	r3, r3, #360	; 0x168
    949c:	4a72      	ldr	r2, [pc, #456]	; (9668 <benchmark_body+0x1534>)
    949e:	6892      	ldr	r2, [r2, #8]
    94a0:	601a      	str	r2, [r3, #0]
    94a2:	f507 63bf 	add.w	r3, r7, #1528	; 0x5f8
    94a6:	f5a3 72b4 	sub.w	r2, r3, #360	; 0x168
    94aa:	f507 63bf 	add.w	r3, r7, #1528	; 0x5f8
    94ae:	f5a3 73b2 	sub.w	r3, r3, #356	; 0x164
    94b2:	6812      	ldr	r2, [r2, #0]
    94b4:	681b      	ldr	r3, [r3, #0]
    94b6:	429a      	cmp	r2, r3
    94b8:	dd39      	ble.n	952e <benchmark_body+0x13fa>
    94ba:	4b6c      	ldr	r3, [pc, #432]	; (966c <benchmark_body+0x1538>)
    94bc:	681b      	ldr	r3, [r3, #0]
    94be:	3b04      	subs	r3, #4
    94c0:	4a6a      	ldr	r2, [pc, #424]	; (966c <benchmark_body+0x1538>)
    94c2:	6013      	str	r3, [r2, #0]
    94c4:	f507 63bf 	add.w	r3, r7, #1528	; 0x5f8
    94c8:	f5a3 73b6 	sub.w	r3, r3, #364	; 0x16c
    94cc:	f507 62bf 	add.w	r2, r7, #1528	; 0x5f8
    94d0:	f5a2 71b2 	sub.w	r1, r2, #356	; 0x164
    94d4:	f507 62bf 	add.w	r2, r7, #1528	; 0x5f8
    94d8:	f5a2 72b4 	sub.w	r2, r2, #360	; 0x168
    94dc:	6809      	ldr	r1, [r1, #0]
    94de:	6812      	ldr	r2, [r2, #0]
    94e0:	440a      	add	r2, r1
    94e2:	601a      	str	r2, [r3, #0]
    94e4:	4b62      	ldr	r3, [pc, #392]	; (9670 <benchmark_body+0x153c>)
    94e6:	681b      	ldr	r3, [r3, #0]
    94e8:	4962      	ldr	r1, [pc, #392]	; (9674 <benchmark_body+0x1540>)
    94ea:	f507 62bf 	add.w	r2, r7, #1528	; 0x5f8
    94ee:	f5a2 72b2 	sub.w	r2, r2, #356	; 0x164
    94f2:	6812      	ldr	r2, [r2, #0]
    94f4:	f841 2023 	str.w	r2, [r1, r3, lsl #2]
    94f8:	4b5d      	ldr	r3, [pc, #372]	; (9670 <benchmark_body+0x153c>)
    94fa:	681b      	ldr	r3, [r3, #0]
    94fc:	3301      	adds	r3, #1
    94fe:	495d      	ldr	r1, [pc, #372]	; (9674 <benchmark_body+0x1540>)
    9500:	f507 62bf 	add.w	r2, r7, #1528	; 0x5f8
    9504:	f5a2 72b4 	sub.w	r2, r2, #360	; 0x168
    9508:	6812      	ldr	r2, [r2, #0]
    950a:	f841 2023 	str.w	r2, [r1, r3, lsl #2]
    950e:	4b58      	ldr	r3, [pc, #352]	; (9670 <benchmark_body+0x153c>)
    9510:	681b      	ldr	r3, [r3, #0]
    9512:	3302      	adds	r3, #2
    9514:	4957      	ldr	r1, [pc, #348]	; (9674 <benchmark_body+0x1540>)
    9516:	f507 62bf 	add.w	r2, r7, #1528	; 0x5f8
    951a:	f5a2 72b6 	sub.w	r2, r2, #364	; 0x16c
    951e:	6812      	ldr	r2, [r2, #0]
    9520:	f841 2023 	str.w	r2, [r1, r3, lsl #2]
    9524:	4b52      	ldr	r3, [pc, #328]	; (9670 <benchmark_body+0x153c>)
    9526:	681b      	ldr	r3, [r3, #0]
    9528:	3303      	adds	r3, #3
    952a:	4a51      	ldr	r2, [pc, #324]	; (9670 <benchmark_body+0x153c>)
    952c:	6013      	str	r3, [r2, #0]
    952e:	4b4f      	ldr	r3, [pc, #316]	; (966c <benchmark_body+0x1538>)
    9530:	681b      	ldr	r3, [r3, #0]
    9532:	2b04      	cmp	r3, #4
    9534:	dd67      	ble.n	9606 <benchmark_body+0x14d2>
    9536:	4b4e      	ldr	r3, [pc, #312]	; (9670 <benchmark_body+0x153c>)
    9538:	681b      	ldr	r3, [r3, #0]
    953a:	2b03      	cmp	r3, #3
    953c:	dc63      	bgt.n	9606 <benchmark_body+0x14d2>
    953e:	4b4a      	ldr	r3, [pc, #296]	; (9668 <benchmark_body+0x1534>)
    9540:	685a      	ldr	r2, [r3, #4]
    9542:	4b49      	ldr	r3, [pc, #292]	; (9668 <benchmark_body+0x1534>)
    9544:	689b      	ldr	r3, [r3, #8]
    9546:	429a      	cmp	r2, r3
    9548:	d15d      	bne.n	9606 <benchmark_body+0x14d2>
    954a:	4b47      	ldr	r3, [pc, #284]	; (9668 <benchmark_body+0x1534>)
    954c:	685a      	ldr	r2, [r3, #4]
    954e:	4b46      	ldr	r3, [pc, #280]	; (9668 <benchmark_body+0x1534>)
    9550:	691b      	ldr	r3, [r3, #16]
    9552:	429a      	cmp	r2, r3
    9554:	d157      	bne.n	9606 <benchmark_body+0x14d2>
    9556:	f507 63bf 	add.w	r3, r7, #1528	; 0x5f8
    955a:	f5a3 73b8 	sub.w	r3, r3, #368	; 0x170
    955e:	4a42      	ldr	r2, [pc, #264]	; (9668 <benchmark_body+0x1534>)
    9560:	6812      	ldr	r2, [r2, #0]
    9562:	601a      	str	r2, [r3, #0]
    9564:	f507 63bf 	add.w	r3, r7, #1528	; 0x5f8
    9568:	f5a3 73ba 	sub.w	r3, r3, #372	; 0x174
    956c:	4a3e      	ldr	r2, [pc, #248]	; (9668 <benchmark_body+0x1534>)
    956e:	6852      	ldr	r2, [r2, #4]
    9570:	601a      	str	r2, [r3, #0]
    9572:	f507 63bf 	add.w	r3, r7, #1528	; 0x5f8
    9576:	f5a3 72ba 	sub.w	r2, r3, #372	; 0x174
    957a:	f507 63bf 	add.w	r3, r7, #1528	; 0x5f8
    957e:	f5a3 73b8 	sub.w	r3, r3, #368	; 0x170
    9582:	6812      	ldr	r2, [r2, #0]
    9584:	681b      	ldr	r3, [r3, #0]
    9586:	429a      	cmp	r2, r3
    9588:	dd3d      	ble.n	9606 <benchmark_body+0x14d2>
    958a:	4b37      	ldr	r3, [pc, #220]	; (9668 <benchmark_body+0x1534>)
    958c:	68db      	ldr	r3, [r3, #12]
    958e:	4a36      	ldr	r2, [pc, #216]	; (9668 <benchmark_body+0x1534>)
    9590:	6013      	str	r3, [r2, #0]
    9592:	4b36      	ldr	r3, [pc, #216]	; (966c <benchmark_body+0x1538>)
    9594:	681b      	ldr	r3, [r3, #0]
    9596:	3b04      	subs	r3, #4
    9598:	4a34      	ldr	r2, [pc, #208]	; (966c <benchmark_body+0x1538>)
    959a:	6013      	str	r3, [r2, #0]
    959c:	f507 63bf 	add.w	r3, r7, #1528	; 0x5f8
    95a0:	f5a3 73bc 	sub.w	r3, r3, #376	; 0x178
    95a4:	f507 62bf 	add.w	r2, r7, #1528	; 0x5f8
    95a8:	f5a2 71b8 	sub.w	r1, r2, #368	; 0x170
    95ac:	f507 62bf 	add.w	r2, r7, #1528	; 0x5f8
    95b0:	f5a2 72ba 	sub.w	r2, r2, #372	; 0x174
    95b4:	6809      	ldr	r1, [r1, #0]
    95b6:	6812      	ldr	r2, [r2, #0]
    95b8:	440a      	add	r2, r1
    95ba:	601a      	str	r2, [r3, #0]
    95bc:	4b2c      	ldr	r3, [pc, #176]	; (9670 <benchmark_body+0x153c>)
    95be:	681b      	ldr	r3, [r3, #0]
    95c0:	492c      	ldr	r1, [pc, #176]	; (9674 <benchmark_body+0x1540>)
    95c2:	f507 62bf 	add.w	r2, r7, #1528	; 0x5f8
    95c6:	f5a2 72b8 	sub.w	r2, r2, #368	; 0x170
    95ca:	6812      	ldr	r2, [r2, #0]
    95cc:	f841 2023 	str.w	r2, [r1, r3, lsl #2]
    95d0:	4b27      	ldr	r3, [pc, #156]	; (9670 <benchmark_body+0x153c>)
    95d2:	681b      	ldr	r3, [r3, #0]
    95d4:	3301      	adds	r3, #1
    95d6:	4927      	ldr	r1, [pc, #156]	; (9674 <benchmark_body+0x1540>)
    95d8:	f507 62bf 	add.w	r2, r7, #1528	; 0x5f8
    95dc:	f5a2 72ba 	sub.w	r2, r2, #372	; 0x174
    95e0:	6812      	ldr	r2, [r2, #0]
    95e2:	f841 2023 	str.w	r2, [r1, r3, lsl #2]
    95e6:	4b22      	ldr	r3, [pc, #136]	; (9670 <benchmark_body+0x153c>)
    95e8:	681b      	ldr	r3, [r3, #0]
    95ea:	3302      	adds	r3, #2
    95ec:	4921      	ldr	r1, [pc, #132]	; (9674 <benchmark_body+0x1540>)
    95ee:	f507 62bf 	add.w	r2, r7, #1528	; 0x5f8
    95f2:	f5a2 72bc 	sub.w	r2, r2, #376	; 0x178
    95f6:	6812      	ldr	r2, [r2, #0]
    95f8:	f841 2023 	str.w	r2, [r1, r3, lsl #2]
    95fc:	4b1c      	ldr	r3, [pc, #112]	; (9670 <benchmark_body+0x153c>)
    95fe:	681b      	ldr	r3, [r3, #0]
    9600:	3303      	adds	r3, #3
    9602:	4a1b      	ldr	r2, [pc, #108]	; (9670 <benchmark_body+0x153c>)
    9604:	6013      	str	r3, [r2, #0]
    9606:	4b19      	ldr	r3, [pc, #100]	; (966c <benchmark_body+0x1538>)
    9608:	681b      	ldr	r3, [r3, #0]
    960a:	2b04      	cmp	r3, #4
    960c:	dd70      	ble.n	96f0 <benchmark_body+0x15bc>
    960e:	4b18      	ldr	r3, [pc, #96]	; (9670 <benchmark_body+0x153c>)
    9610:	681b      	ldr	r3, [r3, #0]
    9612:	2b03      	cmp	r3, #3
    9614:	dc6c      	bgt.n	96f0 <benchmark_body+0x15bc>
    9616:	4b14      	ldr	r3, [pc, #80]	; (9668 <benchmark_body+0x1534>)
    9618:	685a      	ldr	r2, [r3, #4]
    961a:	4b13      	ldr	r3, [pc, #76]	; (9668 <benchmark_body+0x1534>)
    961c:	68db      	ldr	r3, [r3, #12]
    961e:	429a      	cmp	r2, r3
    9620:	d166      	bne.n	96f0 <benchmark_body+0x15bc>
    9622:	4b11      	ldr	r3, [pc, #68]	; (9668 <benchmark_body+0x1534>)
    9624:	685a      	ldr	r2, [r3, #4]
    9626:	4b10      	ldr	r3, [pc, #64]	; (9668 <benchmark_body+0x1534>)
    9628:	691b      	ldr	r3, [r3, #16]
    962a:	429a      	cmp	r2, r3
    962c:	d160      	bne.n	96f0 <benchmark_body+0x15bc>
    962e:	f507 63bf 	add.w	r3, r7, #1528	; 0x5f8
    9632:	f5a3 73be 	sub.w	r3, r3, #380	; 0x17c
    9636:	4a0c      	ldr	r2, [pc, #48]	; (9668 <benchmark_body+0x1534>)
    9638:	6812      	ldr	r2, [r2, #0]
    963a:	601a      	str	r2, [r3, #0]
    963c:	f507 63bf 	add.w	r3, r7, #1528	; 0x5f8
    9640:	f5a3 73c0 	sub.w	r3, r3, #384	; 0x180
    9644:	4a08      	ldr	r2, [pc, #32]	; (9668 <benchmark_body+0x1534>)
    9646:	6852      	ldr	r2, [r2, #4]
    9648:	601a      	str	r2, [r3, #0]
    964a:	f507 63bf 	add.w	r3, r7, #1528	; 0x5f8
    964e:	f5a3 72c0 	sub.w	r2, r3, #384	; 0x180
    9652:	f507 63bf 	add.w	r3, r7, #1528	; 0x5f8
    9656:	f5a3 73be 	sub.w	r3, r3, #380	; 0x17c
    965a:	6812      	ldr	r2, [r2, #0]
    965c:	681b      	ldr	r3, [r3, #0]
    965e:	429a      	cmp	r2, r3
    9660:	dd46      	ble.n	96f0 <benchmark_body+0x15bc>
    9662:	4b01      	ldr	r3, [pc, #4]	; (9668 <benchmark_body+0x1534>)
    9664:	689b      	ldr	r3, [r3, #8]
    9666:	e007      	b.n	9678 <benchmark_body+0x1544>
    9668:	0001f104 	.word	0x0001f104
    966c:	0001ecac 	.word	0x0001ecac
    9670:	0001f118 	.word	0x0001f118
    9674:	0001f11c 	.word	0x0001f11c
    9678:	4aa5      	ldr	r2, [pc, #660]	; (9910 <benchmark_body+0x17dc>)
    967a:	6013      	str	r3, [r2, #0]
    967c:	4ba5      	ldr	r3, [pc, #660]	; (9914 <benchmark_body+0x17e0>)
    967e:	681b      	ldr	r3, [r3, #0]
    9680:	3b04      	subs	r3, #4
    9682:	4aa4      	ldr	r2, [pc, #656]	; (9914 <benchmark_body+0x17e0>)
    9684:	6013      	str	r3, [r2, #0]
    9686:	f507 63bf 	add.w	r3, r7, #1528	; 0x5f8
    968a:	f5a3 73c2 	sub.w	r3, r3, #388	; 0x184
    968e:	f507 62bf 	add.w	r2, r7, #1528	; 0x5f8
    9692:	f5a2 71be 	sub.w	r1, r2, #380	; 0x17c
    9696:	f507 62bf 	add.w	r2, r7, #1528	; 0x5f8
    969a:	f5a2 72c0 	sub.w	r2, r2, #384	; 0x180
    969e:	6809      	ldr	r1, [r1, #0]
    96a0:	6812      	ldr	r2, [r2, #0]
    96a2:	440a      	add	r2, r1
    96a4:	601a      	str	r2, [r3, #0]
    96a6:	4b9c      	ldr	r3, [pc, #624]	; (9918 <benchmark_body+0x17e4>)
    96a8:	681b      	ldr	r3, [r3, #0]
    96aa:	499c      	ldr	r1, [pc, #624]	; (991c <benchmark_body+0x17e8>)
    96ac:	f507 62bf 	add.w	r2, r7, #1528	; 0x5f8
    96b0:	f5a2 72be 	sub.w	r2, r2, #380	; 0x17c
    96b4:	6812      	ldr	r2, [r2, #0]
    96b6:	f841 2023 	str.w	r2, [r1, r3, lsl #2]
    96ba:	4b97      	ldr	r3, [pc, #604]	; (9918 <benchmark_body+0x17e4>)
    96bc:	681b      	ldr	r3, [r3, #0]
    96be:	3301      	adds	r3, #1
    96c0:	4996      	ldr	r1, [pc, #600]	; (991c <benchmark_body+0x17e8>)
    96c2:	f507 62bf 	add.w	r2, r7, #1528	; 0x5f8
    96c6:	f5a2 72c0 	sub.w	r2, r2, #384	; 0x180
    96ca:	6812      	ldr	r2, [r2, #0]
    96cc:	f841 2023 	str.w	r2, [r1, r3, lsl #2]
    96d0:	4b91      	ldr	r3, [pc, #580]	; (9918 <benchmark_body+0x17e4>)
    96d2:	681b      	ldr	r3, [r3, #0]
    96d4:	3302      	adds	r3, #2
    96d6:	4991      	ldr	r1, [pc, #580]	; (991c <benchmark_body+0x17e8>)
    96d8:	f507 62bf 	add.w	r2, r7, #1528	; 0x5f8
    96dc:	f5a2 72c2 	sub.w	r2, r2, #388	; 0x184
    96e0:	6812      	ldr	r2, [r2, #0]
    96e2:	f841 2023 	str.w	r2, [r1, r3, lsl #2]
    96e6:	4b8c      	ldr	r3, [pc, #560]	; (9918 <benchmark_body+0x17e4>)
    96e8:	681b      	ldr	r3, [r3, #0]
    96ea:	3303      	adds	r3, #3
    96ec:	4a8a      	ldr	r2, [pc, #552]	; (9918 <benchmark_body+0x17e4>)
    96ee:	6013      	str	r3, [r2, #0]
    96f0:	4b88      	ldr	r3, [pc, #544]	; (9914 <benchmark_body+0x17e0>)
    96f2:	681b      	ldr	r3, [r3, #0]
    96f4:	2b04      	cmp	r3, #4
    96f6:	dd67      	ble.n	97c8 <benchmark_body+0x1694>
    96f8:	4b87      	ldr	r3, [pc, #540]	; (9918 <benchmark_body+0x17e4>)
    96fa:	681b      	ldr	r3, [r3, #0]
    96fc:	2b03      	cmp	r3, #3
    96fe:	dc63      	bgt.n	97c8 <benchmark_body+0x1694>
    9700:	4b83      	ldr	r3, [pc, #524]	; (9910 <benchmark_body+0x17dc>)
    9702:	685a      	ldr	r2, [r3, #4]
    9704:	4b82      	ldr	r3, [pc, #520]	; (9910 <benchmark_body+0x17dc>)
    9706:	691b      	ldr	r3, [r3, #16]
    9708:	429a      	cmp	r2, r3
    970a:	d15d      	bne.n	97c8 <benchmark_body+0x1694>
    970c:	4b80      	ldr	r3, [pc, #512]	; (9910 <benchmark_body+0x17dc>)
    970e:	685a      	ldr	r2, [r3, #4]
    9710:	4b7f      	ldr	r3, [pc, #508]	; (9910 <benchmark_body+0x17dc>)
    9712:	689b      	ldr	r3, [r3, #8]
    9714:	429a      	cmp	r2, r3
    9716:	d157      	bne.n	97c8 <benchmark_body+0x1694>
    9718:	f507 63bf 	add.w	r3, r7, #1528	; 0x5f8
    971c:	f5a3 73c4 	sub.w	r3, r3, #392	; 0x188
    9720:	4a7b      	ldr	r2, [pc, #492]	; (9910 <benchmark_body+0x17dc>)
    9722:	6812      	ldr	r2, [r2, #0]
    9724:	601a      	str	r2, [r3, #0]
    9726:	f507 63bf 	add.w	r3, r7, #1528	; 0x5f8
    972a:	f5a3 73c6 	sub.w	r3, r3, #396	; 0x18c
    972e:	4a78      	ldr	r2, [pc, #480]	; (9910 <benchmark_body+0x17dc>)
    9730:	6852      	ldr	r2, [r2, #4]
    9732:	601a      	str	r2, [r3, #0]
    9734:	f507 63bf 	add.w	r3, r7, #1528	; 0x5f8
    9738:	f5a3 72c6 	sub.w	r2, r3, #396	; 0x18c
    973c:	f507 63bf 	add.w	r3, r7, #1528	; 0x5f8
    9740:	f5a3 73c4 	sub.w	r3, r3, #392	; 0x188
    9744:	6812      	ldr	r2, [r2, #0]
    9746:	681b      	ldr	r3, [r3, #0]
    9748:	429a      	cmp	r2, r3
    974a:	dd3d      	ble.n	97c8 <benchmark_body+0x1694>
    974c:	4b70      	ldr	r3, [pc, #448]	; (9910 <benchmark_body+0x17dc>)
    974e:	68db      	ldr	r3, [r3, #12]
    9750:	4a6f      	ldr	r2, [pc, #444]	; (9910 <benchmark_body+0x17dc>)
    9752:	6013      	str	r3, [r2, #0]
    9754:	4b6f      	ldr	r3, [pc, #444]	; (9914 <benchmark_body+0x17e0>)
    9756:	681b      	ldr	r3, [r3, #0]
    9758:	3b04      	subs	r3, #4
    975a:	4a6e      	ldr	r2, [pc, #440]	; (9914 <benchmark_body+0x17e0>)
    975c:	6013      	str	r3, [r2, #0]
    975e:	f507 63bf 	add.w	r3, r7, #1528	; 0x5f8
    9762:	f5a3 73c8 	sub.w	r3, r3, #400	; 0x190
    9766:	f507 62bf 	add.w	r2, r7, #1528	; 0x5f8
    976a:	f5a2 71c4 	sub.w	r1, r2, #392	; 0x188
    976e:	f507 62bf 	add.w	r2, r7, #1528	; 0x5f8
    9772:	f5a2 72c6 	sub.w	r2, r2, #396	; 0x18c
    9776:	6809      	ldr	r1, [r1, #0]
    9778:	6812      	ldr	r2, [r2, #0]
    977a:	440a      	add	r2, r1
    977c:	601a      	str	r2, [r3, #0]
    977e:	4b66      	ldr	r3, [pc, #408]	; (9918 <benchmark_body+0x17e4>)
    9780:	681b      	ldr	r3, [r3, #0]
    9782:	4966      	ldr	r1, [pc, #408]	; (991c <benchmark_body+0x17e8>)
    9784:	f507 62bf 	add.w	r2, r7, #1528	; 0x5f8
    9788:	f5a2 72c4 	sub.w	r2, r2, #392	; 0x188
    978c:	6812      	ldr	r2, [r2, #0]
    978e:	f841 2023 	str.w	r2, [r1, r3, lsl #2]
    9792:	4b61      	ldr	r3, [pc, #388]	; (9918 <benchmark_body+0x17e4>)
    9794:	681b      	ldr	r3, [r3, #0]
    9796:	3301      	adds	r3, #1
    9798:	4960      	ldr	r1, [pc, #384]	; (991c <benchmark_body+0x17e8>)
    979a:	f507 62bf 	add.w	r2, r7, #1528	; 0x5f8
    979e:	f5a2 72c6 	sub.w	r2, r2, #396	; 0x18c
    97a2:	6812      	ldr	r2, [r2, #0]
    97a4:	f841 2023 	str.w	r2, [r1, r3, lsl #2]
    97a8:	4b5b      	ldr	r3, [pc, #364]	; (9918 <benchmark_body+0x17e4>)
    97aa:	681b      	ldr	r3, [r3, #0]
    97ac:	3302      	adds	r3, #2
    97ae:	495b      	ldr	r1, [pc, #364]	; (991c <benchmark_body+0x17e8>)
    97b0:	f507 62bf 	add.w	r2, r7, #1528	; 0x5f8
    97b4:	f5a2 72c8 	sub.w	r2, r2, #400	; 0x190
    97b8:	6812      	ldr	r2, [r2, #0]
    97ba:	f841 2023 	str.w	r2, [r1, r3, lsl #2]
    97be:	4b56      	ldr	r3, [pc, #344]	; (9918 <benchmark_body+0x17e4>)
    97c0:	681b      	ldr	r3, [r3, #0]
    97c2:	3303      	adds	r3, #3
    97c4:	4a54      	ldr	r2, [pc, #336]	; (9918 <benchmark_body+0x17e4>)
    97c6:	6013      	str	r3, [r2, #0]
    97c8:	4b52      	ldr	r3, [pc, #328]	; (9914 <benchmark_body+0x17e0>)
    97ca:	681b      	ldr	r3, [r3, #0]
    97cc:	2b04      	cmp	r3, #4
    97ce:	dd67      	ble.n	98a0 <benchmark_body+0x176c>
    97d0:	4b51      	ldr	r3, [pc, #324]	; (9918 <benchmark_body+0x17e4>)
    97d2:	681b      	ldr	r3, [r3, #0]
    97d4:	2b03      	cmp	r3, #3
    97d6:	dc63      	bgt.n	98a0 <benchmark_body+0x176c>
    97d8:	4b4d      	ldr	r3, [pc, #308]	; (9910 <benchmark_body+0x17dc>)
    97da:	685a      	ldr	r2, [r3, #4]
    97dc:	4b4c      	ldr	r3, [pc, #304]	; (9910 <benchmark_body+0x17dc>)
    97de:	691b      	ldr	r3, [r3, #16]
    97e0:	429a      	cmp	r2, r3
    97e2:	d15d      	bne.n	98a0 <benchmark_body+0x176c>
    97e4:	4b4a      	ldr	r3, [pc, #296]	; (9910 <benchmark_body+0x17dc>)
    97e6:	685a      	ldr	r2, [r3, #4]
    97e8:	4b49      	ldr	r3, [pc, #292]	; (9910 <benchmark_body+0x17dc>)
    97ea:	68db      	ldr	r3, [r3, #12]
    97ec:	429a      	cmp	r2, r3
    97ee:	d157      	bne.n	98a0 <benchmark_body+0x176c>
    97f0:	f507 63bf 	add.w	r3, r7, #1528	; 0x5f8
    97f4:	f5a3 73ca 	sub.w	r3, r3, #404	; 0x194
    97f8:	4a45      	ldr	r2, [pc, #276]	; (9910 <benchmark_body+0x17dc>)
    97fa:	6812      	ldr	r2, [r2, #0]
    97fc:	601a      	str	r2, [r3, #0]
    97fe:	f507 63bf 	add.w	r3, r7, #1528	; 0x5f8
    9802:	f5a3 73cc 	sub.w	r3, r3, #408	; 0x198
    9806:	4a42      	ldr	r2, [pc, #264]	; (9910 <benchmark_body+0x17dc>)
    9808:	6852      	ldr	r2, [r2, #4]
    980a:	601a      	str	r2, [r3, #0]
    980c:	f507 63bf 	add.w	r3, r7, #1528	; 0x5f8
    9810:	f5a3 72cc 	sub.w	r2, r3, #408	; 0x198
    9814:	f507 63bf 	add.w	r3, r7, #1528	; 0x5f8
    9818:	f5a3 73ca 	sub.w	r3, r3, #404	; 0x194
    981c:	6812      	ldr	r2, [r2, #0]
    981e:	681b      	ldr	r3, [r3, #0]
    9820:	429a      	cmp	r2, r3
    9822:	dd3d      	ble.n	98a0 <benchmark_body+0x176c>
    9824:	4b3a      	ldr	r3, [pc, #232]	; (9910 <benchmark_body+0x17dc>)
    9826:	689b      	ldr	r3, [r3, #8]
    9828:	4a39      	ldr	r2, [pc, #228]	; (9910 <benchmark_body+0x17dc>)
    982a:	6013      	str	r3, [r2, #0]
    982c:	4b39      	ldr	r3, [pc, #228]	; (9914 <benchmark_body+0x17e0>)
    982e:	681b      	ldr	r3, [r3, #0]
    9830:	3b04      	subs	r3, #4
    9832:	4a38      	ldr	r2, [pc, #224]	; (9914 <benchmark_body+0x17e0>)
    9834:	6013      	str	r3, [r2, #0]
    9836:	f507 63bf 	add.w	r3, r7, #1528	; 0x5f8
    983a:	f5a3 73ce 	sub.w	r3, r3, #412	; 0x19c
    983e:	f507 62bf 	add.w	r2, r7, #1528	; 0x5f8
    9842:	f5a2 71ca 	sub.w	r1, r2, #404	; 0x194
    9846:	f507 62bf 	add.w	r2, r7, #1528	; 0x5f8
    984a:	f5a2 72cc 	sub.w	r2, r2, #408	; 0x198
    984e:	6809      	ldr	r1, [r1, #0]
    9850:	6812      	ldr	r2, [r2, #0]
    9852:	440a      	add	r2, r1
    9854:	601a      	str	r2, [r3, #0]
    9856:	4b30      	ldr	r3, [pc, #192]	; (9918 <benchmark_body+0x17e4>)
    9858:	681b      	ldr	r3, [r3, #0]
    985a:	4930      	ldr	r1, [pc, #192]	; (991c <benchmark_body+0x17e8>)
    985c:	f507 62bf 	add.w	r2, r7, #1528	; 0x5f8
    9860:	f5a2 72ca 	sub.w	r2, r2, #404	; 0x194
    9864:	6812      	ldr	r2, [r2, #0]
    9866:	f841 2023 	str.w	r2, [r1, r3, lsl #2]
    986a:	4b2b      	ldr	r3, [pc, #172]	; (9918 <benchmark_body+0x17e4>)
    986c:	681b      	ldr	r3, [r3, #0]
    986e:	3301      	adds	r3, #1
    9870:	492a      	ldr	r1, [pc, #168]	; (991c <benchmark_body+0x17e8>)
    9872:	f507 62bf 	add.w	r2, r7, #1528	; 0x5f8
    9876:	f5a2 72cc 	sub.w	r2, r2, #408	; 0x198
    987a:	6812      	ldr	r2, [r2, #0]
    987c:	f841 2023 	str.w	r2, [r1, r3, lsl #2]
    9880:	4b25      	ldr	r3, [pc, #148]	; (9918 <benchmark_body+0x17e4>)
    9882:	681b      	ldr	r3, [r3, #0]
    9884:	3302      	adds	r3, #2
    9886:	4925      	ldr	r1, [pc, #148]	; (991c <benchmark_body+0x17e8>)
    9888:	f507 62bf 	add.w	r2, r7, #1528	; 0x5f8
    988c:	f5a2 72ce 	sub.w	r2, r2, #412	; 0x19c
    9890:	6812      	ldr	r2, [r2, #0]
    9892:	f841 2023 	str.w	r2, [r1, r3, lsl #2]
    9896:	4b20      	ldr	r3, [pc, #128]	; (9918 <benchmark_body+0x17e4>)
    9898:	681b      	ldr	r3, [r3, #0]
    989a:	3303      	adds	r3, #3
    989c:	4a1e      	ldr	r2, [pc, #120]	; (9918 <benchmark_body+0x17e4>)
    989e:	6013      	str	r3, [r2, #0]
    98a0:	4b1c      	ldr	r3, [pc, #112]	; (9914 <benchmark_body+0x17e0>)
    98a2:	681b      	ldr	r3, [r3, #0]
    98a4:	2b04      	cmp	r3, #4
    98a6:	dd70      	ble.n	998a <benchmark_body+0x1856>
    98a8:	4b1b      	ldr	r3, [pc, #108]	; (9918 <benchmark_body+0x17e4>)
    98aa:	681b      	ldr	r3, [r3, #0]
    98ac:	2b03      	cmp	r3, #3
    98ae:	dc6c      	bgt.n	998a <benchmark_body+0x1856>
    98b0:	4b17      	ldr	r3, [pc, #92]	; (9910 <benchmark_body+0x17dc>)
    98b2:	689a      	ldr	r2, [r3, #8]
    98b4:	4b16      	ldr	r3, [pc, #88]	; (9910 <benchmark_body+0x17dc>)
    98b6:	685b      	ldr	r3, [r3, #4]
    98b8:	429a      	cmp	r2, r3
    98ba:	d166      	bne.n	998a <benchmark_body+0x1856>
    98bc:	4b14      	ldr	r3, [pc, #80]	; (9910 <benchmark_body+0x17dc>)
    98be:	689a      	ldr	r2, [r3, #8]
    98c0:	4b13      	ldr	r3, [pc, #76]	; (9910 <benchmark_body+0x17dc>)
    98c2:	691b      	ldr	r3, [r3, #16]
    98c4:	429a      	cmp	r2, r3
    98c6:	d160      	bne.n	998a <benchmark_body+0x1856>
    98c8:	f507 63bf 	add.w	r3, r7, #1528	; 0x5f8
    98cc:	f5a3 73d0 	sub.w	r3, r3, #416	; 0x1a0
    98d0:	4a0f      	ldr	r2, [pc, #60]	; (9910 <benchmark_body+0x17dc>)
    98d2:	6812      	ldr	r2, [r2, #0]
    98d4:	601a      	str	r2, [r3, #0]
    98d6:	f507 63bf 	add.w	r3, r7, #1528	; 0x5f8
    98da:	f5a3 73d2 	sub.w	r3, r3, #420	; 0x1a4
    98de:	4a0c      	ldr	r2, [pc, #48]	; (9910 <benchmark_body+0x17dc>)
    98e0:	6892      	ldr	r2, [r2, #8]
    98e2:	601a      	str	r2, [r3, #0]
    98e4:	f507 63bf 	add.w	r3, r7, #1528	; 0x5f8
    98e8:	f5a3 72d2 	sub.w	r2, r3, #420	; 0x1a4
    98ec:	f507 63bf 	add.w	r3, r7, #1528	; 0x5f8
    98f0:	f5a3 73d0 	sub.w	r3, r3, #416	; 0x1a0
    98f4:	6812      	ldr	r2, [r2, #0]
    98f6:	681b      	ldr	r3, [r3, #0]
    98f8:	429a      	cmp	r2, r3
    98fa:	dd46      	ble.n	998a <benchmark_body+0x1856>
    98fc:	4b04      	ldr	r3, [pc, #16]	; (9910 <benchmark_body+0x17dc>)
    98fe:	68db      	ldr	r3, [r3, #12]
    9900:	4a03      	ldr	r2, [pc, #12]	; (9910 <benchmark_body+0x17dc>)
    9902:	6013      	str	r3, [r2, #0]
    9904:	4b03      	ldr	r3, [pc, #12]	; (9914 <benchmark_body+0x17e0>)
    9906:	681b      	ldr	r3, [r3, #0]
    9908:	3b04      	subs	r3, #4
    990a:	4a02      	ldr	r2, [pc, #8]	; (9914 <benchmark_body+0x17e0>)
    990c:	6013      	str	r3, [r2, #0]
    990e:	e007      	b.n	9920 <benchmark_body+0x17ec>
    9910:	0001f104 	.word	0x0001f104
    9914:	0001ecac 	.word	0x0001ecac
    9918:	0001f118 	.word	0x0001f118
    991c:	0001f11c 	.word	0x0001f11c
    9920:	f507 63bf 	add.w	r3, r7, #1528	; 0x5f8
    9924:	f5a3 73d4 	sub.w	r3, r3, #424	; 0x1a8
    9928:	f507 62bf 	add.w	r2, r7, #1528	; 0x5f8
    992c:	f5a2 71d0 	sub.w	r1, r2, #416	; 0x1a0
    9930:	f507 62bf 	add.w	r2, r7, #1528	; 0x5f8
    9934:	f5a2 72d2 	sub.w	r2, r2, #420	; 0x1a4
    9938:	6809      	ldr	r1, [r1, #0]
    993a:	6812      	ldr	r2, [r2, #0]
    993c:	440a      	add	r2, r1
    993e:	601a      	str	r2, [r3, #0]
    9940:	4ba6      	ldr	r3, [pc, #664]	; (9bdc <benchmark_body+0x1aa8>)
    9942:	681b      	ldr	r3, [r3, #0]
    9944:	49a6      	ldr	r1, [pc, #664]	; (9be0 <benchmark_body+0x1aac>)
    9946:	f507 62bf 	add.w	r2, r7, #1528	; 0x5f8
    994a:	f5a2 72d0 	sub.w	r2, r2, #416	; 0x1a0
    994e:	6812      	ldr	r2, [r2, #0]
    9950:	f841 2023 	str.w	r2, [r1, r3, lsl #2]
    9954:	4ba1      	ldr	r3, [pc, #644]	; (9bdc <benchmark_body+0x1aa8>)
    9956:	681b      	ldr	r3, [r3, #0]
    9958:	3301      	adds	r3, #1
    995a:	49a1      	ldr	r1, [pc, #644]	; (9be0 <benchmark_body+0x1aac>)
    995c:	f507 62bf 	add.w	r2, r7, #1528	; 0x5f8
    9960:	f5a2 72d2 	sub.w	r2, r2, #420	; 0x1a4
    9964:	6812      	ldr	r2, [r2, #0]
    9966:	f841 2023 	str.w	r2, [r1, r3, lsl #2]
    996a:	4b9c      	ldr	r3, [pc, #624]	; (9bdc <benchmark_body+0x1aa8>)
    996c:	681b      	ldr	r3, [r3, #0]
    996e:	3302      	adds	r3, #2
    9970:	499b      	ldr	r1, [pc, #620]	; (9be0 <benchmark_body+0x1aac>)
    9972:	f507 62bf 	add.w	r2, r7, #1528	; 0x5f8
    9976:	f5a2 72d4 	sub.w	r2, r2, #424	; 0x1a8
    997a:	6812      	ldr	r2, [r2, #0]
    997c:	f841 2023 	str.w	r2, [r1, r3, lsl #2]
    9980:	4b96      	ldr	r3, [pc, #600]	; (9bdc <benchmark_body+0x1aa8>)
    9982:	681b      	ldr	r3, [r3, #0]
    9984:	3303      	adds	r3, #3
    9986:	4a95      	ldr	r2, [pc, #596]	; (9bdc <benchmark_body+0x1aa8>)
    9988:	6013      	str	r3, [r2, #0]
    998a:	4b96      	ldr	r3, [pc, #600]	; (9be4 <benchmark_body+0x1ab0>)
    998c:	681b      	ldr	r3, [r3, #0]
    998e:	2b04      	cmp	r3, #4
    9990:	dd67      	ble.n	9a62 <benchmark_body+0x192e>
    9992:	4b92      	ldr	r3, [pc, #584]	; (9bdc <benchmark_body+0x1aa8>)
    9994:	681b      	ldr	r3, [r3, #0]
    9996:	2b03      	cmp	r3, #3
    9998:	dc63      	bgt.n	9a62 <benchmark_body+0x192e>
    999a:	4b93      	ldr	r3, [pc, #588]	; (9be8 <benchmark_body+0x1ab4>)
    999c:	689a      	ldr	r2, [r3, #8]
    999e:	4b92      	ldr	r3, [pc, #584]	; (9be8 <benchmark_body+0x1ab4>)
    99a0:	68db      	ldr	r3, [r3, #12]
    99a2:	429a      	cmp	r2, r3
    99a4:	d15d      	bne.n	9a62 <benchmark_body+0x192e>
    99a6:	4b90      	ldr	r3, [pc, #576]	; (9be8 <benchmark_body+0x1ab4>)
    99a8:	689a      	ldr	r2, [r3, #8]
    99aa:	4b8f      	ldr	r3, [pc, #572]	; (9be8 <benchmark_body+0x1ab4>)
    99ac:	691b      	ldr	r3, [r3, #16]
    99ae:	429a      	cmp	r2, r3
    99b0:	d157      	bne.n	9a62 <benchmark_body+0x192e>
    99b2:	f507 63bf 	add.w	r3, r7, #1528	; 0x5f8
    99b6:	f5a3 73d6 	sub.w	r3, r3, #428	; 0x1ac
    99ba:	4a8b      	ldr	r2, [pc, #556]	; (9be8 <benchmark_body+0x1ab4>)
    99bc:	6812      	ldr	r2, [r2, #0]
    99be:	601a      	str	r2, [r3, #0]
    99c0:	f507 63bf 	add.w	r3, r7, #1528	; 0x5f8
    99c4:	f5a3 73d8 	sub.w	r3, r3, #432	; 0x1b0
    99c8:	4a87      	ldr	r2, [pc, #540]	; (9be8 <benchmark_body+0x1ab4>)
    99ca:	6892      	ldr	r2, [r2, #8]
    99cc:	601a      	str	r2, [r3, #0]
    99ce:	f507 63bf 	add.w	r3, r7, #1528	; 0x5f8
    99d2:	f5a3 72d8 	sub.w	r2, r3, #432	; 0x1b0
    99d6:	f507 63bf 	add.w	r3, r7, #1528	; 0x5f8
    99da:	f5a3 73d6 	sub.w	r3, r3, #428	; 0x1ac
    99de:	6812      	ldr	r2, [r2, #0]
    99e0:	681b      	ldr	r3, [r3, #0]
    99e2:	429a      	cmp	r2, r3
    99e4:	dd3d      	ble.n	9a62 <benchmark_body+0x192e>
    99e6:	4b80      	ldr	r3, [pc, #512]	; (9be8 <benchmark_body+0x1ab4>)
    99e8:	685b      	ldr	r3, [r3, #4]
    99ea:	4a7f      	ldr	r2, [pc, #508]	; (9be8 <benchmark_body+0x1ab4>)
    99ec:	6013      	str	r3, [r2, #0]
    99ee:	4b7d      	ldr	r3, [pc, #500]	; (9be4 <benchmark_body+0x1ab0>)
    99f0:	681b      	ldr	r3, [r3, #0]
    99f2:	3b04      	subs	r3, #4
    99f4:	4a7b      	ldr	r2, [pc, #492]	; (9be4 <benchmark_body+0x1ab0>)
    99f6:	6013      	str	r3, [r2, #0]
    99f8:	f507 63bf 	add.w	r3, r7, #1528	; 0x5f8
    99fc:	f5a3 73da 	sub.w	r3, r3, #436	; 0x1b4
    9a00:	f507 62bf 	add.w	r2, r7, #1528	; 0x5f8
    9a04:	f5a2 71d6 	sub.w	r1, r2, #428	; 0x1ac
    9a08:	f507 62bf 	add.w	r2, r7, #1528	; 0x5f8
    9a0c:	f5a2 72d8 	sub.w	r2, r2, #432	; 0x1b0
    9a10:	6809      	ldr	r1, [r1, #0]
    9a12:	6812      	ldr	r2, [r2, #0]
    9a14:	440a      	add	r2, r1
    9a16:	601a      	str	r2, [r3, #0]
    9a18:	4b70      	ldr	r3, [pc, #448]	; (9bdc <benchmark_body+0x1aa8>)
    9a1a:	681b      	ldr	r3, [r3, #0]
    9a1c:	4970      	ldr	r1, [pc, #448]	; (9be0 <benchmark_body+0x1aac>)
    9a1e:	f507 62bf 	add.w	r2, r7, #1528	; 0x5f8
    9a22:	f5a2 72d6 	sub.w	r2, r2, #428	; 0x1ac
    9a26:	6812      	ldr	r2, [r2, #0]
    9a28:	f841 2023 	str.w	r2, [r1, r3, lsl #2]
    9a2c:	4b6b      	ldr	r3, [pc, #428]	; (9bdc <benchmark_body+0x1aa8>)
    9a2e:	681b      	ldr	r3, [r3, #0]
    9a30:	3301      	adds	r3, #1
    9a32:	496b      	ldr	r1, [pc, #428]	; (9be0 <benchmark_body+0x1aac>)
    9a34:	f507 62bf 	add.w	r2, r7, #1528	; 0x5f8
    9a38:	f5a2 72d8 	sub.w	r2, r2, #432	; 0x1b0
    9a3c:	6812      	ldr	r2, [r2, #0]
    9a3e:	f841 2023 	str.w	r2, [r1, r3, lsl #2]
    9a42:	4b66      	ldr	r3, [pc, #408]	; (9bdc <benchmark_body+0x1aa8>)
    9a44:	681b      	ldr	r3, [r3, #0]
    9a46:	3302      	adds	r3, #2
    9a48:	4965      	ldr	r1, [pc, #404]	; (9be0 <benchmark_body+0x1aac>)
    9a4a:	f507 62bf 	add.w	r2, r7, #1528	; 0x5f8
    9a4e:	f5a2 72da 	sub.w	r2, r2, #436	; 0x1b4
    9a52:	6812      	ldr	r2, [r2, #0]
    9a54:	f841 2023 	str.w	r2, [r1, r3, lsl #2]
    9a58:	4b60      	ldr	r3, [pc, #384]	; (9bdc <benchmark_body+0x1aa8>)
    9a5a:	681b      	ldr	r3, [r3, #0]
    9a5c:	3303      	adds	r3, #3
    9a5e:	4a5f      	ldr	r2, [pc, #380]	; (9bdc <benchmark_body+0x1aa8>)
    9a60:	6013      	str	r3, [r2, #0]
    9a62:	4b60      	ldr	r3, [pc, #384]	; (9be4 <benchmark_body+0x1ab0>)
    9a64:	681b      	ldr	r3, [r3, #0]
    9a66:	2b04      	cmp	r3, #4
    9a68:	dd67      	ble.n	9b3a <benchmark_body+0x1a06>
    9a6a:	4b5c      	ldr	r3, [pc, #368]	; (9bdc <benchmark_body+0x1aa8>)
    9a6c:	681b      	ldr	r3, [r3, #0]
    9a6e:	2b03      	cmp	r3, #3
    9a70:	dc63      	bgt.n	9b3a <benchmark_body+0x1a06>
    9a72:	4b5d      	ldr	r3, [pc, #372]	; (9be8 <benchmark_body+0x1ab4>)
    9a74:	689a      	ldr	r2, [r3, #8]
    9a76:	4b5c      	ldr	r3, [pc, #368]	; (9be8 <benchmark_body+0x1ab4>)
    9a78:	691b      	ldr	r3, [r3, #16]
    9a7a:	429a      	cmp	r2, r3
    9a7c:	d15d      	bne.n	9b3a <benchmark_body+0x1a06>
    9a7e:	4b5a      	ldr	r3, [pc, #360]	; (9be8 <benchmark_body+0x1ab4>)
    9a80:	689a      	ldr	r2, [r3, #8]
    9a82:	4b59      	ldr	r3, [pc, #356]	; (9be8 <benchmark_body+0x1ab4>)
    9a84:	685b      	ldr	r3, [r3, #4]
    9a86:	429a      	cmp	r2, r3
    9a88:	d157      	bne.n	9b3a <benchmark_body+0x1a06>
    9a8a:	f507 63bf 	add.w	r3, r7, #1528	; 0x5f8
    9a8e:	f5a3 73dc 	sub.w	r3, r3, #440	; 0x1b8
    9a92:	4a55      	ldr	r2, [pc, #340]	; (9be8 <benchmark_body+0x1ab4>)
    9a94:	6812      	ldr	r2, [r2, #0]
    9a96:	601a      	str	r2, [r3, #0]
    9a98:	f507 63bf 	add.w	r3, r7, #1528	; 0x5f8
    9a9c:	f5a3 73de 	sub.w	r3, r3, #444	; 0x1bc
    9aa0:	4a51      	ldr	r2, [pc, #324]	; (9be8 <benchmark_body+0x1ab4>)
    9aa2:	6892      	ldr	r2, [r2, #8]
    9aa4:	601a      	str	r2, [r3, #0]
    9aa6:	f507 63bf 	add.w	r3, r7, #1528	; 0x5f8
    9aaa:	f5a3 72de 	sub.w	r2, r3, #444	; 0x1bc
    9aae:	f507 63bf 	add.w	r3, r7, #1528	; 0x5f8
    9ab2:	f5a3 73dc 	sub.w	r3, r3, #440	; 0x1b8
    9ab6:	6812      	ldr	r2, [r2, #0]
    9ab8:	681b      	ldr	r3, [r3, #0]
    9aba:	429a      	cmp	r2, r3
    9abc:	dd3d      	ble.n	9b3a <benchmark_body+0x1a06>
    9abe:	4b4a      	ldr	r3, [pc, #296]	; (9be8 <benchmark_body+0x1ab4>)
    9ac0:	68db      	ldr	r3, [r3, #12]
    9ac2:	4a49      	ldr	r2, [pc, #292]	; (9be8 <benchmark_body+0x1ab4>)
    9ac4:	6013      	str	r3, [r2, #0]
    9ac6:	4b47      	ldr	r3, [pc, #284]	; (9be4 <benchmark_body+0x1ab0>)
    9ac8:	681b      	ldr	r3, [r3, #0]
    9aca:	3b04      	subs	r3, #4
    9acc:	4a45      	ldr	r2, [pc, #276]	; (9be4 <benchmark_body+0x1ab0>)
    9ace:	6013      	str	r3, [r2, #0]
    9ad0:	f507 63bf 	add.w	r3, r7, #1528	; 0x5f8
    9ad4:	f5a3 73e0 	sub.w	r3, r3, #448	; 0x1c0
    9ad8:	f507 62bf 	add.w	r2, r7, #1528	; 0x5f8
    9adc:	f5a2 71dc 	sub.w	r1, r2, #440	; 0x1b8
    9ae0:	f507 62bf 	add.w	r2, r7, #1528	; 0x5f8
    9ae4:	f5a2 72de 	sub.w	r2, r2, #444	; 0x1bc
    9ae8:	6809      	ldr	r1, [r1, #0]
    9aea:	6812      	ldr	r2, [r2, #0]
    9aec:	440a      	add	r2, r1
    9aee:	601a      	str	r2, [r3, #0]
    9af0:	4b3a      	ldr	r3, [pc, #232]	; (9bdc <benchmark_body+0x1aa8>)
    9af2:	681b      	ldr	r3, [r3, #0]
    9af4:	493a      	ldr	r1, [pc, #232]	; (9be0 <benchmark_body+0x1aac>)
    9af6:	f507 62bf 	add.w	r2, r7, #1528	; 0x5f8
    9afa:	f5a2 72dc 	sub.w	r2, r2, #440	; 0x1b8
    9afe:	6812      	ldr	r2, [r2, #0]
    9b00:	f841 2023 	str.w	r2, [r1, r3, lsl #2]
    9b04:	4b35      	ldr	r3, [pc, #212]	; (9bdc <benchmark_body+0x1aa8>)
    9b06:	681b      	ldr	r3, [r3, #0]
    9b08:	3301      	adds	r3, #1
    9b0a:	4935      	ldr	r1, [pc, #212]	; (9be0 <benchmark_body+0x1aac>)
    9b0c:	f507 62bf 	add.w	r2, r7, #1528	; 0x5f8
    9b10:	f5a2 72de 	sub.w	r2, r2, #444	; 0x1bc
    9b14:	6812      	ldr	r2, [r2, #0]
    9b16:	f841 2023 	str.w	r2, [r1, r3, lsl #2]
    9b1a:	4b30      	ldr	r3, [pc, #192]	; (9bdc <benchmark_body+0x1aa8>)
    9b1c:	681b      	ldr	r3, [r3, #0]
    9b1e:	3302      	adds	r3, #2
    9b20:	492f      	ldr	r1, [pc, #188]	; (9be0 <benchmark_body+0x1aac>)
    9b22:	f507 62bf 	add.w	r2, r7, #1528	; 0x5f8
    9b26:	f5a2 72e0 	sub.w	r2, r2, #448	; 0x1c0
    9b2a:	6812      	ldr	r2, [r2, #0]
    9b2c:	f841 2023 	str.w	r2, [r1, r3, lsl #2]
    9b30:	4b2a      	ldr	r3, [pc, #168]	; (9bdc <benchmark_body+0x1aa8>)
    9b32:	681b      	ldr	r3, [r3, #0]
    9b34:	3303      	adds	r3, #3
    9b36:	4a29      	ldr	r2, [pc, #164]	; (9bdc <benchmark_body+0x1aa8>)
    9b38:	6013      	str	r3, [r2, #0]
    9b3a:	4b2a      	ldr	r3, [pc, #168]	; (9be4 <benchmark_body+0x1ab0>)
    9b3c:	681b      	ldr	r3, [r3, #0]
    9b3e:	2b04      	cmp	r3, #4
    9b40:	dd71      	ble.n	9c26 <benchmark_body+0x1af2>
    9b42:	4b26      	ldr	r3, [pc, #152]	; (9bdc <benchmark_body+0x1aa8>)
    9b44:	681b      	ldr	r3, [r3, #0]
    9b46:	2b03      	cmp	r3, #3
    9b48:	dc6d      	bgt.n	9c26 <benchmark_body+0x1af2>
    9b4a:	4b27      	ldr	r3, [pc, #156]	; (9be8 <benchmark_body+0x1ab4>)
    9b4c:	689a      	ldr	r2, [r3, #8]
    9b4e:	4b26      	ldr	r3, [pc, #152]	; (9be8 <benchmark_body+0x1ab4>)
    9b50:	691b      	ldr	r3, [r3, #16]
    9b52:	429a      	cmp	r2, r3
    9b54:	d167      	bne.n	9c26 <benchmark_body+0x1af2>
    9b56:	4b24      	ldr	r3, [pc, #144]	; (9be8 <benchmark_body+0x1ab4>)
    9b58:	689a      	ldr	r2, [r3, #8]
    9b5a:	4b23      	ldr	r3, [pc, #140]	; (9be8 <benchmark_body+0x1ab4>)
    9b5c:	68db      	ldr	r3, [r3, #12]
    9b5e:	429a      	cmp	r2, r3
    9b60:	d161      	bne.n	9c26 <benchmark_body+0x1af2>
    9b62:	f507 63bf 	add.w	r3, r7, #1528	; 0x5f8
    9b66:	f5a3 73e2 	sub.w	r3, r3, #452	; 0x1c4
    9b6a:	4a1f      	ldr	r2, [pc, #124]	; (9be8 <benchmark_body+0x1ab4>)
    9b6c:	6812      	ldr	r2, [r2, #0]
    9b6e:	601a      	str	r2, [r3, #0]
    9b70:	f507 63bf 	add.w	r3, r7, #1528	; 0x5f8
    9b74:	f5a3 73e4 	sub.w	r3, r3, #456	; 0x1c8
    9b78:	4a1b      	ldr	r2, [pc, #108]	; (9be8 <benchmark_body+0x1ab4>)
    9b7a:	6892      	ldr	r2, [r2, #8]
    9b7c:	601a      	str	r2, [r3, #0]
    9b7e:	f507 63bf 	add.w	r3, r7, #1528	; 0x5f8
    9b82:	f5a3 72e4 	sub.w	r2, r3, #456	; 0x1c8
    9b86:	f507 63bf 	add.w	r3, r7, #1528	; 0x5f8
    9b8a:	f5a3 73e2 	sub.w	r3, r3, #452	; 0x1c4
    9b8e:	6812      	ldr	r2, [r2, #0]
    9b90:	681b      	ldr	r3, [r3, #0]
    9b92:	429a      	cmp	r2, r3
    9b94:	dd47      	ble.n	9c26 <benchmark_body+0x1af2>
    9b96:	4b14      	ldr	r3, [pc, #80]	; (9be8 <benchmark_body+0x1ab4>)
    9b98:	685b      	ldr	r3, [r3, #4]
    9b9a:	4a13      	ldr	r2, [pc, #76]	; (9be8 <benchmark_body+0x1ab4>)
    9b9c:	6013      	str	r3, [r2, #0]
    9b9e:	4b11      	ldr	r3, [pc, #68]	; (9be4 <benchmark_body+0x1ab0>)
    9ba0:	681b      	ldr	r3, [r3, #0]
    9ba2:	3b04      	subs	r3, #4
    9ba4:	4a0f      	ldr	r2, [pc, #60]	; (9be4 <benchmark_body+0x1ab0>)
    9ba6:	6013      	str	r3, [r2, #0]
    9ba8:	f507 63bf 	add.w	r3, r7, #1528	; 0x5f8
    9bac:	f5a3 73e6 	sub.w	r3, r3, #460	; 0x1cc
    9bb0:	f507 62bf 	add.w	r2, r7, #1528	; 0x5f8
    9bb4:	f5a2 71e2 	sub.w	r1, r2, #452	; 0x1c4
    9bb8:	f507 62bf 	add.w	r2, r7, #1528	; 0x5f8
    9bbc:	f5a2 72e4 	sub.w	r2, r2, #456	; 0x1c8
    9bc0:	6809      	ldr	r1, [r1, #0]
    9bc2:	6812      	ldr	r2, [r2, #0]
    9bc4:	440a      	add	r2, r1
    9bc6:	601a      	str	r2, [r3, #0]
    9bc8:	4b04      	ldr	r3, [pc, #16]	; (9bdc <benchmark_body+0x1aa8>)
    9bca:	681b      	ldr	r3, [r3, #0]
    9bcc:	4904      	ldr	r1, [pc, #16]	; (9be0 <benchmark_body+0x1aac>)
    9bce:	f507 62bf 	add.w	r2, r7, #1528	; 0x5f8
    9bd2:	f5a2 72e2 	sub.w	r2, r2, #452	; 0x1c4
    9bd6:	6812      	ldr	r2, [r2, #0]
    9bd8:	e008      	b.n	9bec <benchmark_body+0x1ab8>
    9bda:	bf00      	nop
    9bdc:	0001f118 	.word	0x0001f118
    9be0:	0001f11c 	.word	0x0001f11c
    9be4:	0001ecac 	.word	0x0001ecac
    9be8:	0001f104 	.word	0x0001f104
    9bec:	f841 2023 	str.w	r2, [r1, r3, lsl #2]
    9bf0:	4ba6      	ldr	r3, [pc, #664]	; (9e8c <benchmark_body+0x1d58>)
    9bf2:	681b      	ldr	r3, [r3, #0]
    9bf4:	3301      	adds	r3, #1
    9bf6:	49a6      	ldr	r1, [pc, #664]	; (9e90 <benchmark_body+0x1d5c>)
    9bf8:	f507 62bf 	add.w	r2, r7, #1528	; 0x5f8
    9bfc:	f5a2 72e4 	sub.w	r2, r2, #456	; 0x1c8
    9c00:	6812      	ldr	r2, [r2, #0]
    9c02:	f841 2023 	str.w	r2, [r1, r3, lsl #2]
    9c06:	4ba1      	ldr	r3, [pc, #644]	; (9e8c <benchmark_body+0x1d58>)
    9c08:	681b      	ldr	r3, [r3, #0]
    9c0a:	3302      	adds	r3, #2
    9c0c:	49a0      	ldr	r1, [pc, #640]	; (9e90 <benchmark_body+0x1d5c>)
    9c0e:	f507 62bf 	add.w	r2, r7, #1528	; 0x5f8
    9c12:	f5a2 72e6 	sub.w	r2, r2, #460	; 0x1cc
    9c16:	6812      	ldr	r2, [r2, #0]
    9c18:	f841 2023 	str.w	r2, [r1, r3, lsl #2]
    9c1c:	4b9b      	ldr	r3, [pc, #620]	; (9e8c <benchmark_body+0x1d58>)
    9c1e:	681b      	ldr	r3, [r3, #0]
    9c20:	3303      	adds	r3, #3
    9c22:	4a9a      	ldr	r2, [pc, #616]	; (9e8c <benchmark_body+0x1d58>)
    9c24:	6013      	str	r3, [r2, #0]
    9c26:	4b9b      	ldr	r3, [pc, #620]	; (9e94 <benchmark_body+0x1d60>)
    9c28:	681b      	ldr	r3, [r3, #0]
    9c2a:	2b04      	cmp	r3, #4
    9c2c:	dd67      	ble.n	9cfe <benchmark_body+0x1bca>
    9c2e:	4b97      	ldr	r3, [pc, #604]	; (9e8c <benchmark_body+0x1d58>)
    9c30:	681b      	ldr	r3, [r3, #0]
    9c32:	2b03      	cmp	r3, #3
    9c34:	dc63      	bgt.n	9cfe <benchmark_body+0x1bca>
    9c36:	4b98      	ldr	r3, [pc, #608]	; (9e98 <benchmark_body+0x1d64>)
    9c38:	68da      	ldr	r2, [r3, #12]
    9c3a:	4b97      	ldr	r3, [pc, #604]	; (9e98 <benchmark_body+0x1d64>)
    9c3c:	685b      	ldr	r3, [r3, #4]
    9c3e:	429a      	cmp	r2, r3
    9c40:	d15d      	bne.n	9cfe <benchmark_body+0x1bca>
    9c42:	4b95      	ldr	r3, [pc, #596]	; (9e98 <benchmark_body+0x1d64>)
    9c44:	68da      	ldr	r2, [r3, #12]
    9c46:	4b94      	ldr	r3, [pc, #592]	; (9e98 <benchmark_body+0x1d64>)
    9c48:	691b      	ldr	r3, [r3, #16]
    9c4a:	429a      	cmp	r2, r3
    9c4c:	d157      	bne.n	9cfe <benchmark_body+0x1bca>
    9c4e:	f507 63bf 	add.w	r3, r7, #1528	; 0x5f8
    9c52:	f5a3 73e8 	sub.w	r3, r3, #464	; 0x1d0
    9c56:	4a90      	ldr	r2, [pc, #576]	; (9e98 <benchmark_body+0x1d64>)
    9c58:	6812      	ldr	r2, [r2, #0]
    9c5a:	601a      	str	r2, [r3, #0]
    9c5c:	f507 63bf 	add.w	r3, r7, #1528	; 0x5f8
    9c60:	f5a3 73ea 	sub.w	r3, r3, #468	; 0x1d4
    9c64:	4a8c      	ldr	r2, [pc, #560]	; (9e98 <benchmark_body+0x1d64>)
    9c66:	68d2      	ldr	r2, [r2, #12]
    9c68:	601a      	str	r2, [r3, #0]
    9c6a:	f507 63bf 	add.w	r3, r7, #1528	; 0x5f8
    9c6e:	f5a3 72ea 	sub.w	r2, r3, #468	; 0x1d4
    9c72:	f507 63bf 	add.w	r3, r7, #1528	; 0x5f8
    9c76:	f5a3 73e8 	sub.w	r3, r3, #464	; 0x1d0
    9c7a:	6812      	ldr	r2, [r2, #0]
    9c7c:	681b      	ldr	r3, [r3, #0]
    9c7e:	429a      	cmp	r2, r3
    9c80:	dd3d      	ble.n	9cfe <benchmark_body+0x1bca>
    9c82:	4b85      	ldr	r3, [pc, #532]	; (9e98 <benchmark_body+0x1d64>)
    9c84:	689b      	ldr	r3, [r3, #8]
    9c86:	4a84      	ldr	r2, [pc, #528]	; (9e98 <benchmark_body+0x1d64>)
    9c88:	6013      	str	r3, [r2, #0]
    9c8a:	4b82      	ldr	r3, [pc, #520]	; (9e94 <benchmark_body+0x1d60>)
    9c8c:	681b      	ldr	r3, [r3, #0]
    9c8e:	3b04      	subs	r3, #4
    9c90:	4a80      	ldr	r2, [pc, #512]	; (9e94 <benchmark_body+0x1d60>)
    9c92:	6013      	str	r3, [r2, #0]
    9c94:	f507 63bf 	add.w	r3, r7, #1528	; 0x5f8
    9c98:	f5a3 73ec 	sub.w	r3, r3, #472	; 0x1d8
    9c9c:	f507 62bf 	add.w	r2, r7, #1528	; 0x5f8
    9ca0:	f5a2 71e8 	sub.w	r1, r2, #464	; 0x1d0
    9ca4:	f507 62bf 	add.w	r2, r7, #1528	; 0x5f8
    9ca8:	f5a2 72ea 	sub.w	r2, r2, #468	; 0x1d4
    9cac:	6809      	ldr	r1, [r1, #0]
    9cae:	6812      	ldr	r2, [r2, #0]
    9cb0:	440a      	add	r2, r1
    9cb2:	601a      	str	r2, [r3, #0]
    9cb4:	4b75      	ldr	r3, [pc, #468]	; (9e8c <benchmark_body+0x1d58>)
    9cb6:	681b      	ldr	r3, [r3, #0]
    9cb8:	4975      	ldr	r1, [pc, #468]	; (9e90 <benchmark_body+0x1d5c>)
    9cba:	f507 62bf 	add.w	r2, r7, #1528	; 0x5f8
    9cbe:	f5a2 72e8 	sub.w	r2, r2, #464	; 0x1d0
    9cc2:	6812      	ldr	r2, [r2, #0]
    9cc4:	f841 2023 	str.w	r2, [r1, r3, lsl #2]
    9cc8:	4b70      	ldr	r3, [pc, #448]	; (9e8c <benchmark_body+0x1d58>)
    9cca:	681b      	ldr	r3, [r3, #0]
    9ccc:	3301      	adds	r3, #1
    9cce:	4970      	ldr	r1, [pc, #448]	; (9e90 <benchmark_body+0x1d5c>)
    9cd0:	f507 62bf 	add.w	r2, r7, #1528	; 0x5f8
    9cd4:	f5a2 72ea 	sub.w	r2, r2, #468	; 0x1d4
    9cd8:	6812      	ldr	r2, [r2, #0]
    9cda:	f841 2023 	str.w	r2, [r1, r3, lsl #2]
    9cde:	4b6b      	ldr	r3, [pc, #428]	; (9e8c <benchmark_body+0x1d58>)
    9ce0:	681b      	ldr	r3, [r3, #0]
    9ce2:	3302      	adds	r3, #2
    9ce4:	496a      	ldr	r1, [pc, #424]	; (9e90 <benchmark_body+0x1d5c>)
    9ce6:	f507 62bf 	add.w	r2, r7, #1528	; 0x5f8
    9cea:	f5a2 72ec 	sub.w	r2, r2, #472	; 0x1d8
    9cee:	6812      	ldr	r2, [r2, #0]
    9cf0:	f841 2023 	str.w	r2, [r1, r3, lsl #2]
    9cf4:	4b65      	ldr	r3, [pc, #404]	; (9e8c <benchmark_body+0x1d58>)
    9cf6:	681b      	ldr	r3, [r3, #0]
    9cf8:	3303      	adds	r3, #3
    9cfa:	4a64      	ldr	r2, [pc, #400]	; (9e8c <benchmark_body+0x1d58>)
    9cfc:	6013      	str	r3, [r2, #0]
    9cfe:	4b65      	ldr	r3, [pc, #404]	; (9e94 <benchmark_body+0x1d60>)
    9d00:	681b      	ldr	r3, [r3, #0]
    9d02:	2b04      	cmp	r3, #4
    9d04:	dd67      	ble.n	9dd6 <benchmark_body+0x1ca2>
    9d06:	4b61      	ldr	r3, [pc, #388]	; (9e8c <benchmark_body+0x1d58>)
    9d08:	681b      	ldr	r3, [r3, #0]
    9d0a:	2b03      	cmp	r3, #3
    9d0c:	dc63      	bgt.n	9dd6 <benchmark_body+0x1ca2>
    9d0e:	4b62      	ldr	r3, [pc, #392]	; (9e98 <benchmark_body+0x1d64>)
    9d10:	68da      	ldr	r2, [r3, #12]
    9d12:	4b61      	ldr	r3, [pc, #388]	; (9e98 <benchmark_body+0x1d64>)
    9d14:	689b      	ldr	r3, [r3, #8]
    9d16:	429a      	cmp	r2, r3
    9d18:	d15d      	bne.n	9dd6 <benchmark_body+0x1ca2>
    9d1a:	4b5f      	ldr	r3, [pc, #380]	; (9e98 <benchmark_body+0x1d64>)
    9d1c:	68da      	ldr	r2, [r3, #12]
    9d1e:	4b5e      	ldr	r3, [pc, #376]	; (9e98 <benchmark_body+0x1d64>)
    9d20:	691b      	ldr	r3, [r3, #16]
    9d22:	429a      	cmp	r2, r3
    9d24:	d157      	bne.n	9dd6 <benchmark_body+0x1ca2>
    9d26:	f507 63bf 	add.w	r3, r7, #1528	; 0x5f8
    9d2a:	f5a3 73ee 	sub.w	r3, r3, #476	; 0x1dc
    9d2e:	4a5a      	ldr	r2, [pc, #360]	; (9e98 <benchmark_body+0x1d64>)
    9d30:	6812      	ldr	r2, [r2, #0]
    9d32:	601a      	str	r2, [r3, #0]
    9d34:	f507 63bf 	add.w	r3, r7, #1528	; 0x5f8
    9d38:	f5a3 73f0 	sub.w	r3, r3, #480	; 0x1e0
    9d3c:	4a56      	ldr	r2, [pc, #344]	; (9e98 <benchmark_body+0x1d64>)
    9d3e:	68d2      	ldr	r2, [r2, #12]
    9d40:	601a      	str	r2, [r3, #0]
    9d42:	f507 63bf 	add.w	r3, r7, #1528	; 0x5f8
    9d46:	f5a3 72f0 	sub.w	r2, r3, #480	; 0x1e0
    9d4a:	f507 63bf 	add.w	r3, r7, #1528	; 0x5f8
    9d4e:	f5a3 73ee 	sub.w	r3, r3, #476	; 0x1dc
    9d52:	6812      	ldr	r2, [r2, #0]
    9d54:	681b      	ldr	r3, [r3, #0]
    9d56:	429a      	cmp	r2, r3
    9d58:	dd3d      	ble.n	9dd6 <benchmark_body+0x1ca2>
    9d5a:	4b4f      	ldr	r3, [pc, #316]	; (9e98 <benchmark_body+0x1d64>)
    9d5c:	685b      	ldr	r3, [r3, #4]
    9d5e:	4a4e      	ldr	r2, [pc, #312]	; (9e98 <benchmark_body+0x1d64>)
    9d60:	6013      	str	r3, [r2, #0]
    9d62:	4b4c      	ldr	r3, [pc, #304]	; (9e94 <benchmark_body+0x1d60>)
    9d64:	681b      	ldr	r3, [r3, #0]
    9d66:	3b04      	subs	r3, #4
    9d68:	4a4a      	ldr	r2, [pc, #296]	; (9e94 <benchmark_body+0x1d60>)
    9d6a:	6013      	str	r3, [r2, #0]
    9d6c:	f507 63bf 	add.w	r3, r7, #1528	; 0x5f8
    9d70:	f5a3 73f2 	sub.w	r3, r3, #484	; 0x1e4
    9d74:	f507 62bf 	add.w	r2, r7, #1528	; 0x5f8
    9d78:	f5a2 71ee 	sub.w	r1, r2, #476	; 0x1dc
    9d7c:	f507 62bf 	add.w	r2, r7, #1528	; 0x5f8
    9d80:	f5a2 72f0 	sub.w	r2, r2, #480	; 0x1e0
    9d84:	6809      	ldr	r1, [r1, #0]
    9d86:	6812      	ldr	r2, [r2, #0]
    9d88:	440a      	add	r2, r1
    9d8a:	601a      	str	r2, [r3, #0]
    9d8c:	4b3f      	ldr	r3, [pc, #252]	; (9e8c <benchmark_body+0x1d58>)
    9d8e:	681b      	ldr	r3, [r3, #0]
    9d90:	493f      	ldr	r1, [pc, #252]	; (9e90 <benchmark_body+0x1d5c>)
    9d92:	f507 62bf 	add.w	r2, r7, #1528	; 0x5f8
    9d96:	f5a2 72ee 	sub.w	r2, r2, #476	; 0x1dc
    9d9a:	6812      	ldr	r2, [r2, #0]
    9d9c:	f841 2023 	str.w	r2, [r1, r3, lsl #2]
    9da0:	4b3a      	ldr	r3, [pc, #232]	; (9e8c <benchmark_body+0x1d58>)
    9da2:	681b      	ldr	r3, [r3, #0]
    9da4:	3301      	adds	r3, #1
    9da6:	493a      	ldr	r1, [pc, #232]	; (9e90 <benchmark_body+0x1d5c>)
    9da8:	f507 62bf 	add.w	r2, r7, #1528	; 0x5f8
    9dac:	f5a2 72f0 	sub.w	r2, r2, #480	; 0x1e0
    9db0:	6812      	ldr	r2, [r2, #0]
    9db2:	f841 2023 	str.w	r2, [r1, r3, lsl #2]
    9db6:	4b35      	ldr	r3, [pc, #212]	; (9e8c <benchmark_body+0x1d58>)
    9db8:	681b      	ldr	r3, [r3, #0]
    9dba:	3302      	adds	r3, #2
    9dbc:	4934      	ldr	r1, [pc, #208]	; (9e90 <benchmark_body+0x1d5c>)
    9dbe:	f507 62bf 	add.w	r2, r7, #1528	; 0x5f8
    9dc2:	f5a2 72f2 	sub.w	r2, r2, #484	; 0x1e4
    9dc6:	6812      	ldr	r2, [r2, #0]
    9dc8:	f841 2023 	str.w	r2, [r1, r3, lsl #2]
    9dcc:	4b2f      	ldr	r3, [pc, #188]	; (9e8c <benchmark_body+0x1d58>)
    9dce:	681b      	ldr	r3, [r3, #0]
    9dd0:	3303      	adds	r3, #3
    9dd2:	4a2e      	ldr	r2, [pc, #184]	; (9e8c <benchmark_body+0x1d58>)
    9dd4:	6013      	str	r3, [r2, #0]
    9dd6:	4b2f      	ldr	r3, [pc, #188]	; (9e94 <benchmark_body+0x1d60>)
    9dd8:	681b      	ldr	r3, [r3, #0]
    9dda:	2b04      	cmp	r3, #4
    9ddc:	dd70      	ble.n	9ec0 <benchmark_body+0x1d8c>
    9dde:	4b2b      	ldr	r3, [pc, #172]	; (9e8c <benchmark_body+0x1d58>)
    9de0:	681b      	ldr	r3, [r3, #0]
    9de2:	2b03      	cmp	r3, #3
    9de4:	dc6c      	bgt.n	9ec0 <benchmark_body+0x1d8c>
    9de6:	4b2c      	ldr	r3, [pc, #176]	; (9e98 <benchmark_body+0x1d64>)
    9de8:	68da      	ldr	r2, [r3, #12]
    9dea:	4b2b      	ldr	r3, [pc, #172]	; (9e98 <benchmark_body+0x1d64>)
    9dec:	691b      	ldr	r3, [r3, #16]
    9dee:	429a      	cmp	r2, r3
    9df0:	d166      	bne.n	9ec0 <benchmark_body+0x1d8c>
    9df2:	4b29      	ldr	r3, [pc, #164]	; (9e98 <benchmark_body+0x1d64>)
    9df4:	68da      	ldr	r2, [r3, #12]
    9df6:	4b28      	ldr	r3, [pc, #160]	; (9e98 <benchmark_body+0x1d64>)
    9df8:	685b      	ldr	r3, [r3, #4]
    9dfa:	429a      	cmp	r2, r3
    9dfc:	d160      	bne.n	9ec0 <benchmark_body+0x1d8c>
    9dfe:	f507 63bf 	add.w	r3, r7, #1528	; 0x5f8
    9e02:	f5a3 73f4 	sub.w	r3, r3, #488	; 0x1e8
    9e06:	4a24      	ldr	r2, [pc, #144]	; (9e98 <benchmark_body+0x1d64>)
    9e08:	6812      	ldr	r2, [r2, #0]
    9e0a:	601a      	str	r2, [r3, #0]
    9e0c:	f507 63bf 	add.w	r3, r7, #1528	; 0x5f8
    9e10:	f5a3 73f6 	sub.w	r3, r3, #492	; 0x1ec
    9e14:	4a20      	ldr	r2, [pc, #128]	; (9e98 <benchmark_body+0x1d64>)
    9e16:	68d2      	ldr	r2, [r2, #12]
    9e18:	601a      	str	r2, [r3, #0]
    9e1a:	f507 63bf 	add.w	r3, r7, #1528	; 0x5f8
    9e1e:	f5a3 72f6 	sub.w	r2, r3, #492	; 0x1ec
    9e22:	f507 63bf 	add.w	r3, r7, #1528	; 0x5f8
    9e26:	f5a3 73f4 	sub.w	r3, r3, #488	; 0x1e8
    9e2a:	6812      	ldr	r2, [r2, #0]
    9e2c:	681b      	ldr	r3, [r3, #0]
    9e2e:	429a      	cmp	r2, r3
    9e30:	dd46      	ble.n	9ec0 <benchmark_body+0x1d8c>
    9e32:	4b19      	ldr	r3, [pc, #100]	; (9e98 <benchmark_body+0x1d64>)
    9e34:	689b      	ldr	r3, [r3, #8]
    9e36:	4a18      	ldr	r2, [pc, #96]	; (9e98 <benchmark_body+0x1d64>)
    9e38:	6013      	str	r3, [r2, #0]
    9e3a:	4b16      	ldr	r3, [pc, #88]	; (9e94 <benchmark_body+0x1d60>)
    9e3c:	681b      	ldr	r3, [r3, #0]
    9e3e:	3b04      	subs	r3, #4
    9e40:	4a14      	ldr	r2, [pc, #80]	; (9e94 <benchmark_body+0x1d60>)
    9e42:	6013      	str	r3, [r2, #0]
    9e44:	f507 63bf 	add.w	r3, r7, #1528	; 0x5f8
    9e48:	f5a3 73f8 	sub.w	r3, r3, #496	; 0x1f0
    9e4c:	f507 62bf 	add.w	r2, r7, #1528	; 0x5f8
    9e50:	f5a2 71f4 	sub.w	r1, r2, #488	; 0x1e8
    9e54:	f507 62bf 	add.w	r2, r7, #1528	; 0x5f8
    9e58:	f5a2 72f6 	sub.w	r2, r2, #492	; 0x1ec
    9e5c:	6809      	ldr	r1, [r1, #0]
    9e5e:	6812      	ldr	r2, [r2, #0]
    9e60:	440a      	add	r2, r1
    9e62:	601a      	str	r2, [r3, #0]
    9e64:	4b09      	ldr	r3, [pc, #36]	; (9e8c <benchmark_body+0x1d58>)
    9e66:	681b      	ldr	r3, [r3, #0]
    9e68:	4909      	ldr	r1, [pc, #36]	; (9e90 <benchmark_body+0x1d5c>)
    9e6a:	f507 62bf 	add.w	r2, r7, #1528	; 0x5f8
    9e6e:	f5a2 72f4 	sub.w	r2, r2, #488	; 0x1e8
    9e72:	6812      	ldr	r2, [r2, #0]
    9e74:	f841 2023 	str.w	r2, [r1, r3, lsl #2]
    9e78:	4b04      	ldr	r3, [pc, #16]	; (9e8c <benchmark_body+0x1d58>)
    9e7a:	681b      	ldr	r3, [r3, #0]
    9e7c:	3301      	adds	r3, #1
    9e7e:	4904      	ldr	r1, [pc, #16]	; (9e90 <benchmark_body+0x1d5c>)
    9e80:	f507 62bf 	add.w	r2, r7, #1528	; 0x5f8
    9e84:	f5a2 72f6 	sub.w	r2, r2, #492	; 0x1ec
    9e88:	6812      	ldr	r2, [r2, #0]
    9e8a:	e007      	b.n	9e9c <benchmark_body+0x1d68>
    9e8c:	0001f118 	.word	0x0001f118
    9e90:	0001f11c 	.word	0x0001f11c
    9e94:	0001ecac 	.word	0x0001ecac
    9e98:	0001f104 	.word	0x0001f104
    9e9c:	f841 2023 	str.w	r2, [r1, r3, lsl #2]
    9ea0:	4ba6      	ldr	r3, [pc, #664]	; (a13c <benchmark_body+0x2008>)
    9ea2:	681b      	ldr	r3, [r3, #0]
    9ea4:	3302      	adds	r3, #2
    9ea6:	49a6      	ldr	r1, [pc, #664]	; (a140 <benchmark_body+0x200c>)
    9ea8:	f507 62bf 	add.w	r2, r7, #1528	; 0x5f8
    9eac:	f5a2 72f8 	sub.w	r2, r2, #496	; 0x1f0
    9eb0:	6812      	ldr	r2, [r2, #0]
    9eb2:	f841 2023 	str.w	r2, [r1, r3, lsl #2]
    9eb6:	4ba1      	ldr	r3, [pc, #644]	; (a13c <benchmark_body+0x2008>)
    9eb8:	681b      	ldr	r3, [r3, #0]
    9eba:	3303      	adds	r3, #3
    9ebc:	4a9f      	ldr	r2, [pc, #636]	; (a13c <benchmark_body+0x2008>)
    9ebe:	6013      	str	r3, [r2, #0]
    9ec0:	4ba0      	ldr	r3, [pc, #640]	; (a144 <benchmark_body+0x2010>)
    9ec2:	681b      	ldr	r3, [r3, #0]
    9ec4:	2b04      	cmp	r3, #4
    9ec6:	dd67      	ble.n	9f98 <benchmark_body+0x1e64>
    9ec8:	4b9c      	ldr	r3, [pc, #624]	; (a13c <benchmark_body+0x2008>)
    9eca:	681b      	ldr	r3, [r3, #0]
    9ecc:	2b03      	cmp	r3, #3
    9ece:	dc63      	bgt.n	9f98 <benchmark_body+0x1e64>
    9ed0:	4b9d      	ldr	r3, [pc, #628]	; (a148 <benchmark_body+0x2014>)
    9ed2:	68da      	ldr	r2, [r3, #12]
    9ed4:	4b9c      	ldr	r3, [pc, #624]	; (a148 <benchmark_body+0x2014>)
    9ed6:	691b      	ldr	r3, [r3, #16]
    9ed8:	429a      	cmp	r2, r3
    9eda:	d15d      	bne.n	9f98 <benchmark_body+0x1e64>
    9edc:	4b9a      	ldr	r3, [pc, #616]	; (a148 <benchmark_body+0x2014>)
    9ede:	68da      	ldr	r2, [r3, #12]
    9ee0:	4b99      	ldr	r3, [pc, #612]	; (a148 <benchmark_body+0x2014>)
    9ee2:	689b      	ldr	r3, [r3, #8]
    9ee4:	429a      	cmp	r2, r3
    9ee6:	d157      	bne.n	9f98 <benchmark_body+0x1e64>
    9ee8:	f507 63bf 	add.w	r3, r7, #1528	; 0x5f8
    9eec:	f5a3 73fa 	sub.w	r3, r3, #500	; 0x1f4
    9ef0:	4a95      	ldr	r2, [pc, #596]	; (a148 <benchmark_body+0x2014>)
    9ef2:	6812      	ldr	r2, [r2, #0]
    9ef4:	601a      	str	r2, [r3, #0]
    9ef6:	f507 63bf 	add.w	r3, r7, #1528	; 0x5f8
    9efa:	f5a3 73fc 	sub.w	r3, r3, #504	; 0x1f8
    9efe:	4a92      	ldr	r2, [pc, #584]	; (a148 <benchmark_body+0x2014>)
    9f00:	68d2      	ldr	r2, [r2, #12]
    9f02:	601a      	str	r2, [r3, #0]
    9f04:	f507 63bf 	add.w	r3, r7, #1528	; 0x5f8
    9f08:	f5a3 72fc 	sub.w	r2, r3, #504	; 0x1f8
    9f0c:	f507 63bf 	add.w	r3, r7, #1528	; 0x5f8
    9f10:	f5a3 73fa 	sub.w	r3, r3, #500	; 0x1f4
    9f14:	6812      	ldr	r2, [r2, #0]
    9f16:	681b      	ldr	r3, [r3, #0]
    9f18:	429a      	cmp	r2, r3
    9f1a:	dd3d      	ble.n	9f98 <benchmark_body+0x1e64>
    9f1c:	4b8a      	ldr	r3, [pc, #552]	; (a148 <benchmark_body+0x2014>)
    9f1e:	685b      	ldr	r3, [r3, #4]
    9f20:	4a89      	ldr	r2, [pc, #548]	; (a148 <benchmark_body+0x2014>)
    9f22:	6013      	str	r3, [r2, #0]
    9f24:	4b87      	ldr	r3, [pc, #540]	; (a144 <benchmark_body+0x2010>)
    9f26:	681b      	ldr	r3, [r3, #0]
    9f28:	3b04      	subs	r3, #4
    9f2a:	4a86      	ldr	r2, [pc, #536]	; (a144 <benchmark_body+0x2010>)
    9f2c:	6013      	str	r3, [r2, #0]
    9f2e:	f507 63bf 	add.w	r3, r7, #1528	; 0x5f8
    9f32:	f5a3 73fe 	sub.w	r3, r3, #508	; 0x1fc
    9f36:	f507 62bf 	add.w	r2, r7, #1528	; 0x5f8
    9f3a:	f5a2 71fa 	sub.w	r1, r2, #500	; 0x1f4
    9f3e:	f507 62bf 	add.w	r2, r7, #1528	; 0x5f8
    9f42:	f5a2 72fc 	sub.w	r2, r2, #504	; 0x1f8
    9f46:	6809      	ldr	r1, [r1, #0]
    9f48:	6812      	ldr	r2, [r2, #0]
    9f4a:	440a      	add	r2, r1
    9f4c:	601a      	str	r2, [r3, #0]
    9f4e:	4b7b      	ldr	r3, [pc, #492]	; (a13c <benchmark_body+0x2008>)
    9f50:	681b      	ldr	r3, [r3, #0]
    9f52:	497b      	ldr	r1, [pc, #492]	; (a140 <benchmark_body+0x200c>)
    9f54:	f507 62bf 	add.w	r2, r7, #1528	; 0x5f8
    9f58:	f5a2 72fa 	sub.w	r2, r2, #500	; 0x1f4
    9f5c:	6812      	ldr	r2, [r2, #0]
    9f5e:	f841 2023 	str.w	r2, [r1, r3, lsl #2]
    9f62:	4b76      	ldr	r3, [pc, #472]	; (a13c <benchmark_body+0x2008>)
    9f64:	681b      	ldr	r3, [r3, #0]
    9f66:	3301      	adds	r3, #1
    9f68:	4975      	ldr	r1, [pc, #468]	; (a140 <benchmark_body+0x200c>)
    9f6a:	f507 62bf 	add.w	r2, r7, #1528	; 0x5f8
    9f6e:	f5a2 72fc 	sub.w	r2, r2, #504	; 0x1f8
    9f72:	6812      	ldr	r2, [r2, #0]
    9f74:	f841 2023 	str.w	r2, [r1, r3, lsl #2]
    9f78:	4b70      	ldr	r3, [pc, #448]	; (a13c <benchmark_body+0x2008>)
    9f7a:	681b      	ldr	r3, [r3, #0]
    9f7c:	3302      	adds	r3, #2
    9f7e:	4970      	ldr	r1, [pc, #448]	; (a140 <benchmark_body+0x200c>)
    9f80:	f507 62bf 	add.w	r2, r7, #1528	; 0x5f8
    9f84:	f5a2 72fe 	sub.w	r2, r2, #508	; 0x1fc
    9f88:	6812      	ldr	r2, [r2, #0]
    9f8a:	f841 2023 	str.w	r2, [r1, r3, lsl #2]
    9f8e:	4b6b      	ldr	r3, [pc, #428]	; (a13c <benchmark_body+0x2008>)
    9f90:	681b      	ldr	r3, [r3, #0]
    9f92:	3303      	adds	r3, #3
    9f94:	4a69      	ldr	r2, [pc, #420]	; (a13c <benchmark_body+0x2008>)
    9f96:	6013      	str	r3, [r2, #0]
    9f98:	4b6a      	ldr	r3, [pc, #424]	; (a144 <benchmark_body+0x2010>)
    9f9a:	681b      	ldr	r3, [r3, #0]
    9f9c:	2b04      	cmp	r3, #4
    9f9e:	dd67      	ble.n	a070 <benchmark_body+0x1f3c>
    9fa0:	4b66      	ldr	r3, [pc, #408]	; (a13c <benchmark_body+0x2008>)
    9fa2:	681b      	ldr	r3, [r3, #0]
    9fa4:	2b03      	cmp	r3, #3
    9fa6:	dc63      	bgt.n	a070 <benchmark_body+0x1f3c>
    9fa8:	4b67      	ldr	r3, [pc, #412]	; (a148 <benchmark_body+0x2014>)
    9faa:	691a      	ldr	r2, [r3, #16]
    9fac:	4b66      	ldr	r3, [pc, #408]	; (a148 <benchmark_body+0x2014>)
    9fae:	685b      	ldr	r3, [r3, #4]
    9fb0:	429a      	cmp	r2, r3
    9fb2:	d15d      	bne.n	a070 <benchmark_body+0x1f3c>
    9fb4:	4b64      	ldr	r3, [pc, #400]	; (a148 <benchmark_body+0x2014>)
    9fb6:	691a      	ldr	r2, [r3, #16]
    9fb8:	4b63      	ldr	r3, [pc, #396]	; (a148 <benchmark_body+0x2014>)
    9fba:	689b      	ldr	r3, [r3, #8]
    9fbc:	429a      	cmp	r2, r3
    9fbe:	d157      	bne.n	a070 <benchmark_body+0x1f3c>
    9fc0:	f507 63bf 	add.w	r3, r7, #1528	; 0x5f8
    9fc4:	f5a3 7300 	sub.w	r3, r3, #512	; 0x200
    9fc8:	4a5f      	ldr	r2, [pc, #380]	; (a148 <benchmark_body+0x2014>)
    9fca:	6812      	ldr	r2, [r2, #0]
    9fcc:	601a      	str	r2, [r3, #0]
    9fce:	f507 63bf 	add.w	r3, r7, #1528	; 0x5f8
    9fd2:	f5a3 7301 	sub.w	r3, r3, #516	; 0x204
    9fd6:	4a5c      	ldr	r2, [pc, #368]	; (a148 <benchmark_body+0x2014>)
    9fd8:	6912      	ldr	r2, [r2, #16]
    9fda:	601a      	str	r2, [r3, #0]
    9fdc:	f507 63bf 	add.w	r3, r7, #1528	; 0x5f8
    9fe0:	f5a3 7201 	sub.w	r2, r3, #516	; 0x204
    9fe4:	f507 63bf 	add.w	r3, r7, #1528	; 0x5f8
    9fe8:	f5a3 7300 	sub.w	r3, r3, #512	; 0x200
    9fec:	6812      	ldr	r2, [r2, #0]
    9fee:	681b      	ldr	r3, [r3, #0]
    9ff0:	429a      	cmp	r2, r3
    9ff2:	dd3d      	ble.n	a070 <benchmark_body+0x1f3c>
    9ff4:	4b54      	ldr	r3, [pc, #336]	; (a148 <benchmark_body+0x2014>)
    9ff6:	68db      	ldr	r3, [r3, #12]
    9ff8:	4a53      	ldr	r2, [pc, #332]	; (a148 <benchmark_body+0x2014>)
    9ffa:	6013      	str	r3, [r2, #0]
    9ffc:	4b51      	ldr	r3, [pc, #324]	; (a144 <benchmark_body+0x2010>)
    9ffe:	681b      	ldr	r3, [r3, #0]
    a000:	3b04      	subs	r3, #4
    a002:	4a50      	ldr	r2, [pc, #320]	; (a144 <benchmark_body+0x2010>)
    a004:	6013      	str	r3, [r2, #0]
    a006:	f507 63bf 	add.w	r3, r7, #1528	; 0x5f8
    a00a:	f5a3 7302 	sub.w	r3, r3, #520	; 0x208
    a00e:	f507 62bf 	add.w	r2, r7, #1528	; 0x5f8
    a012:	f5a2 7100 	sub.w	r1, r2, #512	; 0x200
    a016:	f507 62bf 	add.w	r2, r7, #1528	; 0x5f8
    a01a:	f5a2 7201 	sub.w	r2, r2, #516	; 0x204
    a01e:	6809      	ldr	r1, [r1, #0]
    a020:	6812      	ldr	r2, [r2, #0]
    a022:	440a      	add	r2, r1
    a024:	601a      	str	r2, [r3, #0]
    a026:	4b45      	ldr	r3, [pc, #276]	; (a13c <benchmark_body+0x2008>)
    a028:	681b      	ldr	r3, [r3, #0]
    a02a:	4945      	ldr	r1, [pc, #276]	; (a140 <benchmark_body+0x200c>)
    a02c:	f507 62bf 	add.w	r2, r7, #1528	; 0x5f8
    a030:	f5a2 7200 	sub.w	r2, r2, #512	; 0x200
    a034:	6812      	ldr	r2, [r2, #0]
    a036:	f841 2023 	str.w	r2, [r1, r3, lsl #2]
    a03a:	4b40      	ldr	r3, [pc, #256]	; (a13c <benchmark_body+0x2008>)
    a03c:	681b      	ldr	r3, [r3, #0]
    a03e:	3301      	adds	r3, #1
    a040:	493f      	ldr	r1, [pc, #252]	; (a140 <benchmark_body+0x200c>)
    a042:	f507 62bf 	add.w	r2, r7, #1528	; 0x5f8
    a046:	f5a2 7201 	sub.w	r2, r2, #516	; 0x204
    a04a:	6812      	ldr	r2, [r2, #0]
    a04c:	f841 2023 	str.w	r2, [r1, r3, lsl #2]
    a050:	4b3a      	ldr	r3, [pc, #232]	; (a13c <benchmark_body+0x2008>)
    a052:	681b      	ldr	r3, [r3, #0]
    a054:	3302      	adds	r3, #2
    a056:	493a      	ldr	r1, [pc, #232]	; (a140 <benchmark_body+0x200c>)
    a058:	f507 62bf 	add.w	r2, r7, #1528	; 0x5f8
    a05c:	f5a2 7202 	sub.w	r2, r2, #520	; 0x208
    a060:	6812      	ldr	r2, [r2, #0]
    a062:	f841 2023 	str.w	r2, [r1, r3, lsl #2]
    a066:	4b35      	ldr	r3, [pc, #212]	; (a13c <benchmark_body+0x2008>)
    a068:	681b      	ldr	r3, [r3, #0]
    a06a:	3303      	adds	r3, #3
    a06c:	4a33      	ldr	r2, [pc, #204]	; (a13c <benchmark_body+0x2008>)
    a06e:	6013      	str	r3, [r2, #0]
    a070:	4b34      	ldr	r3, [pc, #208]	; (a144 <benchmark_body+0x2010>)
    a072:	681b      	ldr	r3, [r3, #0]
    a074:	2b04      	cmp	r3, #4
    a076:	dd70      	ble.n	a15a <benchmark_body+0x2026>
    a078:	4b30      	ldr	r3, [pc, #192]	; (a13c <benchmark_body+0x2008>)
    a07a:	681b      	ldr	r3, [r3, #0]
    a07c:	2b03      	cmp	r3, #3
    a07e:	dc6c      	bgt.n	a15a <benchmark_body+0x2026>
    a080:	4b31      	ldr	r3, [pc, #196]	; (a148 <benchmark_body+0x2014>)
    a082:	691a      	ldr	r2, [r3, #16]
    a084:	4b30      	ldr	r3, [pc, #192]	; (a148 <benchmark_body+0x2014>)
    a086:	685b      	ldr	r3, [r3, #4]
    a088:	429a      	cmp	r2, r3
    a08a:	d166      	bne.n	a15a <benchmark_body+0x2026>
    a08c:	4b2e      	ldr	r3, [pc, #184]	; (a148 <benchmark_body+0x2014>)
    a08e:	691a      	ldr	r2, [r3, #16]
    a090:	4b2d      	ldr	r3, [pc, #180]	; (a148 <benchmark_body+0x2014>)
    a092:	68db      	ldr	r3, [r3, #12]
    a094:	429a      	cmp	r2, r3
    a096:	d160      	bne.n	a15a <benchmark_body+0x2026>
    a098:	f507 63bf 	add.w	r3, r7, #1528	; 0x5f8
    a09c:	f5a3 7303 	sub.w	r3, r3, #524	; 0x20c
    a0a0:	4a29      	ldr	r2, [pc, #164]	; (a148 <benchmark_body+0x2014>)
    a0a2:	6812      	ldr	r2, [r2, #0]
    a0a4:	601a      	str	r2, [r3, #0]
    a0a6:	f507 63bf 	add.w	r3, r7, #1528	; 0x5f8
    a0aa:	f5a3 7304 	sub.w	r3, r3, #528	; 0x210
    a0ae:	4a26      	ldr	r2, [pc, #152]	; (a148 <benchmark_body+0x2014>)
    a0b0:	6912      	ldr	r2, [r2, #16]
    a0b2:	601a      	str	r2, [r3, #0]
    a0b4:	f507 63bf 	add.w	r3, r7, #1528	; 0x5f8
    a0b8:	f5a3 7204 	sub.w	r2, r3, #528	; 0x210
    a0bc:	f507 63bf 	add.w	r3, r7, #1528	; 0x5f8
    a0c0:	f5a3 7303 	sub.w	r3, r3, #524	; 0x20c
    a0c4:	6812      	ldr	r2, [r2, #0]
    a0c6:	681b      	ldr	r3, [r3, #0]
    a0c8:	429a      	cmp	r2, r3
    a0ca:	dd46      	ble.n	a15a <benchmark_body+0x2026>
    a0cc:	4b1e      	ldr	r3, [pc, #120]	; (a148 <benchmark_body+0x2014>)
    a0ce:	689b      	ldr	r3, [r3, #8]
    a0d0:	4a1d      	ldr	r2, [pc, #116]	; (a148 <benchmark_body+0x2014>)
    a0d2:	6013      	str	r3, [r2, #0]
    a0d4:	4b1b      	ldr	r3, [pc, #108]	; (a144 <benchmark_body+0x2010>)
    a0d6:	681b      	ldr	r3, [r3, #0]
    a0d8:	3b04      	subs	r3, #4
    a0da:	4a1a      	ldr	r2, [pc, #104]	; (a144 <benchmark_body+0x2010>)
    a0dc:	6013      	str	r3, [r2, #0]
    a0de:	f507 63bf 	add.w	r3, r7, #1528	; 0x5f8
    a0e2:	f5a3 7305 	sub.w	r3, r3, #532	; 0x214
    a0e6:	f507 62bf 	add.w	r2, r7, #1528	; 0x5f8
    a0ea:	f5a2 7103 	sub.w	r1, r2, #524	; 0x20c
    a0ee:	f507 62bf 	add.w	r2, r7, #1528	; 0x5f8
    a0f2:	f5a2 7204 	sub.w	r2, r2, #528	; 0x210
    a0f6:	6809      	ldr	r1, [r1, #0]
    a0f8:	6812      	ldr	r2, [r2, #0]
    a0fa:	440a      	add	r2, r1
    a0fc:	601a      	str	r2, [r3, #0]
    a0fe:	4b0f      	ldr	r3, [pc, #60]	; (a13c <benchmark_body+0x2008>)
    a100:	681b      	ldr	r3, [r3, #0]
    a102:	490f      	ldr	r1, [pc, #60]	; (a140 <benchmark_body+0x200c>)
    a104:	f507 62bf 	add.w	r2, r7, #1528	; 0x5f8
    a108:	f5a2 7203 	sub.w	r2, r2, #524	; 0x20c
    a10c:	6812      	ldr	r2, [r2, #0]
    a10e:	f841 2023 	str.w	r2, [r1, r3, lsl #2]
    a112:	4b0a      	ldr	r3, [pc, #40]	; (a13c <benchmark_body+0x2008>)
    a114:	681b      	ldr	r3, [r3, #0]
    a116:	3301      	adds	r3, #1
    a118:	4909      	ldr	r1, [pc, #36]	; (a140 <benchmark_body+0x200c>)
    a11a:	f507 62bf 	add.w	r2, r7, #1528	; 0x5f8
    a11e:	f5a2 7204 	sub.w	r2, r2, #528	; 0x210
    a122:	6812      	ldr	r2, [r2, #0]
    a124:	f841 2023 	str.w	r2, [r1, r3, lsl #2]
    a128:	4b04      	ldr	r3, [pc, #16]	; (a13c <benchmark_body+0x2008>)
    a12a:	681b      	ldr	r3, [r3, #0]
    a12c:	3302      	adds	r3, #2
    a12e:	4904      	ldr	r1, [pc, #16]	; (a140 <benchmark_body+0x200c>)
    a130:	f507 62bf 	add.w	r2, r7, #1528	; 0x5f8
    a134:	f5a2 7205 	sub.w	r2, r2, #532	; 0x214
    a138:	6812      	ldr	r2, [r2, #0]
    a13a:	e007      	b.n	a14c <benchmark_body+0x2018>
    a13c:	0001f118 	.word	0x0001f118
    a140:	0001f11c 	.word	0x0001f11c
    a144:	0001ecac 	.word	0x0001ecac
    a148:	0001f104 	.word	0x0001f104
    a14c:	f841 2023 	str.w	r2, [r1, r3, lsl #2]
    a150:	4ba5      	ldr	r3, [pc, #660]	; (a3e8 <benchmark_body+0x22b4>)
    a152:	681b      	ldr	r3, [r3, #0]
    a154:	3303      	adds	r3, #3
    a156:	4aa4      	ldr	r2, [pc, #656]	; (a3e8 <benchmark_body+0x22b4>)
    a158:	6013      	str	r3, [r2, #0]
    a15a:	4ba4      	ldr	r3, [pc, #656]	; (a3ec <benchmark_body+0x22b8>)
    a15c:	681b      	ldr	r3, [r3, #0]
    a15e:	2b04      	cmp	r3, #4
    a160:	dd67      	ble.n	a232 <benchmark_body+0x20fe>
    a162:	4ba1      	ldr	r3, [pc, #644]	; (a3e8 <benchmark_body+0x22b4>)
    a164:	681b      	ldr	r3, [r3, #0]
    a166:	2b03      	cmp	r3, #3
    a168:	dc63      	bgt.n	a232 <benchmark_body+0x20fe>
    a16a:	4ba1      	ldr	r3, [pc, #644]	; (a3f0 <benchmark_body+0x22bc>)
    a16c:	691a      	ldr	r2, [r3, #16]
    a16e:	4ba0      	ldr	r3, [pc, #640]	; (a3f0 <benchmark_body+0x22bc>)
    a170:	689b      	ldr	r3, [r3, #8]
    a172:	429a      	cmp	r2, r3
    a174:	d15d      	bne.n	a232 <benchmark_body+0x20fe>
    a176:	4b9e      	ldr	r3, [pc, #632]	; (a3f0 <benchmark_body+0x22bc>)
    a178:	691a      	ldr	r2, [r3, #16]
    a17a:	4b9d      	ldr	r3, [pc, #628]	; (a3f0 <benchmark_body+0x22bc>)
    a17c:	685b      	ldr	r3, [r3, #4]
    a17e:	429a      	cmp	r2, r3
    a180:	d157      	bne.n	a232 <benchmark_body+0x20fe>
    a182:	f507 63bf 	add.w	r3, r7, #1528	; 0x5f8
    a186:	f5a3 7306 	sub.w	r3, r3, #536	; 0x218
    a18a:	4a99      	ldr	r2, [pc, #612]	; (a3f0 <benchmark_body+0x22bc>)
    a18c:	6812      	ldr	r2, [r2, #0]
    a18e:	601a      	str	r2, [r3, #0]
    a190:	f507 63bf 	add.w	r3, r7, #1528	; 0x5f8
    a194:	f5a3 7307 	sub.w	r3, r3, #540	; 0x21c
    a198:	4a95      	ldr	r2, [pc, #596]	; (a3f0 <benchmark_body+0x22bc>)
    a19a:	6912      	ldr	r2, [r2, #16]
    a19c:	601a      	str	r2, [r3, #0]
    a19e:	f507 63bf 	add.w	r3, r7, #1528	; 0x5f8
    a1a2:	f5a3 7207 	sub.w	r2, r3, #540	; 0x21c
    a1a6:	f507 63bf 	add.w	r3, r7, #1528	; 0x5f8
    a1aa:	f5a3 7306 	sub.w	r3, r3, #536	; 0x218
    a1ae:	6812      	ldr	r2, [r2, #0]
    a1b0:	681b      	ldr	r3, [r3, #0]
    a1b2:	429a      	cmp	r2, r3
    a1b4:	dd3d      	ble.n	a232 <benchmark_body+0x20fe>
    a1b6:	4b8e      	ldr	r3, [pc, #568]	; (a3f0 <benchmark_body+0x22bc>)
    a1b8:	68db      	ldr	r3, [r3, #12]
    a1ba:	4a8d      	ldr	r2, [pc, #564]	; (a3f0 <benchmark_body+0x22bc>)
    a1bc:	6013      	str	r3, [r2, #0]
    a1be:	4b8b      	ldr	r3, [pc, #556]	; (a3ec <benchmark_body+0x22b8>)
    a1c0:	681b      	ldr	r3, [r3, #0]
    a1c2:	3b04      	subs	r3, #4
    a1c4:	4a89      	ldr	r2, [pc, #548]	; (a3ec <benchmark_body+0x22b8>)
    a1c6:	6013      	str	r3, [r2, #0]
    a1c8:	f507 63bf 	add.w	r3, r7, #1528	; 0x5f8
    a1cc:	f5a3 7308 	sub.w	r3, r3, #544	; 0x220
    a1d0:	f507 62bf 	add.w	r2, r7, #1528	; 0x5f8
    a1d4:	f5a2 7106 	sub.w	r1, r2, #536	; 0x218
    a1d8:	f507 62bf 	add.w	r2, r7, #1528	; 0x5f8
    a1dc:	f5a2 7207 	sub.w	r2, r2, #540	; 0x21c
    a1e0:	6809      	ldr	r1, [r1, #0]
    a1e2:	6812      	ldr	r2, [r2, #0]
    a1e4:	440a      	add	r2, r1
    a1e6:	601a      	str	r2, [r3, #0]
    a1e8:	4b7f      	ldr	r3, [pc, #508]	; (a3e8 <benchmark_body+0x22b4>)
    a1ea:	681b      	ldr	r3, [r3, #0]
    a1ec:	4981      	ldr	r1, [pc, #516]	; (a3f4 <benchmark_body+0x22c0>)
    a1ee:	f507 62bf 	add.w	r2, r7, #1528	; 0x5f8
    a1f2:	f5a2 7206 	sub.w	r2, r2, #536	; 0x218
    a1f6:	6812      	ldr	r2, [r2, #0]
    a1f8:	f841 2023 	str.w	r2, [r1, r3, lsl #2]
    a1fc:	4b7a      	ldr	r3, [pc, #488]	; (a3e8 <benchmark_body+0x22b4>)
    a1fe:	681b      	ldr	r3, [r3, #0]
    a200:	3301      	adds	r3, #1
    a202:	497c      	ldr	r1, [pc, #496]	; (a3f4 <benchmark_body+0x22c0>)
    a204:	f507 62bf 	add.w	r2, r7, #1528	; 0x5f8
    a208:	f5a2 7207 	sub.w	r2, r2, #540	; 0x21c
    a20c:	6812      	ldr	r2, [r2, #0]
    a20e:	f841 2023 	str.w	r2, [r1, r3, lsl #2]
    a212:	4b75      	ldr	r3, [pc, #468]	; (a3e8 <benchmark_body+0x22b4>)
    a214:	681b      	ldr	r3, [r3, #0]
    a216:	3302      	adds	r3, #2
    a218:	4976      	ldr	r1, [pc, #472]	; (a3f4 <benchmark_body+0x22c0>)
    a21a:	f507 62bf 	add.w	r2, r7, #1528	; 0x5f8
    a21e:	f5a2 7208 	sub.w	r2, r2, #544	; 0x220
    a222:	6812      	ldr	r2, [r2, #0]
    a224:	f841 2023 	str.w	r2, [r1, r3, lsl #2]
    a228:	4b6f      	ldr	r3, [pc, #444]	; (a3e8 <benchmark_body+0x22b4>)
    a22a:	681b      	ldr	r3, [r3, #0]
    a22c:	3303      	adds	r3, #3
    a22e:	4a6e      	ldr	r2, [pc, #440]	; (a3e8 <benchmark_body+0x22b4>)
    a230:	6013      	str	r3, [r2, #0]
    a232:	4b6e      	ldr	r3, [pc, #440]	; (a3ec <benchmark_body+0x22b8>)
    a234:	681b      	ldr	r3, [r3, #0]
    a236:	2b04      	cmp	r3, #4
    a238:	dd67      	ble.n	a30a <benchmark_body+0x21d6>
    a23a:	4b6b      	ldr	r3, [pc, #428]	; (a3e8 <benchmark_body+0x22b4>)
    a23c:	681b      	ldr	r3, [r3, #0]
    a23e:	2b03      	cmp	r3, #3
    a240:	dc63      	bgt.n	a30a <benchmark_body+0x21d6>
    a242:	4b6b      	ldr	r3, [pc, #428]	; (a3f0 <benchmark_body+0x22bc>)
    a244:	691a      	ldr	r2, [r3, #16]
    a246:	4b6a      	ldr	r3, [pc, #424]	; (a3f0 <benchmark_body+0x22bc>)
    a248:	689b      	ldr	r3, [r3, #8]
    a24a:	429a      	cmp	r2, r3
    a24c:	d15d      	bne.n	a30a <benchmark_body+0x21d6>
    a24e:	4b68      	ldr	r3, [pc, #416]	; (a3f0 <benchmark_body+0x22bc>)
    a250:	691a      	ldr	r2, [r3, #16]
    a252:	4b67      	ldr	r3, [pc, #412]	; (a3f0 <benchmark_body+0x22bc>)
    a254:	68db      	ldr	r3, [r3, #12]
    a256:	429a      	cmp	r2, r3
    a258:	d157      	bne.n	a30a <benchmark_body+0x21d6>
    a25a:	f507 63bf 	add.w	r3, r7, #1528	; 0x5f8
    a25e:	f5a3 7309 	sub.w	r3, r3, #548	; 0x224
    a262:	4a63      	ldr	r2, [pc, #396]	; (a3f0 <benchmark_body+0x22bc>)
    a264:	6812      	ldr	r2, [r2, #0]
    a266:	601a      	str	r2, [r3, #0]
    a268:	f507 63bf 	add.w	r3, r7, #1528	; 0x5f8
    a26c:	f5a3 730a 	sub.w	r3, r3, #552	; 0x228
    a270:	4a5f      	ldr	r2, [pc, #380]	; (a3f0 <benchmark_body+0x22bc>)
    a272:	6912      	ldr	r2, [r2, #16]
    a274:	601a      	str	r2, [r3, #0]
    a276:	f507 63bf 	add.w	r3, r7, #1528	; 0x5f8
    a27a:	f5a3 720a 	sub.w	r2, r3, #552	; 0x228
    a27e:	f507 63bf 	add.w	r3, r7, #1528	; 0x5f8
    a282:	f5a3 7309 	sub.w	r3, r3, #548	; 0x224
    a286:	6812      	ldr	r2, [r2, #0]
    a288:	681b      	ldr	r3, [r3, #0]
    a28a:	429a      	cmp	r2, r3
    a28c:	dd3d      	ble.n	a30a <benchmark_body+0x21d6>
    a28e:	4b58      	ldr	r3, [pc, #352]	; (a3f0 <benchmark_body+0x22bc>)
    a290:	685b      	ldr	r3, [r3, #4]
    a292:	4a57      	ldr	r2, [pc, #348]	; (a3f0 <benchmark_body+0x22bc>)
    a294:	6013      	str	r3, [r2, #0]
    a296:	4b55      	ldr	r3, [pc, #340]	; (a3ec <benchmark_body+0x22b8>)
    a298:	681b      	ldr	r3, [r3, #0]
    a29a:	3b04      	subs	r3, #4
    a29c:	4a53      	ldr	r2, [pc, #332]	; (a3ec <benchmark_body+0x22b8>)
    a29e:	6013      	str	r3, [r2, #0]
    a2a0:	f507 63bf 	add.w	r3, r7, #1528	; 0x5f8
    a2a4:	f5a3 730b 	sub.w	r3, r3, #556	; 0x22c
    a2a8:	f507 62bf 	add.w	r2, r7, #1528	; 0x5f8
    a2ac:	f5a2 7109 	sub.w	r1, r2, #548	; 0x224
    a2b0:	f507 62bf 	add.w	r2, r7, #1528	; 0x5f8
    a2b4:	f5a2 720a 	sub.w	r2, r2, #552	; 0x228
    a2b8:	6809      	ldr	r1, [r1, #0]
    a2ba:	6812      	ldr	r2, [r2, #0]
    a2bc:	440a      	add	r2, r1
    a2be:	601a      	str	r2, [r3, #0]
    a2c0:	4b49      	ldr	r3, [pc, #292]	; (a3e8 <benchmark_body+0x22b4>)
    a2c2:	681b      	ldr	r3, [r3, #0]
    a2c4:	494b      	ldr	r1, [pc, #300]	; (a3f4 <benchmark_body+0x22c0>)
    a2c6:	f507 62bf 	add.w	r2, r7, #1528	; 0x5f8
    a2ca:	f5a2 7209 	sub.w	r2, r2, #548	; 0x224
    a2ce:	6812      	ldr	r2, [r2, #0]
    a2d0:	f841 2023 	str.w	r2, [r1, r3, lsl #2]
    a2d4:	4b44      	ldr	r3, [pc, #272]	; (a3e8 <benchmark_body+0x22b4>)
    a2d6:	681b      	ldr	r3, [r3, #0]
    a2d8:	3301      	adds	r3, #1
    a2da:	4946      	ldr	r1, [pc, #280]	; (a3f4 <benchmark_body+0x22c0>)
    a2dc:	f507 62bf 	add.w	r2, r7, #1528	; 0x5f8
    a2e0:	f5a2 720a 	sub.w	r2, r2, #552	; 0x228
    a2e4:	6812      	ldr	r2, [r2, #0]
    a2e6:	f841 2023 	str.w	r2, [r1, r3, lsl #2]
    a2ea:	4b3f      	ldr	r3, [pc, #252]	; (a3e8 <benchmark_body+0x22b4>)
    a2ec:	681b      	ldr	r3, [r3, #0]
    a2ee:	3302      	adds	r3, #2
    a2f0:	4940      	ldr	r1, [pc, #256]	; (a3f4 <benchmark_body+0x22c0>)
    a2f2:	f507 62bf 	add.w	r2, r7, #1528	; 0x5f8
    a2f6:	f5a2 720b 	sub.w	r2, r2, #556	; 0x22c
    a2fa:	6812      	ldr	r2, [r2, #0]
    a2fc:	f841 2023 	str.w	r2, [r1, r3, lsl #2]
    a300:	4b39      	ldr	r3, [pc, #228]	; (a3e8 <benchmark_body+0x22b4>)
    a302:	681b      	ldr	r3, [r3, #0]
    a304:	3303      	adds	r3, #3
    a306:	4a38      	ldr	r2, [pc, #224]	; (a3e8 <benchmark_body+0x22b4>)
    a308:	6013      	str	r3, [r2, #0]
    a30a:	4b38      	ldr	r3, [pc, #224]	; (a3ec <benchmark_body+0x22b8>)
    a30c:	681b      	ldr	r3, [r3, #0]
    a30e:	2b04      	cmp	r3, #4
    a310:	dd67      	ble.n	a3e2 <benchmark_body+0x22ae>
    a312:	4b35      	ldr	r3, [pc, #212]	; (a3e8 <benchmark_body+0x22b4>)
    a314:	681b      	ldr	r3, [r3, #0]
    a316:	2b03      	cmp	r3, #3
    a318:	dc63      	bgt.n	a3e2 <benchmark_body+0x22ae>
    a31a:	4b35      	ldr	r3, [pc, #212]	; (a3f0 <benchmark_body+0x22bc>)
    a31c:	691a      	ldr	r2, [r3, #16]
    a31e:	4b34      	ldr	r3, [pc, #208]	; (a3f0 <benchmark_body+0x22bc>)
    a320:	68db      	ldr	r3, [r3, #12]
    a322:	429a      	cmp	r2, r3
    a324:	d15d      	bne.n	a3e2 <benchmark_body+0x22ae>
    a326:	4b32      	ldr	r3, [pc, #200]	; (a3f0 <benchmark_body+0x22bc>)
    a328:	691a      	ldr	r2, [r3, #16]
    a32a:	4b31      	ldr	r3, [pc, #196]	; (a3f0 <benchmark_body+0x22bc>)
    a32c:	685b      	ldr	r3, [r3, #4]
    a32e:	429a      	cmp	r2, r3
    a330:	d157      	bne.n	a3e2 <benchmark_body+0x22ae>
    a332:	f507 63bf 	add.w	r3, r7, #1528	; 0x5f8
    a336:	f5a3 730c 	sub.w	r3, r3, #560	; 0x230
    a33a:	4a2d      	ldr	r2, [pc, #180]	; (a3f0 <benchmark_body+0x22bc>)
    a33c:	6812      	ldr	r2, [r2, #0]
    a33e:	601a      	str	r2, [r3, #0]
    a340:	f507 63bf 	add.w	r3, r7, #1528	; 0x5f8
    a344:	f5a3 730d 	sub.w	r3, r3, #564	; 0x234
    a348:	4a29      	ldr	r2, [pc, #164]	; (a3f0 <benchmark_body+0x22bc>)
    a34a:	6912      	ldr	r2, [r2, #16]
    a34c:	601a      	str	r2, [r3, #0]
    a34e:	f507 63bf 	add.w	r3, r7, #1528	; 0x5f8
    a352:	f5a3 720d 	sub.w	r2, r3, #564	; 0x234
    a356:	f507 63bf 	add.w	r3, r7, #1528	; 0x5f8
    a35a:	f5a3 730c 	sub.w	r3, r3, #560	; 0x230
    a35e:	6812      	ldr	r2, [r2, #0]
    a360:	681b      	ldr	r3, [r3, #0]
    a362:	429a      	cmp	r2, r3
    a364:	dd3d      	ble.n	a3e2 <benchmark_body+0x22ae>
    a366:	4b22      	ldr	r3, [pc, #136]	; (a3f0 <benchmark_body+0x22bc>)
    a368:	689b      	ldr	r3, [r3, #8]
    a36a:	4a21      	ldr	r2, [pc, #132]	; (a3f0 <benchmark_body+0x22bc>)
    a36c:	6013      	str	r3, [r2, #0]
    a36e:	4b1f      	ldr	r3, [pc, #124]	; (a3ec <benchmark_body+0x22b8>)
    a370:	681b      	ldr	r3, [r3, #0]
    a372:	3b04      	subs	r3, #4
    a374:	4a1d      	ldr	r2, [pc, #116]	; (a3ec <benchmark_body+0x22b8>)
    a376:	6013      	str	r3, [r2, #0]
    a378:	f507 63bf 	add.w	r3, r7, #1528	; 0x5f8
    a37c:	f5a3 730e 	sub.w	r3, r3, #568	; 0x238
    a380:	f507 62bf 	add.w	r2, r7, #1528	; 0x5f8
    a384:	f5a2 710c 	sub.w	r1, r2, #560	; 0x230
    a388:	f507 62bf 	add.w	r2, r7, #1528	; 0x5f8
    a38c:	f5a2 720d 	sub.w	r2, r2, #564	; 0x234
    a390:	6809      	ldr	r1, [r1, #0]
    a392:	6812      	ldr	r2, [r2, #0]
    a394:	440a      	add	r2, r1
    a396:	601a      	str	r2, [r3, #0]
    a398:	4b13      	ldr	r3, [pc, #76]	; (a3e8 <benchmark_body+0x22b4>)
    a39a:	681b      	ldr	r3, [r3, #0]
    a39c:	4915      	ldr	r1, [pc, #84]	; (a3f4 <benchmark_body+0x22c0>)
    a39e:	f507 62bf 	add.w	r2, r7, #1528	; 0x5f8
    a3a2:	f5a2 720c 	sub.w	r2, r2, #560	; 0x230
    a3a6:	6812      	ldr	r2, [r2, #0]
    a3a8:	f841 2023 	str.w	r2, [r1, r3, lsl #2]
    a3ac:	4b0e      	ldr	r3, [pc, #56]	; (a3e8 <benchmark_body+0x22b4>)
    a3ae:	681b      	ldr	r3, [r3, #0]
    a3b0:	3301      	adds	r3, #1
    a3b2:	4910      	ldr	r1, [pc, #64]	; (a3f4 <benchmark_body+0x22c0>)
    a3b4:	f507 62bf 	add.w	r2, r7, #1528	; 0x5f8
    a3b8:	f5a2 720d 	sub.w	r2, r2, #564	; 0x234
    a3bc:	6812      	ldr	r2, [r2, #0]
    a3be:	f841 2023 	str.w	r2, [r1, r3, lsl #2]
    a3c2:	4b09      	ldr	r3, [pc, #36]	; (a3e8 <benchmark_body+0x22b4>)
    a3c4:	681b      	ldr	r3, [r3, #0]
    a3c6:	3302      	adds	r3, #2
    a3c8:	490a      	ldr	r1, [pc, #40]	; (a3f4 <benchmark_body+0x22c0>)
    a3ca:	f507 62bf 	add.w	r2, r7, #1528	; 0x5f8
    a3ce:	f5a2 720e 	sub.w	r2, r2, #568	; 0x238
    a3d2:	6812      	ldr	r2, [r2, #0]
    a3d4:	f841 2023 	str.w	r2, [r1, r3, lsl #2]
    a3d8:	4b03      	ldr	r3, [pc, #12]	; (a3e8 <benchmark_body+0x22b4>)
    a3da:	681b      	ldr	r3, [r3, #0]
    a3dc:	3303      	adds	r3, #3
    a3de:	4a02      	ldr	r2, [pc, #8]	; (a3e8 <benchmark_body+0x22b4>)
    a3e0:	6013      	str	r3, [r2, #0]
    a3e2:	4b02      	ldr	r3, [pc, #8]	; (a3ec <benchmark_body+0x22b8>)
    a3e4:	681b      	ldr	r3, [r3, #0]
    a3e6:	e007      	b.n	a3f8 <benchmark_body+0x22c4>
    a3e8:	0001f118 	.word	0x0001f118
    a3ec:	0001ecac 	.word	0x0001ecac
    a3f0:	0001f104 	.word	0x0001f104
    a3f4:	0001f11c 	.word	0x0001f11c
    a3f8:	2b04      	cmp	r3, #4
    a3fa:	dd67      	ble.n	a4cc <benchmark_body+0x2398>
    a3fc:	4ba5      	ldr	r3, [pc, #660]	; (a694 <benchmark_body+0x2560>)
    a3fe:	681b      	ldr	r3, [r3, #0]
    a400:	2b03      	cmp	r3, #3
    a402:	dc63      	bgt.n	a4cc <benchmark_body+0x2398>
    a404:	4ba4      	ldr	r3, [pc, #656]	; (a698 <benchmark_body+0x2564>)
    a406:	691a      	ldr	r2, [r3, #16]
    a408:	4ba3      	ldr	r3, [pc, #652]	; (a698 <benchmark_body+0x2564>)
    a40a:	68db      	ldr	r3, [r3, #12]
    a40c:	429a      	cmp	r2, r3
    a40e:	d15d      	bne.n	a4cc <benchmark_body+0x2398>
    a410:	4ba1      	ldr	r3, [pc, #644]	; (a698 <benchmark_body+0x2564>)
    a412:	691a      	ldr	r2, [r3, #16]
    a414:	4ba0      	ldr	r3, [pc, #640]	; (a698 <benchmark_body+0x2564>)
    a416:	689b      	ldr	r3, [r3, #8]
    a418:	429a      	cmp	r2, r3
    a41a:	d157      	bne.n	a4cc <benchmark_body+0x2398>
    a41c:	f507 63bf 	add.w	r3, r7, #1528	; 0x5f8
    a420:	f5a3 730f 	sub.w	r3, r3, #572	; 0x23c
    a424:	4a9c      	ldr	r2, [pc, #624]	; (a698 <benchmark_body+0x2564>)
    a426:	6812      	ldr	r2, [r2, #0]
    a428:	601a      	str	r2, [r3, #0]
    a42a:	f507 63bf 	add.w	r3, r7, #1528	; 0x5f8
    a42e:	f5a3 7310 	sub.w	r3, r3, #576	; 0x240
    a432:	4a99      	ldr	r2, [pc, #612]	; (a698 <benchmark_body+0x2564>)
    a434:	6912      	ldr	r2, [r2, #16]
    a436:	601a      	str	r2, [r3, #0]
    a438:	f507 63bf 	add.w	r3, r7, #1528	; 0x5f8
    a43c:	f5a3 7210 	sub.w	r2, r3, #576	; 0x240
    a440:	f507 63bf 	add.w	r3, r7, #1528	; 0x5f8
    a444:	f5a3 730f 	sub.w	r3, r3, #572	; 0x23c
    a448:	6812      	ldr	r2, [r2, #0]
    a44a:	681b      	ldr	r3, [r3, #0]
    a44c:	429a      	cmp	r2, r3
    a44e:	dd3d      	ble.n	a4cc <benchmark_body+0x2398>
    a450:	4b91      	ldr	r3, [pc, #580]	; (a698 <benchmark_body+0x2564>)
    a452:	685b      	ldr	r3, [r3, #4]
    a454:	4a90      	ldr	r2, [pc, #576]	; (a698 <benchmark_body+0x2564>)
    a456:	6013      	str	r3, [r2, #0]
    a458:	4b90      	ldr	r3, [pc, #576]	; (a69c <benchmark_body+0x2568>)
    a45a:	681b      	ldr	r3, [r3, #0]
    a45c:	3b04      	subs	r3, #4
    a45e:	4a8f      	ldr	r2, [pc, #572]	; (a69c <benchmark_body+0x2568>)
    a460:	6013      	str	r3, [r2, #0]
    a462:	f507 63bf 	add.w	r3, r7, #1528	; 0x5f8
    a466:	f5a3 7311 	sub.w	r3, r3, #580	; 0x244
    a46a:	f507 62bf 	add.w	r2, r7, #1528	; 0x5f8
    a46e:	f5a2 710f 	sub.w	r1, r2, #572	; 0x23c
    a472:	f507 62bf 	add.w	r2, r7, #1528	; 0x5f8
    a476:	f5a2 7210 	sub.w	r2, r2, #576	; 0x240
    a47a:	6809      	ldr	r1, [r1, #0]
    a47c:	6812      	ldr	r2, [r2, #0]
    a47e:	440a      	add	r2, r1
    a480:	601a      	str	r2, [r3, #0]
    a482:	4b84      	ldr	r3, [pc, #528]	; (a694 <benchmark_body+0x2560>)
    a484:	681b      	ldr	r3, [r3, #0]
    a486:	4986      	ldr	r1, [pc, #536]	; (a6a0 <benchmark_body+0x256c>)
    a488:	f507 62bf 	add.w	r2, r7, #1528	; 0x5f8
    a48c:	f5a2 720f 	sub.w	r2, r2, #572	; 0x23c
    a490:	6812      	ldr	r2, [r2, #0]
    a492:	f841 2023 	str.w	r2, [r1, r3, lsl #2]
    a496:	4b7f      	ldr	r3, [pc, #508]	; (a694 <benchmark_body+0x2560>)
    a498:	681b      	ldr	r3, [r3, #0]
    a49a:	3301      	adds	r3, #1
    a49c:	4980      	ldr	r1, [pc, #512]	; (a6a0 <benchmark_body+0x256c>)
    a49e:	f507 62bf 	add.w	r2, r7, #1528	; 0x5f8
    a4a2:	f5a2 7210 	sub.w	r2, r2, #576	; 0x240
    a4a6:	6812      	ldr	r2, [r2, #0]
    a4a8:	f841 2023 	str.w	r2, [r1, r3, lsl #2]
    a4ac:	4b79      	ldr	r3, [pc, #484]	; (a694 <benchmark_body+0x2560>)
    a4ae:	681b      	ldr	r3, [r3, #0]
    a4b0:	3302      	adds	r3, #2
    a4b2:	497b      	ldr	r1, [pc, #492]	; (a6a0 <benchmark_body+0x256c>)
    a4b4:	f507 62bf 	add.w	r2, r7, #1528	; 0x5f8
    a4b8:	f5a2 7211 	sub.w	r2, r2, #580	; 0x244
    a4bc:	6812      	ldr	r2, [r2, #0]
    a4be:	f841 2023 	str.w	r2, [r1, r3, lsl #2]
    a4c2:	4b74      	ldr	r3, [pc, #464]	; (a694 <benchmark_body+0x2560>)
    a4c4:	681b      	ldr	r3, [r3, #0]
    a4c6:	3303      	adds	r3, #3
    a4c8:	4a72      	ldr	r2, [pc, #456]	; (a694 <benchmark_body+0x2560>)
    a4ca:	6013      	str	r3, [r2, #0]
    a4cc:	4b73      	ldr	r3, [pc, #460]	; (a69c <benchmark_body+0x2568>)
    a4ce:	681b      	ldr	r3, [r3, #0]
    a4d0:	2b04      	cmp	r3, #4
    a4d2:	dd67      	ble.n	a5a4 <benchmark_body+0x2470>
    a4d4:	4b6f      	ldr	r3, [pc, #444]	; (a694 <benchmark_body+0x2560>)
    a4d6:	681b      	ldr	r3, [r3, #0]
    a4d8:	2b03      	cmp	r3, #3
    a4da:	dc63      	bgt.n	a5a4 <benchmark_body+0x2470>
    a4dc:	4b6e      	ldr	r3, [pc, #440]	; (a698 <benchmark_body+0x2564>)
    a4de:	681a      	ldr	r2, [r3, #0]
    a4e0:	4b6d      	ldr	r3, [pc, #436]	; (a698 <benchmark_body+0x2564>)
    a4e2:	689b      	ldr	r3, [r3, #8]
    a4e4:	429a      	cmp	r2, r3
    a4e6:	d15d      	bne.n	a5a4 <benchmark_body+0x2470>
    a4e8:	4b6b      	ldr	r3, [pc, #428]	; (a698 <benchmark_body+0x2564>)
    a4ea:	681a      	ldr	r2, [r3, #0]
    a4ec:	4b6a      	ldr	r3, [pc, #424]	; (a698 <benchmark_body+0x2564>)
    a4ee:	691b      	ldr	r3, [r3, #16]
    a4f0:	429a      	cmp	r2, r3
    a4f2:	d157      	bne.n	a5a4 <benchmark_body+0x2470>
    a4f4:	f507 63bf 	add.w	r3, r7, #1528	; 0x5f8
    a4f8:	f5a3 7312 	sub.w	r3, r3, #584	; 0x248
    a4fc:	4a66      	ldr	r2, [pc, #408]	; (a698 <benchmark_body+0x2564>)
    a4fe:	6852      	ldr	r2, [r2, #4]
    a500:	601a      	str	r2, [r3, #0]
    a502:	f507 63bf 	add.w	r3, r7, #1528	; 0x5f8
    a506:	f5a3 7313 	sub.w	r3, r3, #588	; 0x24c
    a50a:	4a63      	ldr	r2, [pc, #396]	; (a698 <benchmark_body+0x2564>)
    a50c:	6812      	ldr	r2, [r2, #0]
    a50e:	601a      	str	r2, [r3, #0]
    a510:	f507 63bf 	add.w	r3, r7, #1528	; 0x5f8
    a514:	f5a3 7213 	sub.w	r2, r3, #588	; 0x24c
    a518:	f507 63bf 	add.w	r3, r7, #1528	; 0x5f8
    a51c:	f5a3 7312 	sub.w	r3, r3, #584	; 0x248
    a520:	6812      	ldr	r2, [r2, #0]
    a522:	681b      	ldr	r3, [r3, #0]
    a524:	429a      	cmp	r2, r3
    a526:	dd3d      	ble.n	a5a4 <benchmark_body+0x2470>
    a528:	4b5b      	ldr	r3, [pc, #364]	; (a698 <benchmark_body+0x2564>)
    a52a:	68db      	ldr	r3, [r3, #12]
    a52c:	4a5a      	ldr	r2, [pc, #360]	; (a698 <benchmark_body+0x2564>)
    a52e:	6013      	str	r3, [r2, #0]
    a530:	4b5a      	ldr	r3, [pc, #360]	; (a69c <benchmark_body+0x2568>)
    a532:	681b      	ldr	r3, [r3, #0]
    a534:	3b04      	subs	r3, #4
    a536:	4a59      	ldr	r2, [pc, #356]	; (a69c <benchmark_body+0x2568>)
    a538:	6013      	str	r3, [r2, #0]
    a53a:	f507 63bf 	add.w	r3, r7, #1528	; 0x5f8
    a53e:	f5a3 7314 	sub.w	r3, r3, #592	; 0x250
    a542:	f507 62bf 	add.w	r2, r7, #1528	; 0x5f8
    a546:	f5a2 7112 	sub.w	r1, r2, #584	; 0x248
    a54a:	f507 62bf 	add.w	r2, r7, #1528	; 0x5f8
    a54e:	f5a2 7213 	sub.w	r2, r2, #588	; 0x24c
    a552:	6809      	ldr	r1, [r1, #0]
    a554:	6812      	ldr	r2, [r2, #0]
    a556:	440a      	add	r2, r1
    a558:	601a      	str	r2, [r3, #0]
    a55a:	4b4e      	ldr	r3, [pc, #312]	; (a694 <benchmark_body+0x2560>)
    a55c:	681b      	ldr	r3, [r3, #0]
    a55e:	4950      	ldr	r1, [pc, #320]	; (a6a0 <benchmark_body+0x256c>)
    a560:	f507 62bf 	add.w	r2, r7, #1528	; 0x5f8
    a564:	f5a2 7212 	sub.w	r2, r2, #584	; 0x248
    a568:	6812      	ldr	r2, [r2, #0]
    a56a:	f841 2023 	str.w	r2, [r1, r3, lsl #2]
    a56e:	4b49      	ldr	r3, [pc, #292]	; (a694 <benchmark_body+0x2560>)
    a570:	681b      	ldr	r3, [r3, #0]
    a572:	3301      	adds	r3, #1
    a574:	494a      	ldr	r1, [pc, #296]	; (a6a0 <benchmark_body+0x256c>)
    a576:	f507 62bf 	add.w	r2, r7, #1528	; 0x5f8
    a57a:	f5a2 7213 	sub.w	r2, r2, #588	; 0x24c
    a57e:	6812      	ldr	r2, [r2, #0]
    a580:	f841 2023 	str.w	r2, [r1, r3, lsl #2]
    a584:	4b43      	ldr	r3, [pc, #268]	; (a694 <benchmark_body+0x2560>)
    a586:	681b      	ldr	r3, [r3, #0]
    a588:	3302      	adds	r3, #2
    a58a:	4945      	ldr	r1, [pc, #276]	; (a6a0 <benchmark_body+0x256c>)
    a58c:	f507 62bf 	add.w	r2, r7, #1528	; 0x5f8
    a590:	f5a2 7214 	sub.w	r2, r2, #592	; 0x250
    a594:	6812      	ldr	r2, [r2, #0]
    a596:	f841 2023 	str.w	r2, [r1, r3, lsl #2]
    a59a:	4b3e      	ldr	r3, [pc, #248]	; (a694 <benchmark_body+0x2560>)
    a59c:	681b      	ldr	r3, [r3, #0]
    a59e:	3303      	adds	r3, #3
    a5a0:	4a3c      	ldr	r2, [pc, #240]	; (a694 <benchmark_body+0x2560>)
    a5a2:	6013      	str	r3, [r2, #0]
    a5a4:	4b3d      	ldr	r3, [pc, #244]	; (a69c <benchmark_body+0x2568>)
    a5a6:	681b      	ldr	r3, [r3, #0]
    a5a8:	2b04      	cmp	r3, #4
    a5aa:	dd67      	ble.n	a67c <benchmark_body+0x2548>
    a5ac:	4b39      	ldr	r3, [pc, #228]	; (a694 <benchmark_body+0x2560>)
    a5ae:	681b      	ldr	r3, [r3, #0]
    a5b0:	2b03      	cmp	r3, #3
    a5b2:	dc63      	bgt.n	a67c <benchmark_body+0x2548>
    a5b4:	4b38      	ldr	r3, [pc, #224]	; (a698 <benchmark_body+0x2564>)
    a5b6:	681a      	ldr	r2, [r3, #0]
    a5b8:	4b37      	ldr	r3, [pc, #220]	; (a698 <benchmark_body+0x2564>)
    a5ba:	68db      	ldr	r3, [r3, #12]
    a5bc:	429a      	cmp	r2, r3
    a5be:	d15d      	bne.n	a67c <benchmark_body+0x2548>
    a5c0:	4b35      	ldr	r3, [pc, #212]	; (a698 <benchmark_body+0x2564>)
    a5c2:	681a      	ldr	r2, [r3, #0]
    a5c4:	4b34      	ldr	r3, [pc, #208]	; (a698 <benchmark_body+0x2564>)
    a5c6:	691b      	ldr	r3, [r3, #16]
    a5c8:	429a      	cmp	r2, r3
    a5ca:	d157      	bne.n	a67c <benchmark_body+0x2548>
    a5cc:	f507 63bf 	add.w	r3, r7, #1528	; 0x5f8
    a5d0:	f5a3 7315 	sub.w	r3, r3, #596	; 0x254
    a5d4:	4a30      	ldr	r2, [pc, #192]	; (a698 <benchmark_body+0x2564>)
    a5d6:	6852      	ldr	r2, [r2, #4]
    a5d8:	601a      	str	r2, [r3, #0]
    a5da:	f507 63bf 	add.w	r3, r7, #1528	; 0x5f8
    a5de:	f5a3 7316 	sub.w	r3, r3, #600	; 0x258
    a5e2:	4a2d      	ldr	r2, [pc, #180]	; (a698 <benchmark_body+0x2564>)
    a5e4:	6812      	ldr	r2, [r2, #0]
    a5e6:	601a      	str	r2, [r3, #0]
    a5e8:	f507 63bf 	add.w	r3, r7, #1528	; 0x5f8
    a5ec:	f5a3 7216 	sub.w	r2, r3, #600	; 0x258
    a5f0:	f507 63bf 	add.w	r3, r7, #1528	; 0x5f8
    a5f4:	f5a3 7315 	sub.w	r3, r3, #596	; 0x254
    a5f8:	6812      	ldr	r2, [r2, #0]
    a5fa:	681b      	ldr	r3, [r3, #0]
    a5fc:	429a      	cmp	r2, r3
    a5fe:	dd3d      	ble.n	a67c <benchmark_body+0x2548>
    a600:	4b25      	ldr	r3, [pc, #148]	; (a698 <benchmark_body+0x2564>)
    a602:	689b      	ldr	r3, [r3, #8]
    a604:	4a24      	ldr	r2, [pc, #144]	; (a698 <benchmark_body+0x2564>)
    a606:	6013      	str	r3, [r2, #0]
    a608:	4b24      	ldr	r3, [pc, #144]	; (a69c <benchmark_body+0x2568>)
    a60a:	681b      	ldr	r3, [r3, #0]
    a60c:	3b04      	subs	r3, #4
    a60e:	4a23      	ldr	r2, [pc, #140]	; (a69c <benchmark_body+0x2568>)
    a610:	6013      	str	r3, [r2, #0]
    a612:	f507 63bf 	add.w	r3, r7, #1528	; 0x5f8
    a616:	f5a3 7317 	sub.w	r3, r3, #604	; 0x25c
    a61a:	f507 62bf 	add.w	r2, r7, #1528	; 0x5f8
    a61e:	f5a2 7115 	sub.w	r1, r2, #596	; 0x254
    a622:	f507 62bf 	add.w	r2, r7, #1528	; 0x5f8
    a626:	f5a2 7216 	sub.w	r2, r2, #600	; 0x258
    a62a:	6809      	ldr	r1, [r1, #0]
    a62c:	6812      	ldr	r2, [r2, #0]
    a62e:	440a      	add	r2, r1
    a630:	601a      	str	r2, [r3, #0]
    a632:	4b18      	ldr	r3, [pc, #96]	; (a694 <benchmark_body+0x2560>)
    a634:	681b      	ldr	r3, [r3, #0]
    a636:	491a      	ldr	r1, [pc, #104]	; (a6a0 <benchmark_body+0x256c>)
    a638:	f507 62bf 	add.w	r2, r7, #1528	; 0x5f8
    a63c:	f5a2 7215 	sub.w	r2, r2, #596	; 0x254
    a640:	6812      	ldr	r2, [r2, #0]
    a642:	f841 2023 	str.w	r2, [r1, r3, lsl #2]
    a646:	4b13      	ldr	r3, [pc, #76]	; (a694 <benchmark_body+0x2560>)
    a648:	681b      	ldr	r3, [r3, #0]
    a64a:	3301      	adds	r3, #1
    a64c:	4914      	ldr	r1, [pc, #80]	; (a6a0 <benchmark_body+0x256c>)
    a64e:	f507 62bf 	add.w	r2, r7, #1528	; 0x5f8
    a652:	f5a2 7216 	sub.w	r2, r2, #600	; 0x258
    a656:	6812      	ldr	r2, [r2, #0]
    a658:	f841 2023 	str.w	r2, [r1, r3, lsl #2]
    a65c:	4b0d      	ldr	r3, [pc, #52]	; (a694 <benchmark_body+0x2560>)
    a65e:	681b      	ldr	r3, [r3, #0]
    a660:	3302      	adds	r3, #2
    a662:	490f      	ldr	r1, [pc, #60]	; (a6a0 <benchmark_body+0x256c>)
    a664:	f507 62bf 	add.w	r2, r7, #1528	; 0x5f8
    a668:	f5a2 7217 	sub.w	r2, r2, #604	; 0x25c
    a66c:	6812      	ldr	r2, [r2, #0]
    a66e:	f841 2023 	str.w	r2, [r1, r3, lsl #2]
    a672:	4b08      	ldr	r3, [pc, #32]	; (a694 <benchmark_body+0x2560>)
    a674:	681b      	ldr	r3, [r3, #0]
    a676:	3303      	adds	r3, #3
    a678:	4a06      	ldr	r2, [pc, #24]	; (a694 <benchmark_body+0x2560>)
    a67a:	6013      	str	r3, [r2, #0]
    a67c:	4b07      	ldr	r3, [pc, #28]	; (a69c <benchmark_body+0x2568>)
    a67e:	681b      	ldr	r3, [r3, #0]
    a680:	2b04      	cmp	r3, #4
    a682:	dd71      	ble.n	a768 <benchmark_body+0x2634>
    a684:	4b03      	ldr	r3, [pc, #12]	; (a694 <benchmark_body+0x2560>)
    a686:	681b      	ldr	r3, [r3, #0]
    a688:	2b03      	cmp	r3, #3
    a68a:	dc6d      	bgt.n	a768 <benchmark_body+0x2634>
    a68c:	4b02      	ldr	r3, [pc, #8]	; (a698 <benchmark_body+0x2564>)
    a68e:	681a      	ldr	r2, [r3, #0]
    a690:	e008      	b.n	a6a4 <benchmark_body+0x2570>
    a692:	bf00      	nop
    a694:	0001f118 	.word	0x0001f118
    a698:	0001f104 	.word	0x0001f104
    a69c:	0001ecac 	.word	0x0001ecac
    a6a0:	0001f11c 	.word	0x0001f11c
    a6a4:	4ba5      	ldr	r3, [pc, #660]	; (a93c <benchmark_body+0x2808>)
    a6a6:	691b      	ldr	r3, [r3, #16]
    a6a8:	429a      	cmp	r2, r3
    a6aa:	d15d      	bne.n	a768 <benchmark_body+0x2634>
    a6ac:	4ba3      	ldr	r3, [pc, #652]	; (a93c <benchmark_body+0x2808>)
    a6ae:	681a      	ldr	r2, [r3, #0]
    a6b0:	4ba2      	ldr	r3, [pc, #648]	; (a93c <benchmark_body+0x2808>)
    a6b2:	689b      	ldr	r3, [r3, #8]
    a6b4:	429a      	cmp	r2, r3
    a6b6:	d157      	bne.n	a768 <benchmark_body+0x2634>
    a6b8:	f507 63bf 	add.w	r3, r7, #1528	; 0x5f8
    a6bc:	f5a3 7318 	sub.w	r3, r3, #608	; 0x260
    a6c0:	4a9e      	ldr	r2, [pc, #632]	; (a93c <benchmark_body+0x2808>)
    a6c2:	6852      	ldr	r2, [r2, #4]
    a6c4:	601a      	str	r2, [r3, #0]
    a6c6:	f507 63bf 	add.w	r3, r7, #1528	; 0x5f8
    a6ca:	f5a3 7319 	sub.w	r3, r3, #612	; 0x264
    a6ce:	4a9b      	ldr	r2, [pc, #620]	; (a93c <benchmark_body+0x2808>)
    a6d0:	6812      	ldr	r2, [r2, #0]
    a6d2:	601a      	str	r2, [r3, #0]
    a6d4:	f507 63bf 	add.w	r3, r7, #1528	; 0x5f8
    a6d8:	f5a3 7219 	sub.w	r2, r3, #612	; 0x264
    a6dc:	f507 63bf 	add.w	r3, r7, #1528	; 0x5f8
    a6e0:	f5a3 7318 	sub.w	r3, r3, #608	; 0x260
    a6e4:	6812      	ldr	r2, [r2, #0]
    a6e6:	681b      	ldr	r3, [r3, #0]
    a6e8:	429a      	cmp	r2, r3
    a6ea:	dd3d      	ble.n	a768 <benchmark_body+0x2634>
    a6ec:	4b93      	ldr	r3, [pc, #588]	; (a93c <benchmark_body+0x2808>)
    a6ee:	68db      	ldr	r3, [r3, #12]
    a6f0:	4a92      	ldr	r2, [pc, #584]	; (a93c <benchmark_body+0x2808>)
    a6f2:	6013      	str	r3, [r2, #0]
    a6f4:	4b92      	ldr	r3, [pc, #584]	; (a940 <benchmark_body+0x280c>)
    a6f6:	681b      	ldr	r3, [r3, #0]
    a6f8:	3b04      	subs	r3, #4
    a6fa:	4a91      	ldr	r2, [pc, #580]	; (a940 <benchmark_body+0x280c>)
    a6fc:	6013      	str	r3, [r2, #0]
    a6fe:	f507 63bf 	add.w	r3, r7, #1528	; 0x5f8
    a702:	f5a3 731a 	sub.w	r3, r3, #616	; 0x268
    a706:	f507 62bf 	add.w	r2, r7, #1528	; 0x5f8
    a70a:	f5a2 7118 	sub.w	r1, r2, #608	; 0x260
    a70e:	f507 62bf 	add.w	r2, r7, #1528	; 0x5f8
    a712:	f5a2 7219 	sub.w	r2, r2, #612	; 0x264
    a716:	6809      	ldr	r1, [r1, #0]
    a718:	6812      	ldr	r2, [r2, #0]
    a71a:	440a      	add	r2, r1
    a71c:	601a      	str	r2, [r3, #0]
    a71e:	4b89      	ldr	r3, [pc, #548]	; (a944 <benchmark_body+0x2810>)
    a720:	681b      	ldr	r3, [r3, #0]
    a722:	4989      	ldr	r1, [pc, #548]	; (a948 <benchmark_body+0x2814>)
    a724:	f507 62bf 	add.w	r2, r7, #1528	; 0x5f8
    a728:	f5a2 7218 	sub.w	r2, r2, #608	; 0x260
    a72c:	6812      	ldr	r2, [r2, #0]
    a72e:	f841 2023 	str.w	r2, [r1, r3, lsl #2]
    a732:	4b84      	ldr	r3, [pc, #528]	; (a944 <benchmark_body+0x2810>)
    a734:	681b      	ldr	r3, [r3, #0]
    a736:	3301      	adds	r3, #1
    a738:	4983      	ldr	r1, [pc, #524]	; (a948 <benchmark_body+0x2814>)
    a73a:	f507 62bf 	add.w	r2, r7, #1528	; 0x5f8
    a73e:	f5a2 7219 	sub.w	r2, r2, #612	; 0x264
    a742:	6812      	ldr	r2, [r2, #0]
    a744:	f841 2023 	str.w	r2, [r1, r3, lsl #2]
    a748:	4b7e      	ldr	r3, [pc, #504]	; (a944 <benchmark_body+0x2810>)
    a74a:	681b      	ldr	r3, [r3, #0]
    a74c:	3302      	adds	r3, #2
    a74e:	497e      	ldr	r1, [pc, #504]	; (a948 <benchmark_body+0x2814>)
    a750:	f507 62bf 	add.w	r2, r7, #1528	; 0x5f8
    a754:	f5a2 721a 	sub.w	r2, r2, #616	; 0x268
    a758:	6812      	ldr	r2, [r2, #0]
    a75a:	f841 2023 	str.w	r2, [r1, r3, lsl #2]
    a75e:	4b79      	ldr	r3, [pc, #484]	; (a944 <benchmark_body+0x2810>)
    a760:	681b      	ldr	r3, [r3, #0]
    a762:	3303      	adds	r3, #3
    a764:	4a77      	ldr	r2, [pc, #476]	; (a944 <benchmark_body+0x2810>)
    a766:	6013      	str	r3, [r2, #0]
    a768:	4b75      	ldr	r3, [pc, #468]	; (a940 <benchmark_body+0x280c>)
    a76a:	681b      	ldr	r3, [r3, #0]
    a76c:	2b04      	cmp	r3, #4
    a76e:	dd67      	ble.n	a840 <benchmark_body+0x270c>
    a770:	4b74      	ldr	r3, [pc, #464]	; (a944 <benchmark_body+0x2810>)
    a772:	681b      	ldr	r3, [r3, #0]
    a774:	2b03      	cmp	r3, #3
    a776:	dc63      	bgt.n	a840 <benchmark_body+0x270c>
    a778:	4b70      	ldr	r3, [pc, #448]	; (a93c <benchmark_body+0x2808>)
    a77a:	681a      	ldr	r2, [r3, #0]
    a77c:	4b6f      	ldr	r3, [pc, #444]	; (a93c <benchmark_body+0x2808>)
    a77e:	691b      	ldr	r3, [r3, #16]
    a780:	429a      	cmp	r2, r3
    a782:	d15d      	bne.n	a840 <benchmark_body+0x270c>
    a784:	4b6d      	ldr	r3, [pc, #436]	; (a93c <benchmark_body+0x2808>)
    a786:	681a      	ldr	r2, [r3, #0]
    a788:	4b6c      	ldr	r3, [pc, #432]	; (a93c <benchmark_body+0x2808>)
    a78a:	68db      	ldr	r3, [r3, #12]
    a78c:	429a      	cmp	r2, r3
    a78e:	d157      	bne.n	a840 <benchmark_body+0x270c>
    a790:	f507 63bf 	add.w	r3, r7, #1528	; 0x5f8
    a794:	f5a3 731b 	sub.w	r3, r3, #620	; 0x26c
    a798:	4a68      	ldr	r2, [pc, #416]	; (a93c <benchmark_body+0x2808>)
    a79a:	6852      	ldr	r2, [r2, #4]
    a79c:	601a      	str	r2, [r3, #0]
    a79e:	f507 63bf 	add.w	r3, r7, #1528	; 0x5f8
    a7a2:	f5a3 731c 	sub.w	r3, r3, #624	; 0x270
    a7a6:	4a65      	ldr	r2, [pc, #404]	; (a93c <benchmark_body+0x2808>)
    a7a8:	6812      	ldr	r2, [r2, #0]
    a7aa:	601a      	str	r2, [r3, #0]
    a7ac:	f507 63bf 	add.w	r3, r7, #1528	; 0x5f8
    a7b0:	f5a3 721c 	sub.w	r2, r3, #624	; 0x270
    a7b4:	f507 63bf 	add.w	r3, r7, #1528	; 0x5f8
    a7b8:	f5a3 731b 	sub.w	r3, r3, #620	; 0x26c
    a7bc:	6812      	ldr	r2, [r2, #0]
    a7be:	681b      	ldr	r3, [r3, #0]
    a7c0:	429a      	cmp	r2, r3
    a7c2:	dd3d      	ble.n	a840 <benchmark_body+0x270c>
    a7c4:	4b5d      	ldr	r3, [pc, #372]	; (a93c <benchmark_body+0x2808>)
    a7c6:	689b      	ldr	r3, [r3, #8]
    a7c8:	4a5c      	ldr	r2, [pc, #368]	; (a93c <benchmark_body+0x2808>)
    a7ca:	6013      	str	r3, [r2, #0]
    a7cc:	4b5c      	ldr	r3, [pc, #368]	; (a940 <benchmark_body+0x280c>)
    a7ce:	681b      	ldr	r3, [r3, #0]
    a7d0:	3b04      	subs	r3, #4
    a7d2:	4a5b      	ldr	r2, [pc, #364]	; (a940 <benchmark_body+0x280c>)
    a7d4:	6013      	str	r3, [r2, #0]
    a7d6:	f507 63bf 	add.w	r3, r7, #1528	; 0x5f8
    a7da:	f5a3 731d 	sub.w	r3, r3, #628	; 0x274
    a7de:	f507 62bf 	add.w	r2, r7, #1528	; 0x5f8
    a7e2:	f5a2 711b 	sub.w	r1, r2, #620	; 0x26c
    a7e6:	f507 62bf 	add.w	r2, r7, #1528	; 0x5f8
    a7ea:	f5a2 721c 	sub.w	r2, r2, #624	; 0x270
    a7ee:	6809      	ldr	r1, [r1, #0]
    a7f0:	6812      	ldr	r2, [r2, #0]
    a7f2:	440a      	add	r2, r1
    a7f4:	601a      	str	r2, [r3, #0]
    a7f6:	4b53      	ldr	r3, [pc, #332]	; (a944 <benchmark_body+0x2810>)
    a7f8:	681b      	ldr	r3, [r3, #0]
    a7fa:	4953      	ldr	r1, [pc, #332]	; (a948 <benchmark_body+0x2814>)
    a7fc:	f507 62bf 	add.w	r2, r7, #1528	; 0x5f8
    a800:	f5a2 721b 	sub.w	r2, r2, #620	; 0x26c
    a804:	6812      	ldr	r2, [r2, #0]
    a806:	f841 2023 	str.w	r2, [r1, r3, lsl #2]
    a80a:	4b4e      	ldr	r3, [pc, #312]	; (a944 <benchmark_body+0x2810>)
    a80c:	681b      	ldr	r3, [r3, #0]
    a80e:	3301      	adds	r3, #1
    a810:	494d      	ldr	r1, [pc, #308]	; (a948 <benchmark_body+0x2814>)
    a812:	f507 62bf 	add.w	r2, r7, #1528	; 0x5f8
    a816:	f5a2 721c 	sub.w	r2, r2, #624	; 0x270
    a81a:	6812      	ldr	r2, [r2, #0]
    a81c:	f841 2023 	str.w	r2, [r1, r3, lsl #2]
    a820:	4b48      	ldr	r3, [pc, #288]	; (a944 <benchmark_body+0x2810>)
    a822:	681b      	ldr	r3, [r3, #0]
    a824:	3302      	adds	r3, #2
    a826:	4948      	ldr	r1, [pc, #288]	; (a948 <benchmark_body+0x2814>)
    a828:	f507 62bf 	add.w	r2, r7, #1528	; 0x5f8
    a82c:	f5a2 721d 	sub.w	r2, r2, #628	; 0x274
    a830:	6812      	ldr	r2, [r2, #0]
    a832:	f841 2023 	str.w	r2, [r1, r3, lsl #2]
    a836:	4b43      	ldr	r3, [pc, #268]	; (a944 <benchmark_body+0x2810>)
    a838:	681b      	ldr	r3, [r3, #0]
    a83a:	3303      	adds	r3, #3
    a83c:	4a41      	ldr	r2, [pc, #260]	; (a944 <benchmark_body+0x2810>)
    a83e:	6013      	str	r3, [r2, #0]
    a840:	4b3f      	ldr	r3, [pc, #252]	; (a940 <benchmark_body+0x280c>)
    a842:	681b      	ldr	r3, [r3, #0]
    a844:	2b04      	cmp	r3, #4
    a846:	dd67      	ble.n	a918 <benchmark_body+0x27e4>
    a848:	4b3e      	ldr	r3, [pc, #248]	; (a944 <benchmark_body+0x2810>)
    a84a:	681b      	ldr	r3, [r3, #0]
    a84c:	2b03      	cmp	r3, #3
    a84e:	dc63      	bgt.n	a918 <benchmark_body+0x27e4>
    a850:	4b3a      	ldr	r3, [pc, #232]	; (a93c <benchmark_body+0x2808>)
    a852:	689a      	ldr	r2, [r3, #8]
    a854:	4b39      	ldr	r3, [pc, #228]	; (a93c <benchmark_body+0x2808>)
    a856:	681b      	ldr	r3, [r3, #0]
    a858:	429a      	cmp	r2, r3
    a85a:	d15d      	bne.n	a918 <benchmark_body+0x27e4>
    a85c:	4b37      	ldr	r3, [pc, #220]	; (a93c <benchmark_body+0x2808>)
    a85e:	689a      	ldr	r2, [r3, #8]
    a860:	4b36      	ldr	r3, [pc, #216]	; (a93c <benchmark_body+0x2808>)
    a862:	691b      	ldr	r3, [r3, #16]
    a864:	429a      	cmp	r2, r3
    a866:	d157      	bne.n	a918 <benchmark_body+0x27e4>
    a868:	f507 63bf 	add.w	r3, r7, #1528	; 0x5f8
    a86c:	f5a3 731e 	sub.w	r3, r3, #632	; 0x278
    a870:	4a32      	ldr	r2, [pc, #200]	; (a93c <benchmark_body+0x2808>)
    a872:	6852      	ldr	r2, [r2, #4]
    a874:	601a      	str	r2, [r3, #0]
    a876:	f507 63bf 	add.w	r3, r7, #1528	; 0x5f8
    a87a:	f5a3 731f 	sub.w	r3, r3, #636	; 0x27c
    a87e:	4a2f      	ldr	r2, [pc, #188]	; (a93c <benchmark_body+0x2808>)
    a880:	6892      	ldr	r2, [r2, #8]
    a882:	601a      	str	r2, [r3, #0]
    a884:	f507 63bf 	add.w	r3, r7, #1528	; 0x5f8
    a888:	f5a3 721f 	sub.w	r2, r3, #636	; 0x27c
    a88c:	f507 63bf 	add.w	r3, r7, #1528	; 0x5f8
    a890:	f5a3 731e 	sub.w	r3, r3, #632	; 0x278
    a894:	6812      	ldr	r2, [r2, #0]
    a896:	681b      	ldr	r3, [r3, #0]
    a898:	429a      	cmp	r2, r3
    a89a:	dd3d      	ble.n	a918 <benchmark_body+0x27e4>
    a89c:	4b27      	ldr	r3, [pc, #156]	; (a93c <benchmark_body+0x2808>)
    a89e:	68db      	ldr	r3, [r3, #12]
    a8a0:	4a26      	ldr	r2, [pc, #152]	; (a93c <benchmark_body+0x2808>)
    a8a2:	6013      	str	r3, [r2, #0]
    a8a4:	4b26      	ldr	r3, [pc, #152]	; (a940 <benchmark_body+0x280c>)
    a8a6:	681b      	ldr	r3, [r3, #0]
    a8a8:	3b04      	subs	r3, #4
    a8aa:	4a25      	ldr	r2, [pc, #148]	; (a940 <benchmark_body+0x280c>)
    a8ac:	6013      	str	r3, [r2, #0]
    a8ae:	f507 63bf 	add.w	r3, r7, #1528	; 0x5f8
    a8b2:	f5a3 7320 	sub.w	r3, r3, #640	; 0x280
    a8b6:	f507 62bf 	add.w	r2, r7, #1528	; 0x5f8
    a8ba:	f5a2 711e 	sub.w	r1, r2, #632	; 0x278
    a8be:	f507 62bf 	add.w	r2, r7, #1528	; 0x5f8
    a8c2:	f5a2 721f 	sub.w	r2, r2, #636	; 0x27c
    a8c6:	6809      	ldr	r1, [r1, #0]
    a8c8:	6812      	ldr	r2, [r2, #0]
    a8ca:	440a      	add	r2, r1
    a8cc:	601a      	str	r2, [r3, #0]
    a8ce:	4b1d      	ldr	r3, [pc, #116]	; (a944 <benchmark_body+0x2810>)
    a8d0:	681b      	ldr	r3, [r3, #0]
    a8d2:	491d      	ldr	r1, [pc, #116]	; (a948 <benchmark_body+0x2814>)
    a8d4:	f507 62bf 	add.w	r2, r7, #1528	; 0x5f8
    a8d8:	f5a2 721e 	sub.w	r2, r2, #632	; 0x278
    a8dc:	6812      	ldr	r2, [r2, #0]
    a8de:	f841 2023 	str.w	r2, [r1, r3, lsl #2]
    a8e2:	4b18      	ldr	r3, [pc, #96]	; (a944 <benchmark_body+0x2810>)
    a8e4:	681b      	ldr	r3, [r3, #0]
    a8e6:	3301      	adds	r3, #1
    a8e8:	4917      	ldr	r1, [pc, #92]	; (a948 <benchmark_body+0x2814>)
    a8ea:	f507 62bf 	add.w	r2, r7, #1528	; 0x5f8
    a8ee:	f5a2 721f 	sub.w	r2, r2, #636	; 0x27c
    a8f2:	6812      	ldr	r2, [r2, #0]
    a8f4:	f841 2023 	str.w	r2, [r1, r3, lsl #2]
    a8f8:	4b12      	ldr	r3, [pc, #72]	; (a944 <benchmark_body+0x2810>)
    a8fa:	681b      	ldr	r3, [r3, #0]
    a8fc:	3302      	adds	r3, #2
    a8fe:	4912      	ldr	r1, [pc, #72]	; (a948 <benchmark_body+0x2814>)
    a900:	f507 62bf 	add.w	r2, r7, #1528	; 0x5f8
    a904:	f5a2 7220 	sub.w	r2, r2, #640	; 0x280
    a908:	6812      	ldr	r2, [r2, #0]
    a90a:	f841 2023 	str.w	r2, [r1, r3, lsl #2]
    a90e:	4b0d      	ldr	r3, [pc, #52]	; (a944 <benchmark_body+0x2810>)
    a910:	681b      	ldr	r3, [r3, #0]
    a912:	3303      	adds	r3, #3
    a914:	4a0b      	ldr	r2, [pc, #44]	; (a944 <benchmark_body+0x2810>)
    a916:	6013      	str	r3, [r2, #0]
    a918:	4b09      	ldr	r3, [pc, #36]	; (a940 <benchmark_body+0x280c>)
    a91a:	681b      	ldr	r3, [r3, #0]
    a91c:	2b04      	cmp	r3, #4
    a91e:	dd6d      	ble.n	a9fc <benchmark_body+0x28c8>
    a920:	4b08      	ldr	r3, [pc, #32]	; (a944 <benchmark_body+0x2810>)
    a922:	681b      	ldr	r3, [r3, #0]
    a924:	2b03      	cmp	r3, #3
    a926:	dc69      	bgt.n	a9fc <benchmark_body+0x28c8>
    a928:	4b04      	ldr	r3, [pc, #16]	; (a93c <benchmark_body+0x2808>)
    a92a:	689a      	ldr	r2, [r3, #8]
    a92c:	4b03      	ldr	r3, [pc, #12]	; (a93c <benchmark_body+0x2808>)
    a92e:	68db      	ldr	r3, [r3, #12]
    a930:	429a      	cmp	r2, r3
    a932:	d163      	bne.n	a9fc <benchmark_body+0x28c8>
    a934:	4b01      	ldr	r3, [pc, #4]	; (a93c <benchmark_body+0x2808>)
    a936:	689a      	ldr	r2, [r3, #8]
    a938:	e008      	b.n	a94c <benchmark_body+0x2818>
    a93a:	bf00      	nop
    a93c:	0001f104 	.word	0x0001f104
    a940:	0001ecac 	.word	0x0001ecac
    a944:	0001f118 	.word	0x0001f118
    a948:	0001f11c 	.word	0x0001f11c
    a94c:	4ba7      	ldr	r3, [pc, #668]	; (abec <benchmark_body+0x2ab8>)
    a94e:	691b      	ldr	r3, [r3, #16]
    a950:	429a      	cmp	r2, r3
    a952:	d153      	bne.n	a9fc <benchmark_body+0x28c8>
    a954:	f507 63bf 	add.w	r3, r7, #1528	; 0x5f8
    a958:	f5a3 7321 	sub.w	r3, r3, #644	; 0x284
    a95c:	4aa3      	ldr	r2, [pc, #652]	; (abec <benchmark_body+0x2ab8>)
    a95e:	6852      	ldr	r2, [r2, #4]
    a960:	601a      	str	r2, [r3, #0]
    a962:	f507 63bf 	add.w	r3, r7, #1528	; 0x5f8
    a966:	f5a3 7322 	sub.w	r3, r3, #648	; 0x288
    a96a:	4aa0      	ldr	r2, [pc, #640]	; (abec <benchmark_body+0x2ab8>)
    a96c:	6892      	ldr	r2, [r2, #8]
    a96e:	601a      	str	r2, [r3, #0]
    a970:	f507 63bf 	add.w	r3, r7, #1528	; 0x5f8
    a974:	f5a3 7222 	sub.w	r2, r3, #648	; 0x288
    a978:	f507 63bf 	add.w	r3, r7, #1528	; 0x5f8
    a97c:	f5a3 7321 	sub.w	r3, r3, #644	; 0x284
    a980:	6812      	ldr	r2, [r2, #0]
    a982:	681b      	ldr	r3, [r3, #0]
    a984:	429a      	cmp	r2, r3
    a986:	dd39      	ble.n	a9fc <benchmark_body+0x28c8>
    a988:	4b99      	ldr	r3, [pc, #612]	; (abf0 <benchmark_body+0x2abc>)
    a98a:	681b      	ldr	r3, [r3, #0]
    a98c:	3b04      	subs	r3, #4
    a98e:	4a98      	ldr	r2, [pc, #608]	; (abf0 <benchmark_body+0x2abc>)
    a990:	6013      	str	r3, [r2, #0]
    a992:	f507 63bf 	add.w	r3, r7, #1528	; 0x5f8
    a996:	f5a3 7323 	sub.w	r3, r3, #652	; 0x28c
    a99a:	f507 62bf 	add.w	r2, r7, #1528	; 0x5f8
    a99e:	f5a2 7121 	sub.w	r1, r2, #644	; 0x284
    a9a2:	f507 62bf 	add.w	r2, r7, #1528	; 0x5f8
    a9a6:	f5a2 7222 	sub.w	r2, r2, #648	; 0x288
    a9aa:	6809      	ldr	r1, [r1, #0]
    a9ac:	6812      	ldr	r2, [r2, #0]
    a9ae:	440a      	add	r2, r1
    a9b0:	601a      	str	r2, [r3, #0]
    a9b2:	4b90      	ldr	r3, [pc, #576]	; (abf4 <benchmark_body+0x2ac0>)
    a9b4:	681b      	ldr	r3, [r3, #0]
    a9b6:	4990      	ldr	r1, [pc, #576]	; (abf8 <benchmark_body+0x2ac4>)
    a9b8:	f507 62bf 	add.w	r2, r7, #1528	; 0x5f8
    a9bc:	f5a2 7221 	sub.w	r2, r2, #644	; 0x284
    a9c0:	6812      	ldr	r2, [r2, #0]
    a9c2:	f841 2023 	str.w	r2, [r1, r3, lsl #2]
    a9c6:	4b8b      	ldr	r3, [pc, #556]	; (abf4 <benchmark_body+0x2ac0>)
    a9c8:	681b      	ldr	r3, [r3, #0]
    a9ca:	3301      	adds	r3, #1
    a9cc:	498a      	ldr	r1, [pc, #552]	; (abf8 <benchmark_body+0x2ac4>)
    a9ce:	f507 62bf 	add.w	r2, r7, #1528	; 0x5f8
    a9d2:	f5a2 7222 	sub.w	r2, r2, #648	; 0x288
    a9d6:	6812      	ldr	r2, [r2, #0]
    a9d8:	f841 2023 	str.w	r2, [r1, r3, lsl #2]
    a9dc:	4b85      	ldr	r3, [pc, #532]	; (abf4 <benchmark_body+0x2ac0>)
    a9de:	681b      	ldr	r3, [r3, #0]
    a9e0:	3302      	adds	r3, #2
    a9e2:	4985      	ldr	r1, [pc, #532]	; (abf8 <benchmark_body+0x2ac4>)
    a9e4:	f507 62bf 	add.w	r2, r7, #1528	; 0x5f8
    a9e8:	f5a2 7223 	sub.w	r2, r2, #652	; 0x28c
    a9ec:	6812      	ldr	r2, [r2, #0]
    a9ee:	f841 2023 	str.w	r2, [r1, r3, lsl #2]
    a9f2:	4b80      	ldr	r3, [pc, #512]	; (abf4 <benchmark_body+0x2ac0>)
    a9f4:	681b      	ldr	r3, [r3, #0]
    a9f6:	3303      	adds	r3, #3
    a9f8:	4a7e      	ldr	r2, [pc, #504]	; (abf4 <benchmark_body+0x2ac0>)
    a9fa:	6013      	str	r3, [r2, #0]
    a9fc:	4b7c      	ldr	r3, [pc, #496]	; (abf0 <benchmark_body+0x2abc>)
    a9fe:	681b      	ldr	r3, [r3, #0]
    aa00:	2b04      	cmp	r3, #4
    aa02:	dd67      	ble.n	aad4 <benchmark_body+0x29a0>
    aa04:	4b7b      	ldr	r3, [pc, #492]	; (abf4 <benchmark_body+0x2ac0>)
    aa06:	681b      	ldr	r3, [r3, #0]
    aa08:	2b03      	cmp	r3, #3
    aa0a:	dc63      	bgt.n	aad4 <benchmark_body+0x29a0>
    aa0c:	4b77      	ldr	r3, [pc, #476]	; (abec <benchmark_body+0x2ab8>)
    aa0e:	689a      	ldr	r2, [r3, #8]
    aa10:	4b76      	ldr	r3, [pc, #472]	; (abec <benchmark_body+0x2ab8>)
    aa12:	691b      	ldr	r3, [r3, #16]
    aa14:	429a      	cmp	r2, r3
    aa16:	d15d      	bne.n	aad4 <benchmark_body+0x29a0>
    aa18:	4b74      	ldr	r3, [pc, #464]	; (abec <benchmark_body+0x2ab8>)
    aa1a:	689a      	ldr	r2, [r3, #8]
    aa1c:	4b73      	ldr	r3, [pc, #460]	; (abec <benchmark_body+0x2ab8>)
    aa1e:	681b      	ldr	r3, [r3, #0]
    aa20:	429a      	cmp	r2, r3
    aa22:	d157      	bne.n	aad4 <benchmark_body+0x29a0>
    aa24:	f507 63bf 	add.w	r3, r7, #1528	; 0x5f8
    aa28:	f5a3 7324 	sub.w	r3, r3, #656	; 0x290
    aa2c:	4a6f      	ldr	r2, [pc, #444]	; (abec <benchmark_body+0x2ab8>)
    aa2e:	6852      	ldr	r2, [r2, #4]
    aa30:	601a      	str	r2, [r3, #0]
    aa32:	f507 63bf 	add.w	r3, r7, #1528	; 0x5f8
    aa36:	f5a3 7325 	sub.w	r3, r3, #660	; 0x294
    aa3a:	4a6c      	ldr	r2, [pc, #432]	; (abec <benchmark_body+0x2ab8>)
    aa3c:	6892      	ldr	r2, [r2, #8]
    aa3e:	601a      	str	r2, [r3, #0]
    aa40:	f507 63bf 	add.w	r3, r7, #1528	; 0x5f8
    aa44:	f5a3 7225 	sub.w	r2, r3, #660	; 0x294
    aa48:	f507 63bf 	add.w	r3, r7, #1528	; 0x5f8
    aa4c:	f5a3 7324 	sub.w	r3, r3, #656	; 0x290
    aa50:	6812      	ldr	r2, [r2, #0]
    aa52:	681b      	ldr	r3, [r3, #0]
    aa54:	429a      	cmp	r2, r3
    aa56:	dd3d      	ble.n	aad4 <benchmark_body+0x29a0>
    aa58:	4b64      	ldr	r3, [pc, #400]	; (abec <benchmark_body+0x2ab8>)
    aa5a:	68db      	ldr	r3, [r3, #12]
    aa5c:	4a63      	ldr	r2, [pc, #396]	; (abec <benchmark_body+0x2ab8>)
    aa5e:	6013      	str	r3, [r2, #0]
    aa60:	4b63      	ldr	r3, [pc, #396]	; (abf0 <benchmark_body+0x2abc>)
    aa62:	681b      	ldr	r3, [r3, #0]
    aa64:	3b04      	subs	r3, #4
    aa66:	4a62      	ldr	r2, [pc, #392]	; (abf0 <benchmark_body+0x2abc>)
    aa68:	6013      	str	r3, [r2, #0]
    aa6a:	f507 63bf 	add.w	r3, r7, #1528	; 0x5f8
    aa6e:	f5a3 7326 	sub.w	r3, r3, #664	; 0x298
    aa72:	f507 62bf 	add.w	r2, r7, #1528	; 0x5f8
    aa76:	f5a2 7124 	sub.w	r1, r2, #656	; 0x290
    aa7a:	f507 62bf 	add.w	r2, r7, #1528	; 0x5f8
    aa7e:	f5a2 7225 	sub.w	r2, r2, #660	; 0x294
    aa82:	6809      	ldr	r1, [r1, #0]
    aa84:	6812      	ldr	r2, [r2, #0]
    aa86:	440a      	add	r2, r1
    aa88:	601a      	str	r2, [r3, #0]
    aa8a:	4b5a      	ldr	r3, [pc, #360]	; (abf4 <benchmark_body+0x2ac0>)
    aa8c:	681b      	ldr	r3, [r3, #0]
    aa8e:	495a      	ldr	r1, [pc, #360]	; (abf8 <benchmark_body+0x2ac4>)
    aa90:	f507 62bf 	add.w	r2, r7, #1528	; 0x5f8
    aa94:	f5a2 7224 	sub.w	r2, r2, #656	; 0x290
    aa98:	6812      	ldr	r2, [r2, #0]
    aa9a:	f841 2023 	str.w	r2, [r1, r3, lsl #2]
    aa9e:	4b55      	ldr	r3, [pc, #340]	; (abf4 <benchmark_body+0x2ac0>)
    aaa0:	681b      	ldr	r3, [r3, #0]
    aaa2:	3301      	adds	r3, #1
    aaa4:	4954      	ldr	r1, [pc, #336]	; (abf8 <benchmark_body+0x2ac4>)
    aaa6:	f507 62bf 	add.w	r2, r7, #1528	; 0x5f8
    aaaa:	f5a2 7225 	sub.w	r2, r2, #660	; 0x294
    aaae:	6812      	ldr	r2, [r2, #0]
    aab0:	f841 2023 	str.w	r2, [r1, r3, lsl #2]
    aab4:	4b4f      	ldr	r3, [pc, #316]	; (abf4 <benchmark_body+0x2ac0>)
    aab6:	681b      	ldr	r3, [r3, #0]
    aab8:	3302      	adds	r3, #2
    aaba:	494f      	ldr	r1, [pc, #316]	; (abf8 <benchmark_body+0x2ac4>)
    aabc:	f507 62bf 	add.w	r2, r7, #1528	; 0x5f8
    aac0:	f5a2 7226 	sub.w	r2, r2, #664	; 0x298
    aac4:	6812      	ldr	r2, [r2, #0]
    aac6:	f841 2023 	str.w	r2, [r1, r3, lsl #2]
    aaca:	4b4a      	ldr	r3, [pc, #296]	; (abf4 <benchmark_body+0x2ac0>)
    aacc:	681b      	ldr	r3, [r3, #0]
    aace:	3303      	adds	r3, #3
    aad0:	4a48      	ldr	r2, [pc, #288]	; (abf4 <benchmark_body+0x2ac0>)
    aad2:	6013      	str	r3, [r2, #0]
    aad4:	4b46      	ldr	r3, [pc, #280]	; (abf0 <benchmark_body+0x2abc>)
    aad6:	681b      	ldr	r3, [r3, #0]
    aad8:	2b04      	cmp	r3, #4
    aada:	dd63      	ble.n	aba4 <benchmark_body+0x2a70>
    aadc:	4b45      	ldr	r3, [pc, #276]	; (abf4 <benchmark_body+0x2ac0>)
    aade:	681b      	ldr	r3, [r3, #0]
    aae0:	2b03      	cmp	r3, #3
    aae2:	dc5f      	bgt.n	aba4 <benchmark_body+0x2a70>
    aae4:	4b41      	ldr	r3, [pc, #260]	; (abec <benchmark_body+0x2ab8>)
    aae6:	689a      	ldr	r2, [r3, #8]
    aae8:	4b40      	ldr	r3, [pc, #256]	; (abec <benchmark_body+0x2ab8>)
    aaea:	691b      	ldr	r3, [r3, #16]
    aaec:	429a      	cmp	r2, r3
    aaee:	d159      	bne.n	aba4 <benchmark_body+0x2a70>
    aaf0:	4b3e      	ldr	r3, [pc, #248]	; (abec <benchmark_body+0x2ab8>)
    aaf2:	689a      	ldr	r2, [r3, #8]
    aaf4:	4b3d      	ldr	r3, [pc, #244]	; (abec <benchmark_body+0x2ab8>)
    aaf6:	68db      	ldr	r3, [r3, #12]
    aaf8:	429a      	cmp	r2, r3
    aafa:	d153      	bne.n	aba4 <benchmark_body+0x2a70>
    aafc:	f507 63bf 	add.w	r3, r7, #1528	; 0x5f8
    ab00:	f5a3 7327 	sub.w	r3, r3, #668	; 0x29c
    ab04:	4a39      	ldr	r2, [pc, #228]	; (abec <benchmark_body+0x2ab8>)
    ab06:	6852      	ldr	r2, [r2, #4]
    ab08:	601a      	str	r2, [r3, #0]
    ab0a:	f507 63bf 	add.w	r3, r7, #1528	; 0x5f8
    ab0e:	f5a3 7328 	sub.w	r3, r3, #672	; 0x2a0
    ab12:	4a36      	ldr	r2, [pc, #216]	; (abec <benchmark_body+0x2ab8>)
    ab14:	6892      	ldr	r2, [r2, #8]
    ab16:	601a      	str	r2, [r3, #0]
    ab18:	f507 63bf 	add.w	r3, r7, #1528	; 0x5f8
    ab1c:	f5a3 7228 	sub.w	r2, r3, #672	; 0x2a0
    ab20:	f507 63bf 	add.w	r3, r7, #1528	; 0x5f8
    ab24:	f5a3 7327 	sub.w	r3, r3, #668	; 0x29c
    ab28:	6812      	ldr	r2, [r2, #0]
    ab2a:	681b      	ldr	r3, [r3, #0]
    ab2c:	429a      	cmp	r2, r3
    ab2e:	dd39      	ble.n	aba4 <benchmark_body+0x2a70>
    ab30:	4b2f      	ldr	r3, [pc, #188]	; (abf0 <benchmark_body+0x2abc>)
    ab32:	681b      	ldr	r3, [r3, #0]
    ab34:	3b04      	subs	r3, #4
    ab36:	4a2e      	ldr	r2, [pc, #184]	; (abf0 <benchmark_body+0x2abc>)
    ab38:	6013      	str	r3, [r2, #0]
    ab3a:	f507 63bf 	add.w	r3, r7, #1528	; 0x5f8
    ab3e:	f5a3 7329 	sub.w	r3, r3, #676	; 0x2a4
    ab42:	f507 62bf 	add.w	r2, r7, #1528	; 0x5f8
    ab46:	f5a2 7127 	sub.w	r1, r2, #668	; 0x29c
    ab4a:	f507 62bf 	add.w	r2, r7, #1528	; 0x5f8
    ab4e:	f5a2 7228 	sub.w	r2, r2, #672	; 0x2a0
    ab52:	6809      	ldr	r1, [r1, #0]
    ab54:	6812      	ldr	r2, [r2, #0]
    ab56:	440a      	add	r2, r1
    ab58:	601a      	str	r2, [r3, #0]
    ab5a:	4b26      	ldr	r3, [pc, #152]	; (abf4 <benchmark_body+0x2ac0>)
    ab5c:	681b      	ldr	r3, [r3, #0]
    ab5e:	4926      	ldr	r1, [pc, #152]	; (abf8 <benchmark_body+0x2ac4>)
    ab60:	f507 62bf 	add.w	r2, r7, #1528	; 0x5f8
    ab64:	f5a2 7227 	sub.w	r2, r2, #668	; 0x29c
    ab68:	6812      	ldr	r2, [r2, #0]
    ab6a:	f841 2023 	str.w	r2, [r1, r3, lsl #2]
    ab6e:	4b21      	ldr	r3, [pc, #132]	; (abf4 <benchmark_body+0x2ac0>)
    ab70:	681b      	ldr	r3, [r3, #0]
    ab72:	3301      	adds	r3, #1
    ab74:	4920      	ldr	r1, [pc, #128]	; (abf8 <benchmark_body+0x2ac4>)
    ab76:	f507 62bf 	add.w	r2, r7, #1528	; 0x5f8
    ab7a:	f5a2 7228 	sub.w	r2, r2, #672	; 0x2a0
    ab7e:	6812      	ldr	r2, [r2, #0]
    ab80:	f841 2023 	str.w	r2, [r1, r3, lsl #2]
    ab84:	4b1b      	ldr	r3, [pc, #108]	; (abf4 <benchmark_body+0x2ac0>)
    ab86:	681b      	ldr	r3, [r3, #0]
    ab88:	3302      	adds	r3, #2
    ab8a:	491b      	ldr	r1, [pc, #108]	; (abf8 <benchmark_body+0x2ac4>)
    ab8c:	f507 62bf 	add.w	r2, r7, #1528	; 0x5f8
    ab90:	f5a2 7229 	sub.w	r2, r2, #676	; 0x2a4
    ab94:	6812      	ldr	r2, [r2, #0]
    ab96:	f841 2023 	str.w	r2, [r1, r3, lsl #2]
    ab9a:	4b16      	ldr	r3, [pc, #88]	; (abf4 <benchmark_body+0x2ac0>)
    ab9c:	681b      	ldr	r3, [r3, #0]
    ab9e:	3303      	adds	r3, #3
    aba0:	4a14      	ldr	r2, [pc, #80]	; (abf4 <benchmark_body+0x2ac0>)
    aba2:	6013      	str	r3, [r2, #0]
    aba4:	4b12      	ldr	r3, [pc, #72]	; (abf0 <benchmark_body+0x2abc>)
    aba6:	681b      	ldr	r3, [r3, #0]
    aba8:	2b04      	cmp	r3, #4
    abaa:	dd71      	ble.n	ac90 <benchmark_body+0x2b5c>
    abac:	4b11      	ldr	r3, [pc, #68]	; (abf4 <benchmark_body+0x2ac0>)
    abae:	681b      	ldr	r3, [r3, #0]
    abb0:	2b03      	cmp	r3, #3
    abb2:	dc6d      	bgt.n	ac90 <benchmark_body+0x2b5c>
    abb4:	4b0d      	ldr	r3, [pc, #52]	; (abec <benchmark_body+0x2ab8>)
    abb6:	68da      	ldr	r2, [r3, #12]
    abb8:	4b0c      	ldr	r3, [pc, #48]	; (abec <benchmark_body+0x2ab8>)
    abba:	681b      	ldr	r3, [r3, #0]
    abbc:	429a      	cmp	r2, r3
    abbe:	d167      	bne.n	ac90 <benchmark_body+0x2b5c>
    abc0:	4b0a      	ldr	r3, [pc, #40]	; (abec <benchmark_body+0x2ab8>)
    abc2:	68da      	ldr	r2, [r3, #12]
    abc4:	4b09      	ldr	r3, [pc, #36]	; (abec <benchmark_body+0x2ab8>)
    abc6:	691b      	ldr	r3, [r3, #16]
    abc8:	429a      	cmp	r2, r3
    abca:	d161      	bne.n	ac90 <benchmark_body+0x2b5c>
    abcc:	f507 63bf 	add.w	r3, r7, #1528	; 0x5f8
    abd0:	f5a3 732a 	sub.w	r3, r3, #680	; 0x2a8
    abd4:	4a05      	ldr	r2, [pc, #20]	; (abec <benchmark_body+0x2ab8>)
    abd6:	6852      	ldr	r2, [r2, #4]
    abd8:	601a      	str	r2, [r3, #0]
    abda:	f507 63bf 	add.w	r3, r7, #1528	; 0x5f8
    abde:	f5a3 732b 	sub.w	r3, r3, #684	; 0x2ac
    abe2:	4a02      	ldr	r2, [pc, #8]	; (abec <benchmark_body+0x2ab8>)
    abe4:	68d2      	ldr	r2, [r2, #12]
    abe6:	601a      	str	r2, [r3, #0]
    abe8:	e008      	b.n	abfc <benchmark_body+0x2ac8>
    abea:	bf00      	nop
    abec:	0001f104 	.word	0x0001f104
    abf0:	0001ecac 	.word	0x0001ecac
    abf4:	0001f118 	.word	0x0001f118
    abf8:	0001f11c 	.word	0x0001f11c
    abfc:	f507 63bf 	add.w	r3, r7, #1528	; 0x5f8
    ac00:	f5a3 722b 	sub.w	r2, r3, #684	; 0x2ac
    ac04:	f507 63bf 	add.w	r3, r7, #1528	; 0x5f8
    ac08:	f5a3 732a 	sub.w	r3, r3, #680	; 0x2a8
    ac0c:	6812      	ldr	r2, [r2, #0]
    ac0e:	681b      	ldr	r3, [r3, #0]
    ac10:	429a      	cmp	r2, r3
    ac12:	dd3d      	ble.n	ac90 <benchmark_body+0x2b5c>
    ac14:	4ba8      	ldr	r3, [pc, #672]	; (aeb8 <benchmark_body+0x2d84>)
    ac16:	689b      	ldr	r3, [r3, #8]
    ac18:	4aa7      	ldr	r2, [pc, #668]	; (aeb8 <benchmark_body+0x2d84>)
    ac1a:	6013      	str	r3, [r2, #0]
    ac1c:	4ba7      	ldr	r3, [pc, #668]	; (aebc <benchmark_body+0x2d88>)
    ac1e:	681b      	ldr	r3, [r3, #0]
    ac20:	3b04      	subs	r3, #4
    ac22:	4aa6      	ldr	r2, [pc, #664]	; (aebc <benchmark_body+0x2d88>)
    ac24:	6013      	str	r3, [r2, #0]
    ac26:	f507 63bf 	add.w	r3, r7, #1528	; 0x5f8
    ac2a:	f5a3 732c 	sub.w	r3, r3, #688	; 0x2b0
    ac2e:	f507 62bf 	add.w	r2, r7, #1528	; 0x5f8
    ac32:	f5a2 712a 	sub.w	r1, r2, #680	; 0x2a8
    ac36:	f507 62bf 	add.w	r2, r7, #1528	; 0x5f8
    ac3a:	f5a2 722b 	sub.w	r2, r2, #684	; 0x2ac
    ac3e:	6809      	ldr	r1, [r1, #0]
    ac40:	6812      	ldr	r2, [r2, #0]
    ac42:	440a      	add	r2, r1
    ac44:	601a      	str	r2, [r3, #0]
    ac46:	4b9e      	ldr	r3, [pc, #632]	; (aec0 <benchmark_body+0x2d8c>)
    ac48:	681b      	ldr	r3, [r3, #0]
    ac4a:	499e      	ldr	r1, [pc, #632]	; (aec4 <benchmark_body+0x2d90>)
    ac4c:	f507 62bf 	add.w	r2, r7, #1528	; 0x5f8
    ac50:	f5a2 722a 	sub.w	r2, r2, #680	; 0x2a8
    ac54:	6812      	ldr	r2, [r2, #0]
    ac56:	f841 2023 	str.w	r2, [r1, r3, lsl #2]
    ac5a:	4b99      	ldr	r3, [pc, #612]	; (aec0 <benchmark_body+0x2d8c>)
    ac5c:	681b      	ldr	r3, [r3, #0]
    ac5e:	3301      	adds	r3, #1
    ac60:	4998      	ldr	r1, [pc, #608]	; (aec4 <benchmark_body+0x2d90>)
    ac62:	f507 62bf 	add.w	r2, r7, #1528	; 0x5f8
    ac66:	f5a2 722b 	sub.w	r2, r2, #684	; 0x2ac
    ac6a:	6812      	ldr	r2, [r2, #0]
    ac6c:	f841 2023 	str.w	r2, [r1, r3, lsl #2]
    ac70:	4b93      	ldr	r3, [pc, #588]	; (aec0 <benchmark_body+0x2d8c>)
    ac72:	681b      	ldr	r3, [r3, #0]
    ac74:	3302      	adds	r3, #2
    ac76:	4993      	ldr	r1, [pc, #588]	; (aec4 <benchmark_body+0x2d90>)
    ac78:	f507 62bf 	add.w	r2, r7, #1528	; 0x5f8
    ac7c:	f5a2 722c 	sub.w	r2, r2, #688	; 0x2b0
    ac80:	6812      	ldr	r2, [r2, #0]
    ac82:	f841 2023 	str.w	r2, [r1, r3, lsl #2]
    ac86:	4b8e      	ldr	r3, [pc, #568]	; (aec0 <benchmark_body+0x2d8c>)
    ac88:	681b      	ldr	r3, [r3, #0]
    ac8a:	3303      	adds	r3, #3
    ac8c:	4a8c      	ldr	r2, [pc, #560]	; (aec0 <benchmark_body+0x2d8c>)
    ac8e:	6013      	str	r3, [r2, #0]
    ac90:	4b8a      	ldr	r3, [pc, #552]	; (aebc <benchmark_body+0x2d88>)
    ac92:	681b      	ldr	r3, [r3, #0]
    ac94:	2b04      	cmp	r3, #4
    ac96:	dd63      	ble.n	ad60 <benchmark_body+0x2c2c>
    ac98:	4b89      	ldr	r3, [pc, #548]	; (aec0 <benchmark_body+0x2d8c>)
    ac9a:	681b      	ldr	r3, [r3, #0]
    ac9c:	2b03      	cmp	r3, #3
    ac9e:	dc5f      	bgt.n	ad60 <benchmark_body+0x2c2c>
    aca0:	4b85      	ldr	r3, [pc, #532]	; (aeb8 <benchmark_body+0x2d84>)
    aca2:	68da      	ldr	r2, [r3, #12]
    aca4:	4b84      	ldr	r3, [pc, #528]	; (aeb8 <benchmark_body+0x2d84>)
    aca6:	689b      	ldr	r3, [r3, #8]
    aca8:	429a      	cmp	r2, r3
    acaa:	d159      	bne.n	ad60 <benchmark_body+0x2c2c>
    acac:	4b82      	ldr	r3, [pc, #520]	; (aeb8 <benchmark_body+0x2d84>)
    acae:	68da      	ldr	r2, [r3, #12]
    acb0:	4b81      	ldr	r3, [pc, #516]	; (aeb8 <benchmark_body+0x2d84>)
    acb2:	691b      	ldr	r3, [r3, #16]
    acb4:	429a      	cmp	r2, r3
    acb6:	d153      	bne.n	ad60 <benchmark_body+0x2c2c>
    acb8:	f507 63bf 	add.w	r3, r7, #1528	; 0x5f8
    acbc:	f5a3 732d 	sub.w	r3, r3, #692	; 0x2b4
    acc0:	4a7d      	ldr	r2, [pc, #500]	; (aeb8 <benchmark_body+0x2d84>)
    acc2:	6852      	ldr	r2, [r2, #4]
    acc4:	601a      	str	r2, [r3, #0]
    acc6:	f507 63bf 	add.w	r3, r7, #1528	; 0x5f8
    acca:	f5a3 732e 	sub.w	r3, r3, #696	; 0x2b8
    acce:	4a7a      	ldr	r2, [pc, #488]	; (aeb8 <benchmark_body+0x2d84>)
    acd0:	68d2      	ldr	r2, [r2, #12]
    acd2:	601a      	str	r2, [r3, #0]
    acd4:	f507 63bf 	add.w	r3, r7, #1528	; 0x5f8
    acd8:	f5a3 722e 	sub.w	r2, r3, #696	; 0x2b8
    acdc:	f507 63bf 	add.w	r3, r7, #1528	; 0x5f8
    ace0:	f5a3 732d 	sub.w	r3, r3, #692	; 0x2b4
    ace4:	6812      	ldr	r2, [r2, #0]
    ace6:	681b      	ldr	r3, [r3, #0]
    ace8:	429a      	cmp	r2, r3
    acea:	dd39      	ble.n	ad60 <benchmark_body+0x2c2c>
    acec:	4b73      	ldr	r3, [pc, #460]	; (aebc <benchmark_body+0x2d88>)
    acee:	681b      	ldr	r3, [r3, #0]
    acf0:	3b04      	subs	r3, #4
    acf2:	4a72      	ldr	r2, [pc, #456]	; (aebc <benchmark_body+0x2d88>)
    acf4:	6013      	str	r3, [r2, #0]
    acf6:	f507 63bf 	add.w	r3, r7, #1528	; 0x5f8
    acfa:	f5a3 732f 	sub.w	r3, r3, #700	; 0x2bc
    acfe:	f507 62bf 	add.w	r2, r7, #1528	; 0x5f8
    ad02:	f5a2 712d 	sub.w	r1, r2, #692	; 0x2b4
    ad06:	f507 62bf 	add.w	r2, r7, #1528	; 0x5f8
    ad0a:	f5a2 722e 	sub.w	r2, r2, #696	; 0x2b8
    ad0e:	6809      	ldr	r1, [r1, #0]
    ad10:	6812      	ldr	r2, [r2, #0]
    ad12:	440a      	add	r2, r1
    ad14:	601a      	str	r2, [r3, #0]
    ad16:	4b6a      	ldr	r3, [pc, #424]	; (aec0 <benchmark_body+0x2d8c>)
    ad18:	681b      	ldr	r3, [r3, #0]
    ad1a:	496a      	ldr	r1, [pc, #424]	; (aec4 <benchmark_body+0x2d90>)
    ad1c:	f507 62bf 	add.w	r2, r7, #1528	; 0x5f8
    ad20:	f5a2 722d 	sub.w	r2, r2, #692	; 0x2b4
    ad24:	6812      	ldr	r2, [r2, #0]
    ad26:	f841 2023 	str.w	r2, [r1, r3, lsl #2]
    ad2a:	4b65      	ldr	r3, [pc, #404]	; (aec0 <benchmark_body+0x2d8c>)
    ad2c:	681b      	ldr	r3, [r3, #0]
    ad2e:	3301      	adds	r3, #1
    ad30:	4964      	ldr	r1, [pc, #400]	; (aec4 <benchmark_body+0x2d90>)
    ad32:	f507 62bf 	add.w	r2, r7, #1528	; 0x5f8
    ad36:	f5a2 722e 	sub.w	r2, r2, #696	; 0x2b8
    ad3a:	6812      	ldr	r2, [r2, #0]
    ad3c:	f841 2023 	str.w	r2, [r1, r3, lsl #2]
    ad40:	4b5f      	ldr	r3, [pc, #380]	; (aec0 <benchmark_body+0x2d8c>)
    ad42:	681b      	ldr	r3, [r3, #0]
    ad44:	3302      	adds	r3, #2
    ad46:	495f      	ldr	r1, [pc, #380]	; (aec4 <benchmark_body+0x2d90>)
    ad48:	f507 62bf 	add.w	r2, r7, #1528	; 0x5f8
    ad4c:	f5a2 722f 	sub.w	r2, r2, #700	; 0x2bc
    ad50:	6812      	ldr	r2, [r2, #0]
    ad52:	f841 2023 	str.w	r2, [r1, r3, lsl #2]
    ad56:	4b5a      	ldr	r3, [pc, #360]	; (aec0 <benchmark_body+0x2d8c>)
    ad58:	681b      	ldr	r3, [r3, #0]
    ad5a:	3303      	adds	r3, #3
    ad5c:	4a58      	ldr	r2, [pc, #352]	; (aec0 <benchmark_body+0x2d8c>)
    ad5e:	6013      	str	r3, [r2, #0]
    ad60:	4b56      	ldr	r3, [pc, #344]	; (aebc <benchmark_body+0x2d88>)
    ad62:	681b      	ldr	r3, [r3, #0]
    ad64:	2b04      	cmp	r3, #4
    ad66:	dd67      	ble.n	ae38 <benchmark_body+0x2d04>
    ad68:	4b55      	ldr	r3, [pc, #340]	; (aec0 <benchmark_body+0x2d8c>)
    ad6a:	681b      	ldr	r3, [r3, #0]
    ad6c:	2b03      	cmp	r3, #3
    ad6e:	dc63      	bgt.n	ae38 <benchmark_body+0x2d04>
    ad70:	4b51      	ldr	r3, [pc, #324]	; (aeb8 <benchmark_body+0x2d84>)
    ad72:	68da      	ldr	r2, [r3, #12]
    ad74:	4b50      	ldr	r3, [pc, #320]	; (aeb8 <benchmark_body+0x2d84>)
    ad76:	691b      	ldr	r3, [r3, #16]
    ad78:	429a      	cmp	r2, r3
    ad7a:	d15d      	bne.n	ae38 <benchmark_body+0x2d04>
    ad7c:	4b4e      	ldr	r3, [pc, #312]	; (aeb8 <benchmark_body+0x2d84>)
    ad7e:	68da      	ldr	r2, [r3, #12]
    ad80:	4b4d      	ldr	r3, [pc, #308]	; (aeb8 <benchmark_body+0x2d84>)
    ad82:	681b      	ldr	r3, [r3, #0]
    ad84:	429a      	cmp	r2, r3
    ad86:	d157      	bne.n	ae38 <benchmark_body+0x2d04>
    ad88:	f507 63bf 	add.w	r3, r7, #1528	; 0x5f8
    ad8c:	f5a3 7330 	sub.w	r3, r3, #704	; 0x2c0
    ad90:	4a49      	ldr	r2, [pc, #292]	; (aeb8 <benchmark_body+0x2d84>)
    ad92:	6852      	ldr	r2, [r2, #4]
    ad94:	601a      	str	r2, [r3, #0]
    ad96:	f507 63bf 	add.w	r3, r7, #1528	; 0x5f8
    ad9a:	f5a3 7331 	sub.w	r3, r3, #708	; 0x2c4
    ad9e:	4a46      	ldr	r2, [pc, #280]	; (aeb8 <benchmark_body+0x2d84>)
    ada0:	68d2      	ldr	r2, [r2, #12]
    ada2:	601a      	str	r2, [r3, #0]
    ada4:	f507 63bf 	add.w	r3, r7, #1528	; 0x5f8
    ada8:	f5a3 7231 	sub.w	r2, r3, #708	; 0x2c4
    adac:	f507 63bf 	add.w	r3, r7, #1528	; 0x5f8
    adb0:	f5a3 7330 	sub.w	r3, r3, #704	; 0x2c0
    adb4:	6812      	ldr	r2, [r2, #0]
    adb6:	681b      	ldr	r3, [r3, #0]
    adb8:	429a      	cmp	r2, r3
    adba:	dd3d      	ble.n	ae38 <benchmark_body+0x2d04>
    adbc:	4b3e      	ldr	r3, [pc, #248]	; (aeb8 <benchmark_body+0x2d84>)
    adbe:	689b      	ldr	r3, [r3, #8]
    adc0:	4a3d      	ldr	r2, [pc, #244]	; (aeb8 <benchmark_body+0x2d84>)
    adc2:	6013      	str	r3, [r2, #0]
    adc4:	4b3d      	ldr	r3, [pc, #244]	; (aebc <benchmark_body+0x2d88>)
    adc6:	681b      	ldr	r3, [r3, #0]
    adc8:	3b04      	subs	r3, #4
    adca:	4a3c      	ldr	r2, [pc, #240]	; (aebc <benchmark_body+0x2d88>)
    adcc:	6013      	str	r3, [r2, #0]
    adce:	f507 63bf 	add.w	r3, r7, #1528	; 0x5f8
    add2:	f5a3 7332 	sub.w	r3, r3, #712	; 0x2c8
    add6:	f507 62bf 	add.w	r2, r7, #1528	; 0x5f8
    adda:	f5a2 7130 	sub.w	r1, r2, #704	; 0x2c0
    adde:	f507 62bf 	add.w	r2, r7, #1528	; 0x5f8
    ade2:	f5a2 7231 	sub.w	r2, r2, #708	; 0x2c4
    ade6:	6809      	ldr	r1, [r1, #0]
    ade8:	6812      	ldr	r2, [r2, #0]
    adea:	440a      	add	r2, r1
    adec:	601a      	str	r2, [r3, #0]
    adee:	4b34      	ldr	r3, [pc, #208]	; (aec0 <benchmark_body+0x2d8c>)
    adf0:	681b      	ldr	r3, [r3, #0]
    adf2:	4934      	ldr	r1, [pc, #208]	; (aec4 <benchmark_body+0x2d90>)
    adf4:	f507 62bf 	add.w	r2, r7, #1528	; 0x5f8
    adf8:	f5a2 7230 	sub.w	r2, r2, #704	; 0x2c0
    adfc:	6812      	ldr	r2, [r2, #0]
    adfe:	f841 2023 	str.w	r2, [r1, r3, lsl #2]
    ae02:	4b2f      	ldr	r3, [pc, #188]	; (aec0 <benchmark_body+0x2d8c>)
    ae04:	681b      	ldr	r3, [r3, #0]
    ae06:	3301      	adds	r3, #1
    ae08:	492e      	ldr	r1, [pc, #184]	; (aec4 <benchmark_body+0x2d90>)
    ae0a:	f507 62bf 	add.w	r2, r7, #1528	; 0x5f8
    ae0e:	f5a2 7231 	sub.w	r2, r2, #708	; 0x2c4
    ae12:	6812      	ldr	r2, [r2, #0]
    ae14:	f841 2023 	str.w	r2, [r1, r3, lsl #2]
    ae18:	4b29      	ldr	r3, [pc, #164]	; (aec0 <benchmark_body+0x2d8c>)
    ae1a:	681b      	ldr	r3, [r3, #0]
    ae1c:	3302      	adds	r3, #2
    ae1e:	4929      	ldr	r1, [pc, #164]	; (aec4 <benchmark_body+0x2d90>)
    ae20:	f507 62bf 	add.w	r2, r7, #1528	; 0x5f8
    ae24:	f5a2 7232 	sub.w	r2, r2, #712	; 0x2c8
    ae28:	6812      	ldr	r2, [r2, #0]
    ae2a:	f841 2023 	str.w	r2, [r1, r3, lsl #2]
    ae2e:	4b24      	ldr	r3, [pc, #144]	; (aec0 <benchmark_body+0x2d8c>)
    ae30:	681b      	ldr	r3, [r3, #0]
    ae32:	3303      	adds	r3, #3
    ae34:	4a22      	ldr	r2, [pc, #136]	; (aec0 <benchmark_body+0x2d8c>)
    ae36:	6013      	str	r3, [r2, #0]
    ae38:	4b20      	ldr	r3, [pc, #128]	; (aebc <benchmark_body+0x2d88>)
    ae3a:	681b      	ldr	r3, [r3, #0]
    ae3c:	2b04      	cmp	r3, #4
    ae3e:	dd6c      	ble.n	af1a <benchmark_body+0x2de6>
    ae40:	4b1f      	ldr	r3, [pc, #124]	; (aec0 <benchmark_body+0x2d8c>)
    ae42:	681b      	ldr	r3, [r3, #0]
    ae44:	2b03      	cmp	r3, #3
    ae46:	dc68      	bgt.n	af1a <benchmark_body+0x2de6>
    ae48:	4b1b      	ldr	r3, [pc, #108]	; (aeb8 <benchmark_body+0x2d84>)
    ae4a:	68da      	ldr	r2, [r3, #12]
    ae4c:	4b1a      	ldr	r3, [pc, #104]	; (aeb8 <benchmark_body+0x2d84>)
    ae4e:	691b      	ldr	r3, [r3, #16]
    ae50:	429a      	cmp	r2, r3
    ae52:	d162      	bne.n	af1a <benchmark_body+0x2de6>
    ae54:	4b18      	ldr	r3, [pc, #96]	; (aeb8 <benchmark_body+0x2d84>)
    ae56:	68da      	ldr	r2, [r3, #12]
    ae58:	4b17      	ldr	r3, [pc, #92]	; (aeb8 <benchmark_body+0x2d84>)
    ae5a:	689b      	ldr	r3, [r3, #8]
    ae5c:	429a      	cmp	r2, r3
    ae5e:	d15c      	bne.n	af1a <benchmark_body+0x2de6>
    ae60:	f507 63bf 	add.w	r3, r7, #1528	; 0x5f8
    ae64:	f5a3 7333 	sub.w	r3, r3, #716	; 0x2cc
    ae68:	4a13      	ldr	r2, [pc, #76]	; (aeb8 <benchmark_body+0x2d84>)
    ae6a:	6852      	ldr	r2, [r2, #4]
    ae6c:	601a      	str	r2, [r3, #0]
    ae6e:	f507 63bf 	add.w	r3, r7, #1528	; 0x5f8
    ae72:	f5a3 7334 	sub.w	r3, r3, #720	; 0x2d0
    ae76:	4a10      	ldr	r2, [pc, #64]	; (aeb8 <benchmark_body+0x2d84>)
    ae78:	68d2      	ldr	r2, [r2, #12]
    ae7a:	601a      	str	r2, [r3, #0]
    ae7c:	f507 63bf 	add.w	r3, r7, #1528	; 0x5f8
    ae80:	f5a3 7234 	sub.w	r2, r3, #720	; 0x2d0
    ae84:	f507 63bf 	add.w	r3, r7, #1528	; 0x5f8
    ae88:	f5a3 7333 	sub.w	r3, r3, #716	; 0x2cc
    ae8c:	6812      	ldr	r2, [r2, #0]
    ae8e:	681b      	ldr	r3, [r3, #0]
    ae90:	429a      	cmp	r2, r3
    ae92:	dd42      	ble.n	af1a <benchmark_body+0x2de6>
    ae94:	4b09      	ldr	r3, [pc, #36]	; (aebc <benchmark_body+0x2d88>)
    ae96:	681b      	ldr	r3, [r3, #0]
    ae98:	3b04      	subs	r3, #4
    ae9a:	4a08      	ldr	r2, [pc, #32]	; (aebc <benchmark_body+0x2d88>)
    ae9c:	6013      	str	r3, [r2, #0]
    ae9e:	f507 63bf 	add.w	r3, r7, #1528	; 0x5f8
    aea2:	f5a3 7335 	sub.w	r3, r3, #724	; 0x2d4
    aea6:	f507 62bf 	add.w	r2, r7, #1528	; 0x5f8
    aeaa:	f5a2 7133 	sub.w	r1, r2, #716	; 0x2cc
    aeae:	f507 62bf 	add.w	r2, r7, #1528	; 0x5f8
    aeb2:	f5a2 7234 	sub.w	r2, r2, #720	; 0x2d0
    aeb6:	e007      	b.n	aec8 <benchmark_body+0x2d94>
    aeb8:	0001f104 	.word	0x0001f104
    aebc:	0001ecac 	.word	0x0001ecac
    aec0:	0001f118 	.word	0x0001f118
    aec4:	0001f11c 	.word	0x0001f11c
    aec8:	6809      	ldr	r1, [r1, #0]
    aeca:	6812      	ldr	r2, [r2, #0]
    aecc:	440a      	add	r2, r1
    aece:	601a      	str	r2, [r3, #0]
    aed0:	4ba6      	ldr	r3, [pc, #664]	; (b16c <benchmark_body+0x3038>)
    aed2:	681b      	ldr	r3, [r3, #0]
    aed4:	49a6      	ldr	r1, [pc, #664]	; (b170 <benchmark_body+0x303c>)
    aed6:	f507 62bf 	add.w	r2, r7, #1528	; 0x5f8
    aeda:	f5a2 7233 	sub.w	r2, r2, #716	; 0x2cc
    aede:	6812      	ldr	r2, [r2, #0]
    aee0:	f841 2023 	str.w	r2, [r1, r3, lsl #2]
    aee4:	4ba1      	ldr	r3, [pc, #644]	; (b16c <benchmark_body+0x3038>)
    aee6:	681b      	ldr	r3, [r3, #0]
    aee8:	3301      	adds	r3, #1
    aeea:	49a1      	ldr	r1, [pc, #644]	; (b170 <benchmark_body+0x303c>)
    aeec:	f507 62bf 	add.w	r2, r7, #1528	; 0x5f8
    aef0:	f5a2 7234 	sub.w	r2, r2, #720	; 0x2d0
    aef4:	6812      	ldr	r2, [r2, #0]
    aef6:	f841 2023 	str.w	r2, [r1, r3, lsl #2]
    aefa:	4b9c      	ldr	r3, [pc, #624]	; (b16c <benchmark_body+0x3038>)
    aefc:	681b      	ldr	r3, [r3, #0]
    aefe:	3302      	adds	r3, #2
    af00:	499b      	ldr	r1, [pc, #620]	; (b170 <benchmark_body+0x303c>)
    af02:	f507 62bf 	add.w	r2, r7, #1528	; 0x5f8
    af06:	f5a2 7235 	sub.w	r2, r2, #724	; 0x2d4
    af0a:	6812      	ldr	r2, [r2, #0]
    af0c:	f841 2023 	str.w	r2, [r1, r3, lsl #2]
    af10:	4b96      	ldr	r3, [pc, #600]	; (b16c <benchmark_body+0x3038>)
    af12:	681b      	ldr	r3, [r3, #0]
    af14:	3303      	adds	r3, #3
    af16:	4a95      	ldr	r2, [pc, #596]	; (b16c <benchmark_body+0x3038>)
    af18:	6013      	str	r3, [r2, #0]
    af1a:	4b96      	ldr	r3, [pc, #600]	; (b174 <benchmark_body+0x3040>)
    af1c:	681b      	ldr	r3, [r3, #0]
    af1e:	2b04      	cmp	r3, #4
    af20:	dd67      	ble.n	aff2 <benchmark_body+0x2ebe>
    af22:	4b92      	ldr	r3, [pc, #584]	; (b16c <benchmark_body+0x3038>)
    af24:	681b      	ldr	r3, [r3, #0]
    af26:	2b03      	cmp	r3, #3
    af28:	dc63      	bgt.n	aff2 <benchmark_body+0x2ebe>
    af2a:	4b93      	ldr	r3, [pc, #588]	; (b178 <benchmark_body+0x3044>)
    af2c:	691a      	ldr	r2, [r3, #16]
    af2e:	4b92      	ldr	r3, [pc, #584]	; (b178 <benchmark_body+0x3044>)
    af30:	681b      	ldr	r3, [r3, #0]
    af32:	429a      	cmp	r2, r3
    af34:	d15d      	bne.n	aff2 <benchmark_body+0x2ebe>
    af36:	4b90      	ldr	r3, [pc, #576]	; (b178 <benchmark_body+0x3044>)
    af38:	691a      	ldr	r2, [r3, #16]
    af3a:	4b8f      	ldr	r3, [pc, #572]	; (b178 <benchmark_body+0x3044>)
    af3c:	689b      	ldr	r3, [r3, #8]
    af3e:	429a      	cmp	r2, r3
    af40:	d157      	bne.n	aff2 <benchmark_body+0x2ebe>
    af42:	f507 63bf 	add.w	r3, r7, #1528	; 0x5f8
    af46:	f5a3 7336 	sub.w	r3, r3, #728	; 0x2d8
    af4a:	4a8b      	ldr	r2, [pc, #556]	; (b178 <benchmark_body+0x3044>)
    af4c:	6852      	ldr	r2, [r2, #4]
    af4e:	601a      	str	r2, [r3, #0]
    af50:	f507 63bf 	add.w	r3, r7, #1528	; 0x5f8
    af54:	f5a3 7337 	sub.w	r3, r3, #732	; 0x2dc
    af58:	4a87      	ldr	r2, [pc, #540]	; (b178 <benchmark_body+0x3044>)
    af5a:	6912      	ldr	r2, [r2, #16]
    af5c:	601a      	str	r2, [r3, #0]
    af5e:	f507 63bf 	add.w	r3, r7, #1528	; 0x5f8
    af62:	f5a3 7237 	sub.w	r2, r3, #732	; 0x2dc
    af66:	f507 63bf 	add.w	r3, r7, #1528	; 0x5f8
    af6a:	f5a3 7336 	sub.w	r3, r3, #728	; 0x2d8
    af6e:	6812      	ldr	r2, [r2, #0]
    af70:	681b      	ldr	r3, [r3, #0]
    af72:	429a      	cmp	r2, r3
    af74:	dd3d      	ble.n	aff2 <benchmark_body+0x2ebe>
    af76:	4b80      	ldr	r3, [pc, #512]	; (b178 <benchmark_body+0x3044>)
    af78:	68db      	ldr	r3, [r3, #12]
    af7a:	4a7f      	ldr	r2, [pc, #508]	; (b178 <benchmark_body+0x3044>)
    af7c:	6013      	str	r3, [r2, #0]
    af7e:	4b7d      	ldr	r3, [pc, #500]	; (b174 <benchmark_body+0x3040>)
    af80:	681b      	ldr	r3, [r3, #0]
    af82:	3b04      	subs	r3, #4
    af84:	4a7b      	ldr	r2, [pc, #492]	; (b174 <benchmark_body+0x3040>)
    af86:	6013      	str	r3, [r2, #0]
    af88:	f507 63bf 	add.w	r3, r7, #1528	; 0x5f8
    af8c:	f5a3 7338 	sub.w	r3, r3, #736	; 0x2e0
    af90:	f507 62bf 	add.w	r2, r7, #1528	; 0x5f8
    af94:	f5a2 7136 	sub.w	r1, r2, #728	; 0x2d8
    af98:	f507 62bf 	add.w	r2, r7, #1528	; 0x5f8
    af9c:	f5a2 7237 	sub.w	r2, r2, #732	; 0x2dc
    afa0:	6809      	ldr	r1, [r1, #0]
    afa2:	6812      	ldr	r2, [r2, #0]
    afa4:	440a      	add	r2, r1
    afa6:	601a      	str	r2, [r3, #0]
    afa8:	4b70      	ldr	r3, [pc, #448]	; (b16c <benchmark_body+0x3038>)
    afaa:	681b      	ldr	r3, [r3, #0]
    afac:	4970      	ldr	r1, [pc, #448]	; (b170 <benchmark_body+0x303c>)
    afae:	f507 62bf 	add.w	r2, r7, #1528	; 0x5f8
    afb2:	f5a2 7236 	sub.w	r2, r2, #728	; 0x2d8
    afb6:	6812      	ldr	r2, [r2, #0]
    afb8:	f841 2023 	str.w	r2, [r1, r3, lsl #2]
    afbc:	4b6b      	ldr	r3, [pc, #428]	; (b16c <benchmark_body+0x3038>)
    afbe:	681b      	ldr	r3, [r3, #0]
    afc0:	3301      	adds	r3, #1
    afc2:	496b      	ldr	r1, [pc, #428]	; (b170 <benchmark_body+0x303c>)
    afc4:	f507 62bf 	add.w	r2, r7, #1528	; 0x5f8
    afc8:	f5a2 7237 	sub.w	r2, r2, #732	; 0x2dc
    afcc:	6812      	ldr	r2, [r2, #0]
    afce:	f841 2023 	str.w	r2, [r1, r3, lsl #2]
    afd2:	4b66      	ldr	r3, [pc, #408]	; (b16c <benchmark_body+0x3038>)
    afd4:	681b      	ldr	r3, [r3, #0]
    afd6:	3302      	adds	r3, #2
    afd8:	4965      	ldr	r1, [pc, #404]	; (b170 <benchmark_body+0x303c>)
    afda:	f507 62bf 	add.w	r2, r7, #1528	; 0x5f8
    afde:	f5a2 7238 	sub.w	r2, r2, #736	; 0x2e0
    afe2:	6812      	ldr	r2, [r2, #0]
    afe4:	f841 2023 	str.w	r2, [r1, r3, lsl #2]
    afe8:	4b60      	ldr	r3, [pc, #384]	; (b16c <benchmark_body+0x3038>)
    afea:	681b      	ldr	r3, [r3, #0]
    afec:	3303      	adds	r3, #3
    afee:	4a5f      	ldr	r2, [pc, #380]	; (b16c <benchmark_body+0x3038>)
    aff0:	6013      	str	r3, [r2, #0]
    aff2:	4b60      	ldr	r3, [pc, #384]	; (b174 <benchmark_body+0x3040>)
    aff4:	681b      	ldr	r3, [r3, #0]
    aff6:	2b04      	cmp	r3, #4
    aff8:	dd67      	ble.n	b0ca <benchmark_body+0x2f96>
    affa:	4b5c      	ldr	r3, [pc, #368]	; (b16c <benchmark_body+0x3038>)
    affc:	681b      	ldr	r3, [r3, #0]
    affe:	2b03      	cmp	r3, #3
    b000:	dc63      	bgt.n	b0ca <benchmark_body+0x2f96>
    b002:	4b5d      	ldr	r3, [pc, #372]	; (b178 <benchmark_body+0x3044>)
    b004:	691a      	ldr	r2, [r3, #16]
    b006:	4b5c      	ldr	r3, [pc, #368]	; (b178 <benchmark_body+0x3044>)
    b008:	681b      	ldr	r3, [r3, #0]
    b00a:	429a      	cmp	r2, r3
    b00c:	d15d      	bne.n	b0ca <benchmark_body+0x2f96>
    b00e:	4b5a      	ldr	r3, [pc, #360]	; (b178 <benchmark_body+0x3044>)
    b010:	691a      	ldr	r2, [r3, #16]
    b012:	4b59      	ldr	r3, [pc, #356]	; (b178 <benchmark_body+0x3044>)
    b014:	68db      	ldr	r3, [r3, #12]
    b016:	429a      	cmp	r2, r3
    b018:	d157      	bne.n	b0ca <benchmark_body+0x2f96>
    b01a:	f507 63bf 	add.w	r3, r7, #1528	; 0x5f8
    b01e:	f5a3 7339 	sub.w	r3, r3, #740	; 0x2e4
    b022:	4a55      	ldr	r2, [pc, #340]	; (b178 <benchmark_body+0x3044>)
    b024:	6852      	ldr	r2, [r2, #4]
    b026:	601a      	str	r2, [r3, #0]
    b028:	f507 63bf 	add.w	r3, r7, #1528	; 0x5f8
    b02c:	f5a3 733a 	sub.w	r3, r3, #744	; 0x2e8
    b030:	4a51      	ldr	r2, [pc, #324]	; (b178 <benchmark_body+0x3044>)
    b032:	6912      	ldr	r2, [r2, #16]
    b034:	601a      	str	r2, [r3, #0]
    b036:	f507 63bf 	add.w	r3, r7, #1528	; 0x5f8
    b03a:	f5a3 723a 	sub.w	r2, r3, #744	; 0x2e8
    b03e:	f507 63bf 	add.w	r3, r7, #1528	; 0x5f8
    b042:	f5a3 7339 	sub.w	r3, r3, #740	; 0x2e4
    b046:	6812      	ldr	r2, [r2, #0]
    b048:	681b      	ldr	r3, [r3, #0]
    b04a:	429a      	cmp	r2, r3
    b04c:	dd3d      	ble.n	b0ca <benchmark_body+0x2f96>
    b04e:	4b4a      	ldr	r3, [pc, #296]	; (b178 <benchmark_body+0x3044>)
    b050:	689b      	ldr	r3, [r3, #8]
    b052:	4a49      	ldr	r2, [pc, #292]	; (b178 <benchmark_body+0x3044>)
    b054:	6013      	str	r3, [r2, #0]
    b056:	4b47      	ldr	r3, [pc, #284]	; (b174 <benchmark_body+0x3040>)
    b058:	681b      	ldr	r3, [r3, #0]
    b05a:	3b04      	subs	r3, #4
    b05c:	4a45      	ldr	r2, [pc, #276]	; (b174 <benchmark_body+0x3040>)
    b05e:	6013      	str	r3, [r2, #0]
    b060:	f507 63bf 	add.w	r3, r7, #1528	; 0x5f8
    b064:	f5a3 733b 	sub.w	r3, r3, #748	; 0x2ec
    b068:	f507 62bf 	add.w	r2, r7, #1528	; 0x5f8
    b06c:	f5a2 7139 	sub.w	r1, r2, #740	; 0x2e4
    b070:	f507 62bf 	add.w	r2, r7, #1528	; 0x5f8
    b074:	f5a2 723a 	sub.w	r2, r2, #744	; 0x2e8
    b078:	6809      	ldr	r1, [r1, #0]
    b07a:	6812      	ldr	r2, [r2, #0]
    b07c:	440a      	add	r2, r1
    b07e:	601a      	str	r2, [r3, #0]
    b080:	4b3a      	ldr	r3, [pc, #232]	; (b16c <benchmark_body+0x3038>)
    b082:	681b      	ldr	r3, [r3, #0]
    b084:	493a      	ldr	r1, [pc, #232]	; (b170 <benchmark_body+0x303c>)
    b086:	f507 62bf 	add.w	r2, r7, #1528	; 0x5f8
    b08a:	f5a2 7239 	sub.w	r2, r2, #740	; 0x2e4
    b08e:	6812      	ldr	r2, [r2, #0]
    b090:	f841 2023 	str.w	r2, [r1, r3, lsl #2]
    b094:	4b35      	ldr	r3, [pc, #212]	; (b16c <benchmark_body+0x3038>)
    b096:	681b      	ldr	r3, [r3, #0]
    b098:	3301      	adds	r3, #1
    b09a:	4935      	ldr	r1, [pc, #212]	; (b170 <benchmark_body+0x303c>)
    b09c:	f507 62bf 	add.w	r2, r7, #1528	; 0x5f8
    b0a0:	f5a2 723a 	sub.w	r2, r2, #744	; 0x2e8
    b0a4:	6812      	ldr	r2, [r2, #0]
    b0a6:	f841 2023 	str.w	r2, [r1, r3, lsl #2]
    b0aa:	4b30      	ldr	r3, [pc, #192]	; (b16c <benchmark_body+0x3038>)
    b0ac:	681b      	ldr	r3, [r3, #0]
    b0ae:	3302      	adds	r3, #2
    b0b0:	492f      	ldr	r1, [pc, #188]	; (b170 <benchmark_body+0x303c>)
    b0b2:	f507 62bf 	add.w	r2, r7, #1528	; 0x5f8
    b0b6:	f5a2 723b 	sub.w	r2, r2, #748	; 0x2ec
    b0ba:	6812      	ldr	r2, [r2, #0]
    b0bc:	f841 2023 	str.w	r2, [r1, r3, lsl #2]
    b0c0:	4b2a      	ldr	r3, [pc, #168]	; (b16c <benchmark_body+0x3038>)
    b0c2:	681b      	ldr	r3, [r3, #0]
    b0c4:	3303      	adds	r3, #3
    b0c6:	4a29      	ldr	r2, [pc, #164]	; (b16c <benchmark_body+0x3038>)
    b0c8:	6013      	str	r3, [r2, #0]
    b0ca:	4b2a      	ldr	r3, [pc, #168]	; (b174 <benchmark_body+0x3040>)
    b0cc:	681b      	ldr	r3, [r3, #0]
    b0ce:	2b04      	cmp	r3, #4
    b0d0:	dd71      	ble.n	b1b6 <benchmark_body+0x3082>
    b0d2:	4b26      	ldr	r3, [pc, #152]	; (b16c <benchmark_body+0x3038>)
    b0d4:	681b      	ldr	r3, [r3, #0]
    b0d6:	2b03      	cmp	r3, #3
    b0d8:	dc6d      	bgt.n	b1b6 <benchmark_body+0x3082>
    b0da:	4b27      	ldr	r3, [pc, #156]	; (b178 <benchmark_body+0x3044>)
    b0dc:	691a      	ldr	r2, [r3, #16]
    b0de:	4b26      	ldr	r3, [pc, #152]	; (b178 <benchmark_body+0x3044>)
    b0e0:	689b      	ldr	r3, [r3, #8]
    b0e2:	429a      	cmp	r2, r3
    b0e4:	d167      	bne.n	b1b6 <benchmark_body+0x3082>
    b0e6:	4b24      	ldr	r3, [pc, #144]	; (b178 <benchmark_body+0x3044>)
    b0e8:	691a      	ldr	r2, [r3, #16]
    b0ea:	4b23      	ldr	r3, [pc, #140]	; (b178 <benchmark_body+0x3044>)
    b0ec:	681b      	ldr	r3, [r3, #0]
    b0ee:	429a      	cmp	r2, r3
    b0f0:	d161      	bne.n	b1b6 <benchmark_body+0x3082>
    b0f2:	f507 63bf 	add.w	r3, r7, #1528	; 0x5f8
    b0f6:	f5a3 733c 	sub.w	r3, r3, #752	; 0x2f0
    b0fa:	4a1f      	ldr	r2, [pc, #124]	; (b178 <benchmark_body+0x3044>)
    b0fc:	6852      	ldr	r2, [r2, #4]
    b0fe:	601a      	str	r2, [r3, #0]
    b100:	f507 63bf 	add.w	r3, r7, #1528	; 0x5f8
    b104:	f5a3 733d 	sub.w	r3, r3, #756	; 0x2f4
    b108:	4a1b      	ldr	r2, [pc, #108]	; (b178 <benchmark_body+0x3044>)
    b10a:	6912      	ldr	r2, [r2, #16]
    b10c:	601a      	str	r2, [r3, #0]
    b10e:	f507 63bf 	add.w	r3, r7, #1528	; 0x5f8
    b112:	f5a3 723d 	sub.w	r2, r3, #756	; 0x2f4
    b116:	f507 63bf 	add.w	r3, r7, #1528	; 0x5f8
    b11a:	f5a3 733c 	sub.w	r3, r3, #752	; 0x2f0
    b11e:	6812      	ldr	r2, [r2, #0]
    b120:	681b      	ldr	r3, [r3, #0]
    b122:	429a      	cmp	r2, r3
    b124:	dd47      	ble.n	b1b6 <benchmark_body+0x3082>
    b126:	4b14      	ldr	r3, [pc, #80]	; (b178 <benchmark_body+0x3044>)
    b128:	68db      	ldr	r3, [r3, #12]
    b12a:	4a13      	ldr	r2, [pc, #76]	; (b178 <benchmark_body+0x3044>)
    b12c:	6013      	str	r3, [r2, #0]
    b12e:	4b11      	ldr	r3, [pc, #68]	; (b174 <benchmark_body+0x3040>)
    b130:	681b      	ldr	r3, [r3, #0]
    b132:	3b04      	subs	r3, #4
    b134:	4a0f      	ldr	r2, [pc, #60]	; (b174 <benchmark_body+0x3040>)
    b136:	6013      	str	r3, [r2, #0]
    b138:	f507 63bf 	add.w	r3, r7, #1528	; 0x5f8
    b13c:	f5a3 733e 	sub.w	r3, r3, #760	; 0x2f8
    b140:	f507 62bf 	add.w	r2, r7, #1528	; 0x5f8
    b144:	f5a2 713c 	sub.w	r1, r2, #752	; 0x2f0
    b148:	f507 62bf 	add.w	r2, r7, #1528	; 0x5f8
    b14c:	f5a2 723d 	sub.w	r2, r2, #756	; 0x2f4
    b150:	6809      	ldr	r1, [r1, #0]
    b152:	6812      	ldr	r2, [r2, #0]
    b154:	440a      	add	r2, r1
    b156:	601a      	str	r2, [r3, #0]
    b158:	4b04      	ldr	r3, [pc, #16]	; (b16c <benchmark_body+0x3038>)
    b15a:	681b      	ldr	r3, [r3, #0]
    b15c:	4904      	ldr	r1, [pc, #16]	; (b170 <benchmark_body+0x303c>)
    b15e:	f507 62bf 	add.w	r2, r7, #1528	; 0x5f8
    b162:	f5a2 723c 	sub.w	r2, r2, #752	; 0x2f0
    b166:	6812      	ldr	r2, [r2, #0]
    b168:	e008      	b.n	b17c <benchmark_body+0x3048>
    b16a:	bf00      	nop
    b16c:	0001f118 	.word	0x0001f118
    b170:	0001f11c 	.word	0x0001f11c
    b174:	0001ecac 	.word	0x0001ecac
    b178:	0001f104 	.word	0x0001f104
    b17c:	f841 2023 	str.w	r2, [r1, r3, lsl #2]
    b180:	4ba8      	ldr	r3, [pc, #672]	; (b424 <benchmark_body+0x32f0>)
    b182:	681b      	ldr	r3, [r3, #0]
    b184:	3301      	adds	r3, #1
    b186:	49a8      	ldr	r1, [pc, #672]	; (b428 <benchmark_body+0x32f4>)
    b188:	f507 62bf 	add.w	r2, r7, #1528	; 0x5f8
    b18c:	f5a2 723d 	sub.w	r2, r2, #756	; 0x2f4
    b190:	6812      	ldr	r2, [r2, #0]
    b192:	f841 2023 	str.w	r2, [r1, r3, lsl #2]
    b196:	4ba3      	ldr	r3, [pc, #652]	; (b424 <benchmark_body+0x32f0>)
    b198:	681b      	ldr	r3, [r3, #0]
    b19a:	3302      	adds	r3, #2
    b19c:	49a2      	ldr	r1, [pc, #648]	; (b428 <benchmark_body+0x32f4>)
    b19e:	f507 62bf 	add.w	r2, r7, #1528	; 0x5f8
    b1a2:	f5a2 723e 	sub.w	r2, r2, #760	; 0x2f8
    b1a6:	6812      	ldr	r2, [r2, #0]
    b1a8:	f841 2023 	str.w	r2, [r1, r3, lsl #2]
    b1ac:	4b9d      	ldr	r3, [pc, #628]	; (b424 <benchmark_body+0x32f0>)
    b1ae:	681b      	ldr	r3, [r3, #0]
    b1b0:	3303      	adds	r3, #3
    b1b2:	4a9c      	ldr	r2, [pc, #624]	; (b424 <benchmark_body+0x32f0>)
    b1b4:	6013      	str	r3, [r2, #0]
    b1b6:	4b9d      	ldr	r3, [pc, #628]	; (b42c <benchmark_body+0x32f8>)
    b1b8:	681b      	ldr	r3, [r3, #0]
    b1ba:	2b04      	cmp	r3, #4
    b1bc:	dd63      	ble.n	b286 <benchmark_body+0x3152>
    b1be:	4b99      	ldr	r3, [pc, #612]	; (b424 <benchmark_body+0x32f0>)
    b1c0:	681b      	ldr	r3, [r3, #0]
    b1c2:	2b03      	cmp	r3, #3
    b1c4:	dc5f      	bgt.n	b286 <benchmark_body+0x3152>
    b1c6:	4b9a      	ldr	r3, [pc, #616]	; (b430 <benchmark_body+0x32fc>)
    b1c8:	691a      	ldr	r2, [r3, #16]
    b1ca:	4b99      	ldr	r3, [pc, #612]	; (b430 <benchmark_body+0x32fc>)
    b1cc:	689b      	ldr	r3, [r3, #8]
    b1ce:	429a      	cmp	r2, r3
    b1d0:	d159      	bne.n	b286 <benchmark_body+0x3152>
    b1d2:	4b97      	ldr	r3, [pc, #604]	; (b430 <benchmark_body+0x32fc>)
    b1d4:	691a      	ldr	r2, [r3, #16]
    b1d6:	4b96      	ldr	r3, [pc, #600]	; (b430 <benchmark_body+0x32fc>)
    b1d8:	68db      	ldr	r3, [r3, #12]
    b1da:	429a      	cmp	r2, r3
    b1dc:	d153      	bne.n	b286 <benchmark_body+0x3152>
    b1de:	f507 63bf 	add.w	r3, r7, #1528	; 0x5f8
    b1e2:	f5a3 733f 	sub.w	r3, r3, #764	; 0x2fc
    b1e6:	4a92      	ldr	r2, [pc, #584]	; (b430 <benchmark_body+0x32fc>)
    b1e8:	6852      	ldr	r2, [r2, #4]
    b1ea:	601a      	str	r2, [r3, #0]
    b1ec:	f507 63bf 	add.w	r3, r7, #1528	; 0x5f8
    b1f0:	f5a3 7340 	sub.w	r3, r3, #768	; 0x300
    b1f4:	4a8e      	ldr	r2, [pc, #568]	; (b430 <benchmark_body+0x32fc>)
    b1f6:	6912      	ldr	r2, [r2, #16]
    b1f8:	601a      	str	r2, [r3, #0]
    b1fa:	f507 63bf 	add.w	r3, r7, #1528	; 0x5f8
    b1fe:	f5a3 7240 	sub.w	r2, r3, #768	; 0x300
    b202:	f507 63bf 	add.w	r3, r7, #1528	; 0x5f8
    b206:	f5a3 733f 	sub.w	r3, r3, #764	; 0x2fc
    b20a:	6812      	ldr	r2, [r2, #0]
    b20c:	681b      	ldr	r3, [r3, #0]
    b20e:	429a      	cmp	r2, r3
    b210:	dd39      	ble.n	b286 <benchmark_body+0x3152>
    b212:	4b86      	ldr	r3, [pc, #536]	; (b42c <benchmark_body+0x32f8>)
    b214:	681b      	ldr	r3, [r3, #0]
    b216:	3b04      	subs	r3, #4
    b218:	4a84      	ldr	r2, [pc, #528]	; (b42c <benchmark_body+0x32f8>)
    b21a:	6013      	str	r3, [r2, #0]
    b21c:	f507 63bf 	add.w	r3, r7, #1528	; 0x5f8
    b220:	f5a3 7341 	sub.w	r3, r3, #772	; 0x304
    b224:	f507 62bf 	add.w	r2, r7, #1528	; 0x5f8
    b228:	f5a2 713f 	sub.w	r1, r2, #764	; 0x2fc
    b22c:	f507 62bf 	add.w	r2, r7, #1528	; 0x5f8
    b230:	f5a2 7240 	sub.w	r2, r2, #768	; 0x300
    b234:	6809      	ldr	r1, [r1, #0]
    b236:	6812      	ldr	r2, [r2, #0]
    b238:	440a      	add	r2, r1
    b23a:	601a      	str	r2, [r3, #0]
    b23c:	4b79      	ldr	r3, [pc, #484]	; (b424 <benchmark_body+0x32f0>)
    b23e:	681b      	ldr	r3, [r3, #0]
    b240:	4979      	ldr	r1, [pc, #484]	; (b428 <benchmark_body+0x32f4>)
    b242:	f507 62bf 	add.w	r2, r7, #1528	; 0x5f8
    b246:	f5a2 723f 	sub.w	r2, r2, #764	; 0x2fc
    b24a:	6812      	ldr	r2, [r2, #0]
    b24c:	f841 2023 	str.w	r2, [r1, r3, lsl #2]
    b250:	4b74      	ldr	r3, [pc, #464]	; (b424 <benchmark_body+0x32f0>)
    b252:	681b      	ldr	r3, [r3, #0]
    b254:	3301      	adds	r3, #1
    b256:	4974      	ldr	r1, [pc, #464]	; (b428 <benchmark_body+0x32f4>)
    b258:	f507 62bf 	add.w	r2, r7, #1528	; 0x5f8
    b25c:	f5a2 7240 	sub.w	r2, r2, #768	; 0x300
    b260:	6812      	ldr	r2, [r2, #0]
    b262:	f841 2023 	str.w	r2, [r1, r3, lsl #2]
    b266:	4b6f      	ldr	r3, [pc, #444]	; (b424 <benchmark_body+0x32f0>)
    b268:	681b      	ldr	r3, [r3, #0]
    b26a:	3302      	adds	r3, #2
    b26c:	496e      	ldr	r1, [pc, #440]	; (b428 <benchmark_body+0x32f4>)
    b26e:	f507 62bf 	add.w	r2, r7, #1528	; 0x5f8
    b272:	f5a2 7241 	sub.w	r2, r2, #772	; 0x304
    b276:	6812      	ldr	r2, [r2, #0]
    b278:	f841 2023 	str.w	r2, [r1, r3, lsl #2]
    b27c:	4b69      	ldr	r3, [pc, #420]	; (b424 <benchmark_body+0x32f0>)
    b27e:	681b      	ldr	r3, [r3, #0]
    b280:	3303      	adds	r3, #3
    b282:	4a68      	ldr	r2, [pc, #416]	; (b424 <benchmark_body+0x32f0>)
    b284:	6013      	str	r3, [r2, #0]
    b286:	4b69      	ldr	r3, [pc, #420]	; (b42c <benchmark_body+0x32f8>)
    b288:	681b      	ldr	r3, [r3, #0]
    b28a:	2b04      	cmp	r3, #4
    b28c:	dd67      	ble.n	b35e <benchmark_body+0x322a>
    b28e:	4b65      	ldr	r3, [pc, #404]	; (b424 <benchmark_body+0x32f0>)
    b290:	681b      	ldr	r3, [r3, #0]
    b292:	2b03      	cmp	r3, #3
    b294:	dc63      	bgt.n	b35e <benchmark_body+0x322a>
    b296:	4b66      	ldr	r3, [pc, #408]	; (b430 <benchmark_body+0x32fc>)
    b298:	691a      	ldr	r2, [r3, #16]
    b29a:	4b65      	ldr	r3, [pc, #404]	; (b430 <benchmark_body+0x32fc>)
    b29c:	68db      	ldr	r3, [r3, #12]
    b29e:	429a      	cmp	r2, r3
    b2a0:	d15d      	bne.n	b35e <benchmark_body+0x322a>
    b2a2:	4b63      	ldr	r3, [pc, #396]	; (b430 <benchmark_body+0x32fc>)
    b2a4:	691a      	ldr	r2, [r3, #16]
    b2a6:	4b62      	ldr	r3, [pc, #392]	; (b430 <benchmark_body+0x32fc>)
    b2a8:	681b      	ldr	r3, [r3, #0]
    b2aa:	429a      	cmp	r2, r3
    b2ac:	d157      	bne.n	b35e <benchmark_body+0x322a>
    b2ae:	f507 63bf 	add.w	r3, r7, #1528	; 0x5f8
    b2b2:	f5a3 7342 	sub.w	r3, r3, #776	; 0x308
    b2b6:	4a5e      	ldr	r2, [pc, #376]	; (b430 <benchmark_body+0x32fc>)
    b2b8:	6852      	ldr	r2, [r2, #4]
    b2ba:	601a      	str	r2, [r3, #0]
    b2bc:	f507 63bf 	add.w	r3, r7, #1528	; 0x5f8
    b2c0:	f5a3 7343 	sub.w	r3, r3, #780	; 0x30c
    b2c4:	4a5a      	ldr	r2, [pc, #360]	; (b430 <benchmark_body+0x32fc>)
    b2c6:	6912      	ldr	r2, [r2, #16]
    b2c8:	601a      	str	r2, [r3, #0]
    b2ca:	f507 63bf 	add.w	r3, r7, #1528	; 0x5f8
    b2ce:	f5a3 7243 	sub.w	r2, r3, #780	; 0x30c
    b2d2:	f507 63bf 	add.w	r3, r7, #1528	; 0x5f8
    b2d6:	f5a3 7342 	sub.w	r3, r3, #776	; 0x308
    b2da:	6812      	ldr	r2, [r2, #0]
    b2dc:	681b      	ldr	r3, [r3, #0]
    b2de:	429a      	cmp	r2, r3
    b2e0:	dd3d      	ble.n	b35e <benchmark_body+0x322a>
    b2e2:	4b53      	ldr	r3, [pc, #332]	; (b430 <benchmark_body+0x32fc>)
    b2e4:	689b      	ldr	r3, [r3, #8]
    b2e6:	4a52      	ldr	r2, [pc, #328]	; (b430 <benchmark_body+0x32fc>)
    b2e8:	6013      	str	r3, [r2, #0]
    b2ea:	4b50      	ldr	r3, [pc, #320]	; (b42c <benchmark_body+0x32f8>)
    b2ec:	681b      	ldr	r3, [r3, #0]
    b2ee:	3b04      	subs	r3, #4
    b2f0:	4a4e      	ldr	r2, [pc, #312]	; (b42c <benchmark_body+0x32f8>)
    b2f2:	6013      	str	r3, [r2, #0]
    b2f4:	f507 63bf 	add.w	r3, r7, #1528	; 0x5f8
    b2f8:	f5a3 7344 	sub.w	r3, r3, #784	; 0x310
    b2fc:	f507 62bf 	add.w	r2, r7, #1528	; 0x5f8
    b300:	f5a2 7142 	sub.w	r1, r2, #776	; 0x308
    b304:	f507 62bf 	add.w	r2, r7, #1528	; 0x5f8
    b308:	f5a2 7243 	sub.w	r2, r2, #780	; 0x30c
    b30c:	6809      	ldr	r1, [r1, #0]
    b30e:	6812      	ldr	r2, [r2, #0]
    b310:	440a      	add	r2, r1
    b312:	601a      	str	r2, [r3, #0]
    b314:	4b43      	ldr	r3, [pc, #268]	; (b424 <benchmark_body+0x32f0>)
    b316:	681b      	ldr	r3, [r3, #0]
    b318:	4943      	ldr	r1, [pc, #268]	; (b428 <benchmark_body+0x32f4>)
    b31a:	f507 62bf 	add.w	r2, r7, #1528	; 0x5f8
    b31e:	f5a2 7242 	sub.w	r2, r2, #776	; 0x308
    b322:	6812      	ldr	r2, [r2, #0]
    b324:	f841 2023 	str.w	r2, [r1, r3, lsl #2]
    b328:	4b3e      	ldr	r3, [pc, #248]	; (b424 <benchmark_body+0x32f0>)
    b32a:	681b      	ldr	r3, [r3, #0]
    b32c:	3301      	adds	r3, #1
    b32e:	493e      	ldr	r1, [pc, #248]	; (b428 <benchmark_body+0x32f4>)
    b330:	f507 62bf 	add.w	r2, r7, #1528	; 0x5f8
    b334:	f5a2 7243 	sub.w	r2, r2, #780	; 0x30c
    b338:	6812      	ldr	r2, [r2, #0]
    b33a:	f841 2023 	str.w	r2, [r1, r3, lsl #2]
    b33e:	4b39      	ldr	r3, [pc, #228]	; (b424 <benchmark_body+0x32f0>)
    b340:	681b      	ldr	r3, [r3, #0]
    b342:	3302      	adds	r3, #2
    b344:	4938      	ldr	r1, [pc, #224]	; (b428 <benchmark_body+0x32f4>)
    b346:	f507 62bf 	add.w	r2, r7, #1528	; 0x5f8
    b34a:	f5a2 7244 	sub.w	r2, r2, #784	; 0x310
    b34e:	6812      	ldr	r2, [r2, #0]
    b350:	f841 2023 	str.w	r2, [r1, r3, lsl #2]
    b354:	4b33      	ldr	r3, [pc, #204]	; (b424 <benchmark_body+0x32f0>)
    b356:	681b      	ldr	r3, [r3, #0]
    b358:	3303      	adds	r3, #3
    b35a:	4a32      	ldr	r2, [pc, #200]	; (b424 <benchmark_body+0x32f0>)
    b35c:	6013      	str	r3, [r2, #0]
    b35e:	4b33      	ldr	r3, [pc, #204]	; (b42c <benchmark_body+0x32f8>)
    b360:	681b      	ldr	r3, [r3, #0]
    b362:	2b04      	cmp	r3, #4
    b364:	dd6d      	ble.n	b442 <benchmark_body+0x330e>
    b366:	4b2f      	ldr	r3, [pc, #188]	; (b424 <benchmark_body+0x32f0>)
    b368:	681b      	ldr	r3, [r3, #0]
    b36a:	2b03      	cmp	r3, #3
    b36c:	dc69      	bgt.n	b442 <benchmark_body+0x330e>
    b36e:	4b30      	ldr	r3, [pc, #192]	; (b430 <benchmark_body+0x32fc>)
    b370:	691a      	ldr	r2, [r3, #16]
    b372:	4b2f      	ldr	r3, [pc, #188]	; (b430 <benchmark_body+0x32fc>)
    b374:	68db      	ldr	r3, [r3, #12]
    b376:	429a      	cmp	r2, r3
    b378:	d163      	bne.n	b442 <benchmark_body+0x330e>
    b37a:	4b2d      	ldr	r3, [pc, #180]	; (b430 <benchmark_body+0x32fc>)
    b37c:	691a      	ldr	r2, [r3, #16]
    b37e:	4b2c      	ldr	r3, [pc, #176]	; (b430 <benchmark_body+0x32fc>)
    b380:	689b      	ldr	r3, [r3, #8]
    b382:	429a      	cmp	r2, r3
    b384:	d15d      	bne.n	b442 <benchmark_body+0x330e>
    b386:	f507 63bf 	add.w	r3, r7, #1528	; 0x5f8
    b38a:	f5a3 7345 	sub.w	r3, r3, #788	; 0x314
    b38e:	4a28      	ldr	r2, [pc, #160]	; (b430 <benchmark_body+0x32fc>)
    b390:	6852      	ldr	r2, [r2, #4]
    b392:	601a      	str	r2, [r3, #0]
    b394:	f507 63bf 	add.w	r3, r7, #1528	; 0x5f8
    b398:	f5a3 7346 	sub.w	r3, r3, #792	; 0x318
    b39c:	4a24      	ldr	r2, [pc, #144]	; (b430 <benchmark_body+0x32fc>)
    b39e:	6912      	ldr	r2, [r2, #16]
    b3a0:	601a      	str	r2, [r3, #0]
    b3a2:	f507 63bf 	add.w	r3, r7, #1528	; 0x5f8
    b3a6:	f5a3 7246 	sub.w	r2, r3, #792	; 0x318
    b3aa:	f507 63bf 	add.w	r3, r7, #1528	; 0x5f8
    b3ae:	f5a3 7345 	sub.w	r3, r3, #788	; 0x314
    b3b2:	6812      	ldr	r2, [r2, #0]
    b3b4:	681b      	ldr	r3, [r3, #0]
    b3b6:	429a      	cmp	r2, r3
    b3b8:	dd43      	ble.n	b442 <benchmark_body+0x330e>
    b3ba:	4b1c      	ldr	r3, [pc, #112]	; (b42c <benchmark_body+0x32f8>)
    b3bc:	681b      	ldr	r3, [r3, #0]
    b3be:	3b04      	subs	r3, #4
    b3c0:	4a1a      	ldr	r2, [pc, #104]	; (b42c <benchmark_body+0x32f8>)
    b3c2:	6013      	str	r3, [r2, #0]
    b3c4:	f507 63bf 	add.w	r3, r7, #1528	; 0x5f8
    b3c8:	f5a3 7347 	sub.w	r3, r3, #796	; 0x31c
    b3cc:	f507 62bf 	add.w	r2, r7, #1528	; 0x5f8
    b3d0:	f5a2 7145 	sub.w	r1, r2, #788	; 0x314
    b3d4:	f507 62bf 	add.w	r2, r7, #1528	; 0x5f8
    b3d8:	f5a2 7246 	sub.w	r2, r2, #792	; 0x318
    b3dc:	6809      	ldr	r1, [r1, #0]
    b3de:	6812      	ldr	r2, [r2, #0]
    b3e0:	440a      	add	r2, r1
    b3e2:	601a      	str	r2, [r3, #0]
    b3e4:	4b0f      	ldr	r3, [pc, #60]	; (b424 <benchmark_body+0x32f0>)
    b3e6:	681b      	ldr	r3, [r3, #0]
    b3e8:	490f      	ldr	r1, [pc, #60]	; (b428 <benchmark_body+0x32f4>)
    b3ea:	f507 62bf 	add.w	r2, r7, #1528	; 0x5f8
    b3ee:	f5a2 7245 	sub.w	r2, r2, #788	; 0x314
    b3f2:	6812      	ldr	r2, [r2, #0]
    b3f4:	f841 2023 	str.w	r2, [r1, r3, lsl #2]
    b3f8:	4b0a      	ldr	r3, [pc, #40]	; (b424 <benchmark_body+0x32f0>)
    b3fa:	681b      	ldr	r3, [r3, #0]
    b3fc:	3301      	adds	r3, #1
    b3fe:	490a      	ldr	r1, [pc, #40]	; (b428 <benchmark_body+0x32f4>)
    b400:	f507 62bf 	add.w	r2, r7, #1528	; 0x5f8
    b404:	f5a2 7246 	sub.w	r2, r2, #792	; 0x318
    b408:	6812      	ldr	r2, [r2, #0]
    b40a:	f841 2023 	str.w	r2, [r1, r3, lsl #2]
    b40e:	4b05      	ldr	r3, [pc, #20]	; (b424 <benchmark_body+0x32f0>)
    b410:	681b      	ldr	r3, [r3, #0]
    b412:	3302      	adds	r3, #2
    b414:	4904      	ldr	r1, [pc, #16]	; (b428 <benchmark_body+0x32f4>)
    b416:	f507 62bf 	add.w	r2, r7, #1528	; 0x5f8
    b41a:	f5a2 7247 	sub.w	r2, r2, #796	; 0x31c
    b41e:	6812      	ldr	r2, [r2, #0]
    b420:	e008      	b.n	b434 <benchmark_body+0x3300>
    b422:	bf00      	nop
    b424:	0001f118 	.word	0x0001f118
    b428:	0001f11c 	.word	0x0001f11c
    b42c:	0001ecac 	.word	0x0001ecac
    b430:	0001f104 	.word	0x0001f104
    b434:	f841 2023 	str.w	r2, [r1, r3, lsl #2]
    b438:	4ba5      	ldr	r3, [pc, #660]	; (b6d0 <benchmark_body+0x359c>)
    b43a:	681b      	ldr	r3, [r3, #0]
    b43c:	3303      	adds	r3, #3
    b43e:	4aa4      	ldr	r2, [pc, #656]	; (b6d0 <benchmark_body+0x359c>)
    b440:	6013      	str	r3, [r2, #0]
    b442:	4ba4      	ldr	r3, [pc, #656]	; (b6d4 <benchmark_body+0x35a0>)
    b444:	681b      	ldr	r3, [r3, #0]
    b446:	2b04      	cmp	r3, #4
    b448:	dd67      	ble.n	b51a <benchmark_body+0x33e6>
    b44a:	4ba1      	ldr	r3, [pc, #644]	; (b6d0 <benchmark_body+0x359c>)
    b44c:	681b      	ldr	r3, [r3, #0]
    b44e:	2b03      	cmp	r3, #3
    b450:	dc63      	bgt.n	b51a <benchmark_body+0x33e6>
    b452:	4ba1      	ldr	r3, [pc, #644]	; (b6d8 <benchmark_body+0x35a4>)
    b454:	681a      	ldr	r2, [r3, #0]
    b456:	4ba0      	ldr	r3, [pc, #640]	; (b6d8 <benchmark_body+0x35a4>)
    b458:	685b      	ldr	r3, [r3, #4]
    b45a:	429a      	cmp	r2, r3
    b45c:	d15d      	bne.n	b51a <benchmark_body+0x33e6>
    b45e:	4b9e      	ldr	r3, [pc, #632]	; (b6d8 <benchmark_body+0x35a4>)
    b460:	681a      	ldr	r2, [r3, #0]
    b462:	4b9d      	ldr	r3, [pc, #628]	; (b6d8 <benchmark_body+0x35a4>)
    b464:	691b      	ldr	r3, [r3, #16]
    b466:	429a      	cmp	r2, r3
    b468:	d157      	bne.n	b51a <benchmark_body+0x33e6>
    b46a:	f507 63bf 	add.w	r3, r7, #1528	; 0x5f8
    b46e:	f5a3 7348 	sub.w	r3, r3, #800	; 0x320
    b472:	4a99      	ldr	r2, [pc, #612]	; (b6d8 <benchmark_body+0x35a4>)
    b474:	6892      	ldr	r2, [r2, #8]
    b476:	601a      	str	r2, [r3, #0]
    b478:	f507 63bf 	add.w	r3, r7, #1528	; 0x5f8
    b47c:	f5a3 7349 	sub.w	r3, r3, #804	; 0x324
    b480:	4a95      	ldr	r2, [pc, #596]	; (b6d8 <benchmark_body+0x35a4>)
    b482:	6812      	ldr	r2, [r2, #0]
    b484:	601a      	str	r2, [r3, #0]
    b486:	f507 63bf 	add.w	r3, r7, #1528	; 0x5f8
    b48a:	f5a3 7249 	sub.w	r2, r3, #804	; 0x324
    b48e:	f507 63bf 	add.w	r3, r7, #1528	; 0x5f8
    b492:	f5a3 7348 	sub.w	r3, r3, #800	; 0x320
    b496:	6812      	ldr	r2, [r2, #0]
    b498:	681b      	ldr	r3, [r3, #0]
    b49a:	429a      	cmp	r2, r3
    b49c:	dd3d      	ble.n	b51a <benchmark_body+0x33e6>
    b49e:	4b8e      	ldr	r3, [pc, #568]	; (b6d8 <benchmark_body+0x35a4>)
    b4a0:	68db      	ldr	r3, [r3, #12]
    b4a2:	4a8d      	ldr	r2, [pc, #564]	; (b6d8 <benchmark_body+0x35a4>)
    b4a4:	6013      	str	r3, [r2, #0]
    b4a6:	4b8b      	ldr	r3, [pc, #556]	; (b6d4 <benchmark_body+0x35a0>)
    b4a8:	681b      	ldr	r3, [r3, #0]
    b4aa:	3b04      	subs	r3, #4
    b4ac:	4a89      	ldr	r2, [pc, #548]	; (b6d4 <benchmark_body+0x35a0>)
    b4ae:	6013      	str	r3, [r2, #0]
    b4b0:	f507 63bf 	add.w	r3, r7, #1528	; 0x5f8
    b4b4:	f5a3 734a 	sub.w	r3, r3, #808	; 0x328
    b4b8:	f507 62bf 	add.w	r2, r7, #1528	; 0x5f8
    b4bc:	f5a2 7148 	sub.w	r1, r2, #800	; 0x320
    b4c0:	f507 62bf 	add.w	r2, r7, #1528	; 0x5f8
    b4c4:	f5a2 7249 	sub.w	r2, r2, #804	; 0x324
    b4c8:	6809      	ldr	r1, [r1, #0]
    b4ca:	6812      	ldr	r2, [r2, #0]
    b4cc:	440a      	add	r2, r1
    b4ce:	601a      	str	r2, [r3, #0]
    b4d0:	4b7f      	ldr	r3, [pc, #508]	; (b6d0 <benchmark_body+0x359c>)
    b4d2:	681b      	ldr	r3, [r3, #0]
    b4d4:	4981      	ldr	r1, [pc, #516]	; (b6dc <benchmark_body+0x35a8>)
    b4d6:	f507 62bf 	add.w	r2, r7, #1528	; 0x5f8
    b4da:	f5a2 7248 	sub.w	r2, r2, #800	; 0x320
    b4de:	6812      	ldr	r2, [r2, #0]
    b4e0:	f841 2023 	str.w	r2, [r1, r3, lsl #2]
    b4e4:	4b7a      	ldr	r3, [pc, #488]	; (b6d0 <benchmark_body+0x359c>)
    b4e6:	681b      	ldr	r3, [r3, #0]
    b4e8:	3301      	adds	r3, #1
    b4ea:	497c      	ldr	r1, [pc, #496]	; (b6dc <benchmark_body+0x35a8>)
    b4ec:	f507 62bf 	add.w	r2, r7, #1528	; 0x5f8
    b4f0:	f5a2 7249 	sub.w	r2, r2, #804	; 0x324
    b4f4:	6812      	ldr	r2, [r2, #0]
    b4f6:	f841 2023 	str.w	r2, [r1, r3, lsl #2]
    b4fa:	4b75      	ldr	r3, [pc, #468]	; (b6d0 <benchmark_body+0x359c>)
    b4fc:	681b      	ldr	r3, [r3, #0]
    b4fe:	3302      	adds	r3, #2
    b500:	4976      	ldr	r1, [pc, #472]	; (b6dc <benchmark_body+0x35a8>)
    b502:	f507 62bf 	add.w	r2, r7, #1528	; 0x5f8
    b506:	f5a2 724a 	sub.w	r2, r2, #808	; 0x328
    b50a:	6812      	ldr	r2, [r2, #0]
    b50c:	f841 2023 	str.w	r2, [r1, r3, lsl #2]
    b510:	4b6f      	ldr	r3, [pc, #444]	; (b6d0 <benchmark_body+0x359c>)
    b512:	681b      	ldr	r3, [r3, #0]
    b514:	3303      	adds	r3, #3
    b516:	4a6e      	ldr	r2, [pc, #440]	; (b6d0 <benchmark_body+0x359c>)
    b518:	6013      	str	r3, [r2, #0]
    b51a:	4b6e      	ldr	r3, [pc, #440]	; (b6d4 <benchmark_body+0x35a0>)
    b51c:	681b      	ldr	r3, [r3, #0]
    b51e:	2b04      	cmp	r3, #4
    b520:	dd67      	ble.n	b5f2 <benchmark_body+0x34be>
    b522:	4b6b      	ldr	r3, [pc, #428]	; (b6d0 <benchmark_body+0x359c>)
    b524:	681b      	ldr	r3, [r3, #0]
    b526:	2b03      	cmp	r3, #3
    b528:	dc63      	bgt.n	b5f2 <benchmark_body+0x34be>
    b52a:	4b6b      	ldr	r3, [pc, #428]	; (b6d8 <benchmark_body+0x35a4>)
    b52c:	681a      	ldr	r2, [r3, #0]
    b52e:	4b6a      	ldr	r3, [pc, #424]	; (b6d8 <benchmark_body+0x35a4>)
    b530:	68db      	ldr	r3, [r3, #12]
    b532:	429a      	cmp	r2, r3
    b534:	d15d      	bne.n	b5f2 <benchmark_body+0x34be>
    b536:	4b68      	ldr	r3, [pc, #416]	; (b6d8 <benchmark_body+0x35a4>)
    b538:	681a      	ldr	r2, [r3, #0]
    b53a:	4b67      	ldr	r3, [pc, #412]	; (b6d8 <benchmark_body+0x35a4>)
    b53c:	691b      	ldr	r3, [r3, #16]
    b53e:	429a      	cmp	r2, r3
    b540:	d157      	bne.n	b5f2 <benchmark_body+0x34be>
    b542:	f507 63bf 	add.w	r3, r7, #1528	; 0x5f8
    b546:	f5a3 734b 	sub.w	r3, r3, #812	; 0x32c
    b54a:	4a63      	ldr	r2, [pc, #396]	; (b6d8 <benchmark_body+0x35a4>)
    b54c:	6892      	ldr	r2, [r2, #8]
    b54e:	601a      	str	r2, [r3, #0]
    b550:	f507 63bf 	add.w	r3, r7, #1528	; 0x5f8
    b554:	f5a3 734c 	sub.w	r3, r3, #816	; 0x330
    b558:	4a5f      	ldr	r2, [pc, #380]	; (b6d8 <benchmark_body+0x35a4>)
    b55a:	6812      	ldr	r2, [r2, #0]
    b55c:	601a      	str	r2, [r3, #0]
    b55e:	f507 63bf 	add.w	r3, r7, #1528	; 0x5f8
    b562:	f5a3 724c 	sub.w	r2, r3, #816	; 0x330
    b566:	f507 63bf 	add.w	r3, r7, #1528	; 0x5f8
    b56a:	f5a3 734b 	sub.w	r3, r3, #812	; 0x32c
    b56e:	6812      	ldr	r2, [r2, #0]
    b570:	681b      	ldr	r3, [r3, #0]
    b572:	429a      	cmp	r2, r3
    b574:	dd3d      	ble.n	b5f2 <benchmark_body+0x34be>
    b576:	4b58      	ldr	r3, [pc, #352]	; (b6d8 <benchmark_body+0x35a4>)
    b578:	685b      	ldr	r3, [r3, #4]
    b57a:	4a57      	ldr	r2, [pc, #348]	; (b6d8 <benchmark_body+0x35a4>)
    b57c:	6013      	str	r3, [r2, #0]
    b57e:	4b55      	ldr	r3, [pc, #340]	; (b6d4 <benchmark_body+0x35a0>)
    b580:	681b      	ldr	r3, [r3, #0]
    b582:	3b04      	subs	r3, #4
    b584:	4a53      	ldr	r2, [pc, #332]	; (b6d4 <benchmark_body+0x35a0>)
    b586:	6013      	str	r3, [r2, #0]
    b588:	f507 63bf 	add.w	r3, r7, #1528	; 0x5f8
    b58c:	f5a3 734d 	sub.w	r3, r3, #820	; 0x334
    b590:	f507 62bf 	add.w	r2, r7, #1528	; 0x5f8
    b594:	f5a2 714b 	sub.w	r1, r2, #812	; 0x32c
    b598:	f507 62bf 	add.w	r2, r7, #1528	; 0x5f8
    b59c:	f5a2 724c 	sub.w	r2, r2, #816	; 0x330
    b5a0:	6809      	ldr	r1, [r1, #0]
    b5a2:	6812      	ldr	r2, [r2, #0]
    b5a4:	440a      	add	r2, r1
    b5a6:	601a      	str	r2, [r3, #0]
    b5a8:	4b49      	ldr	r3, [pc, #292]	; (b6d0 <benchmark_body+0x359c>)
    b5aa:	681b      	ldr	r3, [r3, #0]
    b5ac:	494b      	ldr	r1, [pc, #300]	; (b6dc <benchmark_body+0x35a8>)
    b5ae:	f507 62bf 	add.w	r2, r7, #1528	; 0x5f8
    b5b2:	f5a2 724b 	sub.w	r2, r2, #812	; 0x32c
    b5b6:	6812      	ldr	r2, [r2, #0]
    b5b8:	f841 2023 	str.w	r2, [r1, r3, lsl #2]
    b5bc:	4b44      	ldr	r3, [pc, #272]	; (b6d0 <benchmark_body+0x359c>)
    b5be:	681b      	ldr	r3, [r3, #0]
    b5c0:	3301      	adds	r3, #1
    b5c2:	4946      	ldr	r1, [pc, #280]	; (b6dc <benchmark_body+0x35a8>)
    b5c4:	f507 62bf 	add.w	r2, r7, #1528	; 0x5f8
    b5c8:	f5a2 724c 	sub.w	r2, r2, #816	; 0x330
    b5cc:	6812      	ldr	r2, [r2, #0]
    b5ce:	f841 2023 	str.w	r2, [r1, r3, lsl #2]
    b5d2:	4b3f      	ldr	r3, [pc, #252]	; (b6d0 <benchmark_body+0x359c>)
    b5d4:	681b      	ldr	r3, [r3, #0]
    b5d6:	3302      	adds	r3, #2
    b5d8:	4940      	ldr	r1, [pc, #256]	; (b6dc <benchmark_body+0x35a8>)
    b5da:	f507 62bf 	add.w	r2, r7, #1528	; 0x5f8
    b5de:	f5a2 724d 	sub.w	r2, r2, #820	; 0x334
    b5e2:	6812      	ldr	r2, [r2, #0]
    b5e4:	f841 2023 	str.w	r2, [r1, r3, lsl #2]
    b5e8:	4b39      	ldr	r3, [pc, #228]	; (b6d0 <benchmark_body+0x359c>)
    b5ea:	681b      	ldr	r3, [r3, #0]
    b5ec:	3303      	adds	r3, #3
    b5ee:	4a38      	ldr	r2, [pc, #224]	; (b6d0 <benchmark_body+0x359c>)
    b5f0:	6013      	str	r3, [r2, #0]
    b5f2:	4b38      	ldr	r3, [pc, #224]	; (b6d4 <benchmark_body+0x35a0>)
    b5f4:	681b      	ldr	r3, [r3, #0]
    b5f6:	2b04      	cmp	r3, #4
    b5f8:	dd67      	ble.n	b6ca <benchmark_body+0x3596>
    b5fa:	4b35      	ldr	r3, [pc, #212]	; (b6d0 <benchmark_body+0x359c>)
    b5fc:	681b      	ldr	r3, [r3, #0]
    b5fe:	2b03      	cmp	r3, #3
    b600:	dc63      	bgt.n	b6ca <benchmark_body+0x3596>
    b602:	4b35      	ldr	r3, [pc, #212]	; (b6d8 <benchmark_body+0x35a4>)
    b604:	681a      	ldr	r2, [r3, #0]
    b606:	4b34      	ldr	r3, [pc, #208]	; (b6d8 <benchmark_body+0x35a4>)
    b608:	691b      	ldr	r3, [r3, #16]
    b60a:	429a      	cmp	r2, r3
    b60c:	d15d      	bne.n	b6ca <benchmark_body+0x3596>
    b60e:	4b32      	ldr	r3, [pc, #200]	; (b6d8 <benchmark_body+0x35a4>)
    b610:	681a      	ldr	r2, [r3, #0]
    b612:	4b31      	ldr	r3, [pc, #196]	; (b6d8 <benchmark_body+0x35a4>)
    b614:	685b      	ldr	r3, [r3, #4]
    b616:	429a      	cmp	r2, r3
    b618:	d157      	bne.n	b6ca <benchmark_body+0x3596>
    b61a:	f507 63bf 	add.w	r3, r7, #1528	; 0x5f8
    b61e:	f5a3 734e 	sub.w	r3, r3, #824	; 0x338
    b622:	4a2d      	ldr	r2, [pc, #180]	; (b6d8 <benchmark_body+0x35a4>)
    b624:	6892      	ldr	r2, [r2, #8]
    b626:	601a      	str	r2, [r3, #0]
    b628:	f507 63bf 	add.w	r3, r7, #1528	; 0x5f8
    b62c:	f5a3 734f 	sub.w	r3, r3, #828	; 0x33c
    b630:	4a29      	ldr	r2, [pc, #164]	; (b6d8 <benchmark_body+0x35a4>)
    b632:	6812      	ldr	r2, [r2, #0]
    b634:	601a      	str	r2, [r3, #0]
    b636:	f507 63bf 	add.w	r3, r7, #1528	; 0x5f8
    b63a:	f5a3 724f 	sub.w	r2, r3, #828	; 0x33c
    b63e:	f507 63bf 	add.w	r3, r7, #1528	; 0x5f8
    b642:	f5a3 734e 	sub.w	r3, r3, #824	; 0x338
    b646:	6812      	ldr	r2, [r2, #0]
    b648:	681b      	ldr	r3, [r3, #0]
    b64a:	429a      	cmp	r2, r3
    b64c:	dd3d      	ble.n	b6ca <benchmark_body+0x3596>
    b64e:	4b22      	ldr	r3, [pc, #136]	; (b6d8 <benchmark_body+0x35a4>)
    b650:	68db      	ldr	r3, [r3, #12]
    b652:	4a21      	ldr	r2, [pc, #132]	; (b6d8 <benchmark_body+0x35a4>)
    b654:	6013      	str	r3, [r2, #0]
    b656:	4b1f      	ldr	r3, [pc, #124]	; (b6d4 <benchmark_body+0x35a0>)
    b658:	681b      	ldr	r3, [r3, #0]
    b65a:	3b04      	subs	r3, #4
    b65c:	4a1d      	ldr	r2, [pc, #116]	; (b6d4 <benchmark_body+0x35a0>)
    b65e:	6013      	str	r3, [r2, #0]
    b660:	f507 63bf 	add.w	r3, r7, #1528	; 0x5f8
    b664:	f5a3 7350 	sub.w	r3, r3, #832	; 0x340
    b668:	f507 62bf 	add.w	r2, r7, #1528	; 0x5f8
    b66c:	f5a2 714e 	sub.w	r1, r2, #824	; 0x338
    b670:	f507 62bf 	add.w	r2, r7, #1528	; 0x5f8
    b674:	f5a2 724f 	sub.w	r2, r2, #828	; 0x33c
    b678:	6809      	ldr	r1, [r1, #0]
    b67a:	6812      	ldr	r2, [r2, #0]
    b67c:	440a      	add	r2, r1
    b67e:	601a      	str	r2, [r3, #0]
    b680:	4b13      	ldr	r3, [pc, #76]	; (b6d0 <benchmark_body+0x359c>)
    b682:	681b      	ldr	r3, [r3, #0]
    b684:	4915      	ldr	r1, [pc, #84]	; (b6dc <benchmark_body+0x35a8>)
    b686:	f507 62bf 	add.w	r2, r7, #1528	; 0x5f8
    b68a:	f5a2 724e 	sub.w	r2, r2, #824	; 0x338
    b68e:	6812      	ldr	r2, [r2, #0]
    b690:	f841 2023 	str.w	r2, [r1, r3, lsl #2]
    b694:	4b0e      	ldr	r3, [pc, #56]	; (b6d0 <benchmark_body+0x359c>)
    b696:	681b      	ldr	r3, [r3, #0]
    b698:	3301      	adds	r3, #1
    b69a:	4910      	ldr	r1, [pc, #64]	; (b6dc <benchmark_body+0x35a8>)
    b69c:	f507 62bf 	add.w	r2, r7, #1528	; 0x5f8
    b6a0:	f5a2 724f 	sub.w	r2, r2, #828	; 0x33c
    b6a4:	6812      	ldr	r2, [r2, #0]
    b6a6:	f841 2023 	str.w	r2, [r1, r3, lsl #2]
    b6aa:	4b09      	ldr	r3, [pc, #36]	; (b6d0 <benchmark_body+0x359c>)
    b6ac:	681b      	ldr	r3, [r3, #0]
    b6ae:	3302      	adds	r3, #2
    b6b0:	490a      	ldr	r1, [pc, #40]	; (b6dc <benchmark_body+0x35a8>)
    b6b2:	f507 62bf 	add.w	r2, r7, #1528	; 0x5f8
    b6b6:	f5a2 7250 	sub.w	r2, r2, #832	; 0x340
    b6ba:	6812      	ldr	r2, [r2, #0]
    b6bc:	f841 2023 	str.w	r2, [r1, r3, lsl #2]
    b6c0:	4b03      	ldr	r3, [pc, #12]	; (b6d0 <benchmark_body+0x359c>)
    b6c2:	681b      	ldr	r3, [r3, #0]
    b6c4:	3303      	adds	r3, #3
    b6c6:	4a02      	ldr	r2, [pc, #8]	; (b6d0 <benchmark_body+0x359c>)
    b6c8:	6013      	str	r3, [r2, #0]
    b6ca:	4b02      	ldr	r3, [pc, #8]	; (b6d4 <benchmark_body+0x35a0>)
    b6cc:	681b      	ldr	r3, [r3, #0]
    b6ce:	e007      	b.n	b6e0 <benchmark_body+0x35ac>
    b6d0:	0001f118 	.word	0x0001f118
    b6d4:	0001ecac 	.word	0x0001ecac
    b6d8:	0001f104 	.word	0x0001f104
    b6dc:	0001f11c 	.word	0x0001f11c
    b6e0:	2b04      	cmp	r3, #4
    b6e2:	dd67      	ble.n	b7b4 <benchmark_body+0x3680>
    b6e4:	4ba5      	ldr	r3, [pc, #660]	; (b97c <benchmark_body+0x3848>)
    b6e6:	681b      	ldr	r3, [r3, #0]
    b6e8:	2b03      	cmp	r3, #3
    b6ea:	dc63      	bgt.n	b7b4 <benchmark_body+0x3680>
    b6ec:	4ba4      	ldr	r3, [pc, #656]	; (b980 <benchmark_body+0x384c>)
    b6ee:	681a      	ldr	r2, [r3, #0]
    b6f0:	4ba3      	ldr	r3, [pc, #652]	; (b980 <benchmark_body+0x384c>)
    b6f2:	691b      	ldr	r3, [r3, #16]
    b6f4:	429a      	cmp	r2, r3
    b6f6:	d15d      	bne.n	b7b4 <benchmark_body+0x3680>
    b6f8:	4ba1      	ldr	r3, [pc, #644]	; (b980 <benchmark_body+0x384c>)
    b6fa:	681a      	ldr	r2, [r3, #0]
    b6fc:	4ba0      	ldr	r3, [pc, #640]	; (b980 <benchmark_body+0x384c>)
    b6fe:	68db      	ldr	r3, [r3, #12]
    b700:	429a      	cmp	r2, r3
    b702:	d157      	bne.n	b7b4 <benchmark_body+0x3680>
    b704:	f507 63bf 	add.w	r3, r7, #1528	; 0x5f8
    b708:	f5a3 7351 	sub.w	r3, r3, #836	; 0x344
    b70c:	4a9c      	ldr	r2, [pc, #624]	; (b980 <benchmark_body+0x384c>)
    b70e:	6892      	ldr	r2, [r2, #8]
    b710:	601a      	str	r2, [r3, #0]
    b712:	f507 63bf 	add.w	r3, r7, #1528	; 0x5f8
    b716:	f5a3 7352 	sub.w	r3, r3, #840	; 0x348
    b71a:	4a99      	ldr	r2, [pc, #612]	; (b980 <benchmark_body+0x384c>)
    b71c:	6812      	ldr	r2, [r2, #0]
    b71e:	601a      	str	r2, [r3, #0]
    b720:	f507 63bf 	add.w	r3, r7, #1528	; 0x5f8
    b724:	f5a3 7252 	sub.w	r2, r3, #840	; 0x348
    b728:	f507 63bf 	add.w	r3, r7, #1528	; 0x5f8
    b72c:	f5a3 7351 	sub.w	r3, r3, #836	; 0x344
    b730:	6812      	ldr	r2, [r2, #0]
    b732:	681b      	ldr	r3, [r3, #0]
    b734:	429a      	cmp	r2, r3
    b736:	dd3d      	ble.n	b7b4 <benchmark_body+0x3680>
    b738:	4b91      	ldr	r3, [pc, #580]	; (b980 <benchmark_body+0x384c>)
    b73a:	685b      	ldr	r3, [r3, #4]
    b73c:	4a90      	ldr	r2, [pc, #576]	; (b980 <benchmark_body+0x384c>)
    b73e:	6013      	str	r3, [r2, #0]
    b740:	4b90      	ldr	r3, [pc, #576]	; (b984 <benchmark_body+0x3850>)
    b742:	681b      	ldr	r3, [r3, #0]
    b744:	3b04      	subs	r3, #4
    b746:	4a8f      	ldr	r2, [pc, #572]	; (b984 <benchmark_body+0x3850>)
    b748:	6013      	str	r3, [r2, #0]
    b74a:	f507 63bf 	add.w	r3, r7, #1528	; 0x5f8
    b74e:	f5a3 7353 	sub.w	r3, r3, #844	; 0x34c
    b752:	f507 62bf 	add.w	r2, r7, #1528	; 0x5f8
    b756:	f5a2 7151 	sub.w	r1, r2, #836	; 0x344
    b75a:	f507 62bf 	add.w	r2, r7, #1528	; 0x5f8
    b75e:	f5a2 7252 	sub.w	r2, r2, #840	; 0x348
    b762:	6809      	ldr	r1, [r1, #0]
    b764:	6812      	ldr	r2, [r2, #0]
    b766:	440a      	add	r2, r1
    b768:	601a      	str	r2, [r3, #0]
    b76a:	4b84      	ldr	r3, [pc, #528]	; (b97c <benchmark_body+0x3848>)
    b76c:	681b      	ldr	r3, [r3, #0]
    b76e:	4986      	ldr	r1, [pc, #536]	; (b988 <benchmark_body+0x3854>)
    b770:	f507 62bf 	add.w	r2, r7, #1528	; 0x5f8
    b774:	f5a2 7251 	sub.w	r2, r2, #836	; 0x344
    b778:	6812      	ldr	r2, [r2, #0]
    b77a:	f841 2023 	str.w	r2, [r1, r3, lsl #2]
    b77e:	4b7f      	ldr	r3, [pc, #508]	; (b97c <benchmark_body+0x3848>)
    b780:	681b      	ldr	r3, [r3, #0]
    b782:	3301      	adds	r3, #1
    b784:	4980      	ldr	r1, [pc, #512]	; (b988 <benchmark_body+0x3854>)
    b786:	f507 62bf 	add.w	r2, r7, #1528	; 0x5f8
    b78a:	f5a2 7252 	sub.w	r2, r2, #840	; 0x348
    b78e:	6812      	ldr	r2, [r2, #0]
    b790:	f841 2023 	str.w	r2, [r1, r3, lsl #2]
    b794:	4b79      	ldr	r3, [pc, #484]	; (b97c <benchmark_body+0x3848>)
    b796:	681b      	ldr	r3, [r3, #0]
    b798:	3302      	adds	r3, #2
    b79a:	497b      	ldr	r1, [pc, #492]	; (b988 <benchmark_body+0x3854>)
    b79c:	f507 62bf 	add.w	r2, r7, #1528	; 0x5f8
    b7a0:	f5a2 7253 	sub.w	r2, r2, #844	; 0x34c
    b7a4:	6812      	ldr	r2, [r2, #0]
    b7a6:	f841 2023 	str.w	r2, [r1, r3, lsl #2]
    b7aa:	4b74      	ldr	r3, [pc, #464]	; (b97c <benchmark_body+0x3848>)
    b7ac:	681b      	ldr	r3, [r3, #0]
    b7ae:	3303      	adds	r3, #3
    b7b0:	4a72      	ldr	r2, [pc, #456]	; (b97c <benchmark_body+0x3848>)
    b7b2:	6013      	str	r3, [r2, #0]
    b7b4:	4b73      	ldr	r3, [pc, #460]	; (b984 <benchmark_body+0x3850>)
    b7b6:	681b      	ldr	r3, [r3, #0]
    b7b8:	2b04      	cmp	r3, #4
    b7ba:	dd67      	ble.n	b88c <benchmark_body+0x3758>
    b7bc:	4b6f      	ldr	r3, [pc, #444]	; (b97c <benchmark_body+0x3848>)
    b7be:	681b      	ldr	r3, [r3, #0]
    b7c0:	2b03      	cmp	r3, #3
    b7c2:	dc63      	bgt.n	b88c <benchmark_body+0x3758>
    b7c4:	4b6e      	ldr	r3, [pc, #440]	; (b980 <benchmark_body+0x384c>)
    b7c6:	685a      	ldr	r2, [r3, #4]
    b7c8:	4b6d      	ldr	r3, [pc, #436]	; (b980 <benchmark_body+0x384c>)
    b7ca:	681b      	ldr	r3, [r3, #0]
    b7cc:	429a      	cmp	r2, r3
    b7ce:	d15d      	bne.n	b88c <benchmark_body+0x3758>
    b7d0:	4b6b      	ldr	r3, [pc, #428]	; (b980 <benchmark_body+0x384c>)
    b7d2:	685a      	ldr	r2, [r3, #4]
    b7d4:	4b6a      	ldr	r3, [pc, #424]	; (b980 <benchmark_body+0x384c>)
    b7d6:	691b      	ldr	r3, [r3, #16]
    b7d8:	429a      	cmp	r2, r3
    b7da:	d157      	bne.n	b88c <benchmark_body+0x3758>
    b7dc:	f507 63bf 	add.w	r3, r7, #1528	; 0x5f8
    b7e0:	f5a3 7354 	sub.w	r3, r3, #848	; 0x350
    b7e4:	4a66      	ldr	r2, [pc, #408]	; (b980 <benchmark_body+0x384c>)
    b7e6:	6892      	ldr	r2, [r2, #8]
    b7e8:	601a      	str	r2, [r3, #0]
    b7ea:	f507 63bf 	add.w	r3, r7, #1528	; 0x5f8
    b7ee:	f5a3 7355 	sub.w	r3, r3, #852	; 0x354
    b7f2:	4a63      	ldr	r2, [pc, #396]	; (b980 <benchmark_body+0x384c>)
    b7f4:	6852      	ldr	r2, [r2, #4]
    b7f6:	601a      	str	r2, [r3, #0]
    b7f8:	f507 63bf 	add.w	r3, r7, #1528	; 0x5f8
    b7fc:	f5a3 7255 	sub.w	r2, r3, #852	; 0x354
    b800:	f507 63bf 	add.w	r3, r7, #1528	; 0x5f8
    b804:	f5a3 7354 	sub.w	r3, r3, #848	; 0x350
    b808:	6812      	ldr	r2, [r2, #0]
    b80a:	681b      	ldr	r3, [r3, #0]
    b80c:	429a      	cmp	r2, r3
    b80e:	dd3d      	ble.n	b88c <benchmark_body+0x3758>
    b810:	4b5b      	ldr	r3, [pc, #364]	; (b980 <benchmark_body+0x384c>)
    b812:	68db      	ldr	r3, [r3, #12]
    b814:	4a5a      	ldr	r2, [pc, #360]	; (b980 <benchmark_body+0x384c>)
    b816:	6013      	str	r3, [r2, #0]
    b818:	4b5a      	ldr	r3, [pc, #360]	; (b984 <benchmark_body+0x3850>)
    b81a:	681b      	ldr	r3, [r3, #0]
    b81c:	3b04      	subs	r3, #4
    b81e:	4a59      	ldr	r2, [pc, #356]	; (b984 <benchmark_body+0x3850>)
    b820:	6013      	str	r3, [r2, #0]
    b822:	f507 63bf 	add.w	r3, r7, #1528	; 0x5f8
    b826:	f5a3 7356 	sub.w	r3, r3, #856	; 0x358
    b82a:	f507 62bf 	add.w	r2, r7, #1528	; 0x5f8
    b82e:	f5a2 7154 	sub.w	r1, r2, #848	; 0x350
    b832:	f507 62bf 	add.w	r2, r7, #1528	; 0x5f8
    b836:	f5a2 7255 	sub.w	r2, r2, #852	; 0x354
    b83a:	6809      	ldr	r1, [r1, #0]
    b83c:	6812      	ldr	r2, [r2, #0]
    b83e:	440a      	add	r2, r1
    b840:	601a      	str	r2, [r3, #0]
    b842:	4b4e      	ldr	r3, [pc, #312]	; (b97c <benchmark_body+0x3848>)
    b844:	681b      	ldr	r3, [r3, #0]
    b846:	4950      	ldr	r1, [pc, #320]	; (b988 <benchmark_body+0x3854>)
    b848:	f507 62bf 	add.w	r2, r7, #1528	; 0x5f8
    b84c:	f5a2 7254 	sub.w	r2, r2, #848	; 0x350
    b850:	6812      	ldr	r2, [r2, #0]
    b852:	f841 2023 	str.w	r2, [r1, r3, lsl #2]
    b856:	4b49      	ldr	r3, [pc, #292]	; (b97c <benchmark_body+0x3848>)
    b858:	681b      	ldr	r3, [r3, #0]
    b85a:	3301      	adds	r3, #1
    b85c:	494a      	ldr	r1, [pc, #296]	; (b988 <benchmark_body+0x3854>)
    b85e:	f507 62bf 	add.w	r2, r7, #1528	; 0x5f8
    b862:	f5a2 7255 	sub.w	r2, r2, #852	; 0x354
    b866:	6812      	ldr	r2, [r2, #0]
    b868:	f841 2023 	str.w	r2, [r1, r3, lsl #2]
    b86c:	4b43      	ldr	r3, [pc, #268]	; (b97c <benchmark_body+0x3848>)
    b86e:	681b      	ldr	r3, [r3, #0]
    b870:	3302      	adds	r3, #2
    b872:	4945      	ldr	r1, [pc, #276]	; (b988 <benchmark_body+0x3854>)
    b874:	f507 62bf 	add.w	r2, r7, #1528	; 0x5f8
    b878:	f5a2 7256 	sub.w	r2, r2, #856	; 0x358
    b87c:	6812      	ldr	r2, [r2, #0]
    b87e:	f841 2023 	str.w	r2, [r1, r3, lsl #2]
    b882:	4b3e      	ldr	r3, [pc, #248]	; (b97c <benchmark_body+0x3848>)
    b884:	681b      	ldr	r3, [r3, #0]
    b886:	3303      	adds	r3, #3
    b888:	4a3c      	ldr	r2, [pc, #240]	; (b97c <benchmark_body+0x3848>)
    b88a:	6013      	str	r3, [r2, #0]
    b88c:	4b3d      	ldr	r3, [pc, #244]	; (b984 <benchmark_body+0x3850>)
    b88e:	681b      	ldr	r3, [r3, #0]
    b890:	2b04      	cmp	r3, #4
    b892:	dd63      	ble.n	b95c <benchmark_body+0x3828>
    b894:	4b39      	ldr	r3, [pc, #228]	; (b97c <benchmark_body+0x3848>)
    b896:	681b      	ldr	r3, [r3, #0]
    b898:	2b03      	cmp	r3, #3
    b89a:	dc5f      	bgt.n	b95c <benchmark_body+0x3828>
    b89c:	4b38      	ldr	r3, [pc, #224]	; (b980 <benchmark_body+0x384c>)
    b89e:	685a      	ldr	r2, [r3, #4]
    b8a0:	4b37      	ldr	r3, [pc, #220]	; (b980 <benchmark_body+0x384c>)
    b8a2:	68db      	ldr	r3, [r3, #12]
    b8a4:	429a      	cmp	r2, r3
    b8a6:	d159      	bne.n	b95c <benchmark_body+0x3828>
    b8a8:	4b35      	ldr	r3, [pc, #212]	; (b980 <benchmark_body+0x384c>)
    b8aa:	685a      	ldr	r2, [r3, #4]
    b8ac:	4b34      	ldr	r3, [pc, #208]	; (b980 <benchmark_body+0x384c>)
    b8ae:	691b      	ldr	r3, [r3, #16]
    b8b0:	429a      	cmp	r2, r3
    b8b2:	d153      	bne.n	b95c <benchmark_body+0x3828>
    b8b4:	f507 63bf 	add.w	r3, r7, #1528	; 0x5f8
    b8b8:	f5a3 7357 	sub.w	r3, r3, #860	; 0x35c
    b8bc:	4a30      	ldr	r2, [pc, #192]	; (b980 <benchmark_body+0x384c>)
    b8be:	6892      	ldr	r2, [r2, #8]
    b8c0:	601a      	str	r2, [r3, #0]
    b8c2:	f507 63bf 	add.w	r3, r7, #1528	; 0x5f8
    b8c6:	f5a3 7358 	sub.w	r3, r3, #864	; 0x360
    b8ca:	4a2d      	ldr	r2, [pc, #180]	; (b980 <benchmark_body+0x384c>)
    b8cc:	6852      	ldr	r2, [r2, #4]
    b8ce:	601a      	str	r2, [r3, #0]
    b8d0:	f507 63bf 	add.w	r3, r7, #1528	; 0x5f8
    b8d4:	f5a3 7258 	sub.w	r2, r3, #864	; 0x360
    b8d8:	f507 63bf 	add.w	r3, r7, #1528	; 0x5f8
    b8dc:	f5a3 7357 	sub.w	r3, r3, #860	; 0x35c
    b8e0:	6812      	ldr	r2, [r2, #0]
    b8e2:	681b      	ldr	r3, [r3, #0]
    b8e4:	429a      	cmp	r2, r3
    b8e6:	dd39      	ble.n	b95c <benchmark_body+0x3828>
    b8e8:	4b26      	ldr	r3, [pc, #152]	; (b984 <benchmark_body+0x3850>)
    b8ea:	681b      	ldr	r3, [r3, #0]
    b8ec:	3b04      	subs	r3, #4
    b8ee:	4a25      	ldr	r2, [pc, #148]	; (b984 <benchmark_body+0x3850>)
    b8f0:	6013      	str	r3, [r2, #0]
    b8f2:	f507 63bf 	add.w	r3, r7, #1528	; 0x5f8
    b8f6:	f5a3 7359 	sub.w	r3, r3, #868	; 0x364
    b8fa:	f507 62bf 	add.w	r2, r7, #1528	; 0x5f8
    b8fe:	f5a2 7157 	sub.w	r1, r2, #860	; 0x35c
    b902:	f507 62bf 	add.w	r2, r7, #1528	; 0x5f8
    b906:	f5a2 7258 	sub.w	r2, r2, #864	; 0x360
    b90a:	6809      	ldr	r1, [r1, #0]
    b90c:	6812      	ldr	r2, [r2, #0]
    b90e:	440a      	add	r2, r1
    b910:	601a      	str	r2, [r3, #0]
    b912:	4b1a      	ldr	r3, [pc, #104]	; (b97c <benchmark_body+0x3848>)
    b914:	681b      	ldr	r3, [r3, #0]
    b916:	491c      	ldr	r1, [pc, #112]	; (b988 <benchmark_body+0x3854>)
    b918:	f507 62bf 	add.w	r2, r7, #1528	; 0x5f8
    b91c:	f5a2 7257 	sub.w	r2, r2, #860	; 0x35c
    b920:	6812      	ldr	r2, [r2, #0]
    b922:	f841 2023 	str.w	r2, [r1, r3, lsl #2]
    b926:	4b15      	ldr	r3, [pc, #84]	; (b97c <benchmark_body+0x3848>)
    b928:	681b      	ldr	r3, [r3, #0]
    b92a:	3301      	adds	r3, #1
    b92c:	4916      	ldr	r1, [pc, #88]	; (b988 <benchmark_body+0x3854>)
    b92e:	f507 62bf 	add.w	r2, r7, #1528	; 0x5f8
    b932:	f5a2 7258 	sub.w	r2, r2, #864	; 0x360
    b936:	6812      	ldr	r2, [r2, #0]
    b938:	f841 2023 	str.w	r2, [r1, r3, lsl #2]
    b93c:	4b0f      	ldr	r3, [pc, #60]	; (b97c <benchmark_body+0x3848>)
    b93e:	681b      	ldr	r3, [r3, #0]
    b940:	3302      	adds	r3, #2
    b942:	4911      	ldr	r1, [pc, #68]	; (b988 <benchmark_body+0x3854>)
    b944:	f507 62bf 	add.w	r2, r7, #1528	; 0x5f8
    b948:	f5a2 7259 	sub.w	r2, r2, #868	; 0x364
    b94c:	6812      	ldr	r2, [r2, #0]
    b94e:	f841 2023 	str.w	r2, [r1, r3, lsl #2]
    b952:	4b0a      	ldr	r3, [pc, #40]	; (b97c <benchmark_body+0x3848>)
    b954:	681b      	ldr	r3, [r3, #0]
    b956:	3303      	adds	r3, #3
    b958:	4a08      	ldr	r2, [pc, #32]	; (b97c <benchmark_body+0x3848>)
    b95a:	6013      	str	r3, [r2, #0]
    b95c:	4b09      	ldr	r3, [pc, #36]	; (b984 <benchmark_body+0x3850>)
    b95e:	681b      	ldr	r3, [r3, #0]
    b960:	2b04      	cmp	r3, #4
    b962:	dd71      	ble.n	ba48 <benchmark_body+0x3914>
    b964:	4b05      	ldr	r3, [pc, #20]	; (b97c <benchmark_body+0x3848>)
    b966:	681b      	ldr	r3, [r3, #0]
    b968:	2b03      	cmp	r3, #3
    b96a:	dc6d      	bgt.n	ba48 <benchmark_body+0x3914>
    b96c:	4b04      	ldr	r3, [pc, #16]	; (b980 <benchmark_body+0x384c>)
    b96e:	685a      	ldr	r2, [r3, #4]
    b970:	4b03      	ldr	r3, [pc, #12]	; (b980 <benchmark_body+0x384c>)
    b972:	691b      	ldr	r3, [r3, #16]
    b974:	429a      	cmp	r2, r3
    b976:	d167      	bne.n	ba48 <benchmark_body+0x3914>
    b978:	e008      	b.n	b98c <benchmark_body+0x3858>
    b97a:	bf00      	nop
    b97c:	0001f118 	.word	0x0001f118
    b980:	0001f104 	.word	0x0001f104
    b984:	0001ecac 	.word	0x0001ecac
    b988:	0001f11c 	.word	0x0001f11c
    b98c:	4ba6      	ldr	r3, [pc, #664]	; (bc28 <benchmark_body+0x3af4>)
    b98e:	685a      	ldr	r2, [r3, #4]
    b990:	4ba5      	ldr	r3, [pc, #660]	; (bc28 <benchmark_body+0x3af4>)
    b992:	681b      	ldr	r3, [r3, #0]
    b994:	429a      	cmp	r2, r3
    b996:	d157      	bne.n	ba48 <benchmark_body+0x3914>
    b998:	f507 63bf 	add.w	r3, r7, #1528	; 0x5f8
    b99c:	f5a3 735a 	sub.w	r3, r3, #872	; 0x368
    b9a0:	4aa1      	ldr	r2, [pc, #644]	; (bc28 <benchmark_body+0x3af4>)
    b9a2:	6892      	ldr	r2, [r2, #8]
    b9a4:	601a      	str	r2, [r3, #0]
    b9a6:	f507 63bf 	add.w	r3, r7, #1528	; 0x5f8
    b9aa:	f5a3 735b 	sub.w	r3, r3, #876	; 0x36c
    b9ae:	4a9e      	ldr	r2, [pc, #632]	; (bc28 <benchmark_body+0x3af4>)
    b9b0:	6852      	ldr	r2, [r2, #4]
    b9b2:	601a      	str	r2, [r3, #0]
    b9b4:	f507 63bf 	add.w	r3, r7, #1528	; 0x5f8
    b9b8:	f5a3 725b 	sub.w	r2, r3, #876	; 0x36c
    b9bc:	f507 63bf 	add.w	r3, r7, #1528	; 0x5f8
    b9c0:	f5a3 735a 	sub.w	r3, r3, #872	; 0x368
    b9c4:	6812      	ldr	r2, [r2, #0]
    b9c6:	681b      	ldr	r3, [r3, #0]
    b9c8:	429a      	cmp	r2, r3
    b9ca:	dd3d      	ble.n	ba48 <benchmark_body+0x3914>
    b9cc:	4b96      	ldr	r3, [pc, #600]	; (bc28 <benchmark_body+0x3af4>)
    b9ce:	68db      	ldr	r3, [r3, #12]
    b9d0:	4a95      	ldr	r2, [pc, #596]	; (bc28 <benchmark_body+0x3af4>)
    b9d2:	6013      	str	r3, [r2, #0]
    b9d4:	4b95      	ldr	r3, [pc, #596]	; (bc2c <benchmark_body+0x3af8>)
    b9d6:	681b      	ldr	r3, [r3, #0]
    b9d8:	3b04      	subs	r3, #4
    b9da:	4a94      	ldr	r2, [pc, #592]	; (bc2c <benchmark_body+0x3af8>)
    b9dc:	6013      	str	r3, [r2, #0]
    b9de:	f507 63bf 	add.w	r3, r7, #1528	; 0x5f8
    b9e2:	f5a3 735c 	sub.w	r3, r3, #880	; 0x370
    b9e6:	f507 62bf 	add.w	r2, r7, #1528	; 0x5f8
    b9ea:	f5a2 715a 	sub.w	r1, r2, #872	; 0x368
    b9ee:	f507 62bf 	add.w	r2, r7, #1528	; 0x5f8
    b9f2:	f5a2 725b 	sub.w	r2, r2, #876	; 0x36c
    b9f6:	6809      	ldr	r1, [r1, #0]
    b9f8:	6812      	ldr	r2, [r2, #0]
    b9fa:	440a      	add	r2, r1
    b9fc:	601a      	str	r2, [r3, #0]
    b9fe:	4b8c      	ldr	r3, [pc, #560]	; (bc30 <benchmark_body+0x3afc>)
    ba00:	681b      	ldr	r3, [r3, #0]
    ba02:	498c      	ldr	r1, [pc, #560]	; (bc34 <benchmark_body+0x3b00>)
    ba04:	f507 62bf 	add.w	r2, r7, #1528	; 0x5f8
    ba08:	f5a2 725a 	sub.w	r2, r2, #872	; 0x368
    ba0c:	6812      	ldr	r2, [r2, #0]
    ba0e:	f841 2023 	str.w	r2, [r1, r3, lsl #2]
    ba12:	4b87      	ldr	r3, [pc, #540]	; (bc30 <benchmark_body+0x3afc>)
    ba14:	681b      	ldr	r3, [r3, #0]
    ba16:	3301      	adds	r3, #1
    ba18:	4986      	ldr	r1, [pc, #536]	; (bc34 <benchmark_body+0x3b00>)
    ba1a:	f507 62bf 	add.w	r2, r7, #1528	; 0x5f8
    ba1e:	f5a2 725b 	sub.w	r2, r2, #876	; 0x36c
    ba22:	6812      	ldr	r2, [r2, #0]
    ba24:	f841 2023 	str.w	r2, [r1, r3, lsl #2]
    ba28:	4b81      	ldr	r3, [pc, #516]	; (bc30 <benchmark_body+0x3afc>)
    ba2a:	681b      	ldr	r3, [r3, #0]
    ba2c:	3302      	adds	r3, #2
    ba2e:	4981      	ldr	r1, [pc, #516]	; (bc34 <benchmark_body+0x3b00>)
    ba30:	f507 62bf 	add.w	r2, r7, #1528	; 0x5f8
    ba34:	f5a2 725c 	sub.w	r2, r2, #880	; 0x370
    ba38:	6812      	ldr	r2, [r2, #0]
    ba3a:	f841 2023 	str.w	r2, [r1, r3, lsl #2]
    ba3e:	4b7c      	ldr	r3, [pc, #496]	; (bc30 <benchmark_body+0x3afc>)
    ba40:	681b      	ldr	r3, [r3, #0]
    ba42:	3303      	adds	r3, #3
    ba44:	4a7a      	ldr	r2, [pc, #488]	; (bc30 <benchmark_body+0x3afc>)
    ba46:	6013      	str	r3, [r2, #0]
    ba48:	4b78      	ldr	r3, [pc, #480]	; (bc2c <benchmark_body+0x3af8>)
    ba4a:	681b      	ldr	r3, [r3, #0]
    ba4c:	2b04      	cmp	r3, #4
    ba4e:	dd63      	ble.n	bb18 <benchmark_body+0x39e4>
    ba50:	4b77      	ldr	r3, [pc, #476]	; (bc30 <benchmark_body+0x3afc>)
    ba52:	681b      	ldr	r3, [r3, #0]
    ba54:	2b03      	cmp	r3, #3
    ba56:	dc5f      	bgt.n	bb18 <benchmark_body+0x39e4>
    ba58:	4b73      	ldr	r3, [pc, #460]	; (bc28 <benchmark_body+0x3af4>)
    ba5a:	685a      	ldr	r2, [r3, #4]
    ba5c:	4b72      	ldr	r3, [pc, #456]	; (bc28 <benchmark_body+0x3af4>)
    ba5e:	691b      	ldr	r3, [r3, #16]
    ba60:	429a      	cmp	r2, r3
    ba62:	d159      	bne.n	bb18 <benchmark_body+0x39e4>
    ba64:	4b70      	ldr	r3, [pc, #448]	; (bc28 <benchmark_body+0x3af4>)
    ba66:	685a      	ldr	r2, [r3, #4]
    ba68:	4b6f      	ldr	r3, [pc, #444]	; (bc28 <benchmark_body+0x3af4>)
    ba6a:	68db      	ldr	r3, [r3, #12]
    ba6c:	429a      	cmp	r2, r3
    ba6e:	d153      	bne.n	bb18 <benchmark_body+0x39e4>
    ba70:	f507 63bf 	add.w	r3, r7, #1528	; 0x5f8
    ba74:	f5a3 735d 	sub.w	r3, r3, #884	; 0x374
    ba78:	4a6b      	ldr	r2, [pc, #428]	; (bc28 <benchmark_body+0x3af4>)
    ba7a:	6892      	ldr	r2, [r2, #8]
    ba7c:	601a      	str	r2, [r3, #0]
    ba7e:	f507 63bf 	add.w	r3, r7, #1528	; 0x5f8
    ba82:	f5a3 735e 	sub.w	r3, r3, #888	; 0x378
    ba86:	4a68      	ldr	r2, [pc, #416]	; (bc28 <benchmark_body+0x3af4>)
    ba88:	6852      	ldr	r2, [r2, #4]
    ba8a:	601a      	str	r2, [r3, #0]
    ba8c:	f507 63bf 	add.w	r3, r7, #1528	; 0x5f8
    ba90:	f5a3 725e 	sub.w	r2, r3, #888	; 0x378
    ba94:	f507 63bf 	add.w	r3, r7, #1528	; 0x5f8
    ba98:	f5a3 735d 	sub.w	r3, r3, #884	; 0x374
    ba9c:	6812      	ldr	r2, [r2, #0]
    ba9e:	681b      	ldr	r3, [r3, #0]
    baa0:	429a      	cmp	r2, r3
    baa2:	dd39      	ble.n	bb18 <benchmark_body+0x39e4>
    baa4:	4b61      	ldr	r3, [pc, #388]	; (bc2c <benchmark_body+0x3af8>)
    baa6:	681b      	ldr	r3, [r3, #0]
    baa8:	3b04      	subs	r3, #4
    baaa:	4a60      	ldr	r2, [pc, #384]	; (bc2c <benchmark_body+0x3af8>)
    baac:	6013      	str	r3, [r2, #0]
    baae:	f507 63bf 	add.w	r3, r7, #1528	; 0x5f8
    bab2:	f5a3 735f 	sub.w	r3, r3, #892	; 0x37c
    bab6:	f507 62bf 	add.w	r2, r7, #1528	; 0x5f8
    baba:	f5a2 715d 	sub.w	r1, r2, #884	; 0x374
    babe:	f507 62bf 	add.w	r2, r7, #1528	; 0x5f8
    bac2:	f5a2 725e 	sub.w	r2, r2, #888	; 0x378
    bac6:	6809      	ldr	r1, [r1, #0]
    bac8:	6812      	ldr	r2, [r2, #0]
    baca:	440a      	add	r2, r1
    bacc:	601a      	str	r2, [r3, #0]
    bace:	4b58      	ldr	r3, [pc, #352]	; (bc30 <benchmark_body+0x3afc>)
    bad0:	681b      	ldr	r3, [r3, #0]
    bad2:	4958      	ldr	r1, [pc, #352]	; (bc34 <benchmark_body+0x3b00>)
    bad4:	f507 62bf 	add.w	r2, r7, #1528	; 0x5f8
    bad8:	f5a2 725d 	sub.w	r2, r2, #884	; 0x374
    badc:	6812      	ldr	r2, [r2, #0]
    bade:	f841 2023 	str.w	r2, [r1, r3, lsl #2]
    bae2:	4b53      	ldr	r3, [pc, #332]	; (bc30 <benchmark_body+0x3afc>)
    bae4:	681b      	ldr	r3, [r3, #0]
    bae6:	3301      	adds	r3, #1
    bae8:	4952      	ldr	r1, [pc, #328]	; (bc34 <benchmark_body+0x3b00>)
    baea:	f507 62bf 	add.w	r2, r7, #1528	; 0x5f8
    baee:	f5a2 725e 	sub.w	r2, r2, #888	; 0x378
    baf2:	6812      	ldr	r2, [r2, #0]
    baf4:	f841 2023 	str.w	r2, [r1, r3, lsl #2]
    baf8:	4b4d      	ldr	r3, [pc, #308]	; (bc30 <benchmark_body+0x3afc>)
    bafa:	681b      	ldr	r3, [r3, #0]
    bafc:	3302      	adds	r3, #2
    bafe:	494d      	ldr	r1, [pc, #308]	; (bc34 <benchmark_body+0x3b00>)
    bb00:	f507 62bf 	add.w	r2, r7, #1528	; 0x5f8
    bb04:	f5a2 725f 	sub.w	r2, r2, #892	; 0x37c
    bb08:	6812      	ldr	r2, [r2, #0]
    bb0a:	f841 2023 	str.w	r2, [r1, r3, lsl #2]
    bb0e:	4b48      	ldr	r3, [pc, #288]	; (bc30 <benchmark_body+0x3afc>)
    bb10:	681b      	ldr	r3, [r3, #0]
    bb12:	3303      	adds	r3, #3
    bb14:	4a46      	ldr	r2, [pc, #280]	; (bc30 <benchmark_body+0x3afc>)
    bb16:	6013      	str	r3, [r2, #0]
    bb18:	4b44      	ldr	r3, [pc, #272]	; (bc2c <benchmark_body+0x3af8>)
    bb1a:	681b      	ldr	r3, [r3, #0]
    bb1c:	2b04      	cmp	r3, #4
    bb1e:	dd67      	ble.n	bbf0 <benchmark_body+0x3abc>
    bb20:	4b43      	ldr	r3, [pc, #268]	; (bc30 <benchmark_body+0x3afc>)
    bb22:	681b      	ldr	r3, [r3, #0]
    bb24:	2b03      	cmp	r3, #3
    bb26:	dc63      	bgt.n	bbf0 <benchmark_body+0x3abc>
    bb28:	4b3f      	ldr	r3, [pc, #252]	; (bc28 <benchmark_body+0x3af4>)
    bb2a:	68da      	ldr	r2, [r3, #12]
    bb2c:	4b3e      	ldr	r3, [pc, #248]	; (bc28 <benchmark_body+0x3af4>)
    bb2e:	681b      	ldr	r3, [r3, #0]
    bb30:	429a      	cmp	r2, r3
    bb32:	d15d      	bne.n	bbf0 <benchmark_body+0x3abc>
    bb34:	4b3c      	ldr	r3, [pc, #240]	; (bc28 <benchmark_body+0x3af4>)
    bb36:	68da      	ldr	r2, [r3, #12]
    bb38:	4b3b      	ldr	r3, [pc, #236]	; (bc28 <benchmark_body+0x3af4>)
    bb3a:	691b      	ldr	r3, [r3, #16]
    bb3c:	429a      	cmp	r2, r3
    bb3e:	d157      	bne.n	bbf0 <benchmark_body+0x3abc>
    bb40:	f507 63bf 	add.w	r3, r7, #1528	; 0x5f8
    bb44:	f5a3 7360 	sub.w	r3, r3, #896	; 0x380
    bb48:	4a37      	ldr	r2, [pc, #220]	; (bc28 <benchmark_body+0x3af4>)
    bb4a:	6892      	ldr	r2, [r2, #8]
    bb4c:	601a      	str	r2, [r3, #0]
    bb4e:	f507 63bf 	add.w	r3, r7, #1528	; 0x5f8
    bb52:	f5a3 7361 	sub.w	r3, r3, #900	; 0x384
    bb56:	4a34      	ldr	r2, [pc, #208]	; (bc28 <benchmark_body+0x3af4>)
    bb58:	68d2      	ldr	r2, [r2, #12]
    bb5a:	601a      	str	r2, [r3, #0]
    bb5c:	f507 63bf 	add.w	r3, r7, #1528	; 0x5f8
    bb60:	f5a3 7261 	sub.w	r2, r3, #900	; 0x384
    bb64:	f507 63bf 	add.w	r3, r7, #1528	; 0x5f8
    bb68:	f5a3 7360 	sub.w	r3, r3, #896	; 0x380
    bb6c:	6812      	ldr	r2, [r2, #0]
    bb6e:	681b      	ldr	r3, [r3, #0]
    bb70:	429a      	cmp	r2, r3
    bb72:	dd3d      	ble.n	bbf0 <benchmark_body+0x3abc>
    bb74:	4b2c      	ldr	r3, [pc, #176]	; (bc28 <benchmark_body+0x3af4>)
    bb76:	685b      	ldr	r3, [r3, #4]
    bb78:	4a2b      	ldr	r2, [pc, #172]	; (bc28 <benchmark_body+0x3af4>)
    bb7a:	6013      	str	r3, [r2, #0]
    bb7c:	4b2b      	ldr	r3, [pc, #172]	; (bc2c <benchmark_body+0x3af8>)
    bb7e:	681b      	ldr	r3, [r3, #0]
    bb80:	3b04      	subs	r3, #4
    bb82:	4a2a      	ldr	r2, [pc, #168]	; (bc2c <benchmark_body+0x3af8>)
    bb84:	6013      	str	r3, [r2, #0]
    bb86:	f507 63bf 	add.w	r3, r7, #1528	; 0x5f8
    bb8a:	f5a3 7362 	sub.w	r3, r3, #904	; 0x388
    bb8e:	f507 62bf 	add.w	r2, r7, #1528	; 0x5f8
    bb92:	f5a2 7160 	sub.w	r1, r2, #896	; 0x380
    bb96:	f507 62bf 	add.w	r2, r7, #1528	; 0x5f8
    bb9a:	f5a2 7261 	sub.w	r2, r2, #900	; 0x384
    bb9e:	6809      	ldr	r1, [r1, #0]
    bba0:	6812      	ldr	r2, [r2, #0]
    bba2:	440a      	add	r2, r1
    bba4:	601a      	str	r2, [r3, #0]
    bba6:	4b22      	ldr	r3, [pc, #136]	; (bc30 <benchmark_body+0x3afc>)
    bba8:	681b      	ldr	r3, [r3, #0]
    bbaa:	4922      	ldr	r1, [pc, #136]	; (bc34 <benchmark_body+0x3b00>)
    bbac:	f507 62bf 	add.w	r2, r7, #1528	; 0x5f8
    bbb0:	f5a2 7260 	sub.w	r2, r2, #896	; 0x380
    bbb4:	6812      	ldr	r2, [r2, #0]
    bbb6:	f841 2023 	str.w	r2, [r1, r3, lsl #2]
    bbba:	4b1d      	ldr	r3, [pc, #116]	; (bc30 <benchmark_body+0x3afc>)
    bbbc:	681b      	ldr	r3, [r3, #0]
    bbbe:	3301      	adds	r3, #1
    bbc0:	491c      	ldr	r1, [pc, #112]	; (bc34 <benchmark_body+0x3b00>)
    bbc2:	f507 62bf 	add.w	r2, r7, #1528	; 0x5f8
    bbc6:	f5a2 7261 	sub.w	r2, r2, #900	; 0x384
    bbca:	6812      	ldr	r2, [r2, #0]
    bbcc:	f841 2023 	str.w	r2, [r1, r3, lsl #2]
    bbd0:	4b17      	ldr	r3, [pc, #92]	; (bc30 <benchmark_body+0x3afc>)
    bbd2:	681b      	ldr	r3, [r3, #0]
    bbd4:	3302      	adds	r3, #2
    bbd6:	4917      	ldr	r1, [pc, #92]	; (bc34 <benchmark_body+0x3b00>)
    bbd8:	f507 62bf 	add.w	r2, r7, #1528	; 0x5f8
    bbdc:	f5a2 7262 	sub.w	r2, r2, #904	; 0x388
    bbe0:	6812      	ldr	r2, [r2, #0]
    bbe2:	f841 2023 	str.w	r2, [r1, r3, lsl #2]
    bbe6:	4b12      	ldr	r3, [pc, #72]	; (bc30 <benchmark_body+0x3afc>)
    bbe8:	681b      	ldr	r3, [r3, #0]
    bbea:	3303      	adds	r3, #3
    bbec:	4a10      	ldr	r2, [pc, #64]	; (bc30 <benchmark_body+0x3afc>)
    bbee:	6013      	str	r3, [r2, #0]
    bbf0:	4b0e      	ldr	r3, [pc, #56]	; (bc2c <benchmark_body+0x3af8>)
    bbf2:	681b      	ldr	r3, [r3, #0]
    bbf4:	2b04      	cmp	r3, #4
    bbf6:	dd6d      	ble.n	bcd4 <benchmark_body+0x3ba0>
    bbf8:	4b0d      	ldr	r3, [pc, #52]	; (bc30 <benchmark_body+0x3afc>)
    bbfa:	681b      	ldr	r3, [r3, #0]
    bbfc:	2b03      	cmp	r3, #3
    bbfe:	dc69      	bgt.n	bcd4 <benchmark_body+0x3ba0>
    bc00:	4b09      	ldr	r3, [pc, #36]	; (bc28 <benchmark_body+0x3af4>)
    bc02:	68da      	ldr	r2, [r3, #12]
    bc04:	4b08      	ldr	r3, [pc, #32]	; (bc28 <benchmark_body+0x3af4>)
    bc06:	685b      	ldr	r3, [r3, #4]
    bc08:	429a      	cmp	r2, r3
    bc0a:	d163      	bne.n	bcd4 <benchmark_body+0x3ba0>
    bc0c:	4b06      	ldr	r3, [pc, #24]	; (bc28 <benchmark_body+0x3af4>)
    bc0e:	68da      	ldr	r2, [r3, #12]
    bc10:	4b05      	ldr	r3, [pc, #20]	; (bc28 <benchmark_body+0x3af4>)
    bc12:	691b      	ldr	r3, [r3, #16]
    bc14:	429a      	cmp	r2, r3
    bc16:	d15d      	bne.n	bcd4 <benchmark_body+0x3ba0>
    bc18:	f507 63bf 	add.w	r3, r7, #1528	; 0x5f8
    bc1c:	f5a3 7363 	sub.w	r3, r3, #908	; 0x38c
    bc20:	4a01      	ldr	r2, [pc, #4]	; (bc28 <benchmark_body+0x3af4>)
    bc22:	6892      	ldr	r2, [r2, #8]
    bc24:	e008      	b.n	bc38 <benchmark_body+0x3b04>
    bc26:	bf00      	nop
    bc28:	0001f104 	.word	0x0001f104
    bc2c:	0001ecac 	.word	0x0001ecac
    bc30:	0001f118 	.word	0x0001f118
    bc34:	0001f11c 	.word	0x0001f11c
    bc38:	601a      	str	r2, [r3, #0]
    bc3a:	f507 63bf 	add.w	r3, r7, #1528	; 0x5f8
    bc3e:	f5a3 7364 	sub.w	r3, r3, #912	; 0x390
    bc42:	4aa7      	ldr	r2, [pc, #668]	; (bee0 <benchmark_body+0x3dac>)
    bc44:	68d2      	ldr	r2, [r2, #12]
    bc46:	601a      	str	r2, [r3, #0]
    bc48:	f507 63bf 	add.w	r3, r7, #1528	; 0x5f8
    bc4c:	f5a3 7264 	sub.w	r2, r3, #912	; 0x390
    bc50:	f507 63bf 	add.w	r3, r7, #1528	; 0x5f8
    bc54:	f5a3 7363 	sub.w	r3, r3, #908	; 0x38c
    bc58:	6812      	ldr	r2, [r2, #0]
    bc5a:	681b      	ldr	r3, [r3, #0]
    bc5c:	429a      	cmp	r2, r3
    bc5e:	dd39      	ble.n	bcd4 <benchmark_body+0x3ba0>
    bc60:	4ba0      	ldr	r3, [pc, #640]	; (bee4 <benchmark_body+0x3db0>)
    bc62:	681b      	ldr	r3, [r3, #0]
    bc64:	3b04      	subs	r3, #4
    bc66:	4a9f      	ldr	r2, [pc, #636]	; (bee4 <benchmark_body+0x3db0>)
    bc68:	6013      	str	r3, [r2, #0]
    bc6a:	f507 63bf 	add.w	r3, r7, #1528	; 0x5f8
    bc6e:	f5a3 7365 	sub.w	r3, r3, #916	; 0x394
    bc72:	f507 62bf 	add.w	r2, r7, #1528	; 0x5f8
    bc76:	f5a2 7163 	sub.w	r1, r2, #908	; 0x38c
    bc7a:	f507 62bf 	add.w	r2, r7, #1528	; 0x5f8
    bc7e:	f5a2 7264 	sub.w	r2, r2, #912	; 0x390
    bc82:	6809      	ldr	r1, [r1, #0]
    bc84:	6812      	ldr	r2, [r2, #0]
    bc86:	440a      	add	r2, r1
    bc88:	601a      	str	r2, [r3, #0]
    bc8a:	4b97      	ldr	r3, [pc, #604]	; (bee8 <benchmark_body+0x3db4>)
    bc8c:	681b      	ldr	r3, [r3, #0]
    bc8e:	4997      	ldr	r1, [pc, #604]	; (beec <benchmark_body+0x3db8>)
    bc90:	f507 62bf 	add.w	r2, r7, #1528	; 0x5f8
    bc94:	f5a2 7263 	sub.w	r2, r2, #908	; 0x38c
    bc98:	6812      	ldr	r2, [r2, #0]
    bc9a:	f841 2023 	str.w	r2, [r1, r3, lsl #2]
    bc9e:	4b92      	ldr	r3, [pc, #584]	; (bee8 <benchmark_body+0x3db4>)
    bca0:	681b      	ldr	r3, [r3, #0]
    bca2:	3301      	adds	r3, #1
    bca4:	4991      	ldr	r1, [pc, #580]	; (beec <benchmark_body+0x3db8>)
    bca6:	f507 62bf 	add.w	r2, r7, #1528	; 0x5f8
    bcaa:	f5a2 7264 	sub.w	r2, r2, #912	; 0x390
    bcae:	6812      	ldr	r2, [r2, #0]
    bcb0:	f841 2023 	str.w	r2, [r1, r3, lsl #2]
    bcb4:	4b8c      	ldr	r3, [pc, #560]	; (bee8 <benchmark_body+0x3db4>)
    bcb6:	681b      	ldr	r3, [r3, #0]
    bcb8:	3302      	adds	r3, #2
    bcba:	498c      	ldr	r1, [pc, #560]	; (beec <benchmark_body+0x3db8>)
    bcbc:	f507 62bf 	add.w	r2, r7, #1528	; 0x5f8
    bcc0:	f5a2 7265 	sub.w	r2, r2, #916	; 0x394
    bcc4:	6812      	ldr	r2, [r2, #0]
    bcc6:	f841 2023 	str.w	r2, [r1, r3, lsl #2]
    bcca:	4b87      	ldr	r3, [pc, #540]	; (bee8 <benchmark_body+0x3db4>)
    bccc:	681b      	ldr	r3, [r3, #0]
    bcce:	3303      	adds	r3, #3
    bcd0:	4a85      	ldr	r2, [pc, #532]	; (bee8 <benchmark_body+0x3db4>)
    bcd2:	6013      	str	r3, [r2, #0]
    bcd4:	4b83      	ldr	r3, [pc, #524]	; (bee4 <benchmark_body+0x3db0>)
    bcd6:	681b      	ldr	r3, [r3, #0]
    bcd8:	2b04      	cmp	r3, #4
    bcda:	dd67      	ble.n	bdac <benchmark_body+0x3c78>
    bcdc:	4b82      	ldr	r3, [pc, #520]	; (bee8 <benchmark_body+0x3db4>)
    bcde:	681b      	ldr	r3, [r3, #0]
    bce0:	2b03      	cmp	r3, #3
    bce2:	dc63      	bgt.n	bdac <benchmark_body+0x3c78>
    bce4:	4b7e      	ldr	r3, [pc, #504]	; (bee0 <benchmark_body+0x3dac>)
    bce6:	68da      	ldr	r2, [r3, #12]
    bce8:	4b7d      	ldr	r3, [pc, #500]	; (bee0 <benchmark_body+0x3dac>)
    bcea:	691b      	ldr	r3, [r3, #16]
    bcec:	429a      	cmp	r2, r3
    bcee:	d15d      	bne.n	bdac <benchmark_body+0x3c78>
    bcf0:	4b7b      	ldr	r3, [pc, #492]	; (bee0 <benchmark_body+0x3dac>)
    bcf2:	68da      	ldr	r2, [r3, #12]
    bcf4:	4b7a      	ldr	r3, [pc, #488]	; (bee0 <benchmark_body+0x3dac>)
    bcf6:	681b      	ldr	r3, [r3, #0]
    bcf8:	429a      	cmp	r2, r3
    bcfa:	d157      	bne.n	bdac <benchmark_body+0x3c78>
    bcfc:	f507 63bf 	add.w	r3, r7, #1528	; 0x5f8
    bd00:	f5a3 7366 	sub.w	r3, r3, #920	; 0x398
    bd04:	4a76      	ldr	r2, [pc, #472]	; (bee0 <benchmark_body+0x3dac>)
    bd06:	6892      	ldr	r2, [r2, #8]
    bd08:	601a      	str	r2, [r3, #0]
    bd0a:	f507 63bf 	add.w	r3, r7, #1528	; 0x5f8
    bd0e:	f5a3 7367 	sub.w	r3, r3, #924	; 0x39c
    bd12:	4a73      	ldr	r2, [pc, #460]	; (bee0 <benchmark_body+0x3dac>)
    bd14:	68d2      	ldr	r2, [r2, #12]
    bd16:	601a      	str	r2, [r3, #0]
    bd18:	f507 63bf 	add.w	r3, r7, #1528	; 0x5f8
    bd1c:	f5a3 7267 	sub.w	r2, r3, #924	; 0x39c
    bd20:	f507 63bf 	add.w	r3, r7, #1528	; 0x5f8
    bd24:	f5a3 7366 	sub.w	r3, r3, #920	; 0x398
    bd28:	6812      	ldr	r2, [r2, #0]
    bd2a:	681b      	ldr	r3, [r3, #0]
    bd2c:	429a      	cmp	r2, r3
    bd2e:	dd3d      	ble.n	bdac <benchmark_body+0x3c78>
    bd30:	4b6b      	ldr	r3, [pc, #428]	; (bee0 <benchmark_body+0x3dac>)
    bd32:	685b      	ldr	r3, [r3, #4]
    bd34:	4a6a      	ldr	r2, [pc, #424]	; (bee0 <benchmark_body+0x3dac>)
    bd36:	6013      	str	r3, [r2, #0]
    bd38:	4b6a      	ldr	r3, [pc, #424]	; (bee4 <benchmark_body+0x3db0>)
    bd3a:	681b      	ldr	r3, [r3, #0]
    bd3c:	3b04      	subs	r3, #4
    bd3e:	4a69      	ldr	r2, [pc, #420]	; (bee4 <benchmark_body+0x3db0>)
    bd40:	6013      	str	r3, [r2, #0]
    bd42:	f507 63bf 	add.w	r3, r7, #1528	; 0x5f8
    bd46:	f5a3 7368 	sub.w	r3, r3, #928	; 0x3a0
    bd4a:	f507 62bf 	add.w	r2, r7, #1528	; 0x5f8
    bd4e:	f5a2 7166 	sub.w	r1, r2, #920	; 0x398
    bd52:	f507 62bf 	add.w	r2, r7, #1528	; 0x5f8
    bd56:	f5a2 7267 	sub.w	r2, r2, #924	; 0x39c
    bd5a:	6809      	ldr	r1, [r1, #0]
    bd5c:	6812      	ldr	r2, [r2, #0]
    bd5e:	440a      	add	r2, r1
    bd60:	601a      	str	r2, [r3, #0]
    bd62:	4b61      	ldr	r3, [pc, #388]	; (bee8 <benchmark_body+0x3db4>)
    bd64:	681b      	ldr	r3, [r3, #0]
    bd66:	4961      	ldr	r1, [pc, #388]	; (beec <benchmark_body+0x3db8>)
    bd68:	f507 62bf 	add.w	r2, r7, #1528	; 0x5f8
    bd6c:	f5a2 7266 	sub.w	r2, r2, #920	; 0x398
    bd70:	6812      	ldr	r2, [r2, #0]
    bd72:	f841 2023 	str.w	r2, [r1, r3, lsl #2]
    bd76:	4b5c      	ldr	r3, [pc, #368]	; (bee8 <benchmark_body+0x3db4>)
    bd78:	681b      	ldr	r3, [r3, #0]
    bd7a:	3301      	adds	r3, #1
    bd7c:	495b      	ldr	r1, [pc, #364]	; (beec <benchmark_body+0x3db8>)
    bd7e:	f507 62bf 	add.w	r2, r7, #1528	; 0x5f8
    bd82:	f5a2 7267 	sub.w	r2, r2, #924	; 0x39c
    bd86:	6812      	ldr	r2, [r2, #0]
    bd88:	f841 2023 	str.w	r2, [r1, r3, lsl #2]
    bd8c:	4b56      	ldr	r3, [pc, #344]	; (bee8 <benchmark_body+0x3db4>)
    bd8e:	681b      	ldr	r3, [r3, #0]
    bd90:	3302      	adds	r3, #2
    bd92:	4956      	ldr	r1, [pc, #344]	; (beec <benchmark_body+0x3db8>)
    bd94:	f507 62bf 	add.w	r2, r7, #1528	; 0x5f8
    bd98:	f5a2 7268 	sub.w	r2, r2, #928	; 0x3a0
    bd9c:	6812      	ldr	r2, [r2, #0]
    bd9e:	f841 2023 	str.w	r2, [r1, r3, lsl #2]
    bda2:	4b51      	ldr	r3, [pc, #324]	; (bee8 <benchmark_body+0x3db4>)
    bda4:	681b      	ldr	r3, [r3, #0]
    bda6:	3303      	adds	r3, #3
    bda8:	4a4f      	ldr	r2, [pc, #316]	; (bee8 <benchmark_body+0x3db4>)
    bdaa:	6013      	str	r3, [r2, #0]
    bdac:	4b4d      	ldr	r3, [pc, #308]	; (bee4 <benchmark_body+0x3db0>)
    bdae:	681b      	ldr	r3, [r3, #0]
    bdb0:	2b04      	cmp	r3, #4
    bdb2:	dd63      	ble.n	be7c <benchmark_body+0x3d48>
    bdb4:	4b4c      	ldr	r3, [pc, #304]	; (bee8 <benchmark_body+0x3db4>)
    bdb6:	681b      	ldr	r3, [r3, #0]
    bdb8:	2b03      	cmp	r3, #3
    bdba:	dc5f      	bgt.n	be7c <benchmark_body+0x3d48>
    bdbc:	4b48      	ldr	r3, [pc, #288]	; (bee0 <benchmark_body+0x3dac>)
    bdbe:	68da      	ldr	r2, [r3, #12]
    bdc0:	4b47      	ldr	r3, [pc, #284]	; (bee0 <benchmark_body+0x3dac>)
    bdc2:	691b      	ldr	r3, [r3, #16]
    bdc4:	429a      	cmp	r2, r3
    bdc6:	d159      	bne.n	be7c <benchmark_body+0x3d48>
    bdc8:	4b45      	ldr	r3, [pc, #276]	; (bee0 <benchmark_body+0x3dac>)
    bdca:	68da      	ldr	r2, [r3, #12]
    bdcc:	4b44      	ldr	r3, [pc, #272]	; (bee0 <benchmark_body+0x3dac>)
    bdce:	685b      	ldr	r3, [r3, #4]
    bdd0:	429a      	cmp	r2, r3
    bdd2:	d153      	bne.n	be7c <benchmark_body+0x3d48>
    bdd4:	f507 63bf 	add.w	r3, r7, #1528	; 0x5f8
    bdd8:	f5a3 7369 	sub.w	r3, r3, #932	; 0x3a4
    bddc:	4a40      	ldr	r2, [pc, #256]	; (bee0 <benchmark_body+0x3dac>)
    bdde:	6892      	ldr	r2, [r2, #8]
    bde0:	601a      	str	r2, [r3, #0]
    bde2:	f507 63bf 	add.w	r3, r7, #1528	; 0x5f8
    bde6:	f5a3 736a 	sub.w	r3, r3, #936	; 0x3a8
    bdea:	4a3d      	ldr	r2, [pc, #244]	; (bee0 <benchmark_body+0x3dac>)
    bdec:	68d2      	ldr	r2, [r2, #12]
    bdee:	601a      	str	r2, [r3, #0]
    bdf0:	f507 63bf 	add.w	r3, r7, #1528	; 0x5f8
    bdf4:	f5a3 726a 	sub.w	r2, r3, #936	; 0x3a8
    bdf8:	f507 63bf 	add.w	r3, r7, #1528	; 0x5f8
    bdfc:	f5a3 7369 	sub.w	r3, r3, #932	; 0x3a4
    be00:	6812      	ldr	r2, [r2, #0]
    be02:	681b      	ldr	r3, [r3, #0]
    be04:	429a      	cmp	r2, r3
    be06:	dd39      	ble.n	be7c <benchmark_body+0x3d48>
    be08:	4b36      	ldr	r3, [pc, #216]	; (bee4 <benchmark_body+0x3db0>)
    be0a:	681b      	ldr	r3, [r3, #0]
    be0c:	3b04      	subs	r3, #4
    be0e:	4a35      	ldr	r2, [pc, #212]	; (bee4 <benchmark_body+0x3db0>)
    be10:	6013      	str	r3, [r2, #0]
    be12:	f507 63bf 	add.w	r3, r7, #1528	; 0x5f8
    be16:	f5a3 736b 	sub.w	r3, r3, #940	; 0x3ac
    be1a:	f507 62bf 	add.w	r2, r7, #1528	; 0x5f8
    be1e:	f5a2 7169 	sub.w	r1, r2, #932	; 0x3a4
    be22:	f507 62bf 	add.w	r2, r7, #1528	; 0x5f8
    be26:	f5a2 726a 	sub.w	r2, r2, #936	; 0x3a8
    be2a:	6809      	ldr	r1, [r1, #0]
    be2c:	6812      	ldr	r2, [r2, #0]
    be2e:	440a      	add	r2, r1
    be30:	601a      	str	r2, [r3, #0]
    be32:	4b2d      	ldr	r3, [pc, #180]	; (bee8 <benchmark_body+0x3db4>)
    be34:	681b      	ldr	r3, [r3, #0]
    be36:	492d      	ldr	r1, [pc, #180]	; (beec <benchmark_body+0x3db8>)
    be38:	f507 62bf 	add.w	r2, r7, #1528	; 0x5f8
    be3c:	f5a2 7269 	sub.w	r2, r2, #932	; 0x3a4
    be40:	6812      	ldr	r2, [r2, #0]
    be42:	f841 2023 	str.w	r2, [r1, r3, lsl #2]
    be46:	4b28      	ldr	r3, [pc, #160]	; (bee8 <benchmark_body+0x3db4>)
    be48:	681b      	ldr	r3, [r3, #0]
    be4a:	3301      	adds	r3, #1
    be4c:	4927      	ldr	r1, [pc, #156]	; (beec <benchmark_body+0x3db8>)
    be4e:	f507 62bf 	add.w	r2, r7, #1528	; 0x5f8
    be52:	f5a2 726a 	sub.w	r2, r2, #936	; 0x3a8
    be56:	6812      	ldr	r2, [r2, #0]
    be58:	f841 2023 	str.w	r2, [r1, r3, lsl #2]
    be5c:	4b22      	ldr	r3, [pc, #136]	; (bee8 <benchmark_body+0x3db4>)
    be5e:	681b      	ldr	r3, [r3, #0]
    be60:	3302      	adds	r3, #2
    be62:	4922      	ldr	r1, [pc, #136]	; (beec <benchmark_body+0x3db8>)
    be64:	f507 62bf 	add.w	r2, r7, #1528	; 0x5f8
    be68:	f5a2 726b 	sub.w	r2, r2, #940	; 0x3ac
    be6c:	6812      	ldr	r2, [r2, #0]
    be6e:	f841 2023 	str.w	r2, [r1, r3, lsl #2]
    be72:	4b1d      	ldr	r3, [pc, #116]	; (bee8 <benchmark_body+0x3db4>)
    be74:	681b      	ldr	r3, [r3, #0]
    be76:	3303      	adds	r3, #3
    be78:	4a1b      	ldr	r2, [pc, #108]	; (bee8 <benchmark_body+0x3db4>)
    be7a:	6013      	str	r3, [r2, #0]
    be7c:	4b19      	ldr	r3, [pc, #100]	; (bee4 <benchmark_body+0x3db0>)
    be7e:	681b      	ldr	r3, [r3, #0]
    be80:	2b04      	cmp	r3, #4
    be82:	dd71      	ble.n	bf68 <benchmark_body+0x3e34>
    be84:	4b18      	ldr	r3, [pc, #96]	; (bee8 <benchmark_body+0x3db4>)
    be86:	681b      	ldr	r3, [r3, #0]
    be88:	2b03      	cmp	r3, #3
    be8a:	dc6d      	bgt.n	bf68 <benchmark_body+0x3e34>
    be8c:	4b14      	ldr	r3, [pc, #80]	; (bee0 <benchmark_body+0x3dac>)
    be8e:	691a      	ldr	r2, [r3, #16]
    be90:	4b13      	ldr	r3, [pc, #76]	; (bee0 <benchmark_body+0x3dac>)
    be92:	681b      	ldr	r3, [r3, #0]
    be94:	429a      	cmp	r2, r3
    be96:	d167      	bne.n	bf68 <benchmark_body+0x3e34>
    be98:	4b11      	ldr	r3, [pc, #68]	; (bee0 <benchmark_body+0x3dac>)
    be9a:	691a      	ldr	r2, [r3, #16]
    be9c:	4b10      	ldr	r3, [pc, #64]	; (bee0 <benchmark_body+0x3dac>)
    be9e:	685b      	ldr	r3, [r3, #4]
    bea0:	429a      	cmp	r2, r3
    bea2:	d161      	bne.n	bf68 <benchmark_body+0x3e34>
    bea4:	f507 63bf 	add.w	r3, r7, #1528	; 0x5f8
    bea8:	f5a3 736c 	sub.w	r3, r3, #944	; 0x3b0
    beac:	4a0c      	ldr	r2, [pc, #48]	; (bee0 <benchmark_body+0x3dac>)
    beae:	6892      	ldr	r2, [r2, #8]
    beb0:	601a      	str	r2, [r3, #0]
    beb2:	f507 63bf 	add.w	r3, r7, #1528	; 0x5f8
    beb6:	f5a3 736d 	sub.w	r3, r3, #948	; 0x3b4
    beba:	4a09      	ldr	r2, [pc, #36]	; (bee0 <benchmark_body+0x3dac>)
    bebc:	6912      	ldr	r2, [r2, #16]
    bebe:	601a      	str	r2, [r3, #0]
    bec0:	f507 63bf 	add.w	r3, r7, #1528	; 0x5f8
    bec4:	f5a3 726d 	sub.w	r2, r3, #948	; 0x3b4
    bec8:	f507 63bf 	add.w	r3, r7, #1528	; 0x5f8
    becc:	f5a3 736c 	sub.w	r3, r3, #944	; 0x3b0
    bed0:	6812      	ldr	r2, [r2, #0]
    bed2:	681b      	ldr	r3, [r3, #0]
    bed4:	429a      	cmp	r2, r3
    bed6:	dd47      	ble.n	bf68 <benchmark_body+0x3e34>
    bed8:	4b01      	ldr	r3, [pc, #4]	; (bee0 <benchmark_body+0x3dac>)
    beda:	68db      	ldr	r3, [r3, #12]
    bedc:	e008      	b.n	bef0 <benchmark_body+0x3dbc>
    bede:	bf00      	nop
    bee0:	0001f104 	.word	0x0001f104
    bee4:	0001ecac 	.word	0x0001ecac
    bee8:	0001f118 	.word	0x0001f118
    beec:	0001f11c 	.word	0x0001f11c
    bef0:	4aa7      	ldr	r2, [pc, #668]	; (c190 <benchmark_body+0x405c>)
    bef2:	6013      	str	r3, [r2, #0]
    bef4:	4ba7      	ldr	r3, [pc, #668]	; (c194 <benchmark_body+0x4060>)
    bef6:	681b      	ldr	r3, [r3, #0]
    bef8:	3b04      	subs	r3, #4
    befa:	4aa6      	ldr	r2, [pc, #664]	; (c194 <benchmark_body+0x4060>)
    befc:	6013      	str	r3, [r2, #0]
    befe:	f507 63bf 	add.w	r3, r7, #1528	; 0x5f8
    bf02:	f5a3 736e 	sub.w	r3, r3, #952	; 0x3b8
    bf06:	f507 62bf 	add.w	r2, r7, #1528	; 0x5f8
    bf0a:	f5a2 716c 	sub.w	r1, r2, #944	; 0x3b0
    bf0e:	f507 62bf 	add.w	r2, r7, #1528	; 0x5f8
    bf12:	f5a2 726d 	sub.w	r2, r2, #948	; 0x3b4
    bf16:	6809      	ldr	r1, [r1, #0]
    bf18:	6812      	ldr	r2, [r2, #0]
    bf1a:	440a      	add	r2, r1
    bf1c:	601a      	str	r2, [r3, #0]
    bf1e:	4b9e      	ldr	r3, [pc, #632]	; (c198 <benchmark_body+0x4064>)
    bf20:	681b      	ldr	r3, [r3, #0]
    bf22:	499e      	ldr	r1, [pc, #632]	; (c19c <benchmark_body+0x4068>)
    bf24:	f507 62bf 	add.w	r2, r7, #1528	; 0x5f8
    bf28:	f5a2 726c 	sub.w	r2, r2, #944	; 0x3b0
    bf2c:	6812      	ldr	r2, [r2, #0]
    bf2e:	f841 2023 	str.w	r2, [r1, r3, lsl #2]
    bf32:	4b99      	ldr	r3, [pc, #612]	; (c198 <benchmark_body+0x4064>)
    bf34:	681b      	ldr	r3, [r3, #0]
    bf36:	3301      	adds	r3, #1
    bf38:	4998      	ldr	r1, [pc, #608]	; (c19c <benchmark_body+0x4068>)
    bf3a:	f507 62bf 	add.w	r2, r7, #1528	; 0x5f8
    bf3e:	f5a2 726d 	sub.w	r2, r2, #948	; 0x3b4
    bf42:	6812      	ldr	r2, [r2, #0]
    bf44:	f841 2023 	str.w	r2, [r1, r3, lsl #2]
    bf48:	4b93      	ldr	r3, [pc, #588]	; (c198 <benchmark_body+0x4064>)
    bf4a:	681b      	ldr	r3, [r3, #0]
    bf4c:	3302      	adds	r3, #2
    bf4e:	4993      	ldr	r1, [pc, #588]	; (c19c <benchmark_body+0x4068>)
    bf50:	f507 62bf 	add.w	r2, r7, #1528	; 0x5f8
    bf54:	f5a2 726e 	sub.w	r2, r2, #952	; 0x3b8
    bf58:	6812      	ldr	r2, [r2, #0]
    bf5a:	f841 2023 	str.w	r2, [r1, r3, lsl #2]
    bf5e:	4b8e      	ldr	r3, [pc, #568]	; (c198 <benchmark_body+0x4064>)
    bf60:	681b      	ldr	r3, [r3, #0]
    bf62:	3303      	adds	r3, #3
    bf64:	4a8c      	ldr	r2, [pc, #560]	; (c198 <benchmark_body+0x4064>)
    bf66:	6013      	str	r3, [r2, #0]
    bf68:	4b8a      	ldr	r3, [pc, #552]	; (c194 <benchmark_body+0x4060>)
    bf6a:	681b      	ldr	r3, [r3, #0]
    bf6c:	2b04      	cmp	r3, #4
    bf6e:	dd67      	ble.n	c040 <benchmark_body+0x3f0c>
    bf70:	4b89      	ldr	r3, [pc, #548]	; (c198 <benchmark_body+0x4064>)
    bf72:	681b      	ldr	r3, [r3, #0]
    bf74:	2b03      	cmp	r3, #3
    bf76:	dc63      	bgt.n	c040 <benchmark_body+0x3f0c>
    bf78:	4b85      	ldr	r3, [pc, #532]	; (c190 <benchmark_body+0x405c>)
    bf7a:	691a      	ldr	r2, [r3, #16]
    bf7c:	4b84      	ldr	r3, [pc, #528]	; (c190 <benchmark_body+0x405c>)
    bf7e:	681b      	ldr	r3, [r3, #0]
    bf80:	429a      	cmp	r2, r3
    bf82:	d15d      	bne.n	c040 <benchmark_body+0x3f0c>
    bf84:	4b82      	ldr	r3, [pc, #520]	; (c190 <benchmark_body+0x405c>)
    bf86:	691a      	ldr	r2, [r3, #16]
    bf88:	4b81      	ldr	r3, [pc, #516]	; (c190 <benchmark_body+0x405c>)
    bf8a:	68db      	ldr	r3, [r3, #12]
    bf8c:	429a      	cmp	r2, r3
    bf8e:	d157      	bne.n	c040 <benchmark_body+0x3f0c>
    bf90:	f507 63bf 	add.w	r3, r7, #1528	; 0x5f8
    bf94:	f5a3 736f 	sub.w	r3, r3, #956	; 0x3bc
    bf98:	4a7d      	ldr	r2, [pc, #500]	; (c190 <benchmark_body+0x405c>)
    bf9a:	6892      	ldr	r2, [r2, #8]
    bf9c:	601a      	str	r2, [r3, #0]
    bf9e:	f507 63bf 	add.w	r3, r7, #1528	; 0x5f8
    bfa2:	f5a3 7370 	sub.w	r3, r3, #960	; 0x3c0
    bfa6:	4a7a      	ldr	r2, [pc, #488]	; (c190 <benchmark_body+0x405c>)
    bfa8:	6912      	ldr	r2, [r2, #16]
    bfaa:	601a      	str	r2, [r3, #0]
    bfac:	f507 63bf 	add.w	r3, r7, #1528	; 0x5f8
    bfb0:	f5a3 7270 	sub.w	r2, r3, #960	; 0x3c0
    bfb4:	f507 63bf 	add.w	r3, r7, #1528	; 0x5f8
    bfb8:	f5a3 736f 	sub.w	r3, r3, #956	; 0x3bc
    bfbc:	6812      	ldr	r2, [r2, #0]
    bfbe:	681b      	ldr	r3, [r3, #0]
    bfc0:	429a      	cmp	r2, r3
    bfc2:	dd3d      	ble.n	c040 <benchmark_body+0x3f0c>
    bfc4:	4b72      	ldr	r3, [pc, #456]	; (c190 <benchmark_body+0x405c>)
    bfc6:	685b      	ldr	r3, [r3, #4]
    bfc8:	4a71      	ldr	r2, [pc, #452]	; (c190 <benchmark_body+0x405c>)
    bfca:	6013      	str	r3, [r2, #0]
    bfcc:	4b71      	ldr	r3, [pc, #452]	; (c194 <benchmark_body+0x4060>)
    bfce:	681b      	ldr	r3, [r3, #0]
    bfd0:	3b04      	subs	r3, #4
    bfd2:	4a70      	ldr	r2, [pc, #448]	; (c194 <benchmark_body+0x4060>)
    bfd4:	6013      	str	r3, [r2, #0]
    bfd6:	f507 63bf 	add.w	r3, r7, #1528	; 0x5f8
    bfda:	f5a3 7371 	sub.w	r3, r3, #964	; 0x3c4
    bfde:	f507 62bf 	add.w	r2, r7, #1528	; 0x5f8
    bfe2:	f5a2 716f 	sub.w	r1, r2, #956	; 0x3bc
    bfe6:	f507 62bf 	add.w	r2, r7, #1528	; 0x5f8
    bfea:	f5a2 7270 	sub.w	r2, r2, #960	; 0x3c0
    bfee:	6809      	ldr	r1, [r1, #0]
    bff0:	6812      	ldr	r2, [r2, #0]
    bff2:	440a      	add	r2, r1
    bff4:	601a      	str	r2, [r3, #0]
    bff6:	4b68      	ldr	r3, [pc, #416]	; (c198 <benchmark_body+0x4064>)
    bff8:	681b      	ldr	r3, [r3, #0]
    bffa:	4968      	ldr	r1, [pc, #416]	; (c19c <benchmark_body+0x4068>)
    bffc:	f507 62bf 	add.w	r2, r7, #1528	; 0x5f8
    c000:	f5a2 726f 	sub.w	r2, r2, #956	; 0x3bc
    c004:	6812      	ldr	r2, [r2, #0]
    c006:	f841 2023 	str.w	r2, [r1, r3, lsl #2]
    c00a:	4b63      	ldr	r3, [pc, #396]	; (c198 <benchmark_body+0x4064>)
    c00c:	681b      	ldr	r3, [r3, #0]
    c00e:	3301      	adds	r3, #1
    c010:	4962      	ldr	r1, [pc, #392]	; (c19c <benchmark_body+0x4068>)
    c012:	f507 62bf 	add.w	r2, r7, #1528	; 0x5f8
    c016:	f5a2 7270 	sub.w	r2, r2, #960	; 0x3c0
    c01a:	6812      	ldr	r2, [r2, #0]
    c01c:	f841 2023 	str.w	r2, [r1, r3, lsl #2]
    c020:	4b5d      	ldr	r3, [pc, #372]	; (c198 <benchmark_body+0x4064>)
    c022:	681b      	ldr	r3, [r3, #0]
    c024:	3302      	adds	r3, #2
    c026:	495d      	ldr	r1, [pc, #372]	; (c19c <benchmark_body+0x4068>)
    c028:	f507 62bf 	add.w	r2, r7, #1528	; 0x5f8
    c02c:	f5a2 7271 	sub.w	r2, r2, #964	; 0x3c4
    c030:	6812      	ldr	r2, [r2, #0]
    c032:	f841 2023 	str.w	r2, [r1, r3, lsl #2]
    c036:	4b58      	ldr	r3, [pc, #352]	; (c198 <benchmark_body+0x4064>)
    c038:	681b      	ldr	r3, [r3, #0]
    c03a:	3303      	adds	r3, #3
    c03c:	4a56      	ldr	r2, [pc, #344]	; (c198 <benchmark_body+0x4064>)
    c03e:	6013      	str	r3, [r2, #0]
    c040:	4b54      	ldr	r3, [pc, #336]	; (c194 <benchmark_body+0x4060>)
    c042:	681b      	ldr	r3, [r3, #0]
    c044:	2b04      	cmp	r3, #4
    c046:	dd67      	ble.n	c118 <benchmark_body+0x3fe4>
    c048:	4b53      	ldr	r3, [pc, #332]	; (c198 <benchmark_body+0x4064>)
    c04a:	681b      	ldr	r3, [r3, #0]
    c04c:	2b03      	cmp	r3, #3
    c04e:	dc63      	bgt.n	c118 <benchmark_body+0x3fe4>
    c050:	4b4f      	ldr	r3, [pc, #316]	; (c190 <benchmark_body+0x405c>)
    c052:	691a      	ldr	r2, [r3, #16]
    c054:	4b4e      	ldr	r3, [pc, #312]	; (c190 <benchmark_body+0x405c>)
    c056:	685b      	ldr	r3, [r3, #4]
    c058:	429a      	cmp	r2, r3
    c05a:	d15d      	bne.n	c118 <benchmark_body+0x3fe4>
    c05c:	4b4c      	ldr	r3, [pc, #304]	; (c190 <benchmark_body+0x405c>)
    c05e:	691a      	ldr	r2, [r3, #16]
    c060:	4b4b      	ldr	r3, [pc, #300]	; (c190 <benchmark_body+0x405c>)
    c062:	681b      	ldr	r3, [r3, #0]
    c064:	429a      	cmp	r2, r3
    c066:	d157      	bne.n	c118 <benchmark_body+0x3fe4>
    c068:	f507 63bf 	add.w	r3, r7, #1528	; 0x5f8
    c06c:	f5a3 7372 	sub.w	r3, r3, #968	; 0x3c8
    c070:	4a47      	ldr	r2, [pc, #284]	; (c190 <benchmark_body+0x405c>)
    c072:	6892      	ldr	r2, [r2, #8]
    c074:	601a      	str	r2, [r3, #0]
    c076:	f507 63bf 	add.w	r3, r7, #1528	; 0x5f8
    c07a:	f5a3 7373 	sub.w	r3, r3, #972	; 0x3cc
    c07e:	4a44      	ldr	r2, [pc, #272]	; (c190 <benchmark_body+0x405c>)
    c080:	6912      	ldr	r2, [r2, #16]
    c082:	601a      	str	r2, [r3, #0]
    c084:	f507 63bf 	add.w	r3, r7, #1528	; 0x5f8
    c088:	f5a3 7273 	sub.w	r2, r3, #972	; 0x3cc
    c08c:	f507 63bf 	add.w	r3, r7, #1528	; 0x5f8
    c090:	f5a3 7372 	sub.w	r3, r3, #968	; 0x3c8
    c094:	6812      	ldr	r2, [r2, #0]
    c096:	681b      	ldr	r3, [r3, #0]
    c098:	429a      	cmp	r2, r3
    c09a:	dd3d      	ble.n	c118 <benchmark_body+0x3fe4>
    c09c:	4b3c      	ldr	r3, [pc, #240]	; (c190 <benchmark_body+0x405c>)
    c09e:	68db      	ldr	r3, [r3, #12]
    c0a0:	4a3b      	ldr	r2, [pc, #236]	; (c190 <benchmark_body+0x405c>)
    c0a2:	6013      	str	r3, [r2, #0]
    c0a4:	4b3b      	ldr	r3, [pc, #236]	; (c194 <benchmark_body+0x4060>)
    c0a6:	681b      	ldr	r3, [r3, #0]
    c0a8:	3b04      	subs	r3, #4
    c0aa:	4a3a      	ldr	r2, [pc, #232]	; (c194 <benchmark_body+0x4060>)
    c0ac:	6013      	str	r3, [r2, #0]
    c0ae:	f507 63bf 	add.w	r3, r7, #1528	; 0x5f8
    c0b2:	f5a3 7374 	sub.w	r3, r3, #976	; 0x3d0
    c0b6:	f507 62bf 	add.w	r2, r7, #1528	; 0x5f8
    c0ba:	f5a2 7172 	sub.w	r1, r2, #968	; 0x3c8
    c0be:	f507 62bf 	add.w	r2, r7, #1528	; 0x5f8
    c0c2:	f5a2 7273 	sub.w	r2, r2, #972	; 0x3cc
    c0c6:	6809      	ldr	r1, [r1, #0]
    c0c8:	6812      	ldr	r2, [r2, #0]
    c0ca:	440a      	add	r2, r1
    c0cc:	601a      	str	r2, [r3, #0]
    c0ce:	4b32      	ldr	r3, [pc, #200]	; (c198 <benchmark_body+0x4064>)
    c0d0:	681b      	ldr	r3, [r3, #0]
    c0d2:	4932      	ldr	r1, [pc, #200]	; (c19c <benchmark_body+0x4068>)
    c0d4:	f507 62bf 	add.w	r2, r7, #1528	; 0x5f8
    c0d8:	f5a2 7272 	sub.w	r2, r2, #968	; 0x3c8
    c0dc:	6812      	ldr	r2, [r2, #0]
    c0de:	f841 2023 	str.w	r2, [r1, r3, lsl #2]
    c0e2:	4b2d      	ldr	r3, [pc, #180]	; (c198 <benchmark_body+0x4064>)
    c0e4:	681b      	ldr	r3, [r3, #0]
    c0e6:	3301      	adds	r3, #1
    c0e8:	492c      	ldr	r1, [pc, #176]	; (c19c <benchmark_body+0x4068>)
    c0ea:	f507 62bf 	add.w	r2, r7, #1528	; 0x5f8
    c0ee:	f5a2 7273 	sub.w	r2, r2, #972	; 0x3cc
    c0f2:	6812      	ldr	r2, [r2, #0]
    c0f4:	f841 2023 	str.w	r2, [r1, r3, lsl #2]
    c0f8:	4b27      	ldr	r3, [pc, #156]	; (c198 <benchmark_body+0x4064>)
    c0fa:	681b      	ldr	r3, [r3, #0]
    c0fc:	3302      	adds	r3, #2
    c0fe:	4927      	ldr	r1, [pc, #156]	; (c19c <benchmark_body+0x4068>)
    c100:	f507 62bf 	add.w	r2, r7, #1528	; 0x5f8
    c104:	f5a2 7274 	sub.w	r2, r2, #976	; 0x3d0
    c108:	6812      	ldr	r2, [r2, #0]
    c10a:	f841 2023 	str.w	r2, [r1, r3, lsl #2]
    c10e:	4b22      	ldr	r3, [pc, #136]	; (c198 <benchmark_body+0x4064>)
    c110:	681b      	ldr	r3, [r3, #0]
    c112:	3303      	adds	r3, #3
    c114:	4a20      	ldr	r2, [pc, #128]	; (c198 <benchmark_body+0x4064>)
    c116:	6013      	str	r3, [r2, #0]
    c118:	4b1e      	ldr	r3, [pc, #120]	; (c194 <benchmark_body+0x4060>)
    c11a:	681b      	ldr	r3, [r3, #0]
    c11c:	2b04      	cmp	r3, #4
    c11e:	dd6c      	ble.n	c1fa <benchmark_body+0x40c6>
    c120:	4b1d      	ldr	r3, [pc, #116]	; (c198 <benchmark_body+0x4064>)
    c122:	681b      	ldr	r3, [r3, #0]
    c124:	2b03      	cmp	r3, #3
    c126:	dc68      	bgt.n	c1fa <benchmark_body+0x40c6>
    c128:	4b19      	ldr	r3, [pc, #100]	; (c190 <benchmark_body+0x405c>)
    c12a:	691a      	ldr	r2, [r3, #16]
    c12c:	4b18      	ldr	r3, [pc, #96]	; (c190 <benchmark_body+0x405c>)
    c12e:	685b      	ldr	r3, [r3, #4]
    c130:	429a      	cmp	r2, r3
    c132:	d162      	bne.n	c1fa <benchmark_body+0x40c6>
    c134:	4b16      	ldr	r3, [pc, #88]	; (c190 <benchmark_body+0x405c>)
    c136:	691a      	ldr	r2, [r3, #16]
    c138:	4b15      	ldr	r3, [pc, #84]	; (c190 <benchmark_body+0x405c>)
    c13a:	68db      	ldr	r3, [r3, #12]
    c13c:	429a      	cmp	r2, r3
    c13e:	d15c      	bne.n	c1fa <benchmark_body+0x40c6>
    c140:	f507 63bf 	add.w	r3, r7, #1528	; 0x5f8
    c144:	f5a3 7375 	sub.w	r3, r3, #980	; 0x3d4
    c148:	4a11      	ldr	r2, [pc, #68]	; (c190 <benchmark_body+0x405c>)
    c14a:	6892      	ldr	r2, [r2, #8]
    c14c:	601a      	str	r2, [r3, #0]
    c14e:	f507 63bf 	add.w	r3, r7, #1528	; 0x5f8
    c152:	f5a3 7376 	sub.w	r3, r3, #984	; 0x3d8
    c156:	4a0e      	ldr	r2, [pc, #56]	; (c190 <benchmark_body+0x405c>)
    c158:	6912      	ldr	r2, [r2, #16]
    c15a:	601a      	str	r2, [r3, #0]
    c15c:	f507 63bf 	add.w	r3, r7, #1528	; 0x5f8
    c160:	f5a3 7276 	sub.w	r2, r3, #984	; 0x3d8
    c164:	f507 63bf 	add.w	r3, r7, #1528	; 0x5f8
    c168:	f5a3 7375 	sub.w	r3, r3, #980	; 0x3d4
    c16c:	6812      	ldr	r2, [r2, #0]
    c16e:	681b      	ldr	r3, [r3, #0]
    c170:	429a      	cmp	r2, r3
    c172:	dd42      	ble.n	c1fa <benchmark_body+0x40c6>
    c174:	4b07      	ldr	r3, [pc, #28]	; (c194 <benchmark_body+0x4060>)
    c176:	681b      	ldr	r3, [r3, #0]
    c178:	3b04      	subs	r3, #4
    c17a:	4a06      	ldr	r2, [pc, #24]	; (c194 <benchmark_body+0x4060>)
    c17c:	6013      	str	r3, [r2, #0]
    c17e:	f507 63bf 	add.w	r3, r7, #1528	; 0x5f8
    c182:	f5a3 7377 	sub.w	r3, r3, #988	; 0x3dc
    c186:	f507 62bf 	add.w	r2, r7, #1528	; 0x5f8
    c18a:	f5a2 7175 	sub.w	r1, r2, #980	; 0x3d4
    c18e:	e007      	b.n	c1a0 <benchmark_body+0x406c>
    c190:	0001f104 	.word	0x0001f104
    c194:	0001ecac 	.word	0x0001ecac
    c198:	0001f118 	.word	0x0001f118
    c19c:	0001f11c 	.word	0x0001f11c
    c1a0:	f507 62bf 	add.w	r2, r7, #1528	; 0x5f8
    c1a4:	f5a2 7276 	sub.w	r2, r2, #984	; 0x3d8
    c1a8:	6809      	ldr	r1, [r1, #0]
    c1aa:	6812      	ldr	r2, [r2, #0]
    c1ac:	440a      	add	r2, r1
    c1ae:	601a      	str	r2, [r3, #0]
    c1b0:	4ba6      	ldr	r3, [pc, #664]	; (c44c <benchmark_body+0x4318>)
    c1b2:	681b      	ldr	r3, [r3, #0]
    c1b4:	49a6      	ldr	r1, [pc, #664]	; (c450 <benchmark_body+0x431c>)
    c1b6:	f507 62bf 	add.w	r2, r7, #1528	; 0x5f8
    c1ba:	f5a2 7275 	sub.w	r2, r2, #980	; 0x3d4
    c1be:	6812      	ldr	r2, [r2, #0]
    c1c0:	f841 2023 	str.w	r2, [r1, r3, lsl #2]
    c1c4:	4ba1      	ldr	r3, [pc, #644]	; (c44c <benchmark_body+0x4318>)
    c1c6:	681b      	ldr	r3, [r3, #0]
    c1c8:	3301      	adds	r3, #1
    c1ca:	49a1      	ldr	r1, [pc, #644]	; (c450 <benchmark_body+0x431c>)
    c1cc:	f507 62bf 	add.w	r2, r7, #1528	; 0x5f8
    c1d0:	f5a2 7276 	sub.w	r2, r2, #984	; 0x3d8
    c1d4:	6812      	ldr	r2, [r2, #0]
    c1d6:	f841 2023 	str.w	r2, [r1, r3, lsl #2]
    c1da:	4b9c      	ldr	r3, [pc, #624]	; (c44c <benchmark_body+0x4318>)
    c1dc:	681b      	ldr	r3, [r3, #0]
    c1de:	3302      	adds	r3, #2
    c1e0:	499b      	ldr	r1, [pc, #620]	; (c450 <benchmark_body+0x431c>)
    c1e2:	f507 62bf 	add.w	r2, r7, #1528	; 0x5f8
    c1e6:	f5a2 7277 	sub.w	r2, r2, #988	; 0x3dc
    c1ea:	6812      	ldr	r2, [r2, #0]
    c1ec:	f841 2023 	str.w	r2, [r1, r3, lsl #2]
    c1f0:	4b96      	ldr	r3, [pc, #600]	; (c44c <benchmark_body+0x4318>)
    c1f2:	681b      	ldr	r3, [r3, #0]
    c1f4:	3303      	adds	r3, #3
    c1f6:	4a95      	ldr	r2, [pc, #596]	; (c44c <benchmark_body+0x4318>)
    c1f8:	6013      	str	r3, [r2, #0]
    c1fa:	4b96      	ldr	r3, [pc, #600]	; (c454 <benchmark_body+0x4320>)
    c1fc:	681b      	ldr	r3, [r3, #0]
    c1fe:	2b04      	cmp	r3, #4
    c200:	dd67      	ble.n	c2d2 <benchmark_body+0x419e>
    c202:	4b92      	ldr	r3, [pc, #584]	; (c44c <benchmark_body+0x4318>)
    c204:	681b      	ldr	r3, [r3, #0]
    c206:	2b03      	cmp	r3, #3
    c208:	dc63      	bgt.n	c2d2 <benchmark_body+0x419e>
    c20a:	4b93      	ldr	r3, [pc, #588]	; (c458 <benchmark_body+0x4324>)
    c20c:	691a      	ldr	r2, [r3, #16]
    c20e:	4b92      	ldr	r3, [pc, #584]	; (c458 <benchmark_body+0x4324>)
    c210:	68db      	ldr	r3, [r3, #12]
    c212:	429a      	cmp	r2, r3
    c214:	d15d      	bne.n	c2d2 <benchmark_body+0x419e>
    c216:	4b90      	ldr	r3, [pc, #576]	; (c458 <benchmark_body+0x4324>)
    c218:	691a      	ldr	r2, [r3, #16]
    c21a:	4b8f      	ldr	r3, [pc, #572]	; (c458 <benchmark_body+0x4324>)
    c21c:	681b      	ldr	r3, [r3, #0]
    c21e:	429a      	cmp	r2, r3
    c220:	d157      	bne.n	c2d2 <benchmark_body+0x419e>
    c222:	f507 63bf 	add.w	r3, r7, #1528	; 0x5f8
    c226:	f5a3 7378 	sub.w	r3, r3, #992	; 0x3e0
    c22a:	4a8b      	ldr	r2, [pc, #556]	; (c458 <benchmark_body+0x4324>)
    c22c:	6892      	ldr	r2, [r2, #8]
    c22e:	601a      	str	r2, [r3, #0]
    c230:	f507 63bf 	add.w	r3, r7, #1528	; 0x5f8
    c234:	f5a3 7379 	sub.w	r3, r3, #996	; 0x3e4
    c238:	4a87      	ldr	r2, [pc, #540]	; (c458 <benchmark_body+0x4324>)
    c23a:	6912      	ldr	r2, [r2, #16]
    c23c:	601a      	str	r2, [r3, #0]
    c23e:	f507 63bf 	add.w	r3, r7, #1528	; 0x5f8
    c242:	f5a3 7279 	sub.w	r2, r3, #996	; 0x3e4
    c246:	f507 63bf 	add.w	r3, r7, #1528	; 0x5f8
    c24a:	f5a3 7378 	sub.w	r3, r3, #992	; 0x3e0
    c24e:	6812      	ldr	r2, [r2, #0]
    c250:	681b      	ldr	r3, [r3, #0]
    c252:	429a      	cmp	r2, r3
    c254:	dd3d      	ble.n	c2d2 <benchmark_body+0x419e>
    c256:	4b80      	ldr	r3, [pc, #512]	; (c458 <benchmark_body+0x4324>)
    c258:	685b      	ldr	r3, [r3, #4]
    c25a:	4a7f      	ldr	r2, [pc, #508]	; (c458 <benchmark_body+0x4324>)
    c25c:	6013      	str	r3, [r2, #0]
    c25e:	4b7d      	ldr	r3, [pc, #500]	; (c454 <benchmark_body+0x4320>)
    c260:	681b      	ldr	r3, [r3, #0]
    c262:	3b04      	subs	r3, #4
    c264:	4a7b      	ldr	r2, [pc, #492]	; (c454 <benchmark_body+0x4320>)
    c266:	6013      	str	r3, [r2, #0]
    c268:	f507 63bf 	add.w	r3, r7, #1528	; 0x5f8
    c26c:	f5a3 737a 	sub.w	r3, r3, #1000	; 0x3e8
    c270:	f507 62bf 	add.w	r2, r7, #1528	; 0x5f8
    c274:	f5a2 7178 	sub.w	r1, r2, #992	; 0x3e0
    c278:	f507 62bf 	add.w	r2, r7, #1528	; 0x5f8
    c27c:	f5a2 7279 	sub.w	r2, r2, #996	; 0x3e4
    c280:	6809      	ldr	r1, [r1, #0]
    c282:	6812      	ldr	r2, [r2, #0]
    c284:	440a      	add	r2, r1
    c286:	601a      	str	r2, [r3, #0]
    c288:	4b70      	ldr	r3, [pc, #448]	; (c44c <benchmark_body+0x4318>)
    c28a:	681b      	ldr	r3, [r3, #0]
    c28c:	4970      	ldr	r1, [pc, #448]	; (c450 <benchmark_body+0x431c>)
    c28e:	f507 62bf 	add.w	r2, r7, #1528	; 0x5f8
    c292:	f5a2 7278 	sub.w	r2, r2, #992	; 0x3e0
    c296:	6812      	ldr	r2, [r2, #0]
    c298:	f841 2023 	str.w	r2, [r1, r3, lsl #2]
    c29c:	4b6b      	ldr	r3, [pc, #428]	; (c44c <benchmark_body+0x4318>)
    c29e:	681b      	ldr	r3, [r3, #0]
    c2a0:	3301      	adds	r3, #1
    c2a2:	496b      	ldr	r1, [pc, #428]	; (c450 <benchmark_body+0x431c>)
    c2a4:	f507 62bf 	add.w	r2, r7, #1528	; 0x5f8
    c2a8:	f5a2 7279 	sub.w	r2, r2, #996	; 0x3e4
    c2ac:	6812      	ldr	r2, [r2, #0]
    c2ae:	f841 2023 	str.w	r2, [r1, r3, lsl #2]
    c2b2:	4b66      	ldr	r3, [pc, #408]	; (c44c <benchmark_body+0x4318>)
    c2b4:	681b      	ldr	r3, [r3, #0]
    c2b6:	3302      	adds	r3, #2
    c2b8:	4965      	ldr	r1, [pc, #404]	; (c450 <benchmark_body+0x431c>)
    c2ba:	f507 62bf 	add.w	r2, r7, #1528	; 0x5f8
    c2be:	f5a2 727a 	sub.w	r2, r2, #1000	; 0x3e8
    c2c2:	6812      	ldr	r2, [r2, #0]
    c2c4:	f841 2023 	str.w	r2, [r1, r3, lsl #2]
    c2c8:	4b60      	ldr	r3, [pc, #384]	; (c44c <benchmark_body+0x4318>)
    c2ca:	681b      	ldr	r3, [r3, #0]
    c2cc:	3303      	adds	r3, #3
    c2ce:	4a5f      	ldr	r2, [pc, #380]	; (c44c <benchmark_body+0x4318>)
    c2d0:	6013      	str	r3, [r2, #0]
    c2d2:	4b60      	ldr	r3, [pc, #384]	; (c454 <benchmark_body+0x4320>)
    c2d4:	681b      	ldr	r3, [r3, #0]
    c2d6:	2b04      	cmp	r3, #4
    c2d8:	dd63      	ble.n	c3a2 <benchmark_body+0x426e>
    c2da:	4b5c      	ldr	r3, [pc, #368]	; (c44c <benchmark_body+0x4318>)
    c2dc:	681b      	ldr	r3, [r3, #0]
    c2de:	2b03      	cmp	r3, #3
    c2e0:	dc5f      	bgt.n	c3a2 <benchmark_body+0x426e>
    c2e2:	4b5d      	ldr	r3, [pc, #372]	; (c458 <benchmark_body+0x4324>)
    c2e4:	691a      	ldr	r2, [r3, #16]
    c2e6:	4b5c      	ldr	r3, [pc, #368]	; (c458 <benchmark_body+0x4324>)
    c2e8:	68db      	ldr	r3, [r3, #12]
    c2ea:	429a      	cmp	r2, r3
    c2ec:	d159      	bne.n	c3a2 <benchmark_body+0x426e>
    c2ee:	4b5a      	ldr	r3, [pc, #360]	; (c458 <benchmark_body+0x4324>)
    c2f0:	691a      	ldr	r2, [r3, #16]
    c2f2:	4b59      	ldr	r3, [pc, #356]	; (c458 <benchmark_body+0x4324>)
    c2f4:	685b      	ldr	r3, [r3, #4]
    c2f6:	429a      	cmp	r2, r3
    c2f8:	d153      	bne.n	c3a2 <benchmark_body+0x426e>
    c2fa:	f507 63bf 	add.w	r3, r7, #1528	; 0x5f8
    c2fe:	f5a3 737b 	sub.w	r3, r3, #1004	; 0x3ec
    c302:	4a55      	ldr	r2, [pc, #340]	; (c458 <benchmark_body+0x4324>)
    c304:	6892      	ldr	r2, [r2, #8]
    c306:	601a      	str	r2, [r3, #0]
    c308:	f507 63bf 	add.w	r3, r7, #1528	; 0x5f8
    c30c:	f5a3 737c 	sub.w	r3, r3, #1008	; 0x3f0
    c310:	4a51      	ldr	r2, [pc, #324]	; (c458 <benchmark_body+0x4324>)
    c312:	6912      	ldr	r2, [r2, #16]
    c314:	601a      	str	r2, [r3, #0]
    c316:	f507 63bf 	add.w	r3, r7, #1528	; 0x5f8
    c31a:	f5a3 727c 	sub.w	r2, r3, #1008	; 0x3f0
    c31e:	f507 63bf 	add.w	r3, r7, #1528	; 0x5f8
    c322:	f5a3 737b 	sub.w	r3, r3, #1004	; 0x3ec
    c326:	6812      	ldr	r2, [r2, #0]
    c328:	681b      	ldr	r3, [r3, #0]
    c32a:	429a      	cmp	r2, r3
    c32c:	dd39      	ble.n	c3a2 <benchmark_body+0x426e>
    c32e:	4b49      	ldr	r3, [pc, #292]	; (c454 <benchmark_body+0x4320>)
    c330:	681b      	ldr	r3, [r3, #0]
    c332:	3b04      	subs	r3, #4
    c334:	4a47      	ldr	r2, [pc, #284]	; (c454 <benchmark_body+0x4320>)
    c336:	6013      	str	r3, [r2, #0]
    c338:	f507 63bf 	add.w	r3, r7, #1528	; 0x5f8
    c33c:	f5a3 737d 	sub.w	r3, r3, #1012	; 0x3f4
    c340:	f507 62bf 	add.w	r2, r7, #1528	; 0x5f8
    c344:	f5a2 717b 	sub.w	r1, r2, #1004	; 0x3ec
    c348:	f507 62bf 	add.w	r2, r7, #1528	; 0x5f8
    c34c:	f5a2 727c 	sub.w	r2, r2, #1008	; 0x3f0
    c350:	6809      	ldr	r1, [r1, #0]
    c352:	6812      	ldr	r2, [r2, #0]
    c354:	440a      	add	r2, r1
    c356:	601a      	str	r2, [r3, #0]
    c358:	4b3c      	ldr	r3, [pc, #240]	; (c44c <benchmark_body+0x4318>)
    c35a:	681b      	ldr	r3, [r3, #0]
    c35c:	493c      	ldr	r1, [pc, #240]	; (c450 <benchmark_body+0x431c>)
    c35e:	f507 62bf 	add.w	r2, r7, #1528	; 0x5f8
    c362:	f5a2 727b 	sub.w	r2, r2, #1004	; 0x3ec
    c366:	6812      	ldr	r2, [r2, #0]
    c368:	f841 2023 	str.w	r2, [r1, r3, lsl #2]
    c36c:	4b37      	ldr	r3, [pc, #220]	; (c44c <benchmark_body+0x4318>)
    c36e:	681b      	ldr	r3, [r3, #0]
    c370:	3301      	adds	r3, #1
    c372:	4937      	ldr	r1, [pc, #220]	; (c450 <benchmark_body+0x431c>)
    c374:	f507 62bf 	add.w	r2, r7, #1528	; 0x5f8
    c378:	f5a2 727c 	sub.w	r2, r2, #1008	; 0x3f0
    c37c:	6812      	ldr	r2, [r2, #0]
    c37e:	f841 2023 	str.w	r2, [r1, r3, lsl #2]
    c382:	4b32      	ldr	r3, [pc, #200]	; (c44c <benchmark_body+0x4318>)
    c384:	681b      	ldr	r3, [r3, #0]
    c386:	3302      	adds	r3, #2
    c388:	4931      	ldr	r1, [pc, #196]	; (c450 <benchmark_body+0x431c>)
    c38a:	f507 62bf 	add.w	r2, r7, #1528	; 0x5f8
    c38e:	f5a2 727d 	sub.w	r2, r2, #1012	; 0x3f4
    c392:	6812      	ldr	r2, [r2, #0]
    c394:	f841 2023 	str.w	r2, [r1, r3, lsl #2]
    c398:	4b2c      	ldr	r3, [pc, #176]	; (c44c <benchmark_body+0x4318>)
    c39a:	681b      	ldr	r3, [r3, #0]
    c39c:	3303      	adds	r3, #3
    c39e:	4a2b      	ldr	r2, [pc, #172]	; (c44c <benchmark_body+0x4318>)
    c3a0:	6013      	str	r3, [r2, #0]
    c3a2:	4b2c      	ldr	r3, [pc, #176]	; (c454 <benchmark_body+0x4320>)
    c3a4:	681b      	ldr	r3, [r3, #0]
    c3a6:	2b04      	cmp	r3, #4
    c3a8:	dd70      	ble.n	c48c <benchmark_body+0x4358>
    c3aa:	4b28      	ldr	r3, [pc, #160]	; (c44c <benchmark_body+0x4318>)
    c3ac:	681b      	ldr	r3, [r3, #0]
    c3ae:	2b03      	cmp	r3, #3
    c3b0:	dc6c      	bgt.n	c48c <benchmark_body+0x4358>
    c3b2:	4b29      	ldr	r3, [pc, #164]	; (c458 <benchmark_body+0x4324>)
    c3b4:	681a      	ldr	r2, [r3, #0]
    c3b6:	4b28      	ldr	r3, [pc, #160]	; (c458 <benchmark_body+0x4324>)
    c3b8:	685b      	ldr	r3, [r3, #4]
    c3ba:	429a      	cmp	r2, r3
    c3bc:	d166      	bne.n	c48c <benchmark_body+0x4358>
    c3be:	4b26      	ldr	r3, [pc, #152]	; (c458 <benchmark_body+0x4324>)
    c3c0:	681a      	ldr	r2, [r3, #0]
    c3c2:	4b25      	ldr	r3, [pc, #148]	; (c458 <benchmark_body+0x4324>)
    c3c4:	691b      	ldr	r3, [r3, #16]
    c3c6:	429a      	cmp	r2, r3
    c3c8:	d160      	bne.n	c48c <benchmark_body+0x4358>
    c3ca:	f507 63bf 	add.w	r3, r7, #1528	; 0x5f8
    c3ce:	f5a3 737e 	sub.w	r3, r3, #1016	; 0x3f8
    c3d2:	4a21      	ldr	r2, [pc, #132]	; (c458 <benchmark_body+0x4324>)
    c3d4:	68d2      	ldr	r2, [r2, #12]
    c3d6:	601a      	str	r2, [r3, #0]
    c3d8:	f507 63bf 	add.w	r3, r7, #1528	; 0x5f8
    c3dc:	f5a3 737f 	sub.w	r3, r3, #1020	; 0x3fc
    c3e0:	4a1d      	ldr	r2, [pc, #116]	; (c458 <benchmark_body+0x4324>)
    c3e2:	6812      	ldr	r2, [r2, #0]
    c3e4:	601a      	str	r2, [r3, #0]
    c3e6:	f507 63bf 	add.w	r3, r7, #1528	; 0x5f8
    c3ea:	f5a3 727f 	sub.w	r2, r3, #1020	; 0x3fc
    c3ee:	f507 63bf 	add.w	r3, r7, #1528	; 0x5f8
    c3f2:	f5a3 737e 	sub.w	r3, r3, #1016	; 0x3f8
    c3f6:	6812      	ldr	r2, [r2, #0]
    c3f8:	681b      	ldr	r3, [r3, #0]
    c3fa:	429a      	cmp	r2, r3
    c3fc:	dd46      	ble.n	c48c <benchmark_body+0x4358>
    c3fe:	4b16      	ldr	r3, [pc, #88]	; (c458 <benchmark_body+0x4324>)
    c400:	689b      	ldr	r3, [r3, #8]
    c402:	4a15      	ldr	r2, [pc, #84]	; (c458 <benchmark_body+0x4324>)
    c404:	6013      	str	r3, [r2, #0]
    c406:	4b13      	ldr	r3, [pc, #76]	; (c454 <benchmark_body+0x4320>)
    c408:	681b      	ldr	r3, [r3, #0]
    c40a:	3b04      	subs	r3, #4
    c40c:	4a11      	ldr	r2, [pc, #68]	; (c454 <benchmark_body+0x4320>)
    c40e:	6013      	str	r3, [r2, #0]
    c410:	f507 63bf 	add.w	r3, r7, #1528	; 0x5f8
    c414:	f5a3 6380 	sub.w	r3, r3, #1024	; 0x400
    c418:	f507 62bf 	add.w	r2, r7, #1528	; 0x5f8
    c41c:	f5a2 717e 	sub.w	r1, r2, #1016	; 0x3f8
    c420:	f507 62bf 	add.w	r2, r7, #1528	; 0x5f8
    c424:	f5a2 727f 	sub.w	r2, r2, #1020	; 0x3fc
    c428:	6809      	ldr	r1, [r1, #0]
    c42a:	6812      	ldr	r2, [r2, #0]
    c42c:	440a      	add	r2, r1
    c42e:	601a      	str	r2, [r3, #0]
    c430:	4b06      	ldr	r3, [pc, #24]	; (c44c <benchmark_body+0x4318>)
    c432:	681b      	ldr	r3, [r3, #0]
    c434:	4906      	ldr	r1, [pc, #24]	; (c450 <benchmark_body+0x431c>)
    c436:	f507 62bf 	add.w	r2, r7, #1528	; 0x5f8
    c43a:	f5a2 727e 	sub.w	r2, r2, #1016	; 0x3f8
    c43e:	6812      	ldr	r2, [r2, #0]
    c440:	f841 2023 	str.w	r2, [r1, r3, lsl #2]
    c444:	4b01      	ldr	r3, [pc, #4]	; (c44c <benchmark_body+0x4318>)
    c446:	681b      	ldr	r3, [r3, #0]
    c448:	3301      	adds	r3, #1
    c44a:	e007      	b.n	c45c <benchmark_body+0x4328>
    c44c:	0001f118 	.word	0x0001f118
    c450:	0001f11c 	.word	0x0001f11c
    c454:	0001ecac 	.word	0x0001ecac
    c458:	0001f104 	.word	0x0001f104
    c45c:	49a6      	ldr	r1, [pc, #664]	; (c6f8 <benchmark_body+0x45c4>)
    c45e:	f507 62bf 	add.w	r2, r7, #1528	; 0x5f8
    c462:	f5a2 727f 	sub.w	r2, r2, #1020	; 0x3fc
    c466:	6812      	ldr	r2, [r2, #0]
    c468:	f841 2023 	str.w	r2, [r1, r3, lsl #2]
    c46c:	4ba3      	ldr	r3, [pc, #652]	; (c6fc <benchmark_body+0x45c8>)
    c46e:	681b      	ldr	r3, [r3, #0]
    c470:	3302      	adds	r3, #2
    c472:	49a1      	ldr	r1, [pc, #644]	; (c6f8 <benchmark_body+0x45c4>)
    c474:	f507 62bf 	add.w	r2, r7, #1528	; 0x5f8
    c478:	f5a2 6280 	sub.w	r2, r2, #1024	; 0x400
    c47c:	6812      	ldr	r2, [r2, #0]
    c47e:	f841 2023 	str.w	r2, [r1, r3, lsl #2]
    c482:	4b9e      	ldr	r3, [pc, #632]	; (c6fc <benchmark_body+0x45c8>)
    c484:	681b      	ldr	r3, [r3, #0]
    c486:	3303      	adds	r3, #3
    c488:	4a9c      	ldr	r2, [pc, #624]	; (c6fc <benchmark_body+0x45c8>)
    c48a:	6013      	str	r3, [r2, #0]
    c48c:	4b9c      	ldr	r3, [pc, #624]	; (c700 <benchmark_body+0x45cc>)
    c48e:	681b      	ldr	r3, [r3, #0]
    c490:	2b04      	cmp	r3, #4
    c492:	dd67      	ble.n	c564 <benchmark_body+0x4430>
    c494:	4b99      	ldr	r3, [pc, #612]	; (c6fc <benchmark_body+0x45c8>)
    c496:	681b      	ldr	r3, [r3, #0]
    c498:	2b03      	cmp	r3, #3
    c49a:	dc63      	bgt.n	c564 <benchmark_body+0x4430>
    c49c:	4b99      	ldr	r3, [pc, #612]	; (c704 <benchmark_body+0x45d0>)
    c49e:	681a      	ldr	r2, [r3, #0]
    c4a0:	4b98      	ldr	r3, [pc, #608]	; (c704 <benchmark_body+0x45d0>)
    c4a2:	689b      	ldr	r3, [r3, #8]
    c4a4:	429a      	cmp	r2, r3
    c4a6:	d15d      	bne.n	c564 <benchmark_body+0x4430>
    c4a8:	4b96      	ldr	r3, [pc, #600]	; (c704 <benchmark_body+0x45d0>)
    c4aa:	681a      	ldr	r2, [r3, #0]
    c4ac:	4b95      	ldr	r3, [pc, #596]	; (c704 <benchmark_body+0x45d0>)
    c4ae:	691b      	ldr	r3, [r3, #16]
    c4b0:	429a      	cmp	r2, r3
    c4b2:	d157      	bne.n	c564 <benchmark_body+0x4430>
    c4b4:	f507 63bf 	add.w	r3, r7, #1528	; 0x5f8
    c4b8:	f2a3 4304 	subw	r3, r3, #1028	; 0x404
    c4bc:	4a91      	ldr	r2, [pc, #580]	; (c704 <benchmark_body+0x45d0>)
    c4be:	68d2      	ldr	r2, [r2, #12]
    c4c0:	601a      	str	r2, [r3, #0]
    c4c2:	f507 63bf 	add.w	r3, r7, #1528	; 0x5f8
    c4c6:	f5a3 6381 	sub.w	r3, r3, #1032	; 0x408
    c4ca:	4a8e      	ldr	r2, [pc, #568]	; (c704 <benchmark_body+0x45d0>)
    c4cc:	6812      	ldr	r2, [r2, #0]
    c4ce:	601a      	str	r2, [r3, #0]
    c4d0:	f507 63bf 	add.w	r3, r7, #1528	; 0x5f8
    c4d4:	f5a3 6281 	sub.w	r2, r3, #1032	; 0x408
    c4d8:	f507 63bf 	add.w	r3, r7, #1528	; 0x5f8
    c4dc:	f2a3 4304 	subw	r3, r3, #1028	; 0x404
    c4e0:	6812      	ldr	r2, [r2, #0]
    c4e2:	681b      	ldr	r3, [r3, #0]
    c4e4:	429a      	cmp	r2, r3
    c4e6:	dd3d      	ble.n	c564 <benchmark_body+0x4430>
    c4e8:	4b86      	ldr	r3, [pc, #536]	; (c704 <benchmark_body+0x45d0>)
    c4ea:	685b      	ldr	r3, [r3, #4]
    c4ec:	4a85      	ldr	r2, [pc, #532]	; (c704 <benchmark_body+0x45d0>)
    c4ee:	6013      	str	r3, [r2, #0]
    c4f0:	4b83      	ldr	r3, [pc, #524]	; (c700 <benchmark_body+0x45cc>)
    c4f2:	681b      	ldr	r3, [r3, #0]
    c4f4:	3b04      	subs	r3, #4
    c4f6:	4a82      	ldr	r2, [pc, #520]	; (c700 <benchmark_body+0x45cc>)
    c4f8:	6013      	str	r3, [r2, #0]
    c4fa:	f507 63bf 	add.w	r3, r7, #1528	; 0x5f8
    c4fe:	f2a3 430c 	subw	r3, r3, #1036	; 0x40c
    c502:	f507 62bf 	add.w	r2, r7, #1528	; 0x5f8
    c506:	f2a2 4104 	subw	r1, r2, #1028	; 0x404
    c50a:	f507 62bf 	add.w	r2, r7, #1528	; 0x5f8
    c50e:	f5a2 6281 	sub.w	r2, r2, #1032	; 0x408
    c512:	6809      	ldr	r1, [r1, #0]
    c514:	6812      	ldr	r2, [r2, #0]
    c516:	440a      	add	r2, r1
    c518:	601a      	str	r2, [r3, #0]
    c51a:	4b78      	ldr	r3, [pc, #480]	; (c6fc <benchmark_body+0x45c8>)
    c51c:	681b      	ldr	r3, [r3, #0]
    c51e:	4976      	ldr	r1, [pc, #472]	; (c6f8 <benchmark_body+0x45c4>)
    c520:	f507 62bf 	add.w	r2, r7, #1528	; 0x5f8
    c524:	f2a2 4204 	subw	r2, r2, #1028	; 0x404
    c528:	6812      	ldr	r2, [r2, #0]
    c52a:	f841 2023 	str.w	r2, [r1, r3, lsl #2]
    c52e:	4b73      	ldr	r3, [pc, #460]	; (c6fc <benchmark_body+0x45c8>)
    c530:	681b      	ldr	r3, [r3, #0]
    c532:	3301      	adds	r3, #1
    c534:	4970      	ldr	r1, [pc, #448]	; (c6f8 <benchmark_body+0x45c4>)
    c536:	f507 62bf 	add.w	r2, r7, #1528	; 0x5f8
    c53a:	f5a2 6281 	sub.w	r2, r2, #1032	; 0x408
    c53e:	6812      	ldr	r2, [r2, #0]
    c540:	f841 2023 	str.w	r2, [r1, r3, lsl #2]
    c544:	4b6d      	ldr	r3, [pc, #436]	; (c6fc <benchmark_body+0x45c8>)
    c546:	681b      	ldr	r3, [r3, #0]
    c548:	3302      	adds	r3, #2
    c54a:	496b      	ldr	r1, [pc, #428]	; (c6f8 <benchmark_body+0x45c4>)
    c54c:	f507 62bf 	add.w	r2, r7, #1528	; 0x5f8
    c550:	f2a2 420c 	subw	r2, r2, #1036	; 0x40c
    c554:	6812      	ldr	r2, [r2, #0]
    c556:	f841 2023 	str.w	r2, [r1, r3, lsl #2]
    c55a:	4b68      	ldr	r3, [pc, #416]	; (c6fc <benchmark_body+0x45c8>)
    c55c:	681b      	ldr	r3, [r3, #0]
    c55e:	3303      	adds	r3, #3
    c560:	4a66      	ldr	r2, [pc, #408]	; (c6fc <benchmark_body+0x45c8>)
    c562:	6013      	str	r3, [r2, #0]
    c564:	4b66      	ldr	r3, [pc, #408]	; (c700 <benchmark_body+0x45cc>)
    c566:	681b      	ldr	r3, [r3, #0]
    c568:	2b04      	cmp	r3, #4
    c56a:	dd67      	ble.n	c63c <benchmark_body+0x4508>
    c56c:	4b63      	ldr	r3, [pc, #396]	; (c6fc <benchmark_body+0x45c8>)
    c56e:	681b      	ldr	r3, [r3, #0]
    c570:	2b03      	cmp	r3, #3
    c572:	dc63      	bgt.n	c63c <benchmark_body+0x4508>
    c574:	4b63      	ldr	r3, [pc, #396]	; (c704 <benchmark_body+0x45d0>)
    c576:	681a      	ldr	r2, [r3, #0]
    c578:	4b62      	ldr	r3, [pc, #392]	; (c704 <benchmark_body+0x45d0>)
    c57a:	691b      	ldr	r3, [r3, #16]
    c57c:	429a      	cmp	r2, r3
    c57e:	d15d      	bne.n	c63c <benchmark_body+0x4508>
    c580:	4b60      	ldr	r3, [pc, #384]	; (c704 <benchmark_body+0x45d0>)
    c582:	681a      	ldr	r2, [r3, #0]
    c584:	4b5f      	ldr	r3, [pc, #380]	; (c704 <benchmark_body+0x45d0>)
    c586:	685b      	ldr	r3, [r3, #4]
    c588:	429a      	cmp	r2, r3
    c58a:	d157      	bne.n	c63c <benchmark_body+0x4508>
    c58c:	f507 63bf 	add.w	r3, r7, #1528	; 0x5f8
    c590:	f5a3 6382 	sub.w	r3, r3, #1040	; 0x410
    c594:	4a5b      	ldr	r2, [pc, #364]	; (c704 <benchmark_body+0x45d0>)
    c596:	68d2      	ldr	r2, [r2, #12]
    c598:	601a      	str	r2, [r3, #0]
    c59a:	f507 63bf 	add.w	r3, r7, #1528	; 0x5f8
    c59e:	f2a3 4314 	subw	r3, r3, #1044	; 0x414
    c5a2:	4a58      	ldr	r2, [pc, #352]	; (c704 <benchmark_body+0x45d0>)
    c5a4:	6812      	ldr	r2, [r2, #0]
    c5a6:	601a      	str	r2, [r3, #0]
    c5a8:	f507 63bf 	add.w	r3, r7, #1528	; 0x5f8
    c5ac:	f2a3 4214 	subw	r2, r3, #1044	; 0x414
    c5b0:	f507 63bf 	add.w	r3, r7, #1528	; 0x5f8
    c5b4:	f5a3 6382 	sub.w	r3, r3, #1040	; 0x410
    c5b8:	6812      	ldr	r2, [r2, #0]
    c5ba:	681b      	ldr	r3, [r3, #0]
    c5bc:	429a      	cmp	r2, r3
    c5be:	dd3d      	ble.n	c63c <benchmark_body+0x4508>
    c5c0:	4b50      	ldr	r3, [pc, #320]	; (c704 <benchmark_body+0x45d0>)
    c5c2:	689b      	ldr	r3, [r3, #8]
    c5c4:	4a4f      	ldr	r2, [pc, #316]	; (c704 <benchmark_body+0x45d0>)
    c5c6:	6013      	str	r3, [r2, #0]
    c5c8:	4b4d      	ldr	r3, [pc, #308]	; (c700 <benchmark_body+0x45cc>)
    c5ca:	681b      	ldr	r3, [r3, #0]
    c5cc:	3b04      	subs	r3, #4
    c5ce:	4a4c      	ldr	r2, [pc, #304]	; (c700 <benchmark_body+0x45cc>)
    c5d0:	6013      	str	r3, [r2, #0]
    c5d2:	f507 63bf 	add.w	r3, r7, #1528	; 0x5f8
    c5d6:	f5a3 6383 	sub.w	r3, r3, #1048	; 0x418
    c5da:	f507 62bf 	add.w	r2, r7, #1528	; 0x5f8
    c5de:	f5a2 6182 	sub.w	r1, r2, #1040	; 0x410
    c5e2:	f507 62bf 	add.w	r2, r7, #1528	; 0x5f8
    c5e6:	f2a2 4214 	subw	r2, r2, #1044	; 0x414
    c5ea:	6809      	ldr	r1, [r1, #0]
    c5ec:	6812      	ldr	r2, [r2, #0]
    c5ee:	440a      	add	r2, r1
    c5f0:	601a      	str	r2, [r3, #0]
    c5f2:	4b42      	ldr	r3, [pc, #264]	; (c6fc <benchmark_body+0x45c8>)
    c5f4:	681b      	ldr	r3, [r3, #0]
    c5f6:	4940      	ldr	r1, [pc, #256]	; (c6f8 <benchmark_body+0x45c4>)
    c5f8:	f507 62bf 	add.w	r2, r7, #1528	; 0x5f8
    c5fc:	f5a2 6282 	sub.w	r2, r2, #1040	; 0x410
    c600:	6812      	ldr	r2, [r2, #0]
    c602:	f841 2023 	str.w	r2, [r1, r3, lsl #2]
    c606:	4b3d      	ldr	r3, [pc, #244]	; (c6fc <benchmark_body+0x45c8>)
    c608:	681b      	ldr	r3, [r3, #0]
    c60a:	3301      	adds	r3, #1
    c60c:	493a      	ldr	r1, [pc, #232]	; (c6f8 <benchmark_body+0x45c4>)
    c60e:	f507 62bf 	add.w	r2, r7, #1528	; 0x5f8
    c612:	f2a2 4214 	subw	r2, r2, #1044	; 0x414
    c616:	6812      	ldr	r2, [r2, #0]
    c618:	f841 2023 	str.w	r2, [r1, r3, lsl #2]
    c61c:	4b37      	ldr	r3, [pc, #220]	; (c6fc <benchmark_body+0x45c8>)
    c61e:	681b      	ldr	r3, [r3, #0]
    c620:	3302      	adds	r3, #2
    c622:	4935      	ldr	r1, [pc, #212]	; (c6f8 <benchmark_body+0x45c4>)
    c624:	f507 62bf 	add.w	r2, r7, #1528	; 0x5f8
    c628:	f5a2 6283 	sub.w	r2, r2, #1048	; 0x418
    c62c:	6812      	ldr	r2, [r2, #0]
    c62e:	f841 2023 	str.w	r2, [r1, r3, lsl #2]
    c632:	4b32      	ldr	r3, [pc, #200]	; (c6fc <benchmark_body+0x45c8>)
    c634:	681b      	ldr	r3, [r3, #0]
    c636:	3303      	adds	r3, #3
    c638:	4a30      	ldr	r2, [pc, #192]	; (c6fc <benchmark_body+0x45c8>)
    c63a:	6013      	str	r3, [r2, #0]
    c63c:	4b30      	ldr	r3, [pc, #192]	; (c700 <benchmark_body+0x45cc>)
    c63e:	681b      	ldr	r3, [r3, #0]
    c640:	2b04      	cmp	r3, #4
    c642:	dd71      	ble.n	c728 <benchmark_body+0x45f4>
    c644:	4b2d      	ldr	r3, [pc, #180]	; (c6fc <benchmark_body+0x45c8>)
    c646:	681b      	ldr	r3, [r3, #0]
    c648:	2b03      	cmp	r3, #3
    c64a:	dc6d      	bgt.n	c728 <benchmark_body+0x45f4>
    c64c:	4b2d      	ldr	r3, [pc, #180]	; (c704 <benchmark_body+0x45d0>)
    c64e:	681a      	ldr	r2, [r3, #0]
    c650:	4b2c      	ldr	r3, [pc, #176]	; (c704 <benchmark_body+0x45d0>)
    c652:	691b      	ldr	r3, [r3, #16]
    c654:	429a      	cmp	r2, r3
    c656:	d167      	bne.n	c728 <benchmark_body+0x45f4>
    c658:	4b2a      	ldr	r3, [pc, #168]	; (c704 <benchmark_body+0x45d0>)
    c65a:	681a      	ldr	r2, [r3, #0]
    c65c:	4b29      	ldr	r3, [pc, #164]	; (c704 <benchmark_body+0x45d0>)
    c65e:	689b      	ldr	r3, [r3, #8]
    c660:	429a      	cmp	r2, r3
    c662:	d161      	bne.n	c728 <benchmark_body+0x45f4>
    c664:	f507 63bf 	add.w	r3, r7, #1528	; 0x5f8
    c668:	f2a3 431c 	subw	r3, r3, #1052	; 0x41c
    c66c:	4a25      	ldr	r2, [pc, #148]	; (c704 <benchmark_body+0x45d0>)
    c66e:	68d2      	ldr	r2, [r2, #12]
    c670:	601a      	str	r2, [r3, #0]
    c672:	f507 63bf 	add.w	r3, r7, #1528	; 0x5f8
    c676:	f5a3 6384 	sub.w	r3, r3, #1056	; 0x420
    c67a:	4a22      	ldr	r2, [pc, #136]	; (c704 <benchmark_body+0x45d0>)
    c67c:	6812      	ldr	r2, [r2, #0]
    c67e:	601a      	str	r2, [r3, #0]
    c680:	f507 63bf 	add.w	r3, r7, #1528	; 0x5f8
    c684:	f5a3 6284 	sub.w	r2, r3, #1056	; 0x420
    c688:	f507 63bf 	add.w	r3, r7, #1528	; 0x5f8
    c68c:	f2a3 431c 	subw	r3, r3, #1052	; 0x41c
    c690:	6812      	ldr	r2, [r2, #0]
    c692:	681b      	ldr	r3, [r3, #0]
    c694:	429a      	cmp	r2, r3
    c696:	dd47      	ble.n	c728 <benchmark_body+0x45f4>
    c698:	4b1a      	ldr	r3, [pc, #104]	; (c704 <benchmark_body+0x45d0>)
    c69a:	685b      	ldr	r3, [r3, #4]
    c69c:	4a19      	ldr	r2, [pc, #100]	; (c704 <benchmark_body+0x45d0>)
    c69e:	6013      	str	r3, [r2, #0]
    c6a0:	4b17      	ldr	r3, [pc, #92]	; (c700 <benchmark_body+0x45cc>)
    c6a2:	681b      	ldr	r3, [r3, #0]
    c6a4:	3b04      	subs	r3, #4
    c6a6:	4a16      	ldr	r2, [pc, #88]	; (c700 <benchmark_body+0x45cc>)
    c6a8:	6013      	str	r3, [r2, #0]
    c6aa:	f507 63bf 	add.w	r3, r7, #1528	; 0x5f8
    c6ae:	f2a3 4324 	subw	r3, r3, #1060	; 0x424
    c6b2:	f507 62bf 	add.w	r2, r7, #1528	; 0x5f8
    c6b6:	f2a2 411c 	subw	r1, r2, #1052	; 0x41c
    c6ba:	f507 62bf 	add.w	r2, r7, #1528	; 0x5f8
    c6be:	f5a2 6284 	sub.w	r2, r2, #1056	; 0x420
    c6c2:	6809      	ldr	r1, [r1, #0]
    c6c4:	6812      	ldr	r2, [r2, #0]
    c6c6:	440a      	add	r2, r1
    c6c8:	601a      	str	r2, [r3, #0]
    c6ca:	4b0c      	ldr	r3, [pc, #48]	; (c6fc <benchmark_body+0x45c8>)
    c6cc:	681b      	ldr	r3, [r3, #0]
    c6ce:	490a      	ldr	r1, [pc, #40]	; (c6f8 <benchmark_body+0x45c4>)
    c6d0:	f507 62bf 	add.w	r2, r7, #1528	; 0x5f8
    c6d4:	f2a2 421c 	subw	r2, r2, #1052	; 0x41c
    c6d8:	6812      	ldr	r2, [r2, #0]
    c6da:	f841 2023 	str.w	r2, [r1, r3, lsl #2]
    c6de:	4b07      	ldr	r3, [pc, #28]	; (c6fc <benchmark_body+0x45c8>)
    c6e0:	681b      	ldr	r3, [r3, #0]
    c6e2:	3301      	adds	r3, #1
    c6e4:	4904      	ldr	r1, [pc, #16]	; (c6f8 <benchmark_body+0x45c4>)
    c6e6:	f507 62bf 	add.w	r2, r7, #1528	; 0x5f8
    c6ea:	f5a2 6284 	sub.w	r2, r2, #1056	; 0x420
    c6ee:	6812      	ldr	r2, [r2, #0]
    c6f0:	f841 2023 	str.w	r2, [r1, r3, lsl #2]
    c6f4:	e008      	b.n	c708 <benchmark_body+0x45d4>
    c6f6:	bf00      	nop
    c6f8:	0001f11c 	.word	0x0001f11c
    c6fc:	0001f118 	.word	0x0001f118
    c700:	0001ecac 	.word	0x0001ecac
    c704:	0001f104 	.word	0x0001f104
    c708:	4ba7      	ldr	r3, [pc, #668]	; (c9a8 <benchmark_body+0x4874>)
    c70a:	681b      	ldr	r3, [r3, #0]
    c70c:	3302      	adds	r3, #2
    c70e:	49a7      	ldr	r1, [pc, #668]	; (c9ac <benchmark_body+0x4878>)
    c710:	f507 62bf 	add.w	r2, r7, #1528	; 0x5f8
    c714:	f2a2 4224 	subw	r2, r2, #1060	; 0x424
    c718:	6812      	ldr	r2, [r2, #0]
    c71a:	f841 2023 	str.w	r2, [r1, r3, lsl #2]
    c71e:	4ba2      	ldr	r3, [pc, #648]	; (c9a8 <benchmark_body+0x4874>)
    c720:	681b      	ldr	r3, [r3, #0]
    c722:	3303      	adds	r3, #3
    c724:	4aa0      	ldr	r2, [pc, #640]	; (c9a8 <benchmark_body+0x4874>)
    c726:	6013      	str	r3, [r2, #0]
    c728:	4ba1      	ldr	r3, [pc, #644]	; (c9b0 <benchmark_body+0x487c>)
    c72a:	681b      	ldr	r3, [r3, #0]
    c72c:	2b04      	cmp	r3, #4
    c72e:	dd67      	ble.n	c800 <benchmark_body+0x46cc>
    c730:	4b9d      	ldr	r3, [pc, #628]	; (c9a8 <benchmark_body+0x4874>)
    c732:	681b      	ldr	r3, [r3, #0]
    c734:	2b03      	cmp	r3, #3
    c736:	dc63      	bgt.n	c800 <benchmark_body+0x46cc>
    c738:	4b9e      	ldr	r3, [pc, #632]	; (c9b4 <benchmark_body+0x4880>)
    c73a:	685a      	ldr	r2, [r3, #4]
    c73c:	4b9d      	ldr	r3, [pc, #628]	; (c9b4 <benchmark_body+0x4880>)
    c73e:	681b      	ldr	r3, [r3, #0]
    c740:	429a      	cmp	r2, r3
    c742:	d15d      	bne.n	c800 <benchmark_body+0x46cc>
    c744:	4b9b      	ldr	r3, [pc, #620]	; (c9b4 <benchmark_body+0x4880>)
    c746:	685a      	ldr	r2, [r3, #4]
    c748:	4b9a      	ldr	r3, [pc, #616]	; (c9b4 <benchmark_body+0x4880>)
    c74a:	691b      	ldr	r3, [r3, #16]
    c74c:	429a      	cmp	r2, r3
    c74e:	d157      	bne.n	c800 <benchmark_body+0x46cc>
    c750:	f507 63bf 	add.w	r3, r7, #1528	; 0x5f8
    c754:	f5a3 6385 	sub.w	r3, r3, #1064	; 0x428
    c758:	4a96      	ldr	r2, [pc, #600]	; (c9b4 <benchmark_body+0x4880>)
    c75a:	68d2      	ldr	r2, [r2, #12]
    c75c:	601a      	str	r2, [r3, #0]
    c75e:	f507 63bf 	add.w	r3, r7, #1528	; 0x5f8
    c762:	f2a3 432c 	subw	r3, r3, #1068	; 0x42c
    c766:	4a93      	ldr	r2, [pc, #588]	; (c9b4 <benchmark_body+0x4880>)
    c768:	6852      	ldr	r2, [r2, #4]
    c76a:	601a      	str	r2, [r3, #0]
    c76c:	f507 63bf 	add.w	r3, r7, #1528	; 0x5f8
    c770:	f2a3 422c 	subw	r2, r3, #1068	; 0x42c
    c774:	f507 63bf 	add.w	r3, r7, #1528	; 0x5f8
    c778:	f5a3 6385 	sub.w	r3, r3, #1064	; 0x428
    c77c:	6812      	ldr	r2, [r2, #0]
    c77e:	681b      	ldr	r3, [r3, #0]
    c780:	429a      	cmp	r2, r3
    c782:	dd3d      	ble.n	c800 <benchmark_body+0x46cc>
    c784:	4b8b      	ldr	r3, [pc, #556]	; (c9b4 <benchmark_body+0x4880>)
    c786:	689b      	ldr	r3, [r3, #8]
    c788:	4a8a      	ldr	r2, [pc, #552]	; (c9b4 <benchmark_body+0x4880>)
    c78a:	6013      	str	r3, [r2, #0]
    c78c:	4b88      	ldr	r3, [pc, #544]	; (c9b0 <benchmark_body+0x487c>)
    c78e:	681b      	ldr	r3, [r3, #0]
    c790:	3b04      	subs	r3, #4
    c792:	4a87      	ldr	r2, [pc, #540]	; (c9b0 <benchmark_body+0x487c>)
    c794:	6013      	str	r3, [r2, #0]
    c796:	f507 63bf 	add.w	r3, r7, #1528	; 0x5f8
    c79a:	f5a3 6386 	sub.w	r3, r3, #1072	; 0x430
    c79e:	f507 62bf 	add.w	r2, r7, #1528	; 0x5f8
    c7a2:	f5a2 6185 	sub.w	r1, r2, #1064	; 0x428
    c7a6:	f507 62bf 	add.w	r2, r7, #1528	; 0x5f8
    c7aa:	f2a2 422c 	subw	r2, r2, #1068	; 0x42c
    c7ae:	6809      	ldr	r1, [r1, #0]
    c7b0:	6812      	ldr	r2, [r2, #0]
    c7b2:	440a      	add	r2, r1
    c7b4:	601a      	str	r2, [r3, #0]
    c7b6:	4b7c      	ldr	r3, [pc, #496]	; (c9a8 <benchmark_body+0x4874>)
    c7b8:	681b      	ldr	r3, [r3, #0]
    c7ba:	497c      	ldr	r1, [pc, #496]	; (c9ac <benchmark_body+0x4878>)
    c7bc:	f507 62bf 	add.w	r2, r7, #1528	; 0x5f8
    c7c0:	f5a2 6285 	sub.w	r2, r2, #1064	; 0x428
    c7c4:	6812      	ldr	r2, [r2, #0]
    c7c6:	f841 2023 	str.w	r2, [r1, r3, lsl #2]
    c7ca:	4b77      	ldr	r3, [pc, #476]	; (c9a8 <benchmark_body+0x4874>)
    c7cc:	681b      	ldr	r3, [r3, #0]
    c7ce:	3301      	adds	r3, #1
    c7d0:	4976      	ldr	r1, [pc, #472]	; (c9ac <benchmark_body+0x4878>)
    c7d2:	f507 62bf 	add.w	r2, r7, #1528	; 0x5f8
    c7d6:	f2a2 422c 	subw	r2, r2, #1068	; 0x42c
    c7da:	6812      	ldr	r2, [r2, #0]
    c7dc:	f841 2023 	str.w	r2, [r1, r3, lsl #2]
    c7e0:	4b71      	ldr	r3, [pc, #452]	; (c9a8 <benchmark_body+0x4874>)
    c7e2:	681b      	ldr	r3, [r3, #0]
    c7e4:	3302      	adds	r3, #2
    c7e6:	4971      	ldr	r1, [pc, #452]	; (c9ac <benchmark_body+0x4878>)
    c7e8:	f507 62bf 	add.w	r2, r7, #1528	; 0x5f8
    c7ec:	f5a2 6286 	sub.w	r2, r2, #1072	; 0x430
    c7f0:	6812      	ldr	r2, [r2, #0]
    c7f2:	f841 2023 	str.w	r2, [r1, r3, lsl #2]
    c7f6:	4b6c      	ldr	r3, [pc, #432]	; (c9a8 <benchmark_body+0x4874>)
    c7f8:	681b      	ldr	r3, [r3, #0]
    c7fa:	3303      	adds	r3, #3
    c7fc:	4a6a      	ldr	r2, [pc, #424]	; (c9a8 <benchmark_body+0x4874>)
    c7fe:	6013      	str	r3, [r2, #0]
    c800:	4b6b      	ldr	r3, [pc, #428]	; (c9b0 <benchmark_body+0x487c>)
    c802:	681b      	ldr	r3, [r3, #0]
    c804:	2b04      	cmp	r3, #4
    c806:	dd63      	ble.n	c8d0 <benchmark_body+0x479c>
    c808:	4b67      	ldr	r3, [pc, #412]	; (c9a8 <benchmark_body+0x4874>)
    c80a:	681b      	ldr	r3, [r3, #0]
    c80c:	2b03      	cmp	r3, #3
    c80e:	dc5f      	bgt.n	c8d0 <benchmark_body+0x479c>
    c810:	4b68      	ldr	r3, [pc, #416]	; (c9b4 <benchmark_body+0x4880>)
    c812:	685a      	ldr	r2, [r3, #4]
    c814:	4b67      	ldr	r3, [pc, #412]	; (c9b4 <benchmark_body+0x4880>)
    c816:	689b      	ldr	r3, [r3, #8]
    c818:	429a      	cmp	r2, r3
    c81a:	d159      	bne.n	c8d0 <benchmark_body+0x479c>
    c81c:	4b65      	ldr	r3, [pc, #404]	; (c9b4 <benchmark_body+0x4880>)
    c81e:	685a      	ldr	r2, [r3, #4]
    c820:	4b64      	ldr	r3, [pc, #400]	; (c9b4 <benchmark_body+0x4880>)
    c822:	691b      	ldr	r3, [r3, #16]
    c824:	429a      	cmp	r2, r3
    c826:	d153      	bne.n	c8d0 <benchmark_body+0x479c>
    c828:	f507 63bf 	add.w	r3, r7, #1528	; 0x5f8
    c82c:	f2a3 4334 	subw	r3, r3, #1076	; 0x434
    c830:	4a60      	ldr	r2, [pc, #384]	; (c9b4 <benchmark_body+0x4880>)
    c832:	68d2      	ldr	r2, [r2, #12]
    c834:	601a      	str	r2, [r3, #0]
    c836:	f507 63bf 	add.w	r3, r7, #1528	; 0x5f8
    c83a:	f5a3 6387 	sub.w	r3, r3, #1080	; 0x438
    c83e:	4a5d      	ldr	r2, [pc, #372]	; (c9b4 <benchmark_body+0x4880>)
    c840:	6852      	ldr	r2, [r2, #4]
    c842:	601a      	str	r2, [r3, #0]
    c844:	f507 63bf 	add.w	r3, r7, #1528	; 0x5f8
    c848:	f5a3 6287 	sub.w	r2, r3, #1080	; 0x438
    c84c:	f507 63bf 	add.w	r3, r7, #1528	; 0x5f8
    c850:	f2a3 4334 	subw	r3, r3, #1076	; 0x434
    c854:	6812      	ldr	r2, [r2, #0]
    c856:	681b      	ldr	r3, [r3, #0]
    c858:	429a      	cmp	r2, r3
    c85a:	dd39      	ble.n	c8d0 <benchmark_body+0x479c>
    c85c:	4b54      	ldr	r3, [pc, #336]	; (c9b0 <benchmark_body+0x487c>)
    c85e:	681b      	ldr	r3, [r3, #0]
    c860:	3b04      	subs	r3, #4
    c862:	4a53      	ldr	r2, [pc, #332]	; (c9b0 <benchmark_body+0x487c>)
    c864:	6013      	str	r3, [r2, #0]
    c866:	f507 63bf 	add.w	r3, r7, #1528	; 0x5f8
    c86a:	f2a3 433c 	subw	r3, r3, #1084	; 0x43c
    c86e:	f507 62bf 	add.w	r2, r7, #1528	; 0x5f8
    c872:	f2a2 4134 	subw	r1, r2, #1076	; 0x434
    c876:	f507 62bf 	add.w	r2, r7, #1528	; 0x5f8
    c87a:	f5a2 6287 	sub.w	r2, r2, #1080	; 0x438
    c87e:	6809      	ldr	r1, [r1, #0]
    c880:	6812      	ldr	r2, [r2, #0]
    c882:	440a      	add	r2, r1
    c884:	601a      	str	r2, [r3, #0]
    c886:	4b48      	ldr	r3, [pc, #288]	; (c9a8 <benchmark_body+0x4874>)
    c888:	681b      	ldr	r3, [r3, #0]
    c88a:	4948      	ldr	r1, [pc, #288]	; (c9ac <benchmark_body+0x4878>)
    c88c:	f507 62bf 	add.w	r2, r7, #1528	; 0x5f8
    c890:	f2a2 4234 	subw	r2, r2, #1076	; 0x434
    c894:	6812      	ldr	r2, [r2, #0]
    c896:	f841 2023 	str.w	r2, [r1, r3, lsl #2]
    c89a:	4b43      	ldr	r3, [pc, #268]	; (c9a8 <benchmark_body+0x4874>)
    c89c:	681b      	ldr	r3, [r3, #0]
    c89e:	3301      	adds	r3, #1
    c8a0:	4942      	ldr	r1, [pc, #264]	; (c9ac <benchmark_body+0x4878>)
    c8a2:	f507 62bf 	add.w	r2, r7, #1528	; 0x5f8
    c8a6:	f5a2 6287 	sub.w	r2, r2, #1080	; 0x438
    c8aa:	6812      	ldr	r2, [r2, #0]
    c8ac:	f841 2023 	str.w	r2, [r1, r3, lsl #2]
    c8b0:	4b3d      	ldr	r3, [pc, #244]	; (c9a8 <benchmark_body+0x4874>)
    c8b2:	681b      	ldr	r3, [r3, #0]
    c8b4:	3302      	adds	r3, #2
    c8b6:	493d      	ldr	r1, [pc, #244]	; (c9ac <benchmark_body+0x4878>)
    c8b8:	f507 62bf 	add.w	r2, r7, #1528	; 0x5f8
    c8bc:	f2a2 423c 	subw	r2, r2, #1084	; 0x43c
    c8c0:	6812      	ldr	r2, [r2, #0]
    c8c2:	f841 2023 	str.w	r2, [r1, r3, lsl #2]
    c8c6:	4b38      	ldr	r3, [pc, #224]	; (c9a8 <benchmark_body+0x4874>)
    c8c8:	681b      	ldr	r3, [r3, #0]
    c8ca:	3303      	adds	r3, #3
    c8cc:	4a36      	ldr	r2, [pc, #216]	; (c9a8 <benchmark_body+0x4874>)
    c8ce:	6013      	str	r3, [r2, #0]
    c8d0:	4b37      	ldr	r3, [pc, #220]	; (c9b0 <benchmark_body+0x487c>)
    c8d2:	681b      	ldr	r3, [r3, #0]
    c8d4:	2b04      	cmp	r3, #4
    c8d6:	dd71      	ble.n	c9bc <benchmark_body+0x4888>
    c8d8:	4b33      	ldr	r3, [pc, #204]	; (c9a8 <benchmark_body+0x4874>)
    c8da:	681b      	ldr	r3, [r3, #0]
    c8dc:	2b03      	cmp	r3, #3
    c8de:	dc6d      	bgt.n	c9bc <benchmark_body+0x4888>
    c8e0:	4b34      	ldr	r3, [pc, #208]	; (c9b4 <benchmark_body+0x4880>)
    c8e2:	685a      	ldr	r2, [r3, #4]
    c8e4:	4b33      	ldr	r3, [pc, #204]	; (c9b4 <benchmark_body+0x4880>)
    c8e6:	691b      	ldr	r3, [r3, #16]
    c8e8:	429a      	cmp	r2, r3
    c8ea:	d167      	bne.n	c9bc <benchmark_body+0x4888>
    c8ec:	4b31      	ldr	r3, [pc, #196]	; (c9b4 <benchmark_body+0x4880>)
    c8ee:	685a      	ldr	r2, [r3, #4]
    c8f0:	4b30      	ldr	r3, [pc, #192]	; (c9b4 <benchmark_body+0x4880>)
    c8f2:	681b      	ldr	r3, [r3, #0]
    c8f4:	429a      	cmp	r2, r3
    c8f6:	d161      	bne.n	c9bc <benchmark_body+0x4888>
    c8f8:	f507 63bf 	add.w	r3, r7, #1528	; 0x5f8
    c8fc:	f5a3 6388 	sub.w	r3, r3, #1088	; 0x440
    c900:	4a2c      	ldr	r2, [pc, #176]	; (c9b4 <benchmark_body+0x4880>)
    c902:	68d2      	ldr	r2, [r2, #12]
    c904:	601a      	str	r2, [r3, #0]
    c906:	f507 63bf 	add.w	r3, r7, #1528	; 0x5f8
    c90a:	f2a3 4344 	subw	r3, r3, #1092	; 0x444
    c90e:	4a29      	ldr	r2, [pc, #164]	; (c9b4 <benchmark_body+0x4880>)
    c910:	6852      	ldr	r2, [r2, #4]
    c912:	601a      	str	r2, [r3, #0]
    c914:	f507 63bf 	add.w	r3, r7, #1528	; 0x5f8
    c918:	f2a3 4244 	subw	r2, r3, #1092	; 0x444
    c91c:	f507 63bf 	add.w	r3, r7, #1528	; 0x5f8
    c920:	f5a3 6388 	sub.w	r3, r3, #1088	; 0x440
    c924:	6812      	ldr	r2, [r2, #0]
    c926:	681b      	ldr	r3, [r3, #0]
    c928:	429a      	cmp	r2, r3
    c92a:	dd47      	ble.n	c9bc <benchmark_body+0x4888>
    c92c:	4b21      	ldr	r3, [pc, #132]	; (c9b4 <benchmark_body+0x4880>)
    c92e:	689b      	ldr	r3, [r3, #8]
    c930:	4a20      	ldr	r2, [pc, #128]	; (c9b4 <benchmark_body+0x4880>)
    c932:	6013      	str	r3, [r2, #0]
    c934:	4b1e      	ldr	r3, [pc, #120]	; (c9b0 <benchmark_body+0x487c>)
    c936:	681b      	ldr	r3, [r3, #0]
    c938:	3b04      	subs	r3, #4
    c93a:	4a1d      	ldr	r2, [pc, #116]	; (c9b0 <benchmark_body+0x487c>)
    c93c:	6013      	str	r3, [r2, #0]
    c93e:	f507 63bf 	add.w	r3, r7, #1528	; 0x5f8
    c942:	f5a3 6389 	sub.w	r3, r3, #1096	; 0x448
    c946:	f507 62bf 	add.w	r2, r7, #1528	; 0x5f8
    c94a:	f5a2 6188 	sub.w	r1, r2, #1088	; 0x440
    c94e:	f507 62bf 	add.w	r2, r7, #1528	; 0x5f8
    c952:	f2a2 4244 	subw	r2, r2, #1092	; 0x444
    c956:	6809      	ldr	r1, [r1, #0]
    c958:	6812      	ldr	r2, [r2, #0]
    c95a:	440a      	add	r2, r1
    c95c:	601a      	str	r2, [r3, #0]
    c95e:	4b12      	ldr	r3, [pc, #72]	; (c9a8 <benchmark_body+0x4874>)
    c960:	681b      	ldr	r3, [r3, #0]
    c962:	4912      	ldr	r1, [pc, #72]	; (c9ac <benchmark_body+0x4878>)
    c964:	f507 62bf 	add.w	r2, r7, #1528	; 0x5f8
    c968:	f5a2 6288 	sub.w	r2, r2, #1088	; 0x440
    c96c:	6812      	ldr	r2, [r2, #0]
    c96e:	f841 2023 	str.w	r2, [r1, r3, lsl #2]
    c972:	4b0d      	ldr	r3, [pc, #52]	; (c9a8 <benchmark_body+0x4874>)
    c974:	681b      	ldr	r3, [r3, #0]
    c976:	3301      	adds	r3, #1
    c978:	490c      	ldr	r1, [pc, #48]	; (c9ac <benchmark_body+0x4878>)
    c97a:	f507 62bf 	add.w	r2, r7, #1528	; 0x5f8
    c97e:	f2a2 4244 	subw	r2, r2, #1092	; 0x444
    c982:	6812      	ldr	r2, [r2, #0]
    c984:	f841 2023 	str.w	r2, [r1, r3, lsl #2]
    c988:	4b07      	ldr	r3, [pc, #28]	; (c9a8 <benchmark_body+0x4874>)
    c98a:	681b      	ldr	r3, [r3, #0]
    c98c:	3302      	adds	r3, #2
    c98e:	4907      	ldr	r1, [pc, #28]	; (c9ac <benchmark_body+0x4878>)
    c990:	f507 62bf 	add.w	r2, r7, #1528	; 0x5f8
    c994:	f5a2 6289 	sub.w	r2, r2, #1096	; 0x448
    c998:	6812      	ldr	r2, [r2, #0]
    c99a:	f841 2023 	str.w	r2, [r1, r3, lsl #2]
    c99e:	4b02      	ldr	r3, [pc, #8]	; (c9a8 <benchmark_body+0x4874>)
    c9a0:	681b      	ldr	r3, [r3, #0]
    c9a2:	3303      	adds	r3, #3
    c9a4:	e008      	b.n	c9b8 <benchmark_body+0x4884>
    c9a6:	bf00      	nop
    c9a8:	0001f118 	.word	0x0001f118
    c9ac:	0001f11c 	.word	0x0001f11c
    c9b0:	0001ecac 	.word	0x0001ecac
    c9b4:	0001f104 	.word	0x0001f104
    c9b8:	4aa5      	ldr	r2, [pc, #660]	; (cc50 <benchmark_body+0x4b1c>)
    c9ba:	6013      	str	r3, [r2, #0]
    c9bc:	4ba5      	ldr	r3, [pc, #660]	; (cc54 <benchmark_body+0x4b20>)
    c9be:	681b      	ldr	r3, [r3, #0]
    c9c0:	2b04      	cmp	r3, #4
    c9c2:	dd63      	ble.n	ca8c <benchmark_body+0x4958>
    c9c4:	4ba2      	ldr	r3, [pc, #648]	; (cc50 <benchmark_body+0x4b1c>)
    c9c6:	681b      	ldr	r3, [r3, #0]
    c9c8:	2b03      	cmp	r3, #3
    c9ca:	dc5f      	bgt.n	ca8c <benchmark_body+0x4958>
    c9cc:	4ba2      	ldr	r3, [pc, #648]	; (cc58 <benchmark_body+0x4b24>)
    c9ce:	685a      	ldr	r2, [r3, #4]
    c9d0:	4ba1      	ldr	r3, [pc, #644]	; (cc58 <benchmark_body+0x4b24>)
    c9d2:	691b      	ldr	r3, [r3, #16]
    c9d4:	429a      	cmp	r2, r3
    c9d6:	d159      	bne.n	ca8c <benchmark_body+0x4958>
    c9d8:	4b9f      	ldr	r3, [pc, #636]	; (cc58 <benchmark_body+0x4b24>)
    c9da:	685a      	ldr	r2, [r3, #4]
    c9dc:	4b9e      	ldr	r3, [pc, #632]	; (cc58 <benchmark_body+0x4b24>)
    c9de:	689b      	ldr	r3, [r3, #8]
    c9e0:	429a      	cmp	r2, r3
    c9e2:	d153      	bne.n	ca8c <benchmark_body+0x4958>
    c9e4:	f507 63bf 	add.w	r3, r7, #1528	; 0x5f8
    c9e8:	f2a3 434c 	subw	r3, r3, #1100	; 0x44c
    c9ec:	4a9a      	ldr	r2, [pc, #616]	; (cc58 <benchmark_body+0x4b24>)
    c9ee:	68d2      	ldr	r2, [r2, #12]
    c9f0:	601a      	str	r2, [r3, #0]
    c9f2:	f507 63bf 	add.w	r3, r7, #1528	; 0x5f8
    c9f6:	f5a3 638a 	sub.w	r3, r3, #1104	; 0x450
    c9fa:	4a97      	ldr	r2, [pc, #604]	; (cc58 <benchmark_body+0x4b24>)
    c9fc:	6852      	ldr	r2, [r2, #4]
    c9fe:	601a      	str	r2, [r3, #0]
    ca00:	f507 63bf 	add.w	r3, r7, #1528	; 0x5f8
    ca04:	f5a3 628a 	sub.w	r2, r3, #1104	; 0x450
    ca08:	f507 63bf 	add.w	r3, r7, #1528	; 0x5f8
    ca0c:	f2a3 434c 	subw	r3, r3, #1100	; 0x44c
    ca10:	6812      	ldr	r2, [r2, #0]
    ca12:	681b      	ldr	r3, [r3, #0]
    ca14:	429a      	cmp	r2, r3
    ca16:	dd39      	ble.n	ca8c <benchmark_body+0x4958>
    ca18:	4b8e      	ldr	r3, [pc, #568]	; (cc54 <benchmark_body+0x4b20>)
    ca1a:	681b      	ldr	r3, [r3, #0]
    ca1c:	3b04      	subs	r3, #4
    ca1e:	4a8d      	ldr	r2, [pc, #564]	; (cc54 <benchmark_body+0x4b20>)
    ca20:	6013      	str	r3, [r2, #0]
    ca22:	f507 63bf 	add.w	r3, r7, #1528	; 0x5f8
    ca26:	f2a3 4354 	subw	r3, r3, #1108	; 0x454
    ca2a:	f507 62bf 	add.w	r2, r7, #1528	; 0x5f8
    ca2e:	f2a2 414c 	subw	r1, r2, #1100	; 0x44c
    ca32:	f507 62bf 	add.w	r2, r7, #1528	; 0x5f8
    ca36:	f5a2 628a 	sub.w	r2, r2, #1104	; 0x450
    ca3a:	6809      	ldr	r1, [r1, #0]
    ca3c:	6812      	ldr	r2, [r2, #0]
    ca3e:	440a      	add	r2, r1
    ca40:	601a      	str	r2, [r3, #0]
    ca42:	4b83      	ldr	r3, [pc, #524]	; (cc50 <benchmark_body+0x4b1c>)
    ca44:	681b      	ldr	r3, [r3, #0]
    ca46:	4985      	ldr	r1, [pc, #532]	; (cc5c <benchmark_body+0x4b28>)
    ca48:	f507 62bf 	add.w	r2, r7, #1528	; 0x5f8
    ca4c:	f2a2 424c 	subw	r2, r2, #1100	; 0x44c
    ca50:	6812      	ldr	r2, [r2, #0]
    ca52:	f841 2023 	str.w	r2, [r1, r3, lsl #2]
    ca56:	4b7e      	ldr	r3, [pc, #504]	; (cc50 <benchmark_body+0x4b1c>)
    ca58:	681b      	ldr	r3, [r3, #0]
    ca5a:	3301      	adds	r3, #1
    ca5c:	497f      	ldr	r1, [pc, #508]	; (cc5c <benchmark_body+0x4b28>)
    ca5e:	f507 62bf 	add.w	r2, r7, #1528	; 0x5f8
    ca62:	f5a2 628a 	sub.w	r2, r2, #1104	; 0x450
    ca66:	6812      	ldr	r2, [r2, #0]
    ca68:	f841 2023 	str.w	r2, [r1, r3, lsl #2]
    ca6c:	4b78      	ldr	r3, [pc, #480]	; (cc50 <benchmark_body+0x4b1c>)
    ca6e:	681b      	ldr	r3, [r3, #0]
    ca70:	3302      	adds	r3, #2
    ca72:	497a      	ldr	r1, [pc, #488]	; (cc5c <benchmark_body+0x4b28>)
    ca74:	f507 62bf 	add.w	r2, r7, #1528	; 0x5f8
    ca78:	f2a2 4254 	subw	r2, r2, #1108	; 0x454
    ca7c:	6812      	ldr	r2, [r2, #0]
    ca7e:	f841 2023 	str.w	r2, [r1, r3, lsl #2]
    ca82:	4b73      	ldr	r3, [pc, #460]	; (cc50 <benchmark_body+0x4b1c>)
    ca84:	681b      	ldr	r3, [r3, #0]
    ca86:	3303      	adds	r3, #3
    ca88:	4a71      	ldr	r2, [pc, #452]	; (cc50 <benchmark_body+0x4b1c>)
    ca8a:	6013      	str	r3, [r2, #0]
    ca8c:	4b71      	ldr	r3, [pc, #452]	; (cc54 <benchmark_body+0x4b20>)
    ca8e:	681b      	ldr	r3, [r3, #0]
    ca90:	2b04      	cmp	r3, #4
    ca92:	dd67      	ble.n	cb64 <benchmark_body+0x4a30>
    ca94:	4b6e      	ldr	r3, [pc, #440]	; (cc50 <benchmark_body+0x4b1c>)
    ca96:	681b      	ldr	r3, [r3, #0]
    ca98:	2b03      	cmp	r3, #3
    ca9a:	dc63      	bgt.n	cb64 <benchmark_body+0x4a30>
    ca9c:	4b6e      	ldr	r3, [pc, #440]	; (cc58 <benchmark_body+0x4b24>)
    ca9e:	689a      	ldr	r2, [r3, #8]
    caa0:	4b6d      	ldr	r3, [pc, #436]	; (cc58 <benchmark_body+0x4b24>)
    caa2:	681b      	ldr	r3, [r3, #0]
    caa4:	429a      	cmp	r2, r3
    caa6:	d15d      	bne.n	cb64 <benchmark_body+0x4a30>
    caa8:	4b6b      	ldr	r3, [pc, #428]	; (cc58 <benchmark_body+0x4b24>)
    caaa:	689a      	ldr	r2, [r3, #8]
    caac:	4b6a      	ldr	r3, [pc, #424]	; (cc58 <benchmark_body+0x4b24>)
    caae:	691b      	ldr	r3, [r3, #16]
    cab0:	429a      	cmp	r2, r3
    cab2:	d157      	bne.n	cb64 <benchmark_body+0x4a30>
    cab4:	f507 63bf 	add.w	r3, r7, #1528	; 0x5f8
    cab8:	f5a3 638b 	sub.w	r3, r3, #1112	; 0x458
    cabc:	4a66      	ldr	r2, [pc, #408]	; (cc58 <benchmark_body+0x4b24>)
    cabe:	68d2      	ldr	r2, [r2, #12]
    cac0:	601a      	str	r2, [r3, #0]
    cac2:	f507 63bf 	add.w	r3, r7, #1528	; 0x5f8
    cac6:	f2a3 435c 	subw	r3, r3, #1116	; 0x45c
    caca:	4a63      	ldr	r2, [pc, #396]	; (cc58 <benchmark_body+0x4b24>)
    cacc:	6892      	ldr	r2, [r2, #8]
    cace:	601a      	str	r2, [r3, #0]
    cad0:	f507 63bf 	add.w	r3, r7, #1528	; 0x5f8
    cad4:	f2a3 425c 	subw	r2, r3, #1116	; 0x45c
    cad8:	f507 63bf 	add.w	r3, r7, #1528	; 0x5f8
    cadc:	f5a3 638b 	sub.w	r3, r3, #1112	; 0x458
    cae0:	6812      	ldr	r2, [r2, #0]
    cae2:	681b      	ldr	r3, [r3, #0]
    cae4:	429a      	cmp	r2, r3
    cae6:	dd3d      	ble.n	cb64 <benchmark_body+0x4a30>
    cae8:	4b5b      	ldr	r3, [pc, #364]	; (cc58 <benchmark_body+0x4b24>)
    caea:	685b      	ldr	r3, [r3, #4]
    caec:	4a5a      	ldr	r2, [pc, #360]	; (cc58 <benchmark_body+0x4b24>)
    caee:	6013      	str	r3, [r2, #0]
    caf0:	4b58      	ldr	r3, [pc, #352]	; (cc54 <benchmark_body+0x4b20>)
    caf2:	681b      	ldr	r3, [r3, #0]
    caf4:	3b04      	subs	r3, #4
    caf6:	4a57      	ldr	r2, [pc, #348]	; (cc54 <benchmark_body+0x4b20>)
    caf8:	6013      	str	r3, [r2, #0]
    cafa:	f507 63bf 	add.w	r3, r7, #1528	; 0x5f8
    cafe:	f5a3 638c 	sub.w	r3, r3, #1120	; 0x460
    cb02:	f507 62bf 	add.w	r2, r7, #1528	; 0x5f8
    cb06:	f5a2 618b 	sub.w	r1, r2, #1112	; 0x458
    cb0a:	f507 62bf 	add.w	r2, r7, #1528	; 0x5f8
    cb0e:	f2a2 425c 	subw	r2, r2, #1116	; 0x45c
    cb12:	6809      	ldr	r1, [r1, #0]
    cb14:	6812      	ldr	r2, [r2, #0]
    cb16:	440a      	add	r2, r1
    cb18:	601a      	str	r2, [r3, #0]
    cb1a:	4b4d      	ldr	r3, [pc, #308]	; (cc50 <benchmark_body+0x4b1c>)
    cb1c:	681b      	ldr	r3, [r3, #0]
    cb1e:	494f      	ldr	r1, [pc, #316]	; (cc5c <benchmark_body+0x4b28>)
    cb20:	f507 62bf 	add.w	r2, r7, #1528	; 0x5f8
    cb24:	f5a2 628b 	sub.w	r2, r2, #1112	; 0x458
    cb28:	6812      	ldr	r2, [r2, #0]
    cb2a:	f841 2023 	str.w	r2, [r1, r3, lsl #2]
    cb2e:	4b48      	ldr	r3, [pc, #288]	; (cc50 <benchmark_body+0x4b1c>)
    cb30:	681b      	ldr	r3, [r3, #0]
    cb32:	3301      	adds	r3, #1
    cb34:	4949      	ldr	r1, [pc, #292]	; (cc5c <benchmark_body+0x4b28>)
    cb36:	f507 62bf 	add.w	r2, r7, #1528	; 0x5f8
    cb3a:	f2a2 425c 	subw	r2, r2, #1116	; 0x45c
    cb3e:	6812      	ldr	r2, [r2, #0]
    cb40:	f841 2023 	str.w	r2, [r1, r3, lsl #2]
    cb44:	4b42      	ldr	r3, [pc, #264]	; (cc50 <benchmark_body+0x4b1c>)
    cb46:	681b      	ldr	r3, [r3, #0]
    cb48:	3302      	adds	r3, #2
    cb4a:	4944      	ldr	r1, [pc, #272]	; (cc5c <benchmark_body+0x4b28>)
    cb4c:	f507 62bf 	add.w	r2, r7, #1528	; 0x5f8
    cb50:	f5a2 628c 	sub.w	r2, r2, #1120	; 0x460
    cb54:	6812      	ldr	r2, [r2, #0]
    cb56:	f841 2023 	str.w	r2, [r1, r3, lsl #2]
    cb5a:	4b3d      	ldr	r3, [pc, #244]	; (cc50 <benchmark_body+0x4b1c>)
    cb5c:	681b      	ldr	r3, [r3, #0]
    cb5e:	3303      	adds	r3, #3
    cb60:	4a3b      	ldr	r2, [pc, #236]	; (cc50 <benchmark_body+0x4b1c>)
    cb62:	6013      	str	r3, [r2, #0]
    cb64:	4b3b      	ldr	r3, [pc, #236]	; (cc54 <benchmark_body+0x4b20>)
    cb66:	681b      	ldr	r3, [r3, #0]
    cb68:	2b04      	cmp	r3, #4
    cb6a:	dd63      	ble.n	cc34 <benchmark_body+0x4b00>
    cb6c:	4b38      	ldr	r3, [pc, #224]	; (cc50 <benchmark_body+0x4b1c>)
    cb6e:	681b      	ldr	r3, [r3, #0]
    cb70:	2b03      	cmp	r3, #3
    cb72:	dc5f      	bgt.n	cc34 <benchmark_body+0x4b00>
    cb74:	4b38      	ldr	r3, [pc, #224]	; (cc58 <benchmark_body+0x4b24>)
    cb76:	689a      	ldr	r2, [r3, #8]
    cb78:	4b37      	ldr	r3, [pc, #220]	; (cc58 <benchmark_body+0x4b24>)
    cb7a:	685b      	ldr	r3, [r3, #4]
    cb7c:	429a      	cmp	r2, r3
    cb7e:	d159      	bne.n	cc34 <benchmark_body+0x4b00>
    cb80:	4b35      	ldr	r3, [pc, #212]	; (cc58 <benchmark_body+0x4b24>)
    cb82:	689a      	ldr	r2, [r3, #8]
    cb84:	4b34      	ldr	r3, [pc, #208]	; (cc58 <benchmark_body+0x4b24>)
    cb86:	691b      	ldr	r3, [r3, #16]
    cb88:	429a      	cmp	r2, r3
    cb8a:	d153      	bne.n	cc34 <benchmark_body+0x4b00>
    cb8c:	f507 63bf 	add.w	r3, r7, #1528	; 0x5f8
    cb90:	f2a3 4364 	subw	r3, r3, #1124	; 0x464
    cb94:	4a30      	ldr	r2, [pc, #192]	; (cc58 <benchmark_body+0x4b24>)
    cb96:	68d2      	ldr	r2, [r2, #12]
    cb98:	601a      	str	r2, [r3, #0]
    cb9a:	f507 63bf 	add.w	r3, r7, #1528	; 0x5f8
    cb9e:	f5a3 638d 	sub.w	r3, r3, #1128	; 0x468
    cba2:	4a2d      	ldr	r2, [pc, #180]	; (cc58 <benchmark_body+0x4b24>)
    cba4:	6892      	ldr	r2, [r2, #8]
    cba6:	601a      	str	r2, [r3, #0]
    cba8:	f507 63bf 	add.w	r3, r7, #1528	; 0x5f8
    cbac:	f5a3 628d 	sub.w	r2, r3, #1128	; 0x468
    cbb0:	f507 63bf 	add.w	r3, r7, #1528	; 0x5f8
    cbb4:	f2a3 4364 	subw	r3, r3, #1124	; 0x464
    cbb8:	6812      	ldr	r2, [r2, #0]
    cbba:	681b      	ldr	r3, [r3, #0]
    cbbc:	429a      	cmp	r2, r3
    cbbe:	dd39      	ble.n	cc34 <benchmark_body+0x4b00>
    cbc0:	4b24      	ldr	r3, [pc, #144]	; (cc54 <benchmark_body+0x4b20>)
    cbc2:	681b      	ldr	r3, [r3, #0]
    cbc4:	3b04      	subs	r3, #4
    cbc6:	4a23      	ldr	r2, [pc, #140]	; (cc54 <benchmark_body+0x4b20>)
    cbc8:	6013      	str	r3, [r2, #0]
    cbca:	f507 63bf 	add.w	r3, r7, #1528	; 0x5f8
    cbce:	f2a3 436c 	subw	r3, r3, #1132	; 0x46c
    cbd2:	f507 62bf 	add.w	r2, r7, #1528	; 0x5f8
    cbd6:	f2a2 4164 	subw	r1, r2, #1124	; 0x464
    cbda:	f507 62bf 	add.w	r2, r7, #1528	; 0x5f8
    cbde:	f5a2 628d 	sub.w	r2, r2, #1128	; 0x468
    cbe2:	6809      	ldr	r1, [r1, #0]
    cbe4:	6812      	ldr	r2, [r2, #0]
    cbe6:	440a      	add	r2, r1
    cbe8:	601a      	str	r2, [r3, #0]
    cbea:	4b19      	ldr	r3, [pc, #100]	; (cc50 <benchmark_body+0x4b1c>)
    cbec:	681b      	ldr	r3, [r3, #0]
    cbee:	491b      	ldr	r1, [pc, #108]	; (cc5c <benchmark_body+0x4b28>)
    cbf0:	f507 62bf 	add.w	r2, r7, #1528	; 0x5f8
    cbf4:	f2a2 4264 	subw	r2, r2, #1124	; 0x464
    cbf8:	6812      	ldr	r2, [r2, #0]
    cbfa:	f841 2023 	str.w	r2, [r1, r3, lsl #2]
    cbfe:	4b14      	ldr	r3, [pc, #80]	; (cc50 <benchmark_body+0x4b1c>)
    cc00:	681b      	ldr	r3, [r3, #0]
    cc02:	3301      	adds	r3, #1
    cc04:	4915      	ldr	r1, [pc, #84]	; (cc5c <benchmark_body+0x4b28>)
    cc06:	f507 62bf 	add.w	r2, r7, #1528	; 0x5f8
    cc0a:	f5a2 628d 	sub.w	r2, r2, #1128	; 0x468
    cc0e:	6812      	ldr	r2, [r2, #0]
    cc10:	f841 2023 	str.w	r2, [r1, r3, lsl #2]
    cc14:	4b0e      	ldr	r3, [pc, #56]	; (cc50 <benchmark_body+0x4b1c>)
    cc16:	681b      	ldr	r3, [r3, #0]
    cc18:	3302      	adds	r3, #2
    cc1a:	4910      	ldr	r1, [pc, #64]	; (cc5c <benchmark_body+0x4b28>)
    cc1c:	f507 62bf 	add.w	r2, r7, #1528	; 0x5f8
    cc20:	f2a2 426c 	subw	r2, r2, #1132	; 0x46c
    cc24:	6812      	ldr	r2, [r2, #0]
    cc26:	f841 2023 	str.w	r2, [r1, r3, lsl #2]
    cc2a:	4b09      	ldr	r3, [pc, #36]	; (cc50 <benchmark_body+0x4b1c>)
    cc2c:	681b      	ldr	r3, [r3, #0]
    cc2e:	3303      	adds	r3, #3
    cc30:	4a07      	ldr	r2, [pc, #28]	; (cc50 <benchmark_body+0x4b1c>)
    cc32:	6013      	str	r3, [r2, #0]
    cc34:	4b07      	ldr	r3, [pc, #28]	; (cc54 <benchmark_body+0x4b20>)
    cc36:	681b      	ldr	r3, [r3, #0]
    cc38:	2b04      	cmp	r3, #4
    cc3a:	dd70      	ble.n	cd1e <benchmark_body+0x4bea>
    cc3c:	4b04      	ldr	r3, [pc, #16]	; (cc50 <benchmark_body+0x4b1c>)
    cc3e:	681b      	ldr	r3, [r3, #0]
    cc40:	2b03      	cmp	r3, #3
    cc42:	dc6c      	bgt.n	cd1e <benchmark_body+0x4bea>
    cc44:	4b04      	ldr	r3, [pc, #16]	; (cc58 <benchmark_body+0x4b24>)
    cc46:	689a      	ldr	r2, [r3, #8]
    cc48:	4b03      	ldr	r3, [pc, #12]	; (cc58 <benchmark_body+0x4b24>)
    cc4a:	691b      	ldr	r3, [r3, #16]
    cc4c:	429a      	cmp	r2, r3
    cc4e:	e007      	b.n	cc60 <benchmark_body+0x4b2c>
    cc50:	0001f118 	.word	0x0001f118
    cc54:	0001ecac 	.word	0x0001ecac
    cc58:	0001f104 	.word	0x0001f104
    cc5c:	0001f11c 	.word	0x0001f11c
    cc60:	d15d      	bne.n	cd1e <benchmark_body+0x4bea>
    cc62:	4ba6      	ldr	r3, [pc, #664]	; (cefc <benchmark_body+0x4dc8>)
    cc64:	689a      	ldr	r2, [r3, #8]
    cc66:	4ba5      	ldr	r3, [pc, #660]	; (cefc <benchmark_body+0x4dc8>)
    cc68:	681b      	ldr	r3, [r3, #0]
    cc6a:	429a      	cmp	r2, r3
    cc6c:	d157      	bne.n	cd1e <benchmark_body+0x4bea>
    cc6e:	f507 63bf 	add.w	r3, r7, #1528	; 0x5f8
    cc72:	f5a3 638e 	sub.w	r3, r3, #1136	; 0x470
    cc76:	4aa1      	ldr	r2, [pc, #644]	; (cefc <benchmark_body+0x4dc8>)
    cc78:	68d2      	ldr	r2, [r2, #12]
    cc7a:	601a      	str	r2, [r3, #0]
    cc7c:	f507 63bf 	add.w	r3, r7, #1528	; 0x5f8
    cc80:	f2a3 4374 	subw	r3, r3, #1140	; 0x474
    cc84:	4a9d      	ldr	r2, [pc, #628]	; (cefc <benchmark_body+0x4dc8>)
    cc86:	6892      	ldr	r2, [r2, #8]
    cc88:	601a      	str	r2, [r3, #0]
    cc8a:	f507 63bf 	add.w	r3, r7, #1528	; 0x5f8
    cc8e:	f2a3 4274 	subw	r2, r3, #1140	; 0x474
    cc92:	f507 63bf 	add.w	r3, r7, #1528	; 0x5f8
    cc96:	f5a3 638e 	sub.w	r3, r3, #1136	; 0x470
    cc9a:	6812      	ldr	r2, [r2, #0]
    cc9c:	681b      	ldr	r3, [r3, #0]
    cc9e:	429a      	cmp	r2, r3
    cca0:	dd3d      	ble.n	cd1e <benchmark_body+0x4bea>
    cca2:	4b96      	ldr	r3, [pc, #600]	; (cefc <benchmark_body+0x4dc8>)
    cca4:	685b      	ldr	r3, [r3, #4]
    cca6:	4a95      	ldr	r2, [pc, #596]	; (cefc <benchmark_body+0x4dc8>)
    cca8:	6013      	str	r3, [r2, #0]
    ccaa:	4b95      	ldr	r3, [pc, #596]	; (cf00 <benchmark_body+0x4dcc>)
    ccac:	681b      	ldr	r3, [r3, #0]
    ccae:	3b04      	subs	r3, #4
    ccb0:	4a93      	ldr	r2, [pc, #588]	; (cf00 <benchmark_body+0x4dcc>)
    ccb2:	6013      	str	r3, [r2, #0]
    ccb4:	f507 63bf 	add.w	r3, r7, #1528	; 0x5f8
    ccb8:	f5a3 638f 	sub.w	r3, r3, #1144	; 0x478
    ccbc:	f507 62bf 	add.w	r2, r7, #1528	; 0x5f8
    ccc0:	f5a2 618e 	sub.w	r1, r2, #1136	; 0x470
    ccc4:	f507 62bf 	add.w	r2, r7, #1528	; 0x5f8
    ccc8:	f2a2 4274 	subw	r2, r2, #1140	; 0x474
    cccc:	6809      	ldr	r1, [r1, #0]
    ccce:	6812      	ldr	r2, [r2, #0]
    ccd0:	440a      	add	r2, r1
    ccd2:	601a      	str	r2, [r3, #0]
    ccd4:	4b8b      	ldr	r3, [pc, #556]	; (cf04 <benchmark_body+0x4dd0>)
    ccd6:	681b      	ldr	r3, [r3, #0]
    ccd8:	498b      	ldr	r1, [pc, #556]	; (cf08 <benchmark_body+0x4dd4>)
    ccda:	f507 62bf 	add.w	r2, r7, #1528	; 0x5f8
    ccde:	f5a2 628e 	sub.w	r2, r2, #1136	; 0x470
    cce2:	6812      	ldr	r2, [r2, #0]
    cce4:	f841 2023 	str.w	r2, [r1, r3, lsl #2]
    cce8:	4b86      	ldr	r3, [pc, #536]	; (cf04 <benchmark_body+0x4dd0>)
    ccea:	681b      	ldr	r3, [r3, #0]
    ccec:	3301      	adds	r3, #1
    ccee:	4986      	ldr	r1, [pc, #536]	; (cf08 <benchmark_body+0x4dd4>)
    ccf0:	f507 62bf 	add.w	r2, r7, #1528	; 0x5f8
    ccf4:	f2a2 4274 	subw	r2, r2, #1140	; 0x474
    ccf8:	6812      	ldr	r2, [r2, #0]
    ccfa:	f841 2023 	str.w	r2, [r1, r3, lsl #2]
    ccfe:	4b81      	ldr	r3, [pc, #516]	; (cf04 <benchmark_body+0x4dd0>)
    cd00:	681b      	ldr	r3, [r3, #0]
    cd02:	3302      	adds	r3, #2
    cd04:	4980      	ldr	r1, [pc, #512]	; (cf08 <benchmark_body+0x4dd4>)
    cd06:	f507 62bf 	add.w	r2, r7, #1528	; 0x5f8
    cd0a:	f5a2 628f 	sub.w	r2, r2, #1144	; 0x478
    cd0e:	6812      	ldr	r2, [r2, #0]
    cd10:	f841 2023 	str.w	r2, [r1, r3, lsl #2]
    cd14:	4b7b      	ldr	r3, [pc, #492]	; (cf04 <benchmark_body+0x4dd0>)
    cd16:	681b      	ldr	r3, [r3, #0]
    cd18:	3303      	adds	r3, #3
    cd1a:	4a7a      	ldr	r2, [pc, #488]	; (cf04 <benchmark_body+0x4dd0>)
    cd1c:	6013      	str	r3, [r2, #0]
    cd1e:	4b78      	ldr	r3, [pc, #480]	; (cf00 <benchmark_body+0x4dcc>)
    cd20:	681b      	ldr	r3, [r3, #0]
    cd22:	2b04      	cmp	r3, #4
    cd24:	dd63      	ble.n	cdee <benchmark_body+0x4cba>
    cd26:	4b77      	ldr	r3, [pc, #476]	; (cf04 <benchmark_body+0x4dd0>)
    cd28:	681b      	ldr	r3, [r3, #0]
    cd2a:	2b03      	cmp	r3, #3
    cd2c:	dc5f      	bgt.n	cdee <benchmark_body+0x4cba>
    cd2e:	4b73      	ldr	r3, [pc, #460]	; (cefc <benchmark_body+0x4dc8>)
    cd30:	689a      	ldr	r2, [r3, #8]
    cd32:	4b72      	ldr	r3, [pc, #456]	; (cefc <benchmark_body+0x4dc8>)
    cd34:	691b      	ldr	r3, [r3, #16]
    cd36:	429a      	cmp	r2, r3
    cd38:	d159      	bne.n	cdee <benchmark_body+0x4cba>
    cd3a:	4b70      	ldr	r3, [pc, #448]	; (cefc <benchmark_body+0x4dc8>)
    cd3c:	689a      	ldr	r2, [r3, #8]
    cd3e:	4b6f      	ldr	r3, [pc, #444]	; (cefc <benchmark_body+0x4dc8>)
    cd40:	685b      	ldr	r3, [r3, #4]
    cd42:	429a      	cmp	r2, r3
    cd44:	d153      	bne.n	cdee <benchmark_body+0x4cba>
    cd46:	f507 63bf 	add.w	r3, r7, #1528	; 0x5f8
    cd4a:	f2a3 437c 	subw	r3, r3, #1148	; 0x47c
    cd4e:	4a6b      	ldr	r2, [pc, #428]	; (cefc <benchmark_body+0x4dc8>)
    cd50:	68d2      	ldr	r2, [r2, #12]
    cd52:	601a      	str	r2, [r3, #0]
    cd54:	f507 63bf 	add.w	r3, r7, #1528	; 0x5f8
    cd58:	f5a3 6390 	sub.w	r3, r3, #1152	; 0x480
    cd5c:	4a67      	ldr	r2, [pc, #412]	; (cefc <benchmark_body+0x4dc8>)
    cd5e:	6892      	ldr	r2, [r2, #8]
    cd60:	601a      	str	r2, [r3, #0]
    cd62:	f507 63bf 	add.w	r3, r7, #1528	; 0x5f8
    cd66:	f5a3 6290 	sub.w	r2, r3, #1152	; 0x480
    cd6a:	f507 63bf 	add.w	r3, r7, #1528	; 0x5f8
    cd6e:	f2a3 437c 	subw	r3, r3, #1148	; 0x47c
    cd72:	6812      	ldr	r2, [r2, #0]
    cd74:	681b      	ldr	r3, [r3, #0]
    cd76:	429a      	cmp	r2, r3
    cd78:	dd39      	ble.n	cdee <benchmark_body+0x4cba>
    cd7a:	4b61      	ldr	r3, [pc, #388]	; (cf00 <benchmark_body+0x4dcc>)
    cd7c:	681b      	ldr	r3, [r3, #0]
    cd7e:	3b04      	subs	r3, #4
    cd80:	4a5f      	ldr	r2, [pc, #380]	; (cf00 <benchmark_body+0x4dcc>)
    cd82:	6013      	str	r3, [r2, #0]
    cd84:	f507 63bf 	add.w	r3, r7, #1528	; 0x5f8
    cd88:	f2a3 4384 	subw	r3, r3, #1156	; 0x484
    cd8c:	f507 62bf 	add.w	r2, r7, #1528	; 0x5f8
    cd90:	f2a2 417c 	subw	r1, r2, #1148	; 0x47c
    cd94:	f507 62bf 	add.w	r2, r7, #1528	; 0x5f8
    cd98:	f5a2 6290 	sub.w	r2, r2, #1152	; 0x480
    cd9c:	6809      	ldr	r1, [r1, #0]
    cd9e:	6812      	ldr	r2, [r2, #0]
    cda0:	440a      	add	r2, r1
    cda2:	601a      	str	r2, [r3, #0]
    cda4:	4b57      	ldr	r3, [pc, #348]	; (cf04 <benchmark_body+0x4dd0>)
    cda6:	681b      	ldr	r3, [r3, #0]
    cda8:	4957      	ldr	r1, [pc, #348]	; (cf08 <benchmark_body+0x4dd4>)
    cdaa:	f507 62bf 	add.w	r2, r7, #1528	; 0x5f8
    cdae:	f2a2 427c 	subw	r2, r2, #1148	; 0x47c
    cdb2:	6812      	ldr	r2, [r2, #0]
    cdb4:	f841 2023 	str.w	r2, [r1, r3, lsl #2]
    cdb8:	4b52      	ldr	r3, [pc, #328]	; (cf04 <benchmark_body+0x4dd0>)
    cdba:	681b      	ldr	r3, [r3, #0]
    cdbc:	3301      	adds	r3, #1
    cdbe:	4952      	ldr	r1, [pc, #328]	; (cf08 <benchmark_body+0x4dd4>)
    cdc0:	f507 62bf 	add.w	r2, r7, #1528	; 0x5f8
    cdc4:	f5a2 6290 	sub.w	r2, r2, #1152	; 0x480
    cdc8:	6812      	ldr	r2, [r2, #0]
    cdca:	f841 2023 	str.w	r2, [r1, r3, lsl #2]
    cdce:	4b4d      	ldr	r3, [pc, #308]	; (cf04 <benchmark_body+0x4dd0>)
    cdd0:	681b      	ldr	r3, [r3, #0]
    cdd2:	3302      	adds	r3, #2
    cdd4:	494c      	ldr	r1, [pc, #304]	; (cf08 <benchmark_body+0x4dd4>)
    cdd6:	f507 62bf 	add.w	r2, r7, #1528	; 0x5f8
    cdda:	f2a2 4284 	subw	r2, r2, #1156	; 0x484
    cdde:	6812      	ldr	r2, [r2, #0]
    cde0:	f841 2023 	str.w	r2, [r1, r3, lsl #2]
    cde4:	4b47      	ldr	r3, [pc, #284]	; (cf04 <benchmark_body+0x4dd0>)
    cde6:	681b      	ldr	r3, [r3, #0]
    cde8:	3303      	adds	r3, #3
    cdea:	4a46      	ldr	r2, [pc, #280]	; (cf04 <benchmark_body+0x4dd0>)
    cdec:	6013      	str	r3, [r2, #0]
    cdee:	4b44      	ldr	r3, [pc, #272]	; (cf00 <benchmark_body+0x4dcc>)
    cdf0:	681b      	ldr	r3, [r3, #0]
    cdf2:	2b04      	cmp	r3, #4
    cdf4:	dd67      	ble.n	cec6 <benchmark_body+0x4d92>
    cdf6:	4b43      	ldr	r3, [pc, #268]	; (cf04 <benchmark_body+0x4dd0>)
    cdf8:	681b      	ldr	r3, [r3, #0]
    cdfa:	2b03      	cmp	r3, #3
    cdfc:	dc63      	bgt.n	cec6 <benchmark_body+0x4d92>
    cdfe:	4b3f      	ldr	r3, [pc, #252]	; (cefc <benchmark_body+0x4dc8>)
    ce00:	691a      	ldr	r2, [r3, #16]
    ce02:	4b3e      	ldr	r3, [pc, #248]	; (cefc <benchmark_body+0x4dc8>)
    ce04:	681b      	ldr	r3, [r3, #0]
    ce06:	429a      	cmp	r2, r3
    ce08:	d15d      	bne.n	cec6 <benchmark_body+0x4d92>
    ce0a:	4b3c      	ldr	r3, [pc, #240]	; (cefc <benchmark_body+0x4dc8>)
    ce0c:	691a      	ldr	r2, [r3, #16]
    ce0e:	4b3b      	ldr	r3, [pc, #236]	; (cefc <benchmark_body+0x4dc8>)
    ce10:	685b      	ldr	r3, [r3, #4]
    ce12:	429a      	cmp	r2, r3
    ce14:	d157      	bne.n	cec6 <benchmark_body+0x4d92>
    ce16:	f507 63bf 	add.w	r3, r7, #1528	; 0x5f8
    ce1a:	f5a3 6391 	sub.w	r3, r3, #1160	; 0x488
    ce1e:	4a37      	ldr	r2, [pc, #220]	; (cefc <benchmark_body+0x4dc8>)
    ce20:	68d2      	ldr	r2, [r2, #12]
    ce22:	601a      	str	r2, [r3, #0]
    ce24:	f507 63bf 	add.w	r3, r7, #1528	; 0x5f8
    ce28:	f2a3 438c 	subw	r3, r3, #1164	; 0x48c
    ce2c:	4a33      	ldr	r2, [pc, #204]	; (cefc <benchmark_body+0x4dc8>)
    ce2e:	6912      	ldr	r2, [r2, #16]
    ce30:	601a      	str	r2, [r3, #0]
    ce32:	f507 63bf 	add.w	r3, r7, #1528	; 0x5f8
    ce36:	f2a3 428c 	subw	r2, r3, #1164	; 0x48c
    ce3a:	f507 63bf 	add.w	r3, r7, #1528	; 0x5f8
    ce3e:	f5a3 6391 	sub.w	r3, r3, #1160	; 0x488
    ce42:	6812      	ldr	r2, [r2, #0]
    ce44:	681b      	ldr	r3, [r3, #0]
    ce46:	429a      	cmp	r2, r3
    ce48:	dd3d      	ble.n	cec6 <benchmark_body+0x4d92>
    ce4a:	4b2c      	ldr	r3, [pc, #176]	; (cefc <benchmark_body+0x4dc8>)
    ce4c:	689b      	ldr	r3, [r3, #8]
    ce4e:	4a2b      	ldr	r2, [pc, #172]	; (cefc <benchmark_body+0x4dc8>)
    ce50:	6013      	str	r3, [r2, #0]
    ce52:	4b2b      	ldr	r3, [pc, #172]	; (cf00 <benchmark_body+0x4dcc>)
    ce54:	681b      	ldr	r3, [r3, #0]
    ce56:	3b04      	subs	r3, #4
    ce58:	4a29      	ldr	r2, [pc, #164]	; (cf00 <benchmark_body+0x4dcc>)
    ce5a:	6013      	str	r3, [r2, #0]
    ce5c:	f507 63bf 	add.w	r3, r7, #1528	; 0x5f8
    ce60:	f5a3 6392 	sub.w	r3, r3, #1168	; 0x490
    ce64:	f507 62bf 	add.w	r2, r7, #1528	; 0x5f8
    ce68:	f5a2 6191 	sub.w	r1, r2, #1160	; 0x488
    ce6c:	f507 62bf 	add.w	r2, r7, #1528	; 0x5f8
    ce70:	f2a2 428c 	subw	r2, r2, #1164	; 0x48c
    ce74:	6809      	ldr	r1, [r1, #0]
    ce76:	6812      	ldr	r2, [r2, #0]
    ce78:	440a      	add	r2, r1
    ce7a:	601a      	str	r2, [r3, #0]
    ce7c:	4b21      	ldr	r3, [pc, #132]	; (cf04 <benchmark_body+0x4dd0>)
    ce7e:	681b      	ldr	r3, [r3, #0]
    ce80:	4921      	ldr	r1, [pc, #132]	; (cf08 <benchmark_body+0x4dd4>)
    ce82:	f507 62bf 	add.w	r2, r7, #1528	; 0x5f8
    ce86:	f5a2 6291 	sub.w	r2, r2, #1160	; 0x488
    ce8a:	6812      	ldr	r2, [r2, #0]
    ce8c:	f841 2023 	str.w	r2, [r1, r3, lsl #2]
    ce90:	4b1c      	ldr	r3, [pc, #112]	; (cf04 <benchmark_body+0x4dd0>)
    ce92:	681b      	ldr	r3, [r3, #0]
    ce94:	3301      	adds	r3, #1
    ce96:	491c      	ldr	r1, [pc, #112]	; (cf08 <benchmark_body+0x4dd4>)
    ce98:	f507 62bf 	add.w	r2, r7, #1528	; 0x5f8
    ce9c:	f2a2 428c 	subw	r2, r2, #1164	; 0x48c
    cea0:	6812      	ldr	r2, [r2, #0]
    cea2:	f841 2023 	str.w	r2, [r1, r3, lsl #2]
    cea6:	4b17      	ldr	r3, [pc, #92]	; (cf04 <benchmark_body+0x4dd0>)
    cea8:	681b      	ldr	r3, [r3, #0]
    ceaa:	3302      	adds	r3, #2
    ceac:	4916      	ldr	r1, [pc, #88]	; (cf08 <benchmark_body+0x4dd4>)
    ceae:	f507 62bf 	add.w	r2, r7, #1528	; 0x5f8
    ceb2:	f5a2 6292 	sub.w	r2, r2, #1168	; 0x490
    ceb6:	6812      	ldr	r2, [r2, #0]
    ceb8:	f841 2023 	str.w	r2, [r1, r3, lsl #2]
    cebc:	4b11      	ldr	r3, [pc, #68]	; (cf04 <benchmark_body+0x4dd0>)
    cebe:	681b      	ldr	r3, [r3, #0]
    cec0:	3303      	adds	r3, #3
    cec2:	4a10      	ldr	r2, [pc, #64]	; (cf04 <benchmark_body+0x4dd0>)
    cec4:	6013      	str	r3, [r2, #0]
    cec6:	4b0e      	ldr	r3, [pc, #56]	; (cf00 <benchmark_body+0x4dcc>)
    cec8:	681b      	ldr	r3, [r3, #0]
    ceca:	2b04      	cmp	r3, #4
    cecc:	dd70      	ble.n	cfb0 <benchmark_body+0x4e7c>
    cece:	4b0d      	ldr	r3, [pc, #52]	; (cf04 <benchmark_body+0x4dd0>)
    ced0:	681b      	ldr	r3, [r3, #0]
    ced2:	2b03      	cmp	r3, #3
    ced4:	dc6c      	bgt.n	cfb0 <benchmark_body+0x4e7c>
    ced6:	4b09      	ldr	r3, [pc, #36]	; (cefc <benchmark_body+0x4dc8>)
    ced8:	691a      	ldr	r2, [r3, #16]
    ceda:	4b08      	ldr	r3, [pc, #32]	; (cefc <benchmark_body+0x4dc8>)
    cedc:	681b      	ldr	r3, [r3, #0]
    cede:	429a      	cmp	r2, r3
    cee0:	d166      	bne.n	cfb0 <benchmark_body+0x4e7c>
    cee2:	4b06      	ldr	r3, [pc, #24]	; (cefc <benchmark_body+0x4dc8>)
    cee4:	691a      	ldr	r2, [r3, #16]
    cee6:	4b05      	ldr	r3, [pc, #20]	; (cefc <benchmark_body+0x4dc8>)
    cee8:	689b      	ldr	r3, [r3, #8]
    ceea:	429a      	cmp	r2, r3
    ceec:	d160      	bne.n	cfb0 <benchmark_body+0x4e7c>
    ceee:	f507 63bf 	add.w	r3, r7, #1528	; 0x5f8
    cef2:	f2a3 4394 	subw	r3, r3, #1172	; 0x494
    cef6:	4a01      	ldr	r2, [pc, #4]	; (cefc <benchmark_body+0x4dc8>)
    cef8:	68d2      	ldr	r2, [r2, #12]
    cefa:	e007      	b.n	cf0c <benchmark_body+0x4dd8>
    cefc:	0001f104 	.word	0x0001f104
    cf00:	0001ecac 	.word	0x0001ecac
    cf04:	0001f118 	.word	0x0001f118
    cf08:	0001f11c 	.word	0x0001f11c
    cf0c:	601a      	str	r2, [r3, #0]
    cf0e:	f507 63bf 	add.w	r3, r7, #1528	; 0x5f8
    cf12:	f5a3 6393 	sub.w	r3, r3, #1176	; 0x498
    cf16:	4aa7      	ldr	r2, [pc, #668]	; (d1b4 <benchmark_body+0x5080>)
    cf18:	6912      	ldr	r2, [r2, #16]
    cf1a:	601a      	str	r2, [r3, #0]
    cf1c:	f507 63bf 	add.w	r3, r7, #1528	; 0x5f8
    cf20:	f5a3 6293 	sub.w	r2, r3, #1176	; 0x498
    cf24:	f507 63bf 	add.w	r3, r7, #1528	; 0x5f8
    cf28:	f2a3 4394 	subw	r3, r3, #1172	; 0x494
    cf2c:	6812      	ldr	r2, [r2, #0]
    cf2e:	681b      	ldr	r3, [r3, #0]
    cf30:	429a      	cmp	r2, r3
    cf32:	dd3d      	ble.n	cfb0 <benchmark_body+0x4e7c>
    cf34:	4b9f      	ldr	r3, [pc, #636]	; (d1b4 <benchmark_body+0x5080>)
    cf36:	685b      	ldr	r3, [r3, #4]
    cf38:	4a9e      	ldr	r2, [pc, #632]	; (d1b4 <benchmark_body+0x5080>)
    cf3a:	6013      	str	r3, [r2, #0]
    cf3c:	4b9e      	ldr	r3, [pc, #632]	; (d1b8 <benchmark_body+0x5084>)
    cf3e:	681b      	ldr	r3, [r3, #0]
    cf40:	3b04      	subs	r3, #4
    cf42:	4a9d      	ldr	r2, [pc, #628]	; (d1b8 <benchmark_body+0x5084>)
    cf44:	6013      	str	r3, [r2, #0]
    cf46:	f507 63bf 	add.w	r3, r7, #1528	; 0x5f8
    cf4a:	f2a3 439c 	subw	r3, r3, #1180	; 0x49c
    cf4e:	f507 62bf 	add.w	r2, r7, #1528	; 0x5f8
    cf52:	f2a2 4194 	subw	r1, r2, #1172	; 0x494
    cf56:	f507 62bf 	add.w	r2, r7, #1528	; 0x5f8
    cf5a:	f5a2 6293 	sub.w	r2, r2, #1176	; 0x498
    cf5e:	6809      	ldr	r1, [r1, #0]
    cf60:	6812      	ldr	r2, [r2, #0]
    cf62:	440a      	add	r2, r1
    cf64:	601a      	str	r2, [r3, #0]
    cf66:	4b95      	ldr	r3, [pc, #596]	; (d1bc <benchmark_body+0x5088>)
    cf68:	681b      	ldr	r3, [r3, #0]
    cf6a:	4995      	ldr	r1, [pc, #596]	; (d1c0 <benchmark_body+0x508c>)
    cf6c:	f507 62bf 	add.w	r2, r7, #1528	; 0x5f8
    cf70:	f2a2 4294 	subw	r2, r2, #1172	; 0x494
    cf74:	6812      	ldr	r2, [r2, #0]
    cf76:	f841 2023 	str.w	r2, [r1, r3, lsl #2]
    cf7a:	4b90      	ldr	r3, [pc, #576]	; (d1bc <benchmark_body+0x5088>)
    cf7c:	681b      	ldr	r3, [r3, #0]
    cf7e:	3301      	adds	r3, #1
    cf80:	498f      	ldr	r1, [pc, #572]	; (d1c0 <benchmark_body+0x508c>)
    cf82:	f507 62bf 	add.w	r2, r7, #1528	; 0x5f8
    cf86:	f5a2 6293 	sub.w	r2, r2, #1176	; 0x498
    cf8a:	6812      	ldr	r2, [r2, #0]
    cf8c:	f841 2023 	str.w	r2, [r1, r3, lsl #2]
    cf90:	4b8a      	ldr	r3, [pc, #552]	; (d1bc <benchmark_body+0x5088>)
    cf92:	681b      	ldr	r3, [r3, #0]
    cf94:	3302      	adds	r3, #2
    cf96:	498a      	ldr	r1, [pc, #552]	; (d1c0 <benchmark_body+0x508c>)
    cf98:	f507 62bf 	add.w	r2, r7, #1528	; 0x5f8
    cf9c:	f2a2 429c 	subw	r2, r2, #1180	; 0x49c
    cfa0:	6812      	ldr	r2, [r2, #0]
    cfa2:	f841 2023 	str.w	r2, [r1, r3, lsl #2]
    cfa6:	4b85      	ldr	r3, [pc, #532]	; (d1bc <benchmark_body+0x5088>)
    cfa8:	681b      	ldr	r3, [r3, #0]
    cfaa:	3303      	adds	r3, #3
    cfac:	4a83      	ldr	r2, [pc, #524]	; (d1bc <benchmark_body+0x5088>)
    cfae:	6013      	str	r3, [r2, #0]
    cfb0:	4b81      	ldr	r3, [pc, #516]	; (d1b8 <benchmark_body+0x5084>)
    cfb2:	681b      	ldr	r3, [r3, #0]
    cfb4:	2b04      	cmp	r3, #4
    cfb6:	dd67      	ble.n	d088 <benchmark_body+0x4f54>
    cfb8:	4b80      	ldr	r3, [pc, #512]	; (d1bc <benchmark_body+0x5088>)
    cfba:	681b      	ldr	r3, [r3, #0]
    cfbc:	2b03      	cmp	r3, #3
    cfbe:	dc63      	bgt.n	d088 <benchmark_body+0x4f54>
    cfc0:	4b7c      	ldr	r3, [pc, #496]	; (d1b4 <benchmark_body+0x5080>)
    cfc2:	691a      	ldr	r2, [r3, #16]
    cfc4:	4b7b      	ldr	r3, [pc, #492]	; (d1b4 <benchmark_body+0x5080>)
    cfc6:	685b      	ldr	r3, [r3, #4]
    cfc8:	429a      	cmp	r2, r3
    cfca:	d15d      	bne.n	d088 <benchmark_body+0x4f54>
    cfcc:	4b79      	ldr	r3, [pc, #484]	; (d1b4 <benchmark_body+0x5080>)
    cfce:	691a      	ldr	r2, [r3, #16]
    cfd0:	4b78      	ldr	r3, [pc, #480]	; (d1b4 <benchmark_body+0x5080>)
    cfd2:	681b      	ldr	r3, [r3, #0]
    cfd4:	429a      	cmp	r2, r3
    cfd6:	d157      	bne.n	d088 <benchmark_body+0x4f54>
    cfd8:	f507 63bf 	add.w	r3, r7, #1528	; 0x5f8
    cfdc:	f5a3 6394 	sub.w	r3, r3, #1184	; 0x4a0
    cfe0:	4a74      	ldr	r2, [pc, #464]	; (d1b4 <benchmark_body+0x5080>)
    cfe2:	68d2      	ldr	r2, [r2, #12]
    cfe4:	601a      	str	r2, [r3, #0]
    cfe6:	f507 63bf 	add.w	r3, r7, #1528	; 0x5f8
    cfea:	f2a3 43a4 	subw	r3, r3, #1188	; 0x4a4
    cfee:	4a71      	ldr	r2, [pc, #452]	; (d1b4 <benchmark_body+0x5080>)
    cff0:	6912      	ldr	r2, [r2, #16]
    cff2:	601a      	str	r2, [r3, #0]
    cff4:	f507 63bf 	add.w	r3, r7, #1528	; 0x5f8
    cff8:	f2a3 42a4 	subw	r2, r3, #1188	; 0x4a4
    cffc:	f507 63bf 	add.w	r3, r7, #1528	; 0x5f8
    d000:	f5a3 6394 	sub.w	r3, r3, #1184	; 0x4a0
    d004:	6812      	ldr	r2, [r2, #0]
    d006:	681b      	ldr	r3, [r3, #0]
    d008:	429a      	cmp	r2, r3
    d00a:	dd3d      	ble.n	d088 <benchmark_body+0x4f54>
    d00c:	4b69      	ldr	r3, [pc, #420]	; (d1b4 <benchmark_body+0x5080>)
    d00e:	689b      	ldr	r3, [r3, #8]
    d010:	4a68      	ldr	r2, [pc, #416]	; (d1b4 <benchmark_body+0x5080>)
    d012:	6013      	str	r3, [r2, #0]
    d014:	4b68      	ldr	r3, [pc, #416]	; (d1b8 <benchmark_body+0x5084>)
    d016:	681b      	ldr	r3, [r3, #0]
    d018:	3b04      	subs	r3, #4
    d01a:	4a67      	ldr	r2, [pc, #412]	; (d1b8 <benchmark_body+0x5084>)
    d01c:	6013      	str	r3, [r2, #0]
    d01e:	f507 63bf 	add.w	r3, r7, #1528	; 0x5f8
    d022:	f5a3 6395 	sub.w	r3, r3, #1192	; 0x4a8
    d026:	f507 62bf 	add.w	r2, r7, #1528	; 0x5f8
    d02a:	f5a2 6194 	sub.w	r1, r2, #1184	; 0x4a0
    d02e:	f507 62bf 	add.w	r2, r7, #1528	; 0x5f8
    d032:	f2a2 42a4 	subw	r2, r2, #1188	; 0x4a4
    d036:	6809      	ldr	r1, [r1, #0]
    d038:	6812      	ldr	r2, [r2, #0]
    d03a:	440a      	add	r2, r1
    d03c:	601a      	str	r2, [r3, #0]
    d03e:	4b5f      	ldr	r3, [pc, #380]	; (d1bc <benchmark_body+0x5088>)
    d040:	681b      	ldr	r3, [r3, #0]
    d042:	495f      	ldr	r1, [pc, #380]	; (d1c0 <benchmark_body+0x508c>)
    d044:	f507 62bf 	add.w	r2, r7, #1528	; 0x5f8
    d048:	f5a2 6294 	sub.w	r2, r2, #1184	; 0x4a0
    d04c:	6812      	ldr	r2, [r2, #0]
    d04e:	f841 2023 	str.w	r2, [r1, r3, lsl #2]
    d052:	4b5a      	ldr	r3, [pc, #360]	; (d1bc <benchmark_body+0x5088>)
    d054:	681b      	ldr	r3, [r3, #0]
    d056:	3301      	adds	r3, #1
    d058:	4959      	ldr	r1, [pc, #356]	; (d1c0 <benchmark_body+0x508c>)
    d05a:	f507 62bf 	add.w	r2, r7, #1528	; 0x5f8
    d05e:	f2a2 42a4 	subw	r2, r2, #1188	; 0x4a4
    d062:	6812      	ldr	r2, [r2, #0]
    d064:	f841 2023 	str.w	r2, [r1, r3, lsl #2]
    d068:	4b54      	ldr	r3, [pc, #336]	; (d1bc <benchmark_body+0x5088>)
    d06a:	681b      	ldr	r3, [r3, #0]
    d06c:	3302      	adds	r3, #2
    d06e:	4954      	ldr	r1, [pc, #336]	; (d1c0 <benchmark_body+0x508c>)
    d070:	f507 62bf 	add.w	r2, r7, #1528	; 0x5f8
    d074:	f5a2 6295 	sub.w	r2, r2, #1192	; 0x4a8
    d078:	6812      	ldr	r2, [r2, #0]
    d07a:	f841 2023 	str.w	r2, [r1, r3, lsl #2]
    d07e:	4b4f      	ldr	r3, [pc, #316]	; (d1bc <benchmark_body+0x5088>)
    d080:	681b      	ldr	r3, [r3, #0]
    d082:	3303      	adds	r3, #3
    d084:	4a4d      	ldr	r2, [pc, #308]	; (d1bc <benchmark_body+0x5088>)
    d086:	6013      	str	r3, [r2, #0]
    d088:	4b4b      	ldr	r3, [pc, #300]	; (d1b8 <benchmark_body+0x5084>)
    d08a:	681b      	ldr	r3, [r3, #0]
    d08c:	2b04      	cmp	r3, #4
    d08e:	dd63      	ble.n	d158 <benchmark_body+0x5024>
    d090:	4b4a      	ldr	r3, [pc, #296]	; (d1bc <benchmark_body+0x5088>)
    d092:	681b      	ldr	r3, [r3, #0]
    d094:	2b03      	cmp	r3, #3
    d096:	dc5f      	bgt.n	d158 <benchmark_body+0x5024>
    d098:	4b46      	ldr	r3, [pc, #280]	; (d1b4 <benchmark_body+0x5080>)
    d09a:	691a      	ldr	r2, [r3, #16]
    d09c:	4b45      	ldr	r3, [pc, #276]	; (d1b4 <benchmark_body+0x5080>)
    d09e:	685b      	ldr	r3, [r3, #4]
    d0a0:	429a      	cmp	r2, r3
    d0a2:	d159      	bne.n	d158 <benchmark_body+0x5024>
    d0a4:	4b43      	ldr	r3, [pc, #268]	; (d1b4 <benchmark_body+0x5080>)
    d0a6:	691a      	ldr	r2, [r3, #16]
    d0a8:	4b42      	ldr	r3, [pc, #264]	; (d1b4 <benchmark_body+0x5080>)
    d0aa:	689b      	ldr	r3, [r3, #8]
    d0ac:	429a      	cmp	r2, r3
    d0ae:	d153      	bne.n	d158 <benchmark_body+0x5024>
    d0b0:	f507 63bf 	add.w	r3, r7, #1528	; 0x5f8
    d0b4:	f2a3 43ac 	subw	r3, r3, #1196	; 0x4ac
    d0b8:	4a3e      	ldr	r2, [pc, #248]	; (d1b4 <benchmark_body+0x5080>)
    d0ba:	68d2      	ldr	r2, [r2, #12]
    d0bc:	601a      	str	r2, [r3, #0]
    d0be:	f507 63bf 	add.w	r3, r7, #1528	; 0x5f8
    d0c2:	f5a3 6396 	sub.w	r3, r3, #1200	; 0x4b0
    d0c6:	4a3b      	ldr	r2, [pc, #236]	; (d1b4 <benchmark_body+0x5080>)
    d0c8:	6912      	ldr	r2, [r2, #16]
    d0ca:	601a      	str	r2, [r3, #0]
    d0cc:	f507 63bf 	add.w	r3, r7, #1528	; 0x5f8
    d0d0:	f5a3 6296 	sub.w	r2, r3, #1200	; 0x4b0
    d0d4:	f507 63bf 	add.w	r3, r7, #1528	; 0x5f8
    d0d8:	f2a3 43ac 	subw	r3, r3, #1196	; 0x4ac
    d0dc:	6812      	ldr	r2, [r2, #0]
    d0de:	681b      	ldr	r3, [r3, #0]
    d0e0:	429a      	cmp	r2, r3
    d0e2:	dd39      	ble.n	d158 <benchmark_body+0x5024>
    d0e4:	4b34      	ldr	r3, [pc, #208]	; (d1b8 <benchmark_body+0x5084>)
    d0e6:	681b      	ldr	r3, [r3, #0]
    d0e8:	3b04      	subs	r3, #4
    d0ea:	4a33      	ldr	r2, [pc, #204]	; (d1b8 <benchmark_body+0x5084>)
    d0ec:	6013      	str	r3, [r2, #0]
    d0ee:	f507 63bf 	add.w	r3, r7, #1528	; 0x5f8
    d0f2:	f2a3 43b4 	subw	r3, r3, #1204	; 0x4b4
    d0f6:	f507 62bf 	add.w	r2, r7, #1528	; 0x5f8
    d0fa:	f2a2 41ac 	subw	r1, r2, #1196	; 0x4ac
    d0fe:	f507 62bf 	add.w	r2, r7, #1528	; 0x5f8
    d102:	f5a2 6296 	sub.w	r2, r2, #1200	; 0x4b0
    d106:	6809      	ldr	r1, [r1, #0]
    d108:	6812      	ldr	r2, [r2, #0]
    d10a:	440a      	add	r2, r1
    d10c:	601a      	str	r2, [r3, #0]
    d10e:	4b2b      	ldr	r3, [pc, #172]	; (d1bc <benchmark_body+0x5088>)
    d110:	681b      	ldr	r3, [r3, #0]
    d112:	492b      	ldr	r1, [pc, #172]	; (d1c0 <benchmark_body+0x508c>)
    d114:	f507 62bf 	add.w	r2, r7, #1528	; 0x5f8
    d118:	f2a2 42ac 	subw	r2, r2, #1196	; 0x4ac
    d11c:	6812      	ldr	r2, [r2, #0]
    d11e:	f841 2023 	str.w	r2, [r1, r3, lsl #2]
    d122:	4b26      	ldr	r3, [pc, #152]	; (d1bc <benchmark_body+0x5088>)
    d124:	681b      	ldr	r3, [r3, #0]
    d126:	3301      	adds	r3, #1
    d128:	4925      	ldr	r1, [pc, #148]	; (d1c0 <benchmark_body+0x508c>)
    d12a:	f507 62bf 	add.w	r2, r7, #1528	; 0x5f8
    d12e:	f5a2 6296 	sub.w	r2, r2, #1200	; 0x4b0
    d132:	6812      	ldr	r2, [r2, #0]
    d134:	f841 2023 	str.w	r2, [r1, r3, lsl #2]
    d138:	4b20      	ldr	r3, [pc, #128]	; (d1bc <benchmark_body+0x5088>)
    d13a:	681b      	ldr	r3, [r3, #0]
    d13c:	3302      	adds	r3, #2
    d13e:	4920      	ldr	r1, [pc, #128]	; (d1c0 <benchmark_body+0x508c>)
    d140:	f507 62bf 	add.w	r2, r7, #1528	; 0x5f8
    d144:	f2a2 42b4 	subw	r2, r2, #1204	; 0x4b4
    d148:	6812      	ldr	r2, [r2, #0]
    d14a:	f841 2023 	str.w	r2, [r1, r3, lsl #2]
    d14e:	4b1b      	ldr	r3, [pc, #108]	; (d1bc <benchmark_body+0x5088>)
    d150:	681b      	ldr	r3, [r3, #0]
    d152:	3303      	adds	r3, #3
    d154:	4a19      	ldr	r2, [pc, #100]	; (d1bc <benchmark_body+0x5088>)
    d156:	6013      	str	r3, [r2, #0]
    d158:	4b17      	ldr	r3, [pc, #92]	; (d1b8 <benchmark_body+0x5084>)
    d15a:	681b      	ldr	r3, [r3, #0]
    d15c:	2b04      	cmp	r3, #4
    d15e:	dd70      	ble.n	d242 <benchmark_body+0x510e>
    d160:	4b16      	ldr	r3, [pc, #88]	; (d1bc <benchmark_body+0x5088>)
    d162:	681b      	ldr	r3, [r3, #0]
    d164:	2b03      	cmp	r3, #3
    d166:	dc6c      	bgt.n	d242 <benchmark_body+0x510e>
    d168:	4b12      	ldr	r3, [pc, #72]	; (d1b4 <benchmark_body+0x5080>)
    d16a:	691a      	ldr	r2, [r3, #16]
    d16c:	4b11      	ldr	r3, [pc, #68]	; (d1b4 <benchmark_body+0x5080>)
    d16e:	689b      	ldr	r3, [r3, #8]
    d170:	429a      	cmp	r2, r3
    d172:	d166      	bne.n	d242 <benchmark_body+0x510e>
    d174:	4b0f      	ldr	r3, [pc, #60]	; (d1b4 <benchmark_body+0x5080>)
    d176:	691a      	ldr	r2, [r3, #16]
    d178:	4b0e      	ldr	r3, [pc, #56]	; (d1b4 <benchmark_body+0x5080>)
    d17a:	681b      	ldr	r3, [r3, #0]
    d17c:	429a      	cmp	r2, r3
    d17e:	d160      	bne.n	d242 <benchmark_body+0x510e>
    d180:	f507 63bf 	add.w	r3, r7, #1528	; 0x5f8
    d184:	f5a3 6397 	sub.w	r3, r3, #1208	; 0x4b8
    d188:	4a0a      	ldr	r2, [pc, #40]	; (d1b4 <benchmark_body+0x5080>)
    d18a:	68d2      	ldr	r2, [r2, #12]
    d18c:	601a      	str	r2, [r3, #0]
    d18e:	f507 63bf 	add.w	r3, r7, #1528	; 0x5f8
    d192:	f2a3 43bc 	subw	r3, r3, #1212	; 0x4bc
    d196:	4a07      	ldr	r2, [pc, #28]	; (d1b4 <benchmark_body+0x5080>)
    d198:	6912      	ldr	r2, [r2, #16]
    d19a:	601a      	str	r2, [r3, #0]
    d19c:	f507 63bf 	add.w	r3, r7, #1528	; 0x5f8
    d1a0:	f2a3 42bc 	subw	r2, r3, #1212	; 0x4bc
    d1a4:	f507 63bf 	add.w	r3, r7, #1528	; 0x5f8
    d1a8:	f5a3 6397 	sub.w	r3, r3, #1208	; 0x4b8
    d1ac:	6812      	ldr	r2, [r2, #0]
    d1ae:	681b      	ldr	r3, [r3, #0]
    d1b0:	429a      	cmp	r2, r3
    d1b2:	e007      	b.n	d1c4 <benchmark_body+0x5090>
    d1b4:	0001f104 	.word	0x0001f104
    d1b8:	0001ecac 	.word	0x0001ecac
    d1bc:	0001f118 	.word	0x0001f118
    d1c0:	0001f11c 	.word	0x0001f11c
    d1c4:	dd3d      	ble.n	d242 <benchmark_body+0x510e>
    d1c6:	4ba7      	ldr	r3, [pc, #668]	; (d464 <benchmark_body+0x5330>)
    d1c8:	685b      	ldr	r3, [r3, #4]
    d1ca:	4aa6      	ldr	r2, [pc, #664]	; (d464 <benchmark_body+0x5330>)
    d1cc:	6013      	str	r3, [r2, #0]
    d1ce:	4ba6      	ldr	r3, [pc, #664]	; (d468 <benchmark_body+0x5334>)
    d1d0:	681b      	ldr	r3, [r3, #0]
    d1d2:	3b04      	subs	r3, #4
    d1d4:	4aa4      	ldr	r2, [pc, #656]	; (d468 <benchmark_body+0x5334>)
    d1d6:	6013      	str	r3, [r2, #0]
    d1d8:	f507 63bf 	add.w	r3, r7, #1528	; 0x5f8
    d1dc:	f5a3 6398 	sub.w	r3, r3, #1216	; 0x4c0
    d1e0:	f507 62bf 	add.w	r2, r7, #1528	; 0x5f8
    d1e4:	f5a2 6197 	sub.w	r1, r2, #1208	; 0x4b8
    d1e8:	f507 62bf 	add.w	r2, r7, #1528	; 0x5f8
    d1ec:	f2a2 42bc 	subw	r2, r2, #1212	; 0x4bc
    d1f0:	6809      	ldr	r1, [r1, #0]
    d1f2:	6812      	ldr	r2, [r2, #0]
    d1f4:	440a      	add	r2, r1
    d1f6:	601a      	str	r2, [r3, #0]
    d1f8:	4b9c      	ldr	r3, [pc, #624]	; (d46c <benchmark_body+0x5338>)
    d1fa:	681b      	ldr	r3, [r3, #0]
    d1fc:	499c      	ldr	r1, [pc, #624]	; (d470 <benchmark_body+0x533c>)
    d1fe:	f507 62bf 	add.w	r2, r7, #1528	; 0x5f8
    d202:	f5a2 6297 	sub.w	r2, r2, #1208	; 0x4b8
    d206:	6812      	ldr	r2, [r2, #0]
    d208:	f841 2023 	str.w	r2, [r1, r3, lsl #2]
    d20c:	4b97      	ldr	r3, [pc, #604]	; (d46c <benchmark_body+0x5338>)
    d20e:	681b      	ldr	r3, [r3, #0]
    d210:	3301      	adds	r3, #1
    d212:	4997      	ldr	r1, [pc, #604]	; (d470 <benchmark_body+0x533c>)
    d214:	f507 62bf 	add.w	r2, r7, #1528	; 0x5f8
    d218:	f2a2 42bc 	subw	r2, r2, #1212	; 0x4bc
    d21c:	6812      	ldr	r2, [r2, #0]
    d21e:	f841 2023 	str.w	r2, [r1, r3, lsl #2]
    d222:	4b92      	ldr	r3, [pc, #584]	; (d46c <benchmark_body+0x5338>)
    d224:	681b      	ldr	r3, [r3, #0]
    d226:	3302      	adds	r3, #2
    d228:	4991      	ldr	r1, [pc, #580]	; (d470 <benchmark_body+0x533c>)
    d22a:	f507 62bf 	add.w	r2, r7, #1528	; 0x5f8
    d22e:	f5a2 6298 	sub.w	r2, r2, #1216	; 0x4c0
    d232:	6812      	ldr	r2, [r2, #0]
    d234:	f841 2023 	str.w	r2, [r1, r3, lsl #2]
    d238:	4b8c      	ldr	r3, [pc, #560]	; (d46c <benchmark_body+0x5338>)
    d23a:	681b      	ldr	r3, [r3, #0]
    d23c:	3303      	adds	r3, #3
    d23e:	4a8b      	ldr	r2, [pc, #556]	; (d46c <benchmark_body+0x5338>)
    d240:	6013      	str	r3, [r2, #0]
    d242:	4b89      	ldr	r3, [pc, #548]	; (d468 <benchmark_body+0x5334>)
    d244:	681b      	ldr	r3, [r3, #0]
    d246:	2b04      	cmp	r3, #4
    d248:	dd63      	ble.n	d312 <benchmark_body+0x51de>
    d24a:	4b88      	ldr	r3, [pc, #544]	; (d46c <benchmark_body+0x5338>)
    d24c:	681b      	ldr	r3, [r3, #0]
    d24e:	2b03      	cmp	r3, #3
    d250:	dc5f      	bgt.n	d312 <benchmark_body+0x51de>
    d252:	4b84      	ldr	r3, [pc, #528]	; (d464 <benchmark_body+0x5330>)
    d254:	691a      	ldr	r2, [r3, #16]
    d256:	4b83      	ldr	r3, [pc, #524]	; (d464 <benchmark_body+0x5330>)
    d258:	689b      	ldr	r3, [r3, #8]
    d25a:	429a      	cmp	r2, r3
    d25c:	d159      	bne.n	d312 <benchmark_body+0x51de>
    d25e:	4b81      	ldr	r3, [pc, #516]	; (d464 <benchmark_body+0x5330>)
    d260:	691a      	ldr	r2, [r3, #16]
    d262:	4b80      	ldr	r3, [pc, #512]	; (d464 <benchmark_body+0x5330>)
    d264:	685b      	ldr	r3, [r3, #4]
    d266:	429a      	cmp	r2, r3
    d268:	d153      	bne.n	d312 <benchmark_body+0x51de>
    d26a:	f507 63bf 	add.w	r3, r7, #1528	; 0x5f8
    d26e:	f2a3 43c4 	subw	r3, r3, #1220	; 0x4c4
    d272:	4a7c      	ldr	r2, [pc, #496]	; (d464 <benchmark_body+0x5330>)
    d274:	68d2      	ldr	r2, [r2, #12]
    d276:	601a      	str	r2, [r3, #0]
    d278:	f507 63bf 	add.w	r3, r7, #1528	; 0x5f8
    d27c:	f5a3 6399 	sub.w	r3, r3, #1224	; 0x4c8
    d280:	4a78      	ldr	r2, [pc, #480]	; (d464 <benchmark_body+0x5330>)
    d282:	6912      	ldr	r2, [r2, #16]
    d284:	601a      	str	r2, [r3, #0]
    d286:	f507 63bf 	add.w	r3, r7, #1528	; 0x5f8
    d28a:	f5a3 6299 	sub.w	r2, r3, #1224	; 0x4c8
    d28e:	f507 63bf 	add.w	r3, r7, #1528	; 0x5f8
    d292:	f2a3 43c4 	subw	r3, r3, #1220	; 0x4c4
    d296:	6812      	ldr	r2, [r2, #0]
    d298:	681b      	ldr	r3, [r3, #0]
    d29a:	429a      	cmp	r2, r3
    d29c:	dd39      	ble.n	d312 <benchmark_body+0x51de>
    d29e:	4b72      	ldr	r3, [pc, #456]	; (d468 <benchmark_body+0x5334>)
    d2a0:	681b      	ldr	r3, [r3, #0]
    d2a2:	3b04      	subs	r3, #4
    d2a4:	4a70      	ldr	r2, [pc, #448]	; (d468 <benchmark_body+0x5334>)
    d2a6:	6013      	str	r3, [r2, #0]
    d2a8:	f507 63bf 	add.w	r3, r7, #1528	; 0x5f8
    d2ac:	f2a3 43cc 	subw	r3, r3, #1228	; 0x4cc
    d2b0:	f507 62bf 	add.w	r2, r7, #1528	; 0x5f8
    d2b4:	f2a2 41c4 	subw	r1, r2, #1220	; 0x4c4
    d2b8:	f507 62bf 	add.w	r2, r7, #1528	; 0x5f8
    d2bc:	f5a2 6299 	sub.w	r2, r2, #1224	; 0x4c8
    d2c0:	6809      	ldr	r1, [r1, #0]
    d2c2:	6812      	ldr	r2, [r2, #0]
    d2c4:	440a      	add	r2, r1
    d2c6:	601a      	str	r2, [r3, #0]
    d2c8:	4b68      	ldr	r3, [pc, #416]	; (d46c <benchmark_body+0x5338>)
    d2ca:	681b      	ldr	r3, [r3, #0]
    d2cc:	4968      	ldr	r1, [pc, #416]	; (d470 <benchmark_body+0x533c>)
    d2ce:	f507 62bf 	add.w	r2, r7, #1528	; 0x5f8
    d2d2:	f2a2 42c4 	subw	r2, r2, #1220	; 0x4c4
    d2d6:	6812      	ldr	r2, [r2, #0]
    d2d8:	f841 2023 	str.w	r2, [r1, r3, lsl #2]
    d2dc:	4b63      	ldr	r3, [pc, #396]	; (d46c <benchmark_body+0x5338>)
    d2de:	681b      	ldr	r3, [r3, #0]
    d2e0:	3301      	adds	r3, #1
    d2e2:	4963      	ldr	r1, [pc, #396]	; (d470 <benchmark_body+0x533c>)
    d2e4:	f507 62bf 	add.w	r2, r7, #1528	; 0x5f8
    d2e8:	f5a2 6299 	sub.w	r2, r2, #1224	; 0x4c8
    d2ec:	6812      	ldr	r2, [r2, #0]
    d2ee:	f841 2023 	str.w	r2, [r1, r3, lsl #2]
    d2f2:	4b5e      	ldr	r3, [pc, #376]	; (d46c <benchmark_body+0x5338>)
    d2f4:	681b      	ldr	r3, [r3, #0]
    d2f6:	3302      	adds	r3, #2
    d2f8:	495d      	ldr	r1, [pc, #372]	; (d470 <benchmark_body+0x533c>)
    d2fa:	f507 62bf 	add.w	r2, r7, #1528	; 0x5f8
    d2fe:	f2a2 42cc 	subw	r2, r2, #1228	; 0x4cc
    d302:	6812      	ldr	r2, [r2, #0]
    d304:	f841 2023 	str.w	r2, [r1, r3, lsl #2]
    d308:	4b58      	ldr	r3, [pc, #352]	; (d46c <benchmark_body+0x5338>)
    d30a:	681b      	ldr	r3, [r3, #0]
    d30c:	3303      	adds	r3, #3
    d30e:	4a57      	ldr	r2, [pc, #348]	; (d46c <benchmark_body+0x5338>)
    d310:	6013      	str	r3, [r2, #0]
    d312:	4b55      	ldr	r3, [pc, #340]	; (d468 <benchmark_body+0x5334>)
    d314:	681b      	ldr	r3, [r3, #0]
    d316:	2b04      	cmp	r3, #4
    d318:	dd67      	ble.n	d3ea <benchmark_body+0x52b6>
    d31a:	4b54      	ldr	r3, [pc, #336]	; (d46c <benchmark_body+0x5338>)
    d31c:	681b      	ldr	r3, [r3, #0]
    d31e:	2b03      	cmp	r3, #3
    d320:	dc63      	bgt.n	d3ea <benchmark_body+0x52b6>
    d322:	4b50      	ldr	r3, [pc, #320]	; (d464 <benchmark_body+0x5330>)
    d324:	681a      	ldr	r2, [r3, #0]
    d326:	4b4f      	ldr	r3, [pc, #316]	; (d464 <benchmark_body+0x5330>)
    d328:	685b      	ldr	r3, [r3, #4]
    d32a:	429a      	cmp	r2, r3
    d32c:	d15d      	bne.n	d3ea <benchmark_body+0x52b6>
    d32e:	4b4d      	ldr	r3, [pc, #308]	; (d464 <benchmark_body+0x5330>)
    d330:	681a      	ldr	r2, [r3, #0]
    d332:	4b4c      	ldr	r3, [pc, #304]	; (d464 <benchmark_body+0x5330>)
    d334:	689b      	ldr	r3, [r3, #8]
    d336:	429a      	cmp	r2, r3
    d338:	d157      	bne.n	d3ea <benchmark_body+0x52b6>
    d33a:	f507 63bf 	add.w	r3, r7, #1528	; 0x5f8
    d33e:	f5a3 639a 	sub.w	r3, r3, #1232	; 0x4d0
    d342:	4a48      	ldr	r2, [pc, #288]	; (d464 <benchmark_body+0x5330>)
    d344:	6912      	ldr	r2, [r2, #16]
    d346:	601a      	str	r2, [r3, #0]
    d348:	f507 63bf 	add.w	r3, r7, #1528	; 0x5f8
    d34c:	f2a3 43d4 	subw	r3, r3, #1236	; 0x4d4
    d350:	4a44      	ldr	r2, [pc, #272]	; (d464 <benchmark_body+0x5330>)
    d352:	6812      	ldr	r2, [r2, #0]
    d354:	601a      	str	r2, [r3, #0]
    d356:	f507 63bf 	add.w	r3, r7, #1528	; 0x5f8
    d35a:	f2a3 42d4 	subw	r2, r3, #1236	; 0x4d4
    d35e:	f507 63bf 	add.w	r3, r7, #1528	; 0x5f8
    d362:	f5a3 639a 	sub.w	r3, r3, #1232	; 0x4d0
    d366:	6812      	ldr	r2, [r2, #0]
    d368:	681b      	ldr	r3, [r3, #0]
    d36a:	429a      	cmp	r2, r3
    d36c:	dd3d      	ble.n	d3ea <benchmark_body+0x52b6>
    d36e:	4b3d      	ldr	r3, [pc, #244]	; (d464 <benchmark_body+0x5330>)
    d370:	68db      	ldr	r3, [r3, #12]
    d372:	4a3c      	ldr	r2, [pc, #240]	; (d464 <benchmark_body+0x5330>)
    d374:	6013      	str	r3, [r2, #0]
    d376:	4b3c      	ldr	r3, [pc, #240]	; (d468 <benchmark_body+0x5334>)
    d378:	681b      	ldr	r3, [r3, #0]
    d37a:	3b04      	subs	r3, #4
    d37c:	4a3a      	ldr	r2, [pc, #232]	; (d468 <benchmark_body+0x5334>)
    d37e:	6013      	str	r3, [r2, #0]
    d380:	f507 63bf 	add.w	r3, r7, #1528	; 0x5f8
    d384:	f5a3 639b 	sub.w	r3, r3, #1240	; 0x4d8
    d388:	f507 62bf 	add.w	r2, r7, #1528	; 0x5f8
    d38c:	f5a2 619a 	sub.w	r1, r2, #1232	; 0x4d0
    d390:	f507 62bf 	add.w	r2, r7, #1528	; 0x5f8
    d394:	f2a2 42d4 	subw	r2, r2, #1236	; 0x4d4
    d398:	6809      	ldr	r1, [r1, #0]
    d39a:	6812      	ldr	r2, [r2, #0]
    d39c:	440a      	add	r2, r1
    d39e:	601a      	str	r2, [r3, #0]
    d3a0:	4b32      	ldr	r3, [pc, #200]	; (d46c <benchmark_body+0x5338>)
    d3a2:	681b      	ldr	r3, [r3, #0]
    d3a4:	4932      	ldr	r1, [pc, #200]	; (d470 <benchmark_body+0x533c>)
    d3a6:	f507 62bf 	add.w	r2, r7, #1528	; 0x5f8
    d3aa:	f5a2 629a 	sub.w	r2, r2, #1232	; 0x4d0
    d3ae:	6812      	ldr	r2, [r2, #0]
    d3b0:	f841 2023 	str.w	r2, [r1, r3, lsl #2]
    d3b4:	4b2d      	ldr	r3, [pc, #180]	; (d46c <benchmark_body+0x5338>)
    d3b6:	681b      	ldr	r3, [r3, #0]
    d3b8:	3301      	adds	r3, #1
    d3ba:	492d      	ldr	r1, [pc, #180]	; (d470 <benchmark_body+0x533c>)
    d3bc:	f507 62bf 	add.w	r2, r7, #1528	; 0x5f8
    d3c0:	f2a2 42d4 	subw	r2, r2, #1236	; 0x4d4
    d3c4:	6812      	ldr	r2, [r2, #0]
    d3c6:	f841 2023 	str.w	r2, [r1, r3, lsl #2]
    d3ca:	4b28      	ldr	r3, [pc, #160]	; (d46c <benchmark_body+0x5338>)
    d3cc:	681b      	ldr	r3, [r3, #0]
    d3ce:	3302      	adds	r3, #2
    d3d0:	4927      	ldr	r1, [pc, #156]	; (d470 <benchmark_body+0x533c>)
    d3d2:	f507 62bf 	add.w	r2, r7, #1528	; 0x5f8
    d3d6:	f5a2 629b 	sub.w	r2, r2, #1240	; 0x4d8
    d3da:	6812      	ldr	r2, [r2, #0]
    d3dc:	f841 2023 	str.w	r2, [r1, r3, lsl #2]
    d3e0:	4b22      	ldr	r3, [pc, #136]	; (d46c <benchmark_body+0x5338>)
    d3e2:	681b      	ldr	r3, [r3, #0]
    d3e4:	3303      	adds	r3, #3
    d3e6:	4a21      	ldr	r2, [pc, #132]	; (d46c <benchmark_body+0x5338>)
    d3e8:	6013      	str	r3, [r2, #0]
    d3ea:	4b1f      	ldr	r3, [pc, #124]	; (d468 <benchmark_body+0x5334>)
    d3ec:	681b      	ldr	r3, [r3, #0]
    d3ee:	2b04      	cmp	r3, #4
    d3f0:	dd71      	ble.n	d4d6 <benchmark_body+0x53a2>
    d3f2:	4b1e      	ldr	r3, [pc, #120]	; (d46c <benchmark_body+0x5338>)
    d3f4:	681b      	ldr	r3, [r3, #0]
    d3f6:	2b03      	cmp	r3, #3
    d3f8:	dc6d      	bgt.n	d4d6 <benchmark_body+0x53a2>
    d3fa:	4b1a      	ldr	r3, [pc, #104]	; (d464 <benchmark_body+0x5330>)
    d3fc:	681a      	ldr	r2, [r3, #0]
    d3fe:	4b19      	ldr	r3, [pc, #100]	; (d464 <benchmark_body+0x5330>)
    d400:	685b      	ldr	r3, [r3, #4]
    d402:	429a      	cmp	r2, r3
    d404:	d167      	bne.n	d4d6 <benchmark_body+0x53a2>
    d406:	4b17      	ldr	r3, [pc, #92]	; (d464 <benchmark_body+0x5330>)
    d408:	681a      	ldr	r2, [r3, #0]
    d40a:	4b16      	ldr	r3, [pc, #88]	; (d464 <benchmark_body+0x5330>)
    d40c:	68db      	ldr	r3, [r3, #12]
    d40e:	429a      	cmp	r2, r3
    d410:	d161      	bne.n	d4d6 <benchmark_body+0x53a2>
    d412:	f507 63bf 	add.w	r3, r7, #1528	; 0x5f8
    d416:	f2a3 43dc 	subw	r3, r3, #1244	; 0x4dc
    d41a:	4a12      	ldr	r2, [pc, #72]	; (d464 <benchmark_body+0x5330>)
    d41c:	6912      	ldr	r2, [r2, #16]
    d41e:	601a      	str	r2, [r3, #0]
    d420:	f507 63bf 	add.w	r3, r7, #1528	; 0x5f8
    d424:	f5a3 639c 	sub.w	r3, r3, #1248	; 0x4e0
    d428:	4a0e      	ldr	r2, [pc, #56]	; (d464 <benchmark_body+0x5330>)
    d42a:	6812      	ldr	r2, [r2, #0]
    d42c:	601a      	str	r2, [r3, #0]
    d42e:	f507 63bf 	add.w	r3, r7, #1528	; 0x5f8
    d432:	f5a3 629c 	sub.w	r2, r3, #1248	; 0x4e0
    d436:	f507 63bf 	add.w	r3, r7, #1528	; 0x5f8
    d43a:	f2a3 43dc 	subw	r3, r3, #1244	; 0x4dc
    d43e:	6812      	ldr	r2, [r2, #0]
    d440:	681b      	ldr	r3, [r3, #0]
    d442:	429a      	cmp	r2, r3
    d444:	dd47      	ble.n	d4d6 <benchmark_body+0x53a2>
    d446:	4b07      	ldr	r3, [pc, #28]	; (d464 <benchmark_body+0x5330>)
    d448:	689b      	ldr	r3, [r3, #8]
    d44a:	4a06      	ldr	r2, [pc, #24]	; (d464 <benchmark_body+0x5330>)
    d44c:	6013      	str	r3, [r2, #0]
    d44e:	4b06      	ldr	r3, [pc, #24]	; (d468 <benchmark_body+0x5334>)
    d450:	681b      	ldr	r3, [r3, #0]
    d452:	3b04      	subs	r3, #4
    d454:	4a04      	ldr	r2, [pc, #16]	; (d468 <benchmark_body+0x5334>)
    d456:	6013      	str	r3, [r2, #0]
    d458:	f507 63bf 	add.w	r3, r7, #1528	; 0x5f8
    d45c:	f2a3 43e4 	subw	r3, r3, #1252	; 0x4e4
    d460:	e008      	b.n	d474 <benchmark_body+0x5340>
    d462:	bf00      	nop
    d464:	0001f104 	.word	0x0001f104
    d468:	0001ecac 	.word	0x0001ecac
    d46c:	0001f118 	.word	0x0001f118
    d470:	0001f11c 	.word	0x0001f11c
    d474:	f507 62bf 	add.w	r2, r7, #1528	; 0x5f8
    d478:	f2a2 41dc 	subw	r1, r2, #1244	; 0x4dc
    d47c:	f507 62bf 	add.w	r2, r7, #1528	; 0x5f8
    d480:	f5a2 629c 	sub.w	r2, r2, #1248	; 0x4e0
    d484:	6809      	ldr	r1, [r1, #0]
    d486:	6812      	ldr	r2, [r2, #0]
    d488:	440a      	add	r2, r1
    d48a:	601a      	str	r2, [r3, #0]
    d48c:	4ba6      	ldr	r3, [pc, #664]	; (d728 <benchmark_body+0x55f4>)
    d48e:	681b      	ldr	r3, [r3, #0]
    d490:	49a6      	ldr	r1, [pc, #664]	; (d72c <benchmark_body+0x55f8>)
    d492:	f507 62bf 	add.w	r2, r7, #1528	; 0x5f8
    d496:	f2a2 42dc 	subw	r2, r2, #1244	; 0x4dc
    d49a:	6812      	ldr	r2, [r2, #0]
    d49c:	f841 2023 	str.w	r2, [r1, r3, lsl #2]
    d4a0:	4ba1      	ldr	r3, [pc, #644]	; (d728 <benchmark_body+0x55f4>)
    d4a2:	681b      	ldr	r3, [r3, #0]
    d4a4:	3301      	adds	r3, #1
    d4a6:	49a1      	ldr	r1, [pc, #644]	; (d72c <benchmark_body+0x55f8>)
    d4a8:	f507 62bf 	add.w	r2, r7, #1528	; 0x5f8
    d4ac:	f5a2 629c 	sub.w	r2, r2, #1248	; 0x4e0
    d4b0:	6812      	ldr	r2, [r2, #0]
    d4b2:	f841 2023 	str.w	r2, [r1, r3, lsl #2]
    d4b6:	4b9c      	ldr	r3, [pc, #624]	; (d728 <benchmark_body+0x55f4>)
    d4b8:	681b      	ldr	r3, [r3, #0]
    d4ba:	3302      	adds	r3, #2
    d4bc:	499b      	ldr	r1, [pc, #620]	; (d72c <benchmark_body+0x55f8>)
    d4be:	f507 62bf 	add.w	r2, r7, #1528	; 0x5f8
    d4c2:	f2a2 42e4 	subw	r2, r2, #1252	; 0x4e4
    d4c6:	6812      	ldr	r2, [r2, #0]
    d4c8:	f841 2023 	str.w	r2, [r1, r3, lsl #2]
    d4cc:	4b96      	ldr	r3, [pc, #600]	; (d728 <benchmark_body+0x55f4>)
    d4ce:	681b      	ldr	r3, [r3, #0]
    d4d0:	3303      	adds	r3, #3
    d4d2:	4a95      	ldr	r2, [pc, #596]	; (d728 <benchmark_body+0x55f4>)
    d4d4:	6013      	str	r3, [r2, #0]
    d4d6:	4b96      	ldr	r3, [pc, #600]	; (d730 <benchmark_body+0x55fc>)
    d4d8:	681b      	ldr	r3, [r3, #0]
    d4da:	2b04      	cmp	r3, #4
    d4dc:	dd67      	ble.n	d5ae <benchmark_body+0x547a>
    d4de:	4b92      	ldr	r3, [pc, #584]	; (d728 <benchmark_body+0x55f4>)
    d4e0:	681b      	ldr	r3, [r3, #0]
    d4e2:	2b03      	cmp	r3, #3
    d4e4:	dc63      	bgt.n	d5ae <benchmark_body+0x547a>
    d4e6:	4b93      	ldr	r3, [pc, #588]	; (d734 <benchmark_body+0x5600>)
    d4e8:	681a      	ldr	r2, [r3, #0]
    d4ea:	4b92      	ldr	r3, [pc, #584]	; (d734 <benchmark_body+0x5600>)
    d4ec:	689b      	ldr	r3, [r3, #8]
    d4ee:	429a      	cmp	r2, r3
    d4f0:	d15d      	bne.n	d5ae <benchmark_body+0x547a>
    d4f2:	4b90      	ldr	r3, [pc, #576]	; (d734 <benchmark_body+0x5600>)
    d4f4:	681a      	ldr	r2, [r3, #0]
    d4f6:	4b8f      	ldr	r3, [pc, #572]	; (d734 <benchmark_body+0x5600>)
    d4f8:	685b      	ldr	r3, [r3, #4]
    d4fa:	429a      	cmp	r2, r3
    d4fc:	d157      	bne.n	d5ae <benchmark_body+0x547a>
    d4fe:	f507 63bf 	add.w	r3, r7, #1528	; 0x5f8
    d502:	f5a3 639d 	sub.w	r3, r3, #1256	; 0x4e8
    d506:	4a8b      	ldr	r2, [pc, #556]	; (d734 <benchmark_body+0x5600>)
    d508:	6912      	ldr	r2, [r2, #16]
    d50a:	601a      	str	r2, [r3, #0]
    d50c:	f507 63bf 	add.w	r3, r7, #1528	; 0x5f8
    d510:	f2a3 43ec 	subw	r3, r3, #1260	; 0x4ec
    d514:	4a87      	ldr	r2, [pc, #540]	; (d734 <benchmark_body+0x5600>)
    d516:	6812      	ldr	r2, [r2, #0]
    d518:	601a      	str	r2, [r3, #0]
    d51a:	f507 63bf 	add.w	r3, r7, #1528	; 0x5f8
    d51e:	f2a3 42ec 	subw	r2, r3, #1260	; 0x4ec
    d522:	f507 63bf 	add.w	r3, r7, #1528	; 0x5f8
    d526:	f5a3 639d 	sub.w	r3, r3, #1256	; 0x4e8
    d52a:	6812      	ldr	r2, [r2, #0]
    d52c:	681b      	ldr	r3, [r3, #0]
    d52e:	429a      	cmp	r2, r3
    d530:	dd3d      	ble.n	d5ae <benchmark_body+0x547a>
    d532:	4b80      	ldr	r3, [pc, #512]	; (d734 <benchmark_body+0x5600>)
    d534:	68db      	ldr	r3, [r3, #12]
    d536:	4a7f      	ldr	r2, [pc, #508]	; (d734 <benchmark_body+0x5600>)
    d538:	6013      	str	r3, [r2, #0]
    d53a:	4b7d      	ldr	r3, [pc, #500]	; (d730 <benchmark_body+0x55fc>)
    d53c:	681b      	ldr	r3, [r3, #0]
    d53e:	3b04      	subs	r3, #4
    d540:	4a7b      	ldr	r2, [pc, #492]	; (d730 <benchmark_body+0x55fc>)
    d542:	6013      	str	r3, [r2, #0]
    d544:	f507 63bf 	add.w	r3, r7, #1528	; 0x5f8
    d548:	f5a3 639e 	sub.w	r3, r3, #1264	; 0x4f0
    d54c:	f507 62bf 	add.w	r2, r7, #1528	; 0x5f8
    d550:	f5a2 619d 	sub.w	r1, r2, #1256	; 0x4e8
    d554:	f507 62bf 	add.w	r2, r7, #1528	; 0x5f8
    d558:	f2a2 42ec 	subw	r2, r2, #1260	; 0x4ec
    d55c:	6809      	ldr	r1, [r1, #0]
    d55e:	6812      	ldr	r2, [r2, #0]
    d560:	440a      	add	r2, r1
    d562:	601a      	str	r2, [r3, #0]
    d564:	4b70      	ldr	r3, [pc, #448]	; (d728 <benchmark_body+0x55f4>)
    d566:	681b      	ldr	r3, [r3, #0]
    d568:	4970      	ldr	r1, [pc, #448]	; (d72c <benchmark_body+0x55f8>)
    d56a:	f507 62bf 	add.w	r2, r7, #1528	; 0x5f8
    d56e:	f5a2 629d 	sub.w	r2, r2, #1256	; 0x4e8
    d572:	6812      	ldr	r2, [r2, #0]
    d574:	f841 2023 	str.w	r2, [r1, r3, lsl #2]
    d578:	4b6b      	ldr	r3, [pc, #428]	; (d728 <benchmark_body+0x55f4>)
    d57a:	681b      	ldr	r3, [r3, #0]
    d57c:	3301      	adds	r3, #1
    d57e:	496b      	ldr	r1, [pc, #428]	; (d72c <benchmark_body+0x55f8>)
    d580:	f507 62bf 	add.w	r2, r7, #1528	; 0x5f8
    d584:	f2a2 42ec 	subw	r2, r2, #1260	; 0x4ec
    d588:	6812      	ldr	r2, [r2, #0]
    d58a:	f841 2023 	str.w	r2, [r1, r3, lsl #2]
    d58e:	4b66      	ldr	r3, [pc, #408]	; (d728 <benchmark_body+0x55f4>)
    d590:	681b      	ldr	r3, [r3, #0]
    d592:	3302      	adds	r3, #2
    d594:	4965      	ldr	r1, [pc, #404]	; (d72c <benchmark_body+0x55f8>)
    d596:	f507 62bf 	add.w	r2, r7, #1528	; 0x5f8
    d59a:	f5a2 629e 	sub.w	r2, r2, #1264	; 0x4f0
    d59e:	6812      	ldr	r2, [r2, #0]
    d5a0:	f841 2023 	str.w	r2, [r1, r3, lsl #2]
    d5a4:	4b60      	ldr	r3, [pc, #384]	; (d728 <benchmark_body+0x55f4>)
    d5a6:	681b      	ldr	r3, [r3, #0]
    d5a8:	3303      	adds	r3, #3
    d5aa:	4a5f      	ldr	r2, [pc, #380]	; (d728 <benchmark_body+0x55f4>)
    d5ac:	6013      	str	r3, [r2, #0]
    d5ae:	4b60      	ldr	r3, [pc, #384]	; (d730 <benchmark_body+0x55fc>)
    d5b0:	681b      	ldr	r3, [r3, #0]
    d5b2:	2b04      	cmp	r3, #4
    d5b4:	dd67      	ble.n	d686 <benchmark_body+0x5552>
    d5b6:	4b5c      	ldr	r3, [pc, #368]	; (d728 <benchmark_body+0x55f4>)
    d5b8:	681b      	ldr	r3, [r3, #0]
    d5ba:	2b03      	cmp	r3, #3
    d5bc:	dc63      	bgt.n	d686 <benchmark_body+0x5552>
    d5be:	4b5d      	ldr	r3, [pc, #372]	; (d734 <benchmark_body+0x5600>)
    d5c0:	681a      	ldr	r2, [r3, #0]
    d5c2:	4b5c      	ldr	r3, [pc, #368]	; (d734 <benchmark_body+0x5600>)
    d5c4:	689b      	ldr	r3, [r3, #8]
    d5c6:	429a      	cmp	r2, r3
    d5c8:	d15d      	bne.n	d686 <benchmark_body+0x5552>
    d5ca:	4b5a      	ldr	r3, [pc, #360]	; (d734 <benchmark_body+0x5600>)
    d5cc:	681a      	ldr	r2, [r3, #0]
    d5ce:	4b59      	ldr	r3, [pc, #356]	; (d734 <benchmark_body+0x5600>)
    d5d0:	68db      	ldr	r3, [r3, #12]
    d5d2:	429a      	cmp	r2, r3
    d5d4:	d157      	bne.n	d686 <benchmark_body+0x5552>
    d5d6:	f507 63bf 	add.w	r3, r7, #1528	; 0x5f8
    d5da:	f2a3 43f4 	subw	r3, r3, #1268	; 0x4f4
    d5de:	4a55      	ldr	r2, [pc, #340]	; (d734 <benchmark_body+0x5600>)
    d5e0:	6912      	ldr	r2, [r2, #16]
    d5e2:	601a      	str	r2, [r3, #0]
    d5e4:	f507 63bf 	add.w	r3, r7, #1528	; 0x5f8
    d5e8:	f5a3 639f 	sub.w	r3, r3, #1272	; 0x4f8
    d5ec:	4a51      	ldr	r2, [pc, #324]	; (d734 <benchmark_body+0x5600>)
    d5ee:	6812      	ldr	r2, [r2, #0]
    d5f0:	601a      	str	r2, [r3, #0]
    d5f2:	f507 63bf 	add.w	r3, r7, #1528	; 0x5f8
    d5f6:	f5a3 629f 	sub.w	r2, r3, #1272	; 0x4f8
    d5fa:	f507 63bf 	add.w	r3, r7, #1528	; 0x5f8
    d5fe:	f2a3 43f4 	subw	r3, r3, #1268	; 0x4f4
    d602:	6812      	ldr	r2, [r2, #0]
    d604:	681b      	ldr	r3, [r3, #0]
    d606:	429a      	cmp	r2, r3
    d608:	dd3d      	ble.n	d686 <benchmark_body+0x5552>
    d60a:	4b4a      	ldr	r3, [pc, #296]	; (d734 <benchmark_body+0x5600>)
    d60c:	685b      	ldr	r3, [r3, #4]
    d60e:	4a49      	ldr	r2, [pc, #292]	; (d734 <benchmark_body+0x5600>)
    d610:	6013      	str	r3, [r2, #0]
    d612:	4b47      	ldr	r3, [pc, #284]	; (d730 <benchmark_body+0x55fc>)
    d614:	681b      	ldr	r3, [r3, #0]
    d616:	3b04      	subs	r3, #4
    d618:	4a45      	ldr	r2, [pc, #276]	; (d730 <benchmark_body+0x55fc>)
    d61a:	6013      	str	r3, [r2, #0]
    d61c:	f507 63bf 	add.w	r3, r7, #1528	; 0x5f8
    d620:	f2a3 43fc 	subw	r3, r3, #1276	; 0x4fc
    d624:	f507 62bf 	add.w	r2, r7, #1528	; 0x5f8
    d628:	f2a2 41f4 	subw	r1, r2, #1268	; 0x4f4
    d62c:	f507 62bf 	add.w	r2, r7, #1528	; 0x5f8
    d630:	f5a2 629f 	sub.w	r2, r2, #1272	; 0x4f8
    d634:	6809      	ldr	r1, [r1, #0]
    d636:	6812      	ldr	r2, [r2, #0]
    d638:	440a      	add	r2, r1
    d63a:	601a      	str	r2, [r3, #0]
    d63c:	4b3a      	ldr	r3, [pc, #232]	; (d728 <benchmark_body+0x55f4>)
    d63e:	681b      	ldr	r3, [r3, #0]
    d640:	493a      	ldr	r1, [pc, #232]	; (d72c <benchmark_body+0x55f8>)
    d642:	f507 62bf 	add.w	r2, r7, #1528	; 0x5f8
    d646:	f2a2 42f4 	subw	r2, r2, #1268	; 0x4f4
    d64a:	6812      	ldr	r2, [r2, #0]
    d64c:	f841 2023 	str.w	r2, [r1, r3, lsl #2]
    d650:	4b35      	ldr	r3, [pc, #212]	; (d728 <benchmark_body+0x55f4>)
    d652:	681b      	ldr	r3, [r3, #0]
    d654:	3301      	adds	r3, #1
    d656:	4935      	ldr	r1, [pc, #212]	; (d72c <benchmark_body+0x55f8>)
    d658:	f507 62bf 	add.w	r2, r7, #1528	; 0x5f8
    d65c:	f5a2 629f 	sub.w	r2, r2, #1272	; 0x4f8
    d660:	6812      	ldr	r2, [r2, #0]
    d662:	f841 2023 	str.w	r2, [r1, r3, lsl #2]
    d666:	4b30      	ldr	r3, [pc, #192]	; (d728 <benchmark_body+0x55f4>)
    d668:	681b      	ldr	r3, [r3, #0]
    d66a:	3302      	adds	r3, #2
    d66c:	492f      	ldr	r1, [pc, #188]	; (d72c <benchmark_body+0x55f8>)
    d66e:	f507 62bf 	add.w	r2, r7, #1528	; 0x5f8
    d672:	f2a2 42fc 	subw	r2, r2, #1276	; 0x4fc
    d676:	6812      	ldr	r2, [r2, #0]
    d678:	f841 2023 	str.w	r2, [r1, r3, lsl #2]
    d67c:	4b2a      	ldr	r3, [pc, #168]	; (d728 <benchmark_body+0x55f4>)
    d67e:	681b      	ldr	r3, [r3, #0]
    d680:	3303      	adds	r3, #3
    d682:	4a29      	ldr	r2, [pc, #164]	; (d728 <benchmark_body+0x55f4>)
    d684:	6013      	str	r3, [r2, #0]
    d686:	4b2a      	ldr	r3, [pc, #168]	; (d730 <benchmark_body+0x55fc>)
    d688:	681b      	ldr	r3, [r3, #0]
    d68a:	2b04      	cmp	r3, #4
    d68c:	dd71      	ble.n	d772 <benchmark_body+0x563e>
    d68e:	4b26      	ldr	r3, [pc, #152]	; (d728 <benchmark_body+0x55f4>)
    d690:	681b      	ldr	r3, [r3, #0]
    d692:	2b03      	cmp	r3, #3
    d694:	dc6d      	bgt.n	d772 <benchmark_body+0x563e>
    d696:	4b27      	ldr	r3, [pc, #156]	; (d734 <benchmark_body+0x5600>)
    d698:	681a      	ldr	r2, [r3, #0]
    d69a:	4b26      	ldr	r3, [pc, #152]	; (d734 <benchmark_body+0x5600>)
    d69c:	68db      	ldr	r3, [r3, #12]
    d69e:	429a      	cmp	r2, r3
    d6a0:	d167      	bne.n	d772 <benchmark_body+0x563e>
    d6a2:	4b24      	ldr	r3, [pc, #144]	; (d734 <benchmark_body+0x5600>)
    d6a4:	681a      	ldr	r2, [r3, #0]
    d6a6:	4b23      	ldr	r3, [pc, #140]	; (d734 <benchmark_body+0x5600>)
    d6a8:	685b      	ldr	r3, [r3, #4]
    d6aa:	429a      	cmp	r2, r3
    d6ac:	d161      	bne.n	d772 <benchmark_body+0x563e>
    d6ae:	f507 63bf 	add.w	r3, r7, #1528	; 0x5f8
    d6b2:	f5a3 63a0 	sub.w	r3, r3, #1280	; 0x500
    d6b6:	4a1f      	ldr	r2, [pc, #124]	; (d734 <benchmark_body+0x5600>)
    d6b8:	6912      	ldr	r2, [r2, #16]
    d6ba:	601a      	str	r2, [r3, #0]
    d6bc:	f507 63bf 	add.w	r3, r7, #1528	; 0x5f8
    d6c0:	f2a3 5304 	subw	r3, r3, #1284	; 0x504
    d6c4:	4a1b      	ldr	r2, [pc, #108]	; (d734 <benchmark_body+0x5600>)
    d6c6:	6812      	ldr	r2, [r2, #0]
    d6c8:	601a      	str	r2, [r3, #0]
    d6ca:	f507 63bf 	add.w	r3, r7, #1528	; 0x5f8
    d6ce:	f2a3 5204 	subw	r2, r3, #1284	; 0x504
    d6d2:	f507 63bf 	add.w	r3, r7, #1528	; 0x5f8
    d6d6:	f5a3 63a0 	sub.w	r3, r3, #1280	; 0x500
    d6da:	6812      	ldr	r2, [r2, #0]
    d6dc:	681b      	ldr	r3, [r3, #0]
    d6de:	429a      	cmp	r2, r3
    d6e0:	dd47      	ble.n	d772 <benchmark_body+0x563e>
    d6e2:	4b14      	ldr	r3, [pc, #80]	; (d734 <benchmark_body+0x5600>)
    d6e4:	689b      	ldr	r3, [r3, #8]
    d6e6:	4a13      	ldr	r2, [pc, #76]	; (d734 <benchmark_body+0x5600>)
    d6e8:	6013      	str	r3, [r2, #0]
    d6ea:	4b11      	ldr	r3, [pc, #68]	; (d730 <benchmark_body+0x55fc>)
    d6ec:	681b      	ldr	r3, [r3, #0]
    d6ee:	3b04      	subs	r3, #4
    d6f0:	4a0f      	ldr	r2, [pc, #60]	; (d730 <benchmark_body+0x55fc>)
    d6f2:	6013      	str	r3, [r2, #0]
    d6f4:	f507 63bf 	add.w	r3, r7, #1528	; 0x5f8
    d6f8:	f5a3 63a1 	sub.w	r3, r3, #1288	; 0x508
    d6fc:	f507 62bf 	add.w	r2, r7, #1528	; 0x5f8
    d700:	f5a2 61a0 	sub.w	r1, r2, #1280	; 0x500
    d704:	f507 62bf 	add.w	r2, r7, #1528	; 0x5f8
    d708:	f2a2 5204 	subw	r2, r2, #1284	; 0x504
    d70c:	6809      	ldr	r1, [r1, #0]
    d70e:	6812      	ldr	r2, [r2, #0]
    d710:	440a      	add	r2, r1
    d712:	601a      	str	r2, [r3, #0]
    d714:	4b04      	ldr	r3, [pc, #16]	; (d728 <benchmark_body+0x55f4>)
    d716:	681b      	ldr	r3, [r3, #0]
    d718:	4904      	ldr	r1, [pc, #16]	; (d72c <benchmark_body+0x55f8>)
    d71a:	f507 62bf 	add.w	r2, r7, #1528	; 0x5f8
    d71e:	f5a2 62a0 	sub.w	r2, r2, #1280	; 0x500
    d722:	6812      	ldr	r2, [r2, #0]
    d724:	e008      	b.n	d738 <benchmark_body+0x5604>
    d726:	bf00      	nop
    d728:	0001f118 	.word	0x0001f118
    d72c:	0001f11c 	.word	0x0001f11c
    d730:	0001ecac 	.word	0x0001ecac
    d734:	0001f104 	.word	0x0001f104
    d738:	f841 2023 	str.w	r2, [r1, r3, lsl #2]
    d73c:	4ba6      	ldr	r3, [pc, #664]	; (d9d8 <benchmark_body+0x58a4>)
    d73e:	681b      	ldr	r3, [r3, #0]
    d740:	3301      	adds	r3, #1
    d742:	49a6      	ldr	r1, [pc, #664]	; (d9dc <benchmark_body+0x58a8>)
    d744:	f507 62bf 	add.w	r2, r7, #1528	; 0x5f8
    d748:	f2a2 5204 	subw	r2, r2, #1284	; 0x504
    d74c:	6812      	ldr	r2, [r2, #0]
    d74e:	f841 2023 	str.w	r2, [r1, r3, lsl #2]
    d752:	4ba1      	ldr	r3, [pc, #644]	; (d9d8 <benchmark_body+0x58a4>)
    d754:	681b      	ldr	r3, [r3, #0]
    d756:	3302      	adds	r3, #2
    d758:	49a0      	ldr	r1, [pc, #640]	; (d9dc <benchmark_body+0x58a8>)
    d75a:	f507 62bf 	add.w	r2, r7, #1528	; 0x5f8
    d75e:	f5a2 62a1 	sub.w	r2, r2, #1288	; 0x508
    d762:	6812      	ldr	r2, [r2, #0]
    d764:	f841 2023 	str.w	r2, [r1, r3, lsl #2]
    d768:	4b9b      	ldr	r3, [pc, #620]	; (d9d8 <benchmark_body+0x58a4>)
    d76a:	681b      	ldr	r3, [r3, #0]
    d76c:	3303      	adds	r3, #3
    d76e:	4a9a      	ldr	r2, [pc, #616]	; (d9d8 <benchmark_body+0x58a4>)
    d770:	6013      	str	r3, [r2, #0]
    d772:	4b9b      	ldr	r3, [pc, #620]	; (d9e0 <benchmark_body+0x58ac>)
    d774:	681b      	ldr	r3, [r3, #0]
    d776:	2b04      	cmp	r3, #4
    d778:	dd67      	ble.n	d84a <benchmark_body+0x5716>
    d77a:	4b97      	ldr	r3, [pc, #604]	; (d9d8 <benchmark_body+0x58a4>)
    d77c:	681b      	ldr	r3, [r3, #0]
    d77e:	2b03      	cmp	r3, #3
    d780:	dc63      	bgt.n	d84a <benchmark_body+0x5716>
    d782:	4b98      	ldr	r3, [pc, #608]	; (d9e4 <benchmark_body+0x58b0>)
    d784:	681a      	ldr	r2, [r3, #0]
    d786:	4b97      	ldr	r3, [pc, #604]	; (d9e4 <benchmark_body+0x58b0>)
    d788:	68db      	ldr	r3, [r3, #12]
    d78a:	429a      	cmp	r2, r3
    d78c:	d15d      	bne.n	d84a <benchmark_body+0x5716>
    d78e:	4b95      	ldr	r3, [pc, #596]	; (d9e4 <benchmark_body+0x58b0>)
    d790:	681a      	ldr	r2, [r3, #0]
    d792:	4b94      	ldr	r3, [pc, #592]	; (d9e4 <benchmark_body+0x58b0>)
    d794:	689b      	ldr	r3, [r3, #8]
    d796:	429a      	cmp	r2, r3
    d798:	d157      	bne.n	d84a <benchmark_body+0x5716>
    d79a:	f507 63bf 	add.w	r3, r7, #1528	; 0x5f8
    d79e:	f2a3 530c 	subw	r3, r3, #1292	; 0x50c
    d7a2:	4a90      	ldr	r2, [pc, #576]	; (d9e4 <benchmark_body+0x58b0>)
    d7a4:	6912      	ldr	r2, [r2, #16]
    d7a6:	601a      	str	r2, [r3, #0]
    d7a8:	f507 63bf 	add.w	r3, r7, #1528	; 0x5f8
    d7ac:	f5a3 63a2 	sub.w	r3, r3, #1296	; 0x510
    d7b0:	4a8c      	ldr	r2, [pc, #560]	; (d9e4 <benchmark_body+0x58b0>)
    d7b2:	6812      	ldr	r2, [r2, #0]
    d7b4:	601a      	str	r2, [r3, #0]
    d7b6:	f507 63bf 	add.w	r3, r7, #1528	; 0x5f8
    d7ba:	f5a3 62a2 	sub.w	r2, r3, #1296	; 0x510
    d7be:	f507 63bf 	add.w	r3, r7, #1528	; 0x5f8
    d7c2:	f2a3 530c 	subw	r3, r3, #1292	; 0x50c
    d7c6:	6812      	ldr	r2, [r2, #0]
    d7c8:	681b      	ldr	r3, [r3, #0]
    d7ca:	429a      	cmp	r2, r3
    d7cc:	dd3d      	ble.n	d84a <benchmark_body+0x5716>
    d7ce:	4b85      	ldr	r3, [pc, #532]	; (d9e4 <benchmark_body+0x58b0>)
    d7d0:	685b      	ldr	r3, [r3, #4]
    d7d2:	4a84      	ldr	r2, [pc, #528]	; (d9e4 <benchmark_body+0x58b0>)
    d7d4:	6013      	str	r3, [r2, #0]
    d7d6:	4b82      	ldr	r3, [pc, #520]	; (d9e0 <benchmark_body+0x58ac>)
    d7d8:	681b      	ldr	r3, [r3, #0]
    d7da:	3b04      	subs	r3, #4
    d7dc:	4a80      	ldr	r2, [pc, #512]	; (d9e0 <benchmark_body+0x58ac>)
    d7de:	6013      	str	r3, [r2, #0]
    d7e0:	f507 63bf 	add.w	r3, r7, #1528	; 0x5f8
    d7e4:	f2a3 5314 	subw	r3, r3, #1300	; 0x514
    d7e8:	f507 62bf 	add.w	r2, r7, #1528	; 0x5f8
    d7ec:	f2a2 510c 	subw	r1, r2, #1292	; 0x50c
    d7f0:	f507 62bf 	add.w	r2, r7, #1528	; 0x5f8
    d7f4:	f5a2 62a2 	sub.w	r2, r2, #1296	; 0x510
    d7f8:	6809      	ldr	r1, [r1, #0]
    d7fa:	6812      	ldr	r2, [r2, #0]
    d7fc:	440a      	add	r2, r1
    d7fe:	601a      	str	r2, [r3, #0]
    d800:	4b75      	ldr	r3, [pc, #468]	; (d9d8 <benchmark_body+0x58a4>)
    d802:	681b      	ldr	r3, [r3, #0]
    d804:	4975      	ldr	r1, [pc, #468]	; (d9dc <benchmark_body+0x58a8>)
    d806:	f507 62bf 	add.w	r2, r7, #1528	; 0x5f8
    d80a:	f2a2 520c 	subw	r2, r2, #1292	; 0x50c
    d80e:	6812      	ldr	r2, [r2, #0]
    d810:	f841 2023 	str.w	r2, [r1, r3, lsl #2]
    d814:	4b70      	ldr	r3, [pc, #448]	; (d9d8 <benchmark_body+0x58a4>)
    d816:	681b      	ldr	r3, [r3, #0]
    d818:	3301      	adds	r3, #1
    d81a:	4970      	ldr	r1, [pc, #448]	; (d9dc <benchmark_body+0x58a8>)
    d81c:	f507 62bf 	add.w	r2, r7, #1528	; 0x5f8
    d820:	f5a2 62a2 	sub.w	r2, r2, #1296	; 0x510
    d824:	6812      	ldr	r2, [r2, #0]
    d826:	f841 2023 	str.w	r2, [r1, r3, lsl #2]
    d82a:	4b6b      	ldr	r3, [pc, #428]	; (d9d8 <benchmark_body+0x58a4>)
    d82c:	681b      	ldr	r3, [r3, #0]
    d82e:	3302      	adds	r3, #2
    d830:	496a      	ldr	r1, [pc, #424]	; (d9dc <benchmark_body+0x58a8>)
    d832:	f507 62bf 	add.w	r2, r7, #1528	; 0x5f8
    d836:	f2a2 5214 	subw	r2, r2, #1300	; 0x514
    d83a:	6812      	ldr	r2, [r2, #0]
    d83c:	f841 2023 	str.w	r2, [r1, r3, lsl #2]
    d840:	4b65      	ldr	r3, [pc, #404]	; (d9d8 <benchmark_body+0x58a4>)
    d842:	681b      	ldr	r3, [r3, #0]
    d844:	3303      	adds	r3, #3
    d846:	4a64      	ldr	r2, [pc, #400]	; (d9d8 <benchmark_body+0x58a4>)
    d848:	6013      	str	r3, [r2, #0]
    d84a:	4b65      	ldr	r3, [pc, #404]	; (d9e0 <benchmark_body+0x58ac>)
    d84c:	681b      	ldr	r3, [r3, #0]
    d84e:	2b04      	cmp	r3, #4
    d850:	dd67      	ble.n	d922 <benchmark_body+0x57ee>
    d852:	4b61      	ldr	r3, [pc, #388]	; (d9d8 <benchmark_body+0x58a4>)
    d854:	681b      	ldr	r3, [r3, #0]
    d856:	2b03      	cmp	r3, #3
    d858:	dc63      	bgt.n	d922 <benchmark_body+0x57ee>
    d85a:	4b62      	ldr	r3, [pc, #392]	; (d9e4 <benchmark_body+0x58b0>)
    d85c:	685a      	ldr	r2, [r3, #4]
    d85e:	4b61      	ldr	r3, [pc, #388]	; (d9e4 <benchmark_body+0x58b0>)
    d860:	681b      	ldr	r3, [r3, #0]
    d862:	429a      	cmp	r2, r3
    d864:	d15d      	bne.n	d922 <benchmark_body+0x57ee>
    d866:	4b5f      	ldr	r3, [pc, #380]	; (d9e4 <benchmark_body+0x58b0>)
    d868:	685a      	ldr	r2, [r3, #4]
    d86a:	4b5e      	ldr	r3, [pc, #376]	; (d9e4 <benchmark_body+0x58b0>)
    d86c:	689b      	ldr	r3, [r3, #8]
    d86e:	429a      	cmp	r2, r3
    d870:	d157      	bne.n	d922 <benchmark_body+0x57ee>
    d872:	f507 63bf 	add.w	r3, r7, #1528	; 0x5f8
    d876:	f5a3 63a3 	sub.w	r3, r3, #1304	; 0x518
    d87a:	4a5a      	ldr	r2, [pc, #360]	; (d9e4 <benchmark_body+0x58b0>)
    d87c:	6912      	ldr	r2, [r2, #16]
    d87e:	601a      	str	r2, [r3, #0]
    d880:	f507 63bf 	add.w	r3, r7, #1528	; 0x5f8
    d884:	f2a3 531c 	subw	r3, r3, #1308	; 0x51c
    d888:	4a56      	ldr	r2, [pc, #344]	; (d9e4 <benchmark_body+0x58b0>)
    d88a:	6852      	ldr	r2, [r2, #4]
    d88c:	601a      	str	r2, [r3, #0]
    d88e:	f507 63bf 	add.w	r3, r7, #1528	; 0x5f8
    d892:	f2a3 521c 	subw	r2, r3, #1308	; 0x51c
    d896:	f507 63bf 	add.w	r3, r7, #1528	; 0x5f8
    d89a:	f5a3 63a3 	sub.w	r3, r3, #1304	; 0x518
    d89e:	6812      	ldr	r2, [r2, #0]
    d8a0:	681b      	ldr	r3, [r3, #0]
    d8a2:	429a      	cmp	r2, r3
    d8a4:	dd3d      	ble.n	d922 <benchmark_body+0x57ee>
    d8a6:	4b4f      	ldr	r3, [pc, #316]	; (d9e4 <benchmark_body+0x58b0>)
    d8a8:	68db      	ldr	r3, [r3, #12]
    d8aa:	4a4e      	ldr	r2, [pc, #312]	; (d9e4 <benchmark_body+0x58b0>)
    d8ac:	6013      	str	r3, [r2, #0]
    d8ae:	4b4c      	ldr	r3, [pc, #304]	; (d9e0 <benchmark_body+0x58ac>)
    d8b0:	681b      	ldr	r3, [r3, #0]
    d8b2:	3b04      	subs	r3, #4
    d8b4:	4a4a      	ldr	r2, [pc, #296]	; (d9e0 <benchmark_body+0x58ac>)
    d8b6:	6013      	str	r3, [r2, #0]
    d8b8:	f507 63bf 	add.w	r3, r7, #1528	; 0x5f8
    d8bc:	f5a3 63a4 	sub.w	r3, r3, #1312	; 0x520
    d8c0:	f507 62bf 	add.w	r2, r7, #1528	; 0x5f8
    d8c4:	f5a2 61a3 	sub.w	r1, r2, #1304	; 0x518
    d8c8:	f507 62bf 	add.w	r2, r7, #1528	; 0x5f8
    d8cc:	f2a2 521c 	subw	r2, r2, #1308	; 0x51c
    d8d0:	6809      	ldr	r1, [r1, #0]
    d8d2:	6812      	ldr	r2, [r2, #0]
    d8d4:	440a      	add	r2, r1
    d8d6:	601a      	str	r2, [r3, #0]
    d8d8:	4b3f      	ldr	r3, [pc, #252]	; (d9d8 <benchmark_body+0x58a4>)
    d8da:	681b      	ldr	r3, [r3, #0]
    d8dc:	493f      	ldr	r1, [pc, #252]	; (d9dc <benchmark_body+0x58a8>)
    d8de:	f507 62bf 	add.w	r2, r7, #1528	; 0x5f8
    d8e2:	f5a2 62a3 	sub.w	r2, r2, #1304	; 0x518
    d8e6:	6812      	ldr	r2, [r2, #0]
    d8e8:	f841 2023 	str.w	r2, [r1, r3, lsl #2]
    d8ec:	4b3a      	ldr	r3, [pc, #232]	; (d9d8 <benchmark_body+0x58a4>)
    d8ee:	681b      	ldr	r3, [r3, #0]
    d8f0:	3301      	adds	r3, #1
    d8f2:	493a      	ldr	r1, [pc, #232]	; (d9dc <benchmark_body+0x58a8>)
    d8f4:	f507 62bf 	add.w	r2, r7, #1528	; 0x5f8
    d8f8:	f2a2 521c 	subw	r2, r2, #1308	; 0x51c
    d8fc:	6812      	ldr	r2, [r2, #0]
    d8fe:	f841 2023 	str.w	r2, [r1, r3, lsl #2]
    d902:	4b35      	ldr	r3, [pc, #212]	; (d9d8 <benchmark_body+0x58a4>)
    d904:	681b      	ldr	r3, [r3, #0]
    d906:	3302      	adds	r3, #2
    d908:	4934      	ldr	r1, [pc, #208]	; (d9dc <benchmark_body+0x58a8>)
    d90a:	f507 62bf 	add.w	r2, r7, #1528	; 0x5f8
    d90e:	f5a2 62a4 	sub.w	r2, r2, #1312	; 0x520
    d912:	6812      	ldr	r2, [r2, #0]
    d914:	f841 2023 	str.w	r2, [r1, r3, lsl #2]
    d918:	4b2f      	ldr	r3, [pc, #188]	; (d9d8 <benchmark_body+0x58a4>)
    d91a:	681b      	ldr	r3, [r3, #0]
    d91c:	3303      	adds	r3, #3
    d91e:	4a2e      	ldr	r2, [pc, #184]	; (d9d8 <benchmark_body+0x58a4>)
    d920:	6013      	str	r3, [r2, #0]
    d922:	4b2f      	ldr	r3, [pc, #188]	; (d9e0 <benchmark_body+0x58ac>)
    d924:	681b      	ldr	r3, [r3, #0]
    d926:	2b04      	cmp	r3, #4
    d928:	dd70      	ble.n	da0c <benchmark_body+0x58d8>
    d92a:	4b2b      	ldr	r3, [pc, #172]	; (d9d8 <benchmark_body+0x58a4>)
    d92c:	681b      	ldr	r3, [r3, #0]
    d92e:	2b03      	cmp	r3, #3
    d930:	dc6c      	bgt.n	da0c <benchmark_body+0x58d8>
    d932:	4b2c      	ldr	r3, [pc, #176]	; (d9e4 <benchmark_body+0x58b0>)
    d934:	685a      	ldr	r2, [r3, #4]
    d936:	4b2b      	ldr	r3, [pc, #172]	; (d9e4 <benchmark_body+0x58b0>)
    d938:	681b      	ldr	r3, [r3, #0]
    d93a:	429a      	cmp	r2, r3
    d93c:	d166      	bne.n	da0c <benchmark_body+0x58d8>
    d93e:	4b29      	ldr	r3, [pc, #164]	; (d9e4 <benchmark_body+0x58b0>)
    d940:	685a      	ldr	r2, [r3, #4]
    d942:	4b28      	ldr	r3, [pc, #160]	; (d9e4 <benchmark_body+0x58b0>)
    d944:	68db      	ldr	r3, [r3, #12]
    d946:	429a      	cmp	r2, r3
    d948:	d160      	bne.n	da0c <benchmark_body+0x58d8>
    d94a:	f507 63bf 	add.w	r3, r7, #1528	; 0x5f8
    d94e:	f2a3 5324 	subw	r3, r3, #1316	; 0x524
    d952:	4a24      	ldr	r2, [pc, #144]	; (d9e4 <benchmark_body+0x58b0>)
    d954:	6912      	ldr	r2, [r2, #16]
    d956:	601a      	str	r2, [r3, #0]
    d958:	f507 63bf 	add.w	r3, r7, #1528	; 0x5f8
    d95c:	f5a3 63a5 	sub.w	r3, r3, #1320	; 0x528
    d960:	4a20      	ldr	r2, [pc, #128]	; (d9e4 <benchmark_body+0x58b0>)
    d962:	6852      	ldr	r2, [r2, #4]
    d964:	601a      	str	r2, [r3, #0]
    d966:	f507 63bf 	add.w	r3, r7, #1528	; 0x5f8
    d96a:	f5a3 62a5 	sub.w	r2, r3, #1320	; 0x528
    d96e:	f507 63bf 	add.w	r3, r7, #1528	; 0x5f8
    d972:	f2a3 5324 	subw	r3, r3, #1316	; 0x524
    d976:	6812      	ldr	r2, [r2, #0]
    d978:	681b      	ldr	r3, [r3, #0]
    d97a:	429a      	cmp	r2, r3
    d97c:	dd46      	ble.n	da0c <benchmark_body+0x58d8>
    d97e:	4b19      	ldr	r3, [pc, #100]	; (d9e4 <benchmark_body+0x58b0>)
    d980:	689b      	ldr	r3, [r3, #8]
    d982:	4a18      	ldr	r2, [pc, #96]	; (d9e4 <benchmark_body+0x58b0>)
    d984:	6013      	str	r3, [r2, #0]
    d986:	4b16      	ldr	r3, [pc, #88]	; (d9e0 <benchmark_body+0x58ac>)
    d988:	681b      	ldr	r3, [r3, #0]
    d98a:	3b04      	subs	r3, #4
    d98c:	4a14      	ldr	r2, [pc, #80]	; (d9e0 <benchmark_body+0x58ac>)
    d98e:	6013      	str	r3, [r2, #0]
    d990:	f507 63bf 	add.w	r3, r7, #1528	; 0x5f8
    d994:	f2a3 532c 	subw	r3, r3, #1324	; 0x52c
    d998:	f507 62bf 	add.w	r2, r7, #1528	; 0x5f8
    d99c:	f2a2 5124 	subw	r1, r2, #1316	; 0x524
    d9a0:	f507 62bf 	add.w	r2, r7, #1528	; 0x5f8
    d9a4:	f5a2 62a5 	sub.w	r2, r2, #1320	; 0x528
    d9a8:	6809      	ldr	r1, [r1, #0]
    d9aa:	6812      	ldr	r2, [r2, #0]
    d9ac:	440a      	add	r2, r1
    d9ae:	601a      	str	r2, [r3, #0]
    d9b0:	4b09      	ldr	r3, [pc, #36]	; (d9d8 <benchmark_body+0x58a4>)
    d9b2:	681b      	ldr	r3, [r3, #0]
    d9b4:	4909      	ldr	r1, [pc, #36]	; (d9dc <benchmark_body+0x58a8>)
    d9b6:	f507 62bf 	add.w	r2, r7, #1528	; 0x5f8
    d9ba:	f2a2 5224 	subw	r2, r2, #1316	; 0x524
    d9be:	6812      	ldr	r2, [r2, #0]
    d9c0:	f841 2023 	str.w	r2, [r1, r3, lsl #2]
    d9c4:	4b04      	ldr	r3, [pc, #16]	; (d9d8 <benchmark_body+0x58a4>)
    d9c6:	681b      	ldr	r3, [r3, #0]
    d9c8:	3301      	adds	r3, #1
    d9ca:	4904      	ldr	r1, [pc, #16]	; (d9dc <benchmark_body+0x58a8>)
    d9cc:	f507 62bf 	add.w	r2, r7, #1528	; 0x5f8
    d9d0:	f5a2 62a5 	sub.w	r2, r2, #1320	; 0x528
    d9d4:	6812      	ldr	r2, [r2, #0]
    d9d6:	e007      	b.n	d9e8 <benchmark_body+0x58b4>
    d9d8:	0001f118 	.word	0x0001f118
    d9dc:	0001f11c 	.word	0x0001f11c
    d9e0:	0001ecac 	.word	0x0001ecac
    d9e4:	0001f104 	.word	0x0001f104
    d9e8:	f841 2023 	str.w	r2, [r1, r3, lsl #2]
    d9ec:	4ba7      	ldr	r3, [pc, #668]	; (dc8c <benchmark_body+0x5b58>)
    d9ee:	681b      	ldr	r3, [r3, #0]
    d9f0:	3302      	adds	r3, #2
    d9f2:	49a7      	ldr	r1, [pc, #668]	; (dc90 <benchmark_body+0x5b5c>)
    d9f4:	f507 62bf 	add.w	r2, r7, #1528	; 0x5f8
    d9f8:	f2a2 522c 	subw	r2, r2, #1324	; 0x52c
    d9fc:	6812      	ldr	r2, [r2, #0]
    d9fe:	f841 2023 	str.w	r2, [r1, r3, lsl #2]
    da02:	4ba2      	ldr	r3, [pc, #648]	; (dc8c <benchmark_body+0x5b58>)
    da04:	681b      	ldr	r3, [r3, #0]
    da06:	3303      	adds	r3, #3
    da08:	4aa0      	ldr	r2, [pc, #640]	; (dc8c <benchmark_body+0x5b58>)
    da0a:	6013      	str	r3, [r2, #0]
    da0c:	4ba1      	ldr	r3, [pc, #644]	; (dc94 <benchmark_body+0x5b60>)
    da0e:	681b      	ldr	r3, [r3, #0]
    da10:	2b04      	cmp	r3, #4
    da12:	dd67      	ble.n	dae4 <benchmark_body+0x59b0>
    da14:	4b9d      	ldr	r3, [pc, #628]	; (dc8c <benchmark_body+0x5b58>)
    da16:	681b      	ldr	r3, [r3, #0]
    da18:	2b03      	cmp	r3, #3
    da1a:	dc63      	bgt.n	dae4 <benchmark_body+0x59b0>
    da1c:	4b9e      	ldr	r3, [pc, #632]	; (dc98 <benchmark_body+0x5b64>)
    da1e:	685a      	ldr	r2, [r3, #4]
    da20:	4b9d      	ldr	r3, [pc, #628]	; (dc98 <benchmark_body+0x5b64>)
    da22:	689b      	ldr	r3, [r3, #8]
    da24:	429a      	cmp	r2, r3
    da26:	d15d      	bne.n	dae4 <benchmark_body+0x59b0>
    da28:	4b9b      	ldr	r3, [pc, #620]	; (dc98 <benchmark_body+0x5b64>)
    da2a:	685a      	ldr	r2, [r3, #4]
    da2c:	4b9a      	ldr	r3, [pc, #616]	; (dc98 <benchmark_body+0x5b64>)
    da2e:	681b      	ldr	r3, [r3, #0]
    da30:	429a      	cmp	r2, r3
    da32:	d157      	bne.n	dae4 <benchmark_body+0x59b0>
    da34:	f507 63bf 	add.w	r3, r7, #1528	; 0x5f8
    da38:	f5a3 63a6 	sub.w	r3, r3, #1328	; 0x530
    da3c:	4a96      	ldr	r2, [pc, #600]	; (dc98 <benchmark_body+0x5b64>)
    da3e:	6912      	ldr	r2, [r2, #16]
    da40:	601a      	str	r2, [r3, #0]
    da42:	f507 63bf 	add.w	r3, r7, #1528	; 0x5f8
    da46:	f2a3 5334 	subw	r3, r3, #1332	; 0x534
    da4a:	4a93      	ldr	r2, [pc, #588]	; (dc98 <benchmark_body+0x5b64>)
    da4c:	6852      	ldr	r2, [r2, #4]
    da4e:	601a      	str	r2, [r3, #0]
    da50:	f507 63bf 	add.w	r3, r7, #1528	; 0x5f8
    da54:	f2a3 5234 	subw	r2, r3, #1332	; 0x534
    da58:	f507 63bf 	add.w	r3, r7, #1528	; 0x5f8
    da5c:	f5a3 63a6 	sub.w	r3, r3, #1328	; 0x530
    da60:	6812      	ldr	r2, [r2, #0]
    da62:	681b      	ldr	r3, [r3, #0]
    da64:	429a      	cmp	r2, r3
    da66:	dd3d      	ble.n	dae4 <benchmark_body+0x59b0>
    da68:	4b8b      	ldr	r3, [pc, #556]	; (dc98 <benchmark_body+0x5b64>)
    da6a:	68db      	ldr	r3, [r3, #12]
    da6c:	4a8a      	ldr	r2, [pc, #552]	; (dc98 <benchmark_body+0x5b64>)
    da6e:	6013      	str	r3, [r2, #0]
    da70:	4b88      	ldr	r3, [pc, #544]	; (dc94 <benchmark_body+0x5b60>)
    da72:	681b      	ldr	r3, [r3, #0]
    da74:	3b04      	subs	r3, #4
    da76:	4a87      	ldr	r2, [pc, #540]	; (dc94 <benchmark_body+0x5b60>)
    da78:	6013      	str	r3, [r2, #0]
    da7a:	f507 63bf 	add.w	r3, r7, #1528	; 0x5f8
    da7e:	f5a3 63a7 	sub.w	r3, r3, #1336	; 0x538
    da82:	f507 62bf 	add.w	r2, r7, #1528	; 0x5f8
    da86:	f5a2 61a6 	sub.w	r1, r2, #1328	; 0x530
    da8a:	f507 62bf 	add.w	r2, r7, #1528	; 0x5f8
    da8e:	f2a2 5234 	subw	r2, r2, #1332	; 0x534
    da92:	6809      	ldr	r1, [r1, #0]
    da94:	6812      	ldr	r2, [r2, #0]
    da96:	440a      	add	r2, r1
    da98:	601a      	str	r2, [r3, #0]
    da9a:	4b7c      	ldr	r3, [pc, #496]	; (dc8c <benchmark_body+0x5b58>)
    da9c:	681b      	ldr	r3, [r3, #0]
    da9e:	497c      	ldr	r1, [pc, #496]	; (dc90 <benchmark_body+0x5b5c>)
    daa0:	f507 62bf 	add.w	r2, r7, #1528	; 0x5f8
    daa4:	f5a2 62a6 	sub.w	r2, r2, #1328	; 0x530
    daa8:	6812      	ldr	r2, [r2, #0]
    daaa:	f841 2023 	str.w	r2, [r1, r3, lsl #2]
    daae:	4b77      	ldr	r3, [pc, #476]	; (dc8c <benchmark_body+0x5b58>)
    dab0:	681b      	ldr	r3, [r3, #0]
    dab2:	3301      	adds	r3, #1
    dab4:	4976      	ldr	r1, [pc, #472]	; (dc90 <benchmark_body+0x5b5c>)
    dab6:	f507 62bf 	add.w	r2, r7, #1528	; 0x5f8
    daba:	f2a2 5234 	subw	r2, r2, #1332	; 0x534
    dabe:	6812      	ldr	r2, [r2, #0]
    dac0:	f841 2023 	str.w	r2, [r1, r3, lsl #2]
    dac4:	4b71      	ldr	r3, [pc, #452]	; (dc8c <benchmark_body+0x5b58>)
    dac6:	681b      	ldr	r3, [r3, #0]
    dac8:	3302      	adds	r3, #2
    daca:	4971      	ldr	r1, [pc, #452]	; (dc90 <benchmark_body+0x5b5c>)
    dacc:	f507 62bf 	add.w	r2, r7, #1528	; 0x5f8
    dad0:	f5a2 62a7 	sub.w	r2, r2, #1336	; 0x538
    dad4:	6812      	ldr	r2, [r2, #0]
    dad6:	f841 2023 	str.w	r2, [r1, r3, lsl #2]
    dada:	4b6c      	ldr	r3, [pc, #432]	; (dc8c <benchmark_body+0x5b58>)
    dadc:	681b      	ldr	r3, [r3, #0]
    dade:	3303      	adds	r3, #3
    dae0:	4a6a      	ldr	r2, [pc, #424]	; (dc8c <benchmark_body+0x5b58>)
    dae2:	6013      	str	r3, [r2, #0]
    dae4:	4b6b      	ldr	r3, [pc, #428]	; (dc94 <benchmark_body+0x5b60>)
    dae6:	681b      	ldr	r3, [r3, #0]
    dae8:	2b04      	cmp	r3, #4
    daea:	dd63      	ble.n	dbb4 <benchmark_body+0x5a80>
    daec:	4b67      	ldr	r3, [pc, #412]	; (dc8c <benchmark_body+0x5b58>)
    daee:	681b      	ldr	r3, [r3, #0]
    daf0:	2b03      	cmp	r3, #3
    daf2:	dc5f      	bgt.n	dbb4 <benchmark_body+0x5a80>
    daf4:	4b68      	ldr	r3, [pc, #416]	; (dc98 <benchmark_body+0x5b64>)
    daf6:	685a      	ldr	r2, [r3, #4]
    daf8:	4b67      	ldr	r3, [pc, #412]	; (dc98 <benchmark_body+0x5b64>)
    dafa:	689b      	ldr	r3, [r3, #8]
    dafc:	429a      	cmp	r2, r3
    dafe:	d159      	bne.n	dbb4 <benchmark_body+0x5a80>
    db00:	4b65      	ldr	r3, [pc, #404]	; (dc98 <benchmark_body+0x5b64>)
    db02:	685a      	ldr	r2, [r3, #4]
    db04:	4b64      	ldr	r3, [pc, #400]	; (dc98 <benchmark_body+0x5b64>)
    db06:	68db      	ldr	r3, [r3, #12]
    db08:	429a      	cmp	r2, r3
    db0a:	d153      	bne.n	dbb4 <benchmark_body+0x5a80>
    db0c:	f507 63bf 	add.w	r3, r7, #1528	; 0x5f8
    db10:	f2a3 533c 	subw	r3, r3, #1340	; 0x53c
    db14:	4a60      	ldr	r2, [pc, #384]	; (dc98 <benchmark_body+0x5b64>)
    db16:	6912      	ldr	r2, [r2, #16]
    db18:	601a      	str	r2, [r3, #0]
    db1a:	f507 63bf 	add.w	r3, r7, #1528	; 0x5f8
    db1e:	f5a3 63a8 	sub.w	r3, r3, #1344	; 0x540
    db22:	4a5d      	ldr	r2, [pc, #372]	; (dc98 <benchmark_body+0x5b64>)
    db24:	6852      	ldr	r2, [r2, #4]
    db26:	601a      	str	r2, [r3, #0]
    db28:	f507 63bf 	add.w	r3, r7, #1528	; 0x5f8
    db2c:	f5a3 62a8 	sub.w	r2, r3, #1344	; 0x540
    db30:	f507 63bf 	add.w	r3, r7, #1528	; 0x5f8
    db34:	f2a3 533c 	subw	r3, r3, #1340	; 0x53c
    db38:	6812      	ldr	r2, [r2, #0]
    db3a:	681b      	ldr	r3, [r3, #0]
    db3c:	429a      	cmp	r2, r3
    db3e:	dd39      	ble.n	dbb4 <benchmark_body+0x5a80>
    db40:	4b54      	ldr	r3, [pc, #336]	; (dc94 <benchmark_body+0x5b60>)
    db42:	681b      	ldr	r3, [r3, #0]
    db44:	3b04      	subs	r3, #4
    db46:	4a53      	ldr	r2, [pc, #332]	; (dc94 <benchmark_body+0x5b60>)
    db48:	6013      	str	r3, [r2, #0]
    db4a:	f507 63bf 	add.w	r3, r7, #1528	; 0x5f8
    db4e:	f2a3 5344 	subw	r3, r3, #1348	; 0x544
    db52:	f507 62bf 	add.w	r2, r7, #1528	; 0x5f8
    db56:	f2a2 513c 	subw	r1, r2, #1340	; 0x53c
    db5a:	f507 62bf 	add.w	r2, r7, #1528	; 0x5f8
    db5e:	f5a2 62a8 	sub.w	r2, r2, #1344	; 0x540
    db62:	6809      	ldr	r1, [r1, #0]
    db64:	6812      	ldr	r2, [r2, #0]
    db66:	440a      	add	r2, r1
    db68:	601a      	str	r2, [r3, #0]
    db6a:	4b48      	ldr	r3, [pc, #288]	; (dc8c <benchmark_body+0x5b58>)
    db6c:	681b      	ldr	r3, [r3, #0]
    db6e:	4948      	ldr	r1, [pc, #288]	; (dc90 <benchmark_body+0x5b5c>)
    db70:	f507 62bf 	add.w	r2, r7, #1528	; 0x5f8
    db74:	f2a2 523c 	subw	r2, r2, #1340	; 0x53c
    db78:	6812      	ldr	r2, [r2, #0]
    db7a:	f841 2023 	str.w	r2, [r1, r3, lsl #2]
    db7e:	4b43      	ldr	r3, [pc, #268]	; (dc8c <benchmark_body+0x5b58>)
    db80:	681b      	ldr	r3, [r3, #0]
    db82:	3301      	adds	r3, #1
    db84:	4942      	ldr	r1, [pc, #264]	; (dc90 <benchmark_body+0x5b5c>)
    db86:	f507 62bf 	add.w	r2, r7, #1528	; 0x5f8
    db8a:	f5a2 62a8 	sub.w	r2, r2, #1344	; 0x540
    db8e:	6812      	ldr	r2, [r2, #0]
    db90:	f841 2023 	str.w	r2, [r1, r3, lsl #2]
    db94:	4b3d      	ldr	r3, [pc, #244]	; (dc8c <benchmark_body+0x5b58>)
    db96:	681b      	ldr	r3, [r3, #0]
    db98:	3302      	adds	r3, #2
    db9a:	493d      	ldr	r1, [pc, #244]	; (dc90 <benchmark_body+0x5b5c>)
    db9c:	f507 62bf 	add.w	r2, r7, #1528	; 0x5f8
    dba0:	f2a2 5244 	subw	r2, r2, #1348	; 0x544
    dba4:	6812      	ldr	r2, [r2, #0]
    dba6:	f841 2023 	str.w	r2, [r1, r3, lsl #2]
    dbaa:	4b38      	ldr	r3, [pc, #224]	; (dc8c <benchmark_body+0x5b58>)
    dbac:	681b      	ldr	r3, [r3, #0]
    dbae:	3303      	adds	r3, #3
    dbb0:	4a36      	ldr	r2, [pc, #216]	; (dc8c <benchmark_body+0x5b58>)
    dbb2:	6013      	str	r3, [r2, #0]
    dbb4:	4b37      	ldr	r3, [pc, #220]	; (dc94 <benchmark_body+0x5b60>)
    dbb6:	681b      	ldr	r3, [r3, #0]
    dbb8:	2b04      	cmp	r3, #4
    dbba:	dd71      	ble.n	dca0 <benchmark_body+0x5b6c>
    dbbc:	4b33      	ldr	r3, [pc, #204]	; (dc8c <benchmark_body+0x5b58>)
    dbbe:	681b      	ldr	r3, [r3, #0]
    dbc0:	2b03      	cmp	r3, #3
    dbc2:	dc6d      	bgt.n	dca0 <benchmark_body+0x5b6c>
    dbc4:	4b34      	ldr	r3, [pc, #208]	; (dc98 <benchmark_body+0x5b64>)
    dbc6:	685a      	ldr	r2, [r3, #4]
    dbc8:	4b33      	ldr	r3, [pc, #204]	; (dc98 <benchmark_body+0x5b64>)
    dbca:	68db      	ldr	r3, [r3, #12]
    dbcc:	429a      	cmp	r2, r3
    dbce:	d167      	bne.n	dca0 <benchmark_body+0x5b6c>
    dbd0:	4b31      	ldr	r3, [pc, #196]	; (dc98 <benchmark_body+0x5b64>)
    dbd2:	685a      	ldr	r2, [r3, #4]
    dbd4:	4b30      	ldr	r3, [pc, #192]	; (dc98 <benchmark_body+0x5b64>)
    dbd6:	681b      	ldr	r3, [r3, #0]
    dbd8:	429a      	cmp	r2, r3
    dbda:	d161      	bne.n	dca0 <benchmark_body+0x5b6c>
    dbdc:	f507 63bf 	add.w	r3, r7, #1528	; 0x5f8
    dbe0:	f5a3 63a9 	sub.w	r3, r3, #1352	; 0x548
    dbe4:	4a2c      	ldr	r2, [pc, #176]	; (dc98 <benchmark_body+0x5b64>)
    dbe6:	6912      	ldr	r2, [r2, #16]
    dbe8:	601a      	str	r2, [r3, #0]
    dbea:	f507 63bf 	add.w	r3, r7, #1528	; 0x5f8
    dbee:	f2a3 534c 	subw	r3, r3, #1356	; 0x54c
    dbf2:	4a29      	ldr	r2, [pc, #164]	; (dc98 <benchmark_body+0x5b64>)
    dbf4:	6852      	ldr	r2, [r2, #4]
    dbf6:	601a      	str	r2, [r3, #0]
    dbf8:	f507 63bf 	add.w	r3, r7, #1528	; 0x5f8
    dbfc:	f2a3 524c 	subw	r2, r3, #1356	; 0x54c
    dc00:	f507 63bf 	add.w	r3, r7, #1528	; 0x5f8
    dc04:	f5a3 63a9 	sub.w	r3, r3, #1352	; 0x548
    dc08:	6812      	ldr	r2, [r2, #0]
    dc0a:	681b      	ldr	r3, [r3, #0]
    dc0c:	429a      	cmp	r2, r3
    dc0e:	dd47      	ble.n	dca0 <benchmark_body+0x5b6c>
    dc10:	4b21      	ldr	r3, [pc, #132]	; (dc98 <benchmark_body+0x5b64>)
    dc12:	689b      	ldr	r3, [r3, #8]
    dc14:	4a20      	ldr	r2, [pc, #128]	; (dc98 <benchmark_body+0x5b64>)
    dc16:	6013      	str	r3, [r2, #0]
    dc18:	4b1e      	ldr	r3, [pc, #120]	; (dc94 <benchmark_body+0x5b60>)
    dc1a:	681b      	ldr	r3, [r3, #0]
    dc1c:	3b04      	subs	r3, #4
    dc1e:	4a1d      	ldr	r2, [pc, #116]	; (dc94 <benchmark_body+0x5b60>)
    dc20:	6013      	str	r3, [r2, #0]
    dc22:	f507 63bf 	add.w	r3, r7, #1528	; 0x5f8
    dc26:	f5a3 63aa 	sub.w	r3, r3, #1360	; 0x550
    dc2a:	f507 62bf 	add.w	r2, r7, #1528	; 0x5f8
    dc2e:	f5a2 61a9 	sub.w	r1, r2, #1352	; 0x548
    dc32:	f507 62bf 	add.w	r2, r7, #1528	; 0x5f8
    dc36:	f2a2 524c 	subw	r2, r2, #1356	; 0x54c
    dc3a:	6809      	ldr	r1, [r1, #0]
    dc3c:	6812      	ldr	r2, [r2, #0]
    dc3e:	440a      	add	r2, r1
    dc40:	601a      	str	r2, [r3, #0]
    dc42:	4b12      	ldr	r3, [pc, #72]	; (dc8c <benchmark_body+0x5b58>)
    dc44:	681b      	ldr	r3, [r3, #0]
    dc46:	4912      	ldr	r1, [pc, #72]	; (dc90 <benchmark_body+0x5b5c>)
    dc48:	f507 62bf 	add.w	r2, r7, #1528	; 0x5f8
    dc4c:	f5a2 62a9 	sub.w	r2, r2, #1352	; 0x548
    dc50:	6812      	ldr	r2, [r2, #0]
    dc52:	f841 2023 	str.w	r2, [r1, r3, lsl #2]
    dc56:	4b0d      	ldr	r3, [pc, #52]	; (dc8c <benchmark_body+0x5b58>)
    dc58:	681b      	ldr	r3, [r3, #0]
    dc5a:	3301      	adds	r3, #1
    dc5c:	490c      	ldr	r1, [pc, #48]	; (dc90 <benchmark_body+0x5b5c>)
    dc5e:	f507 62bf 	add.w	r2, r7, #1528	; 0x5f8
    dc62:	f2a2 524c 	subw	r2, r2, #1356	; 0x54c
    dc66:	6812      	ldr	r2, [r2, #0]
    dc68:	f841 2023 	str.w	r2, [r1, r3, lsl #2]
    dc6c:	4b07      	ldr	r3, [pc, #28]	; (dc8c <benchmark_body+0x5b58>)
    dc6e:	681b      	ldr	r3, [r3, #0]
    dc70:	3302      	adds	r3, #2
    dc72:	4907      	ldr	r1, [pc, #28]	; (dc90 <benchmark_body+0x5b5c>)
    dc74:	f507 62bf 	add.w	r2, r7, #1528	; 0x5f8
    dc78:	f5a2 62aa 	sub.w	r2, r2, #1360	; 0x550
    dc7c:	6812      	ldr	r2, [r2, #0]
    dc7e:	f841 2023 	str.w	r2, [r1, r3, lsl #2]
    dc82:	4b02      	ldr	r3, [pc, #8]	; (dc8c <benchmark_body+0x5b58>)
    dc84:	681b      	ldr	r3, [r3, #0]
    dc86:	3303      	adds	r3, #3
    dc88:	e008      	b.n	dc9c <benchmark_body+0x5b68>
    dc8a:	bf00      	nop
    dc8c:	0001f118 	.word	0x0001f118
    dc90:	0001f11c 	.word	0x0001f11c
    dc94:	0001ecac 	.word	0x0001ecac
    dc98:	0001f104 	.word	0x0001f104
    dc9c:	4aa5      	ldr	r2, [pc, #660]	; (df34 <benchmark_body+0x5e00>)
    dc9e:	6013      	str	r3, [r2, #0]
    dca0:	4ba5      	ldr	r3, [pc, #660]	; (df38 <benchmark_body+0x5e04>)
    dca2:	681b      	ldr	r3, [r3, #0]
    dca4:	2b04      	cmp	r3, #4
    dca6:	dd63      	ble.n	dd70 <benchmark_body+0x5c3c>
    dca8:	4ba2      	ldr	r3, [pc, #648]	; (df34 <benchmark_body+0x5e00>)
    dcaa:	681b      	ldr	r3, [r3, #0]
    dcac:	2b03      	cmp	r3, #3
    dcae:	dc5f      	bgt.n	dd70 <benchmark_body+0x5c3c>
    dcb0:	4ba2      	ldr	r3, [pc, #648]	; (df3c <benchmark_body+0x5e08>)
    dcb2:	685a      	ldr	r2, [r3, #4]
    dcb4:	4ba1      	ldr	r3, [pc, #644]	; (df3c <benchmark_body+0x5e08>)
    dcb6:	68db      	ldr	r3, [r3, #12]
    dcb8:	429a      	cmp	r2, r3
    dcba:	d159      	bne.n	dd70 <benchmark_body+0x5c3c>
    dcbc:	4b9f      	ldr	r3, [pc, #636]	; (df3c <benchmark_body+0x5e08>)
    dcbe:	685a      	ldr	r2, [r3, #4]
    dcc0:	4b9e      	ldr	r3, [pc, #632]	; (df3c <benchmark_body+0x5e08>)
    dcc2:	689b      	ldr	r3, [r3, #8]
    dcc4:	429a      	cmp	r2, r3
    dcc6:	d153      	bne.n	dd70 <benchmark_body+0x5c3c>
    dcc8:	f507 63bf 	add.w	r3, r7, #1528	; 0x5f8
    dccc:	f2a3 5354 	subw	r3, r3, #1364	; 0x554
    dcd0:	4a9a      	ldr	r2, [pc, #616]	; (df3c <benchmark_body+0x5e08>)
    dcd2:	6912      	ldr	r2, [r2, #16]
    dcd4:	601a      	str	r2, [r3, #0]
    dcd6:	f507 63bf 	add.w	r3, r7, #1528	; 0x5f8
    dcda:	f5a3 63ab 	sub.w	r3, r3, #1368	; 0x558
    dcde:	4a97      	ldr	r2, [pc, #604]	; (df3c <benchmark_body+0x5e08>)
    dce0:	6852      	ldr	r2, [r2, #4]
    dce2:	601a      	str	r2, [r3, #0]
    dce4:	f507 63bf 	add.w	r3, r7, #1528	; 0x5f8
    dce8:	f5a3 62ab 	sub.w	r2, r3, #1368	; 0x558
    dcec:	f507 63bf 	add.w	r3, r7, #1528	; 0x5f8
    dcf0:	f2a3 5354 	subw	r3, r3, #1364	; 0x554
    dcf4:	6812      	ldr	r2, [r2, #0]
    dcf6:	681b      	ldr	r3, [r3, #0]
    dcf8:	429a      	cmp	r2, r3
    dcfa:	dd39      	ble.n	dd70 <benchmark_body+0x5c3c>
    dcfc:	4b8e      	ldr	r3, [pc, #568]	; (df38 <benchmark_body+0x5e04>)
    dcfe:	681b      	ldr	r3, [r3, #0]
    dd00:	3b04      	subs	r3, #4
    dd02:	4a8d      	ldr	r2, [pc, #564]	; (df38 <benchmark_body+0x5e04>)
    dd04:	6013      	str	r3, [r2, #0]
    dd06:	f507 63bf 	add.w	r3, r7, #1528	; 0x5f8
    dd0a:	f2a3 535c 	subw	r3, r3, #1372	; 0x55c
    dd0e:	f507 62bf 	add.w	r2, r7, #1528	; 0x5f8
    dd12:	f2a2 5154 	subw	r1, r2, #1364	; 0x554
    dd16:	f507 62bf 	add.w	r2, r7, #1528	; 0x5f8
    dd1a:	f5a2 62ab 	sub.w	r2, r2, #1368	; 0x558
    dd1e:	6809      	ldr	r1, [r1, #0]
    dd20:	6812      	ldr	r2, [r2, #0]
    dd22:	440a      	add	r2, r1
    dd24:	601a      	str	r2, [r3, #0]
    dd26:	4b83      	ldr	r3, [pc, #524]	; (df34 <benchmark_body+0x5e00>)
    dd28:	681b      	ldr	r3, [r3, #0]
    dd2a:	4985      	ldr	r1, [pc, #532]	; (df40 <benchmark_body+0x5e0c>)
    dd2c:	f507 62bf 	add.w	r2, r7, #1528	; 0x5f8
    dd30:	f2a2 5254 	subw	r2, r2, #1364	; 0x554
    dd34:	6812      	ldr	r2, [r2, #0]
    dd36:	f841 2023 	str.w	r2, [r1, r3, lsl #2]
    dd3a:	4b7e      	ldr	r3, [pc, #504]	; (df34 <benchmark_body+0x5e00>)
    dd3c:	681b      	ldr	r3, [r3, #0]
    dd3e:	3301      	adds	r3, #1
    dd40:	497f      	ldr	r1, [pc, #508]	; (df40 <benchmark_body+0x5e0c>)
    dd42:	f507 62bf 	add.w	r2, r7, #1528	; 0x5f8
    dd46:	f5a2 62ab 	sub.w	r2, r2, #1368	; 0x558
    dd4a:	6812      	ldr	r2, [r2, #0]
    dd4c:	f841 2023 	str.w	r2, [r1, r3, lsl #2]
    dd50:	4b78      	ldr	r3, [pc, #480]	; (df34 <benchmark_body+0x5e00>)
    dd52:	681b      	ldr	r3, [r3, #0]
    dd54:	3302      	adds	r3, #2
    dd56:	497a      	ldr	r1, [pc, #488]	; (df40 <benchmark_body+0x5e0c>)
    dd58:	f507 62bf 	add.w	r2, r7, #1528	; 0x5f8
    dd5c:	f2a2 525c 	subw	r2, r2, #1372	; 0x55c
    dd60:	6812      	ldr	r2, [r2, #0]
    dd62:	f841 2023 	str.w	r2, [r1, r3, lsl #2]
    dd66:	4b73      	ldr	r3, [pc, #460]	; (df34 <benchmark_body+0x5e00>)
    dd68:	681b      	ldr	r3, [r3, #0]
    dd6a:	3303      	adds	r3, #3
    dd6c:	4a71      	ldr	r2, [pc, #452]	; (df34 <benchmark_body+0x5e00>)
    dd6e:	6013      	str	r3, [r2, #0]
    dd70:	4b71      	ldr	r3, [pc, #452]	; (df38 <benchmark_body+0x5e04>)
    dd72:	681b      	ldr	r3, [r3, #0]
    dd74:	2b04      	cmp	r3, #4
    dd76:	dd67      	ble.n	de48 <benchmark_body+0x5d14>
    dd78:	4b6e      	ldr	r3, [pc, #440]	; (df34 <benchmark_body+0x5e00>)
    dd7a:	681b      	ldr	r3, [r3, #0]
    dd7c:	2b03      	cmp	r3, #3
    dd7e:	dc63      	bgt.n	de48 <benchmark_body+0x5d14>
    dd80:	4b6e      	ldr	r3, [pc, #440]	; (df3c <benchmark_body+0x5e08>)
    dd82:	689a      	ldr	r2, [r3, #8]
    dd84:	4b6d      	ldr	r3, [pc, #436]	; (df3c <benchmark_body+0x5e08>)
    dd86:	681b      	ldr	r3, [r3, #0]
    dd88:	429a      	cmp	r2, r3
    dd8a:	d15d      	bne.n	de48 <benchmark_body+0x5d14>
    dd8c:	4b6b      	ldr	r3, [pc, #428]	; (df3c <benchmark_body+0x5e08>)
    dd8e:	689a      	ldr	r2, [r3, #8]
    dd90:	4b6a      	ldr	r3, [pc, #424]	; (df3c <benchmark_body+0x5e08>)
    dd92:	685b      	ldr	r3, [r3, #4]
    dd94:	429a      	cmp	r2, r3
    dd96:	d157      	bne.n	de48 <benchmark_body+0x5d14>
    dd98:	f507 63bf 	add.w	r3, r7, #1528	; 0x5f8
    dd9c:	f5a3 63ac 	sub.w	r3, r3, #1376	; 0x560
    dda0:	4a66      	ldr	r2, [pc, #408]	; (df3c <benchmark_body+0x5e08>)
    dda2:	6912      	ldr	r2, [r2, #16]
    dda4:	601a      	str	r2, [r3, #0]
    dda6:	f507 63bf 	add.w	r3, r7, #1528	; 0x5f8
    ddaa:	f2a3 5364 	subw	r3, r3, #1380	; 0x564
    ddae:	4a63      	ldr	r2, [pc, #396]	; (df3c <benchmark_body+0x5e08>)
    ddb0:	6892      	ldr	r2, [r2, #8]
    ddb2:	601a      	str	r2, [r3, #0]
    ddb4:	f507 63bf 	add.w	r3, r7, #1528	; 0x5f8
    ddb8:	f2a3 5264 	subw	r2, r3, #1380	; 0x564
    ddbc:	f507 63bf 	add.w	r3, r7, #1528	; 0x5f8
    ddc0:	f5a3 63ac 	sub.w	r3, r3, #1376	; 0x560
    ddc4:	6812      	ldr	r2, [r2, #0]
    ddc6:	681b      	ldr	r3, [r3, #0]
    ddc8:	429a      	cmp	r2, r3
    ddca:	dd3d      	ble.n	de48 <benchmark_body+0x5d14>
    ddcc:	4b5b      	ldr	r3, [pc, #364]	; (df3c <benchmark_body+0x5e08>)
    ddce:	68db      	ldr	r3, [r3, #12]
    ddd0:	4a5a      	ldr	r2, [pc, #360]	; (df3c <benchmark_body+0x5e08>)
    ddd2:	6013      	str	r3, [r2, #0]
    ddd4:	4b58      	ldr	r3, [pc, #352]	; (df38 <benchmark_body+0x5e04>)
    ddd6:	681b      	ldr	r3, [r3, #0]
    ddd8:	3b04      	subs	r3, #4
    ddda:	4a57      	ldr	r2, [pc, #348]	; (df38 <benchmark_body+0x5e04>)
    dddc:	6013      	str	r3, [r2, #0]
    ddde:	f507 63bf 	add.w	r3, r7, #1528	; 0x5f8
    dde2:	f5a3 63ad 	sub.w	r3, r3, #1384	; 0x568
    dde6:	f507 62bf 	add.w	r2, r7, #1528	; 0x5f8
    ddea:	f5a2 61ac 	sub.w	r1, r2, #1376	; 0x560
    ddee:	f507 62bf 	add.w	r2, r7, #1528	; 0x5f8
    ddf2:	f2a2 5264 	subw	r2, r2, #1380	; 0x564
    ddf6:	6809      	ldr	r1, [r1, #0]
    ddf8:	6812      	ldr	r2, [r2, #0]
    ddfa:	440a      	add	r2, r1
    ddfc:	601a      	str	r2, [r3, #0]
    ddfe:	4b4d      	ldr	r3, [pc, #308]	; (df34 <benchmark_body+0x5e00>)
    de00:	681b      	ldr	r3, [r3, #0]
    de02:	494f      	ldr	r1, [pc, #316]	; (df40 <benchmark_body+0x5e0c>)
    de04:	f507 62bf 	add.w	r2, r7, #1528	; 0x5f8
    de08:	f5a2 62ac 	sub.w	r2, r2, #1376	; 0x560
    de0c:	6812      	ldr	r2, [r2, #0]
    de0e:	f841 2023 	str.w	r2, [r1, r3, lsl #2]
    de12:	4b48      	ldr	r3, [pc, #288]	; (df34 <benchmark_body+0x5e00>)
    de14:	681b      	ldr	r3, [r3, #0]
    de16:	3301      	adds	r3, #1
    de18:	4949      	ldr	r1, [pc, #292]	; (df40 <benchmark_body+0x5e0c>)
    de1a:	f507 62bf 	add.w	r2, r7, #1528	; 0x5f8
    de1e:	f2a2 5264 	subw	r2, r2, #1380	; 0x564
    de22:	6812      	ldr	r2, [r2, #0]
    de24:	f841 2023 	str.w	r2, [r1, r3, lsl #2]
    de28:	4b42      	ldr	r3, [pc, #264]	; (df34 <benchmark_body+0x5e00>)
    de2a:	681b      	ldr	r3, [r3, #0]
    de2c:	3302      	adds	r3, #2
    de2e:	4944      	ldr	r1, [pc, #272]	; (df40 <benchmark_body+0x5e0c>)
    de30:	f507 62bf 	add.w	r2, r7, #1528	; 0x5f8
    de34:	f5a2 62ad 	sub.w	r2, r2, #1384	; 0x568
    de38:	6812      	ldr	r2, [r2, #0]
    de3a:	f841 2023 	str.w	r2, [r1, r3, lsl #2]
    de3e:	4b3d      	ldr	r3, [pc, #244]	; (df34 <benchmark_body+0x5e00>)
    de40:	681b      	ldr	r3, [r3, #0]
    de42:	3303      	adds	r3, #3
    de44:	4a3b      	ldr	r2, [pc, #236]	; (df34 <benchmark_body+0x5e00>)
    de46:	6013      	str	r3, [r2, #0]
    de48:	4b3b      	ldr	r3, [pc, #236]	; (df38 <benchmark_body+0x5e04>)
    de4a:	681b      	ldr	r3, [r3, #0]
    de4c:	2b04      	cmp	r3, #4
    de4e:	dd67      	ble.n	df20 <benchmark_body+0x5dec>
    de50:	4b38      	ldr	r3, [pc, #224]	; (df34 <benchmark_body+0x5e00>)
    de52:	681b      	ldr	r3, [r3, #0]
    de54:	2b03      	cmp	r3, #3
    de56:	dc63      	bgt.n	df20 <benchmark_body+0x5dec>
    de58:	4b38      	ldr	r3, [pc, #224]	; (df3c <benchmark_body+0x5e08>)
    de5a:	689a      	ldr	r2, [r3, #8]
    de5c:	4b37      	ldr	r3, [pc, #220]	; (df3c <benchmark_body+0x5e08>)
    de5e:	681b      	ldr	r3, [r3, #0]
    de60:	429a      	cmp	r2, r3
    de62:	d15d      	bne.n	df20 <benchmark_body+0x5dec>
    de64:	4b35      	ldr	r3, [pc, #212]	; (df3c <benchmark_body+0x5e08>)
    de66:	689a      	ldr	r2, [r3, #8]
    de68:	4b34      	ldr	r3, [pc, #208]	; (df3c <benchmark_body+0x5e08>)
    de6a:	68db      	ldr	r3, [r3, #12]
    de6c:	429a      	cmp	r2, r3
    de6e:	d157      	bne.n	df20 <benchmark_body+0x5dec>
    de70:	f507 63bf 	add.w	r3, r7, #1528	; 0x5f8
    de74:	f2a3 536c 	subw	r3, r3, #1388	; 0x56c
    de78:	4a30      	ldr	r2, [pc, #192]	; (df3c <benchmark_body+0x5e08>)
    de7a:	6912      	ldr	r2, [r2, #16]
    de7c:	601a      	str	r2, [r3, #0]
    de7e:	f507 63bf 	add.w	r3, r7, #1528	; 0x5f8
    de82:	f5a3 63ae 	sub.w	r3, r3, #1392	; 0x570
    de86:	4a2d      	ldr	r2, [pc, #180]	; (df3c <benchmark_body+0x5e08>)
    de88:	6892      	ldr	r2, [r2, #8]
    de8a:	601a      	str	r2, [r3, #0]
    de8c:	f507 63bf 	add.w	r3, r7, #1528	; 0x5f8
    de90:	f5a3 62ae 	sub.w	r2, r3, #1392	; 0x570
    de94:	f507 63bf 	add.w	r3, r7, #1528	; 0x5f8
    de98:	f2a3 536c 	subw	r3, r3, #1388	; 0x56c
    de9c:	6812      	ldr	r2, [r2, #0]
    de9e:	681b      	ldr	r3, [r3, #0]
    dea0:	429a      	cmp	r2, r3
    dea2:	dd3d      	ble.n	df20 <benchmark_body+0x5dec>
    dea4:	4b25      	ldr	r3, [pc, #148]	; (df3c <benchmark_body+0x5e08>)
    dea6:	685b      	ldr	r3, [r3, #4]
    dea8:	4a24      	ldr	r2, [pc, #144]	; (df3c <benchmark_body+0x5e08>)
    deaa:	6013      	str	r3, [r2, #0]
    deac:	4b22      	ldr	r3, [pc, #136]	; (df38 <benchmark_body+0x5e04>)
    deae:	681b      	ldr	r3, [r3, #0]
    deb0:	3b04      	subs	r3, #4
    deb2:	4a21      	ldr	r2, [pc, #132]	; (df38 <benchmark_body+0x5e04>)
    deb4:	6013      	str	r3, [r2, #0]
    deb6:	f507 63bf 	add.w	r3, r7, #1528	; 0x5f8
    deba:	f2a3 5374 	subw	r3, r3, #1396	; 0x574
    debe:	f507 62bf 	add.w	r2, r7, #1528	; 0x5f8
    dec2:	f2a2 516c 	subw	r1, r2, #1388	; 0x56c
    dec6:	f507 62bf 	add.w	r2, r7, #1528	; 0x5f8
    deca:	f5a2 62ae 	sub.w	r2, r2, #1392	; 0x570
    dece:	6809      	ldr	r1, [r1, #0]
    ded0:	6812      	ldr	r2, [r2, #0]
    ded2:	440a      	add	r2, r1
    ded4:	601a      	str	r2, [r3, #0]
    ded6:	4b17      	ldr	r3, [pc, #92]	; (df34 <benchmark_body+0x5e00>)
    ded8:	681b      	ldr	r3, [r3, #0]
    deda:	4919      	ldr	r1, [pc, #100]	; (df40 <benchmark_body+0x5e0c>)
    dedc:	f507 62bf 	add.w	r2, r7, #1528	; 0x5f8
    dee0:	f2a2 526c 	subw	r2, r2, #1388	; 0x56c
    dee4:	6812      	ldr	r2, [r2, #0]
    dee6:	f841 2023 	str.w	r2, [r1, r3, lsl #2]
    deea:	4b12      	ldr	r3, [pc, #72]	; (df34 <benchmark_body+0x5e00>)
    deec:	681b      	ldr	r3, [r3, #0]
    deee:	3301      	adds	r3, #1
    def0:	4913      	ldr	r1, [pc, #76]	; (df40 <benchmark_body+0x5e0c>)
    def2:	f507 62bf 	add.w	r2, r7, #1528	; 0x5f8
    def6:	f5a2 62ae 	sub.w	r2, r2, #1392	; 0x570
    defa:	6812      	ldr	r2, [r2, #0]
    defc:	f841 2023 	str.w	r2, [r1, r3, lsl #2]
    df00:	4b0c      	ldr	r3, [pc, #48]	; (df34 <benchmark_body+0x5e00>)
    df02:	681b      	ldr	r3, [r3, #0]
    df04:	3302      	adds	r3, #2
    df06:	490e      	ldr	r1, [pc, #56]	; (df40 <benchmark_body+0x5e0c>)
    df08:	f507 62bf 	add.w	r2, r7, #1528	; 0x5f8
    df0c:	f2a2 5274 	subw	r2, r2, #1396	; 0x574
    df10:	6812      	ldr	r2, [r2, #0]
    df12:	f841 2023 	str.w	r2, [r1, r3, lsl #2]
    df16:	4b07      	ldr	r3, [pc, #28]	; (df34 <benchmark_body+0x5e00>)
    df18:	681b      	ldr	r3, [r3, #0]
    df1a:	3303      	adds	r3, #3
    df1c:	4a05      	ldr	r2, [pc, #20]	; (df34 <benchmark_body+0x5e00>)
    df1e:	6013      	str	r3, [r2, #0]
    df20:	4b05      	ldr	r3, [pc, #20]	; (df38 <benchmark_body+0x5e04>)
    df22:	681b      	ldr	r3, [r3, #0]
    df24:	2b04      	cmp	r3, #4
    df26:	dd71      	ble.n	e00c <benchmark_body+0x5ed8>
    df28:	4b02      	ldr	r3, [pc, #8]	; (df34 <benchmark_body+0x5e00>)
    df2a:	681b      	ldr	r3, [r3, #0]
    df2c:	2b03      	cmp	r3, #3
    df2e:	dc6d      	bgt.n	e00c <benchmark_body+0x5ed8>
    df30:	e008      	b.n	df44 <benchmark_body+0x5e10>
    df32:	bf00      	nop
    df34:	0001f118 	.word	0x0001f118
    df38:	0001ecac 	.word	0x0001ecac
    df3c:	0001f104 	.word	0x0001f104
    df40:	0001f11c 	.word	0x0001f11c
    df44:	4ba5      	ldr	r3, [pc, #660]	; (e1dc <benchmark_body+0x60a8>)
    df46:	689a      	ldr	r2, [r3, #8]
    df48:	4ba4      	ldr	r3, [pc, #656]	; (e1dc <benchmark_body+0x60a8>)
    df4a:	685b      	ldr	r3, [r3, #4]
    df4c:	429a      	cmp	r2, r3
    df4e:	d15d      	bne.n	e00c <benchmark_body+0x5ed8>
    df50:	4ba2      	ldr	r3, [pc, #648]	; (e1dc <benchmark_body+0x60a8>)
    df52:	689a      	ldr	r2, [r3, #8]
    df54:	4ba1      	ldr	r3, [pc, #644]	; (e1dc <benchmark_body+0x60a8>)
    df56:	681b      	ldr	r3, [r3, #0]
    df58:	429a      	cmp	r2, r3
    df5a:	d157      	bne.n	e00c <benchmark_body+0x5ed8>
    df5c:	f507 63bf 	add.w	r3, r7, #1528	; 0x5f8
    df60:	f5a3 63af 	sub.w	r3, r3, #1400	; 0x578
    df64:	4a9d      	ldr	r2, [pc, #628]	; (e1dc <benchmark_body+0x60a8>)
    df66:	6912      	ldr	r2, [r2, #16]
    df68:	601a      	str	r2, [r3, #0]
    df6a:	f507 63bf 	add.w	r3, r7, #1528	; 0x5f8
    df6e:	f2a3 537c 	subw	r3, r3, #1404	; 0x57c
    df72:	4a9a      	ldr	r2, [pc, #616]	; (e1dc <benchmark_body+0x60a8>)
    df74:	6892      	ldr	r2, [r2, #8]
    df76:	601a      	str	r2, [r3, #0]
    df78:	f507 63bf 	add.w	r3, r7, #1528	; 0x5f8
    df7c:	f2a3 527c 	subw	r2, r3, #1404	; 0x57c
    df80:	f507 63bf 	add.w	r3, r7, #1528	; 0x5f8
    df84:	f5a3 63af 	sub.w	r3, r3, #1400	; 0x578
    df88:	6812      	ldr	r2, [r2, #0]
    df8a:	681b      	ldr	r3, [r3, #0]
    df8c:	429a      	cmp	r2, r3
    df8e:	dd3d      	ble.n	e00c <benchmark_body+0x5ed8>
    df90:	4b92      	ldr	r3, [pc, #584]	; (e1dc <benchmark_body+0x60a8>)
    df92:	68db      	ldr	r3, [r3, #12]
    df94:	4a91      	ldr	r2, [pc, #580]	; (e1dc <benchmark_body+0x60a8>)
    df96:	6013      	str	r3, [r2, #0]
    df98:	4b91      	ldr	r3, [pc, #580]	; (e1e0 <benchmark_body+0x60ac>)
    df9a:	681b      	ldr	r3, [r3, #0]
    df9c:	3b04      	subs	r3, #4
    df9e:	4a90      	ldr	r2, [pc, #576]	; (e1e0 <benchmark_body+0x60ac>)
    dfa0:	6013      	str	r3, [r2, #0]
    dfa2:	f507 63bf 	add.w	r3, r7, #1528	; 0x5f8
    dfa6:	f5a3 63b0 	sub.w	r3, r3, #1408	; 0x580
    dfaa:	f507 62bf 	add.w	r2, r7, #1528	; 0x5f8
    dfae:	f5a2 61af 	sub.w	r1, r2, #1400	; 0x578
    dfb2:	f507 62bf 	add.w	r2, r7, #1528	; 0x5f8
    dfb6:	f2a2 527c 	subw	r2, r2, #1404	; 0x57c
    dfba:	6809      	ldr	r1, [r1, #0]
    dfbc:	6812      	ldr	r2, [r2, #0]
    dfbe:	440a      	add	r2, r1
    dfc0:	601a      	str	r2, [r3, #0]
    dfc2:	4b88      	ldr	r3, [pc, #544]	; (e1e4 <benchmark_body+0x60b0>)
    dfc4:	681b      	ldr	r3, [r3, #0]
    dfc6:	4988      	ldr	r1, [pc, #544]	; (e1e8 <benchmark_body+0x60b4>)
    dfc8:	f507 62bf 	add.w	r2, r7, #1528	; 0x5f8
    dfcc:	f5a2 62af 	sub.w	r2, r2, #1400	; 0x578
    dfd0:	6812      	ldr	r2, [r2, #0]
    dfd2:	f841 2023 	str.w	r2, [r1, r3, lsl #2]
    dfd6:	4b83      	ldr	r3, [pc, #524]	; (e1e4 <benchmark_body+0x60b0>)
    dfd8:	681b      	ldr	r3, [r3, #0]
    dfda:	3301      	adds	r3, #1
    dfdc:	4982      	ldr	r1, [pc, #520]	; (e1e8 <benchmark_body+0x60b4>)
    dfde:	f507 62bf 	add.w	r2, r7, #1528	; 0x5f8
    dfe2:	f2a2 527c 	subw	r2, r2, #1404	; 0x57c
    dfe6:	6812      	ldr	r2, [r2, #0]
    dfe8:	f841 2023 	str.w	r2, [r1, r3, lsl #2]
    dfec:	4b7d      	ldr	r3, [pc, #500]	; (e1e4 <benchmark_body+0x60b0>)
    dfee:	681b      	ldr	r3, [r3, #0]
    dff0:	3302      	adds	r3, #2
    dff2:	497d      	ldr	r1, [pc, #500]	; (e1e8 <benchmark_body+0x60b4>)
    dff4:	f507 62bf 	add.w	r2, r7, #1528	; 0x5f8
    dff8:	f5a2 62b0 	sub.w	r2, r2, #1408	; 0x580
    dffc:	6812      	ldr	r2, [r2, #0]
    dffe:	f841 2023 	str.w	r2, [r1, r3, lsl #2]
    e002:	4b78      	ldr	r3, [pc, #480]	; (e1e4 <benchmark_body+0x60b0>)
    e004:	681b      	ldr	r3, [r3, #0]
    e006:	3303      	adds	r3, #3
    e008:	4a76      	ldr	r2, [pc, #472]	; (e1e4 <benchmark_body+0x60b0>)
    e00a:	6013      	str	r3, [r2, #0]
    e00c:	4b74      	ldr	r3, [pc, #464]	; (e1e0 <benchmark_body+0x60ac>)
    e00e:	681b      	ldr	r3, [r3, #0]
    e010:	2b04      	cmp	r3, #4
    e012:	dd63      	ble.n	e0dc <benchmark_body+0x5fa8>
    e014:	4b73      	ldr	r3, [pc, #460]	; (e1e4 <benchmark_body+0x60b0>)
    e016:	681b      	ldr	r3, [r3, #0]
    e018:	2b03      	cmp	r3, #3
    e01a:	dc5f      	bgt.n	e0dc <benchmark_body+0x5fa8>
    e01c:	4b6f      	ldr	r3, [pc, #444]	; (e1dc <benchmark_body+0x60a8>)
    e01e:	689a      	ldr	r2, [r3, #8]
    e020:	4b6e      	ldr	r3, [pc, #440]	; (e1dc <benchmark_body+0x60a8>)
    e022:	685b      	ldr	r3, [r3, #4]
    e024:	429a      	cmp	r2, r3
    e026:	d159      	bne.n	e0dc <benchmark_body+0x5fa8>
    e028:	4b6c      	ldr	r3, [pc, #432]	; (e1dc <benchmark_body+0x60a8>)
    e02a:	689a      	ldr	r2, [r3, #8]
    e02c:	4b6b      	ldr	r3, [pc, #428]	; (e1dc <benchmark_body+0x60a8>)
    e02e:	68db      	ldr	r3, [r3, #12]
    e030:	429a      	cmp	r2, r3
    e032:	d153      	bne.n	e0dc <benchmark_body+0x5fa8>
    e034:	f507 63bf 	add.w	r3, r7, #1528	; 0x5f8
    e038:	f2a3 5384 	subw	r3, r3, #1412	; 0x584
    e03c:	4a67      	ldr	r2, [pc, #412]	; (e1dc <benchmark_body+0x60a8>)
    e03e:	6912      	ldr	r2, [r2, #16]
    e040:	601a      	str	r2, [r3, #0]
    e042:	f507 63bf 	add.w	r3, r7, #1528	; 0x5f8
    e046:	f5a3 63b1 	sub.w	r3, r3, #1416	; 0x588
    e04a:	4a64      	ldr	r2, [pc, #400]	; (e1dc <benchmark_body+0x60a8>)
    e04c:	6892      	ldr	r2, [r2, #8]
    e04e:	601a      	str	r2, [r3, #0]
    e050:	f507 63bf 	add.w	r3, r7, #1528	; 0x5f8
    e054:	f5a3 62b1 	sub.w	r2, r3, #1416	; 0x588
    e058:	f507 63bf 	add.w	r3, r7, #1528	; 0x5f8
    e05c:	f2a3 5384 	subw	r3, r3, #1412	; 0x584
    e060:	6812      	ldr	r2, [r2, #0]
    e062:	681b      	ldr	r3, [r3, #0]
    e064:	429a      	cmp	r2, r3
    e066:	dd39      	ble.n	e0dc <benchmark_body+0x5fa8>
    e068:	4b5d      	ldr	r3, [pc, #372]	; (e1e0 <benchmark_body+0x60ac>)
    e06a:	681b      	ldr	r3, [r3, #0]
    e06c:	3b04      	subs	r3, #4
    e06e:	4a5c      	ldr	r2, [pc, #368]	; (e1e0 <benchmark_body+0x60ac>)
    e070:	6013      	str	r3, [r2, #0]
    e072:	f507 63bf 	add.w	r3, r7, #1528	; 0x5f8
    e076:	f2a3 538c 	subw	r3, r3, #1420	; 0x58c
    e07a:	f507 62bf 	add.w	r2, r7, #1528	; 0x5f8
    e07e:	f2a2 5184 	subw	r1, r2, #1412	; 0x584
    e082:	f507 62bf 	add.w	r2, r7, #1528	; 0x5f8
    e086:	f5a2 62b1 	sub.w	r2, r2, #1416	; 0x588
    e08a:	6809      	ldr	r1, [r1, #0]
    e08c:	6812      	ldr	r2, [r2, #0]
    e08e:	440a      	add	r2, r1
    e090:	601a      	str	r2, [r3, #0]
    e092:	4b54      	ldr	r3, [pc, #336]	; (e1e4 <benchmark_body+0x60b0>)
    e094:	681b      	ldr	r3, [r3, #0]
    e096:	4954      	ldr	r1, [pc, #336]	; (e1e8 <benchmark_body+0x60b4>)
    e098:	f507 62bf 	add.w	r2, r7, #1528	; 0x5f8
    e09c:	f2a2 5284 	subw	r2, r2, #1412	; 0x584
    e0a0:	6812      	ldr	r2, [r2, #0]
    e0a2:	f841 2023 	str.w	r2, [r1, r3, lsl #2]
    e0a6:	4b4f      	ldr	r3, [pc, #316]	; (e1e4 <benchmark_body+0x60b0>)
    e0a8:	681b      	ldr	r3, [r3, #0]
    e0aa:	3301      	adds	r3, #1
    e0ac:	494e      	ldr	r1, [pc, #312]	; (e1e8 <benchmark_body+0x60b4>)
    e0ae:	f507 62bf 	add.w	r2, r7, #1528	; 0x5f8
    e0b2:	f5a2 62b1 	sub.w	r2, r2, #1416	; 0x588
    e0b6:	6812      	ldr	r2, [r2, #0]
    e0b8:	f841 2023 	str.w	r2, [r1, r3, lsl #2]
    e0bc:	4b49      	ldr	r3, [pc, #292]	; (e1e4 <benchmark_body+0x60b0>)
    e0be:	681b      	ldr	r3, [r3, #0]
    e0c0:	3302      	adds	r3, #2
    e0c2:	4949      	ldr	r1, [pc, #292]	; (e1e8 <benchmark_body+0x60b4>)
    e0c4:	f507 62bf 	add.w	r2, r7, #1528	; 0x5f8
    e0c8:	f2a2 528c 	subw	r2, r2, #1420	; 0x58c
    e0cc:	6812      	ldr	r2, [r2, #0]
    e0ce:	f841 2023 	str.w	r2, [r1, r3, lsl #2]
    e0d2:	4b44      	ldr	r3, [pc, #272]	; (e1e4 <benchmark_body+0x60b0>)
    e0d4:	681b      	ldr	r3, [r3, #0]
    e0d6:	3303      	adds	r3, #3
    e0d8:	4a42      	ldr	r2, [pc, #264]	; (e1e4 <benchmark_body+0x60b0>)
    e0da:	6013      	str	r3, [r2, #0]
    e0dc:	4b40      	ldr	r3, [pc, #256]	; (e1e0 <benchmark_body+0x60ac>)
    e0de:	681b      	ldr	r3, [r3, #0]
    e0e0:	2b04      	cmp	r3, #4
    e0e2:	dd67      	ble.n	e1b4 <benchmark_body+0x6080>
    e0e4:	4b3f      	ldr	r3, [pc, #252]	; (e1e4 <benchmark_body+0x60b0>)
    e0e6:	681b      	ldr	r3, [r3, #0]
    e0e8:	2b03      	cmp	r3, #3
    e0ea:	dc63      	bgt.n	e1b4 <benchmark_body+0x6080>
    e0ec:	4b3b      	ldr	r3, [pc, #236]	; (e1dc <benchmark_body+0x60a8>)
    e0ee:	689a      	ldr	r2, [r3, #8]
    e0f0:	4b3a      	ldr	r3, [pc, #232]	; (e1dc <benchmark_body+0x60a8>)
    e0f2:	68db      	ldr	r3, [r3, #12]
    e0f4:	429a      	cmp	r2, r3
    e0f6:	d15d      	bne.n	e1b4 <benchmark_body+0x6080>
    e0f8:	4b38      	ldr	r3, [pc, #224]	; (e1dc <benchmark_body+0x60a8>)
    e0fa:	689a      	ldr	r2, [r3, #8]
    e0fc:	4b37      	ldr	r3, [pc, #220]	; (e1dc <benchmark_body+0x60a8>)
    e0fe:	681b      	ldr	r3, [r3, #0]
    e100:	429a      	cmp	r2, r3
    e102:	d157      	bne.n	e1b4 <benchmark_body+0x6080>
    e104:	f507 63bf 	add.w	r3, r7, #1528	; 0x5f8
    e108:	f5a3 63b2 	sub.w	r3, r3, #1424	; 0x590
    e10c:	4a33      	ldr	r2, [pc, #204]	; (e1dc <benchmark_body+0x60a8>)
    e10e:	6912      	ldr	r2, [r2, #16]
    e110:	601a      	str	r2, [r3, #0]
    e112:	f507 63bf 	add.w	r3, r7, #1528	; 0x5f8
    e116:	f2a3 5394 	subw	r3, r3, #1428	; 0x594
    e11a:	4a30      	ldr	r2, [pc, #192]	; (e1dc <benchmark_body+0x60a8>)
    e11c:	6892      	ldr	r2, [r2, #8]
    e11e:	601a      	str	r2, [r3, #0]
    e120:	f507 63bf 	add.w	r3, r7, #1528	; 0x5f8
    e124:	f2a3 5294 	subw	r2, r3, #1428	; 0x594
    e128:	f507 63bf 	add.w	r3, r7, #1528	; 0x5f8
    e12c:	f5a3 63b2 	sub.w	r3, r3, #1424	; 0x590
    e130:	6812      	ldr	r2, [r2, #0]
    e132:	681b      	ldr	r3, [r3, #0]
    e134:	429a      	cmp	r2, r3
    e136:	dd3d      	ble.n	e1b4 <benchmark_body+0x6080>
    e138:	4b28      	ldr	r3, [pc, #160]	; (e1dc <benchmark_body+0x60a8>)
    e13a:	685b      	ldr	r3, [r3, #4]
    e13c:	4a27      	ldr	r2, [pc, #156]	; (e1dc <benchmark_body+0x60a8>)
    e13e:	6013      	str	r3, [r2, #0]
    e140:	4b27      	ldr	r3, [pc, #156]	; (e1e0 <benchmark_body+0x60ac>)
    e142:	681b      	ldr	r3, [r3, #0]
    e144:	3b04      	subs	r3, #4
    e146:	4a26      	ldr	r2, [pc, #152]	; (e1e0 <benchmark_body+0x60ac>)
    e148:	6013      	str	r3, [r2, #0]
    e14a:	f507 63bf 	add.w	r3, r7, #1528	; 0x5f8
    e14e:	f5a3 63b3 	sub.w	r3, r3, #1432	; 0x598
    e152:	f507 62bf 	add.w	r2, r7, #1528	; 0x5f8
    e156:	f5a2 61b2 	sub.w	r1, r2, #1424	; 0x590
    e15a:	f507 62bf 	add.w	r2, r7, #1528	; 0x5f8
    e15e:	f2a2 5294 	subw	r2, r2, #1428	; 0x594
    e162:	6809      	ldr	r1, [r1, #0]
    e164:	6812      	ldr	r2, [r2, #0]
    e166:	440a      	add	r2, r1
    e168:	601a      	str	r2, [r3, #0]
    e16a:	4b1e      	ldr	r3, [pc, #120]	; (e1e4 <benchmark_body+0x60b0>)
    e16c:	681b      	ldr	r3, [r3, #0]
    e16e:	491e      	ldr	r1, [pc, #120]	; (e1e8 <benchmark_body+0x60b4>)
    e170:	f507 62bf 	add.w	r2, r7, #1528	; 0x5f8
    e174:	f5a2 62b2 	sub.w	r2, r2, #1424	; 0x590
    e178:	6812      	ldr	r2, [r2, #0]
    e17a:	f841 2023 	str.w	r2, [r1, r3, lsl #2]
    e17e:	4b19      	ldr	r3, [pc, #100]	; (e1e4 <benchmark_body+0x60b0>)
    e180:	681b      	ldr	r3, [r3, #0]
    e182:	3301      	adds	r3, #1
    e184:	4918      	ldr	r1, [pc, #96]	; (e1e8 <benchmark_body+0x60b4>)
    e186:	f507 62bf 	add.w	r2, r7, #1528	; 0x5f8
    e18a:	f2a2 5294 	subw	r2, r2, #1428	; 0x594
    e18e:	6812      	ldr	r2, [r2, #0]
    e190:	f841 2023 	str.w	r2, [r1, r3, lsl #2]
    e194:	4b13      	ldr	r3, [pc, #76]	; (e1e4 <benchmark_body+0x60b0>)
    e196:	681b      	ldr	r3, [r3, #0]
    e198:	3302      	adds	r3, #2
    e19a:	4913      	ldr	r1, [pc, #76]	; (e1e8 <benchmark_body+0x60b4>)
    e19c:	f507 62bf 	add.w	r2, r7, #1528	; 0x5f8
    e1a0:	f5a2 62b3 	sub.w	r2, r2, #1432	; 0x598
    e1a4:	6812      	ldr	r2, [r2, #0]
    e1a6:	f841 2023 	str.w	r2, [r1, r3, lsl #2]
    e1aa:	4b0e      	ldr	r3, [pc, #56]	; (e1e4 <benchmark_body+0x60b0>)
    e1ac:	681b      	ldr	r3, [r3, #0]
    e1ae:	3303      	adds	r3, #3
    e1b0:	4a0c      	ldr	r2, [pc, #48]	; (e1e4 <benchmark_body+0x60b0>)
    e1b2:	6013      	str	r3, [r2, #0]
    e1b4:	4b0a      	ldr	r3, [pc, #40]	; (e1e0 <benchmark_body+0x60ac>)
    e1b6:	681b      	ldr	r3, [r3, #0]
    e1b8:	2b04      	cmp	r3, #4
    e1ba:	dd6c      	ble.n	e296 <benchmark_body+0x6162>
    e1bc:	4b09      	ldr	r3, [pc, #36]	; (e1e4 <benchmark_body+0x60b0>)
    e1be:	681b      	ldr	r3, [r3, #0]
    e1c0:	2b03      	cmp	r3, #3
    e1c2:	dc68      	bgt.n	e296 <benchmark_body+0x6162>
    e1c4:	4b05      	ldr	r3, [pc, #20]	; (e1dc <benchmark_body+0x60a8>)
    e1c6:	689a      	ldr	r2, [r3, #8]
    e1c8:	4b04      	ldr	r3, [pc, #16]	; (e1dc <benchmark_body+0x60a8>)
    e1ca:	68db      	ldr	r3, [r3, #12]
    e1cc:	429a      	cmp	r2, r3
    e1ce:	d162      	bne.n	e296 <benchmark_body+0x6162>
    e1d0:	4b02      	ldr	r3, [pc, #8]	; (e1dc <benchmark_body+0x60a8>)
    e1d2:	689a      	ldr	r2, [r3, #8]
    e1d4:	4b01      	ldr	r3, [pc, #4]	; (e1dc <benchmark_body+0x60a8>)
    e1d6:	685b      	ldr	r3, [r3, #4]
    e1d8:	429a      	cmp	r2, r3
    e1da:	e007      	b.n	e1ec <benchmark_body+0x60b8>
    e1dc:	0001f104 	.word	0x0001f104
    e1e0:	0001ecac 	.word	0x0001ecac
    e1e4:	0001f118 	.word	0x0001f118
    e1e8:	0001f11c 	.word	0x0001f11c
    e1ec:	d153      	bne.n	e296 <benchmark_body+0x6162>
    e1ee:	f507 63bf 	add.w	r3, r7, #1528	; 0x5f8
    e1f2:	f2a3 539c 	subw	r3, r3, #1436	; 0x59c
    e1f6:	4aa7      	ldr	r2, [pc, #668]	; (e494 <benchmark_body+0x6360>)
    e1f8:	6912      	ldr	r2, [r2, #16]
    e1fa:	601a      	str	r2, [r3, #0]
    e1fc:	f507 63bf 	add.w	r3, r7, #1528	; 0x5f8
    e200:	f5a3 63b4 	sub.w	r3, r3, #1440	; 0x5a0
    e204:	4aa3      	ldr	r2, [pc, #652]	; (e494 <benchmark_body+0x6360>)
    e206:	6892      	ldr	r2, [r2, #8]
    e208:	601a      	str	r2, [r3, #0]
    e20a:	f507 63bf 	add.w	r3, r7, #1528	; 0x5f8
    e20e:	f5a3 62b4 	sub.w	r2, r3, #1440	; 0x5a0
    e212:	f507 63bf 	add.w	r3, r7, #1528	; 0x5f8
    e216:	f2a3 539c 	subw	r3, r3, #1436	; 0x59c
    e21a:	6812      	ldr	r2, [r2, #0]
    e21c:	681b      	ldr	r3, [r3, #0]
    e21e:	429a      	cmp	r2, r3
    e220:	dd39      	ble.n	e296 <benchmark_body+0x6162>
    e222:	4b9d      	ldr	r3, [pc, #628]	; (e498 <benchmark_body+0x6364>)
    e224:	681b      	ldr	r3, [r3, #0]
    e226:	3b04      	subs	r3, #4
    e228:	4a9b      	ldr	r2, [pc, #620]	; (e498 <benchmark_body+0x6364>)
    e22a:	6013      	str	r3, [r2, #0]
    e22c:	f507 63bf 	add.w	r3, r7, #1528	; 0x5f8
    e230:	f2a3 53a4 	subw	r3, r3, #1444	; 0x5a4
    e234:	f507 62bf 	add.w	r2, r7, #1528	; 0x5f8
    e238:	f2a2 519c 	subw	r1, r2, #1436	; 0x59c
    e23c:	f507 62bf 	add.w	r2, r7, #1528	; 0x5f8
    e240:	f5a2 62b4 	sub.w	r2, r2, #1440	; 0x5a0
    e244:	6809      	ldr	r1, [r1, #0]
    e246:	6812      	ldr	r2, [r2, #0]
    e248:	440a      	add	r2, r1
    e24a:	601a      	str	r2, [r3, #0]
    e24c:	4b93      	ldr	r3, [pc, #588]	; (e49c <benchmark_body+0x6368>)
    e24e:	681b      	ldr	r3, [r3, #0]
    e250:	4993      	ldr	r1, [pc, #588]	; (e4a0 <benchmark_body+0x636c>)
    e252:	f507 62bf 	add.w	r2, r7, #1528	; 0x5f8
    e256:	f2a2 529c 	subw	r2, r2, #1436	; 0x59c
    e25a:	6812      	ldr	r2, [r2, #0]
    e25c:	f841 2023 	str.w	r2, [r1, r3, lsl #2]
    e260:	4b8e      	ldr	r3, [pc, #568]	; (e49c <benchmark_body+0x6368>)
    e262:	681b      	ldr	r3, [r3, #0]
    e264:	3301      	adds	r3, #1
    e266:	498e      	ldr	r1, [pc, #568]	; (e4a0 <benchmark_body+0x636c>)
    e268:	f507 62bf 	add.w	r2, r7, #1528	; 0x5f8
    e26c:	f5a2 62b4 	sub.w	r2, r2, #1440	; 0x5a0
    e270:	6812      	ldr	r2, [r2, #0]
    e272:	f841 2023 	str.w	r2, [r1, r3, lsl #2]
    e276:	4b89      	ldr	r3, [pc, #548]	; (e49c <benchmark_body+0x6368>)
    e278:	681b      	ldr	r3, [r3, #0]
    e27a:	3302      	adds	r3, #2
    e27c:	4988      	ldr	r1, [pc, #544]	; (e4a0 <benchmark_body+0x636c>)
    e27e:	f507 62bf 	add.w	r2, r7, #1528	; 0x5f8
    e282:	f2a2 52a4 	subw	r2, r2, #1444	; 0x5a4
    e286:	6812      	ldr	r2, [r2, #0]
    e288:	f841 2023 	str.w	r2, [r1, r3, lsl #2]
    e28c:	4b83      	ldr	r3, [pc, #524]	; (e49c <benchmark_body+0x6368>)
    e28e:	681b      	ldr	r3, [r3, #0]
    e290:	3303      	adds	r3, #3
    e292:	4a82      	ldr	r2, [pc, #520]	; (e49c <benchmark_body+0x6368>)
    e294:	6013      	str	r3, [r2, #0]
    e296:	4b80      	ldr	r3, [pc, #512]	; (e498 <benchmark_body+0x6364>)
    e298:	681b      	ldr	r3, [r3, #0]
    e29a:	2b04      	cmp	r3, #4
    e29c:	dd67      	ble.n	e36e <benchmark_body+0x623a>
    e29e:	4b7f      	ldr	r3, [pc, #508]	; (e49c <benchmark_body+0x6368>)
    e2a0:	681b      	ldr	r3, [r3, #0]
    e2a2:	2b03      	cmp	r3, #3
    e2a4:	dc63      	bgt.n	e36e <benchmark_body+0x623a>
    e2a6:	4b7b      	ldr	r3, [pc, #492]	; (e494 <benchmark_body+0x6360>)
    e2a8:	68da      	ldr	r2, [r3, #12]
    e2aa:	4b7a      	ldr	r3, [pc, #488]	; (e494 <benchmark_body+0x6360>)
    e2ac:	681b      	ldr	r3, [r3, #0]
    e2ae:	429a      	cmp	r2, r3
    e2b0:	d15d      	bne.n	e36e <benchmark_body+0x623a>
    e2b2:	4b78      	ldr	r3, [pc, #480]	; (e494 <benchmark_body+0x6360>)
    e2b4:	68da      	ldr	r2, [r3, #12]
    e2b6:	4b77      	ldr	r3, [pc, #476]	; (e494 <benchmark_body+0x6360>)
    e2b8:	685b      	ldr	r3, [r3, #4]
    e2ba:	429a      	cmp	r2, r3
    e2bc:	d157      	bne.n	e36e <benchmark_body+0x623a>
    e2be:	f507 63bf 	add.w	r3, r7, #1528	; 0x5f8
    e2c2:	f5a3 63b5 	sub.w	r3, r3, #1448	; 0x5a8
    e2c6:	4a73      	ldr	r2, [pc, #460]	; (e494 <benchmark_body+0x6360>)
    e2c8:	6912      	ldr	r2, [r2, #16]
    e2ca:	601a      	str	r2, [r3, #0]
    e2cc:	f507 63bf 	add.w	r3, r7, #1528	; 0x5f8
    e2d0:	f2a3 53ac 	subw	r3, r3, #1452	; 0x5ac
    e2d4:	4a6f      	ldr	r2, [pc, #444]	; (e494 <benchmark_body+0x6360>)
    e2d6:	68d2      	ldr	r2, [r2, #12]
    e2d8:	601a      	str	r2, [r3, #0]
    e2da:	f507 63bf 	add.w	r3, r7, #1528	; 0x5f8
    e2de:	f2a3 52ac 	subw	r2, r3, #1452	; 0x5ac
    e2e2:	f507 63bf 	add.w	r3, r7, #1528	; 0x5f8
    e2e6:	f5a3 63b5 	sub.w	r3, r3, #1448	; 0x5a8
    e2ea:	6812      	ldr	r2, [r2, #0]
    e2ec:	681b      	ldr	r3, [r3, #0]
    e2ee:	429a      	cmp	r2, r3
    e2f0:	dd3d      	ble.n	e36e <benchmark_body+0x623a>
    e2f2:	4b68      	ldr	r3, [pc, #416]	; (e494 <benchmark_body+0x6360>)
    e2f4:	689b      	ldr	r3, [r3, #8]
    e2f6:	4a67      	ldr	r2, [pc, #412]	; (e494 <benchmark_body+0x6360>)
    e2f8:	6013      	str	r3, [r2, #0]
    e2fa:	4b67      	ldr	r3, [pc, #412]	; (e498 <benchmark_body+0x6364>)
    e2fc:	681b      	ldr	r3, [r3, #0]
    e2fe:	3b04      	subs	r3, #4
    e300:	4a65      	ldr	r2, [pc, #404]	; (e498 <benchmark_body+0x6364>)
    e302:	6013      	str	r3, [r2, #0]
    e304:	f507 63bf 	add.w	r3, r7, #1528	; 0x5f8
    e308:	f5a3 63b6 	sub.w	r3, r3, #1456	; 0x5b0
    e30c:	f507 62bf 	add.w	r2, r7, #1528	; 0x5f8
    e310:	f5a2 61b5 	sub.w	r1, r2, #1448	; 0x5a8
    e314:	f507 62bf 	add.w	r2, r7, #1528	; 0x5f8
    e318:	f2a2 52ac 	subw	r2, r2, #1452	; 0x5ac
    e31c:	6809      	ldr	r1, [r1, #0]
    e31e:	6812      	ldr	r2, [r2, #0]
    e320:	440a      	add	r2, r1
    e322:	601a      	str	r2, [r3, #0]
    e324:	4b5d      	ldr	r3, [pc, #372]	; (e49c <benchmark_body+0x6368>)
    e326:	681b      	ldr	r3, [r3, #0]
    e328:	495d      	ldr	r1, [pc, #372]	; (e4a0 <benchmark_body+0x636c>)
    e32a:	f507 62bf 	add.w	r2, r7, #1528	; 0x5f8
    e32e:	f5a2 62b5 	sub.w	r2, r2, #1448	; 0x5a8
    e332:	6812      	ldr	r2, [r2, #0]
    e334:	f841 2023 	str.w	r2, [r1, r3, lsl #2]
    e338:	4b58      	ldr	r3, [pc, #352]	; (e49c <benchmark_body+0x6368>)
    e33a:	681b      	ldr	r3, [r3, #0]
    e33c:	3301      	adds	r3, #1
    e33e:	4958      	ldr	r1, [pc, #352]	; (e4a0 <benchmark_body+0x636c>)
    e340:	f507 62bf 	add.w	r2, r7, #1528	; 0x5f8
    e344:	f2a2 52ac 	subw	r2, r2, #1452	; 0x5ac
    e348:	6812      	ldr	r2, [r2, #0]
    e34a:	f841 2023 	str.w	r2, [r1, r3, lsl #2]
    e34e:	4b53      	ldr	r3, [pc, #332]	; (e49c <benchmark_body+0x6368>)
    e350:	681b      	ldr	r3, [r3, #0]
    e352:	3302      	adds	r3, #2
    e354:	4952      	ldr	r1, [pc, #328]	; (e4a0 <benchmark_body+0x636c>)
    e356:	f507 62bf 	add.w	r2, r7, #1528	; 0x5f8
    e35a:	f5a2 62b6 	sub.w	r2, r2, #1456	; 0x5b0
    e35e:	6812      	ldr	r2, [r2, #0]
    e360:	f841 2023 	str.w	r2, [r1, r3, lsl #2]
    e364:	4b4d      	ldr	r3, [pc, #308]	; (e49c <benchmark_body+0x6368>)
    e366:	681b      	ldr	r3, [r3, #0]
    e368:	3303      	adds	r3, #3
    e36a:	4a4c      	ldr	r2, [pc, #304]	; (e49c <benchmark_body+0x6368>)
    e36c:	6013      	str	r3, [r2, #0]
    e36e:	4b4a      	ldr	r3, [pc, #296]	; (e498 <benchmark_body+0x6364>)
    e370:	681b      	ldr	r3, [r3, #0]
    e372:	2b04      	cmp	r3, #4
    e374:	dd67      	ble.n	e446 <benchmark_body+0x6312>
    e376:	4b49      	ldr	r3, [pc, #292]	; (e49c <benchmark_body+0x6368>)
    e378:	681b      	ldr	r3, [r3, #0]
    e37a:	2b03      	cmp	r3, #3
    e37c:	dc63      	bgt.n	e446 <benchmark_body+0x6312>
    e37e:	4b45      	ldr	r3, [pc, #276]	; (e494 <benchmark_body+0x6360>)
    e380:	68da      	ldr	r2, [r3, #12]
    e382:	4b44      	ldr	r3, [pc, #272]	; (e494 <benchmark_body+0x6360>)
    e384:	681b      	ldr	r3, [r3, #0]
    e386:	429a      	cmp	r2, r3
    e388:	d15d      	bne.n	e446 <benchmark_body+0x6312>
    e38a:	4b42      	ldr	r3, [pc, #264]	; (e494 <benchmark_body+0x6360>)
    e38c:	68da      	ldr	r2, [r3, #12]
    e38e:	4b41      	ldr	r3, [pc, #260]	; (e494 <benchmark_body+0x6360>)
    e390:	689b      	ldr	r3, [r3, #8]
    e392:	429a      	cmp	r2, r3
    e394:	d157      	bne.n	e446 <benchmark_body+0x6312>
    e396:	f507 63bf 	add.w	r3, r7, #1528	; 0x5f8
    e39a:	f2a3 53b4 	subw	r3, r3, #1460	; 0x5b4
    e39e:	4a3d      	ldr	r2, [pc, #244]	; (e494 <benchmark_body+0x6360>)
    e3a0:	6912      	ldr	r2, [r2, #16]
    e3a2:	601a      	str	r2, [r3, #0]
    e3a4:	f507 63bf 	add.w	r3, r7, #1528	; 0x5f8
    e3a8:	f5a3 63b7 	sub.w	r3, r3, #1464	; 0x5b8
    e3ac:	4a39      	ldr	r2, [pc, #228]	; (e494 <benchmark_body+0x6360>)
    e3ae:	68d2      	ldr	r2, [r2, #12]
    e3b0:	601a      	str	r2, [r3, #0]
    e3b2:	f507 63bf 	add.w	r3, r7, #1528	; 0x5f8
    e3b6:	f5a3 62b7 	sub.w	r2, r3, #1464	; 0x5b8
    e3ba:	f507 63bf 	add.w	r3, r7, #1528	; 0x5f8
    e3be:	f2a3 53b4 	subw	r3, r3, #1460	; 0x5b4
    e3c2:	6812      	ldr	r2, [r2, #0]
    e3c4:	681b      	ldr	r3, [r3, #0]
    e3c6:	429a      	cmp	r2, r3
    e3c8:	dd3d      	ble.n	e446 <benchmark_body+0x6312>
    e3ca:	4b32      	ldr	r3, [pc, #200]	; (e494 <benchmark_body+0x6360>)
    e3cc:	685b      	ldr	r3, [r3, #4]
    e3ce:	4a31      	ldr	r2, [pc, #196]	; (e494 <benchmark_body+0x6360>)
    e3d0:	6013      	str	r3, [r2, #0]
    e3d2:	4b31      	ldr	r3, [pc, #196]	; (e498 <benchmark_body+0x6364>)
    e3d4:	681b      	ldr	r3, [r3, #0]
    e3d6:	3b04      	subs	r3, #4
    e3d8:	4a2f      	ldr	r2, [pc, #188]	; (e498 <benchmark_body+0x6364>)
    e3da:	6013      	str	r3, [r2, #0]
    e3dc:	f507 63bf 	add.w	r3, r7, #1528	; 0x5f8
    e3e0:	f2a3 53bc 	subw	r3, r3, #1468	; 0x5bc
    e3e4:	f507 62bf 	add.w	r2, r7, #1528	; 0x5f8
    e3e8:	f2a2 51b4 	subw	r1, r2, #1460	; 0x5b4
    e3ec:	f507 62bf 	add.w	r2, r7, #1528	; 0x5f8
    e3f0:	f5a2 62b7 	sub.w	r2, r2, #1464	; 0x5b8
    e3f4:	6809      	ldr	r1, [r1, #0]
    e3f6:	6812      	ldr	r2, [r2, #0]
    e3f8:	440a      	add	r2, r1
    e3fa:	601a      	str	r2, [r3, #0]
    e3fc:	4b27      	ldr	r3, [pc, #156]	; (e49c <benchmark_body+0x6368>)
    e3fe:	681b      	ldr	r3, [r3, #0]
    e400:	4927      	ldr	r1, [pc, #156]	; (e4a0 <benchmark_body+0x636c>)
    e402:	f507 62bf 	add.w	r2, r7, #1528	; 0x5f8
    e406:	f2a2 52b4 	subw	r2, r2, #1460	; 0x5b4
    e40a:	6812      	ldr	r2, [r2, #0]
    e40c:	f841 2023 	str.w	r2, [r1, r3, lsl #2]
    e410:	4b22      	ldr	r3, [pc, #136]	; (e49c <benchmark_body+0x6368>)
    e412:	681b      	ldr	r3, [r3, #0]
    e414:	3301      	adds	r3, #1
    e416:	4922      	ldr	r1, [pc, #136]	; (e4a0 <benchmark_body+0x636c>)
    e418:	f507 62bf 	add.w	r2, r7, #1528	; 0x5f8
    e41c:	f5a2 62b7 	sub.w	r2, r2, #1464	; 0x5b8
    e420:	6812      	ldr	r2, [r2, #0]
    e422:	f841 2023 	str.w	r2, [r1, r3, lsl #2]
    e426:	4b1d      	ldr	r3, [pc, #116]	; (e49c <benchmark_body+0x6368>)
    e428:	681b      	ldr	r3, [r3, #0]
    e42a:	3302      	adds	r3, #2
    e42c:	491c      	ldr	r1, [pc, #112]	; (e4a0 <benchmark_body+0x636c>)
    e42e:	f507 62bf 	add.w	r2, r7, #1528	; 0x5f8
    e432:	f2a2 52bc 	subw	r2, r2, #1468	; 0x5bc
    e436:	6812      	ldr	r2, [r2, #0]
    e438:	f841 2023 	str.w	r2, [r1, r3, lsl #2]
    e43c:	4b17      	ldr	r3, [pc, #92]	; (e49c <benchmark_body+0x6368>)
    e43e:	681b      	ldr	r3, [r3, #0]
    e440:	3303      	adds	r3, #3
    e442:	4a16      	ldr	r2, [pc, #88]	; (e49c <benchmark_body+0x6368>)
    e444:	6013      	str	r3, [r2, #0]
    e446:	4b14      	ldr	r3, [pc, #80]	; (e498 <benchmark_body+0x6364>)
    e448:	681b      	ldr	r3, [r3, #0]
    e44a:	2b04      	cmp	r3, #4
    e44c:	dd70      	ble.n	e530 <benchmark_body+0x63fc>
    e44e:	4b13      	ldr	r3, [pc, #76]	; (e49c <benchmark_body+0x6368>)
    e450:	681b      	ldr	r3, [r3, #0]
    e452:	2b03      	cmp	r3, #3
    e454:	dc6c      	bgt.n	e530 <benchmark_body+0x63fc>
    e456:	4b0f      	ldr	r3, [pc, #60]	; (e494 <benchmark_body+0x6360>)
    e458:	68da      	ldr	r2, [r3, #12]
    e45a:	4b0e      	ldr	r3, [pc, #56]	; (e494 <benchmark_body+0x6360>)
    e45c:	685b      	ldr	r3, [r3, #4]
    e45e:	429a      	cmp	r2, r3
    e460:	d166      	bne.n	e530 <benchmark_body+0x63fc>
    e462:	4b0c      	ldr	r3, [pc, #48]	; (e494 <benchmark_body+0x6360>)
    e464:	68da      	ldr	r2, [r3, #12]
    e466:	4b0b      	ldr	r3, [pc, #44]	; (e494 <benchmark_body+0x6360>)
    e468:	681b      	ldr	r3, [r3, #0]
    e46a:	429a      	cmp	r2, r3
    e46c:	d160      	bne.n	e530 <benchmark_body+0x63fc>
    e46e:	f507 63bf 	add.w	r3, r7, #1528	; 0x5f8
    e472:	f5a3 63b8 	sub.w	r3, r3, #1472	; 0x5c0
    e476:	4a07      	ldr	r2, [pc, #28]	; (e494 <benchmark_body+0x6360>)
    e478:	6912      	ldr	r2, [r2, #16]
    e47a:	601a      	str	r2, [r3, #0]
    e47c:	f507 63bf 	add.w	r3, r7, #1528	; 0x5f8
    e480:	f2a3 53c4 	subw	r3, r3, #1476	; 0x5c4
    e484:	4a03      	ldr	r2, [pc, #12]	; (e494 <benchmark_body+0x6360>)
    e486:	68d2      	ldr	r2, [r2, #12]
    e488:	601a      	str	r2, [r3, #0]
    e48a:	f507 63bf 	add.w	r3, r7, #1528	; 0x5f8
    e48e:	f2a3 52c4 	subw	r2, r3, #1476	; 0x5c4
    e492:	e007      	b.n	e4a4 <benchmark_body+0x6370>
    e494:	0001f104 	.word	0x0001f104
    e498:	0001ecac 	.word	0x0001ecac
    e49c:	0001f118 	.word	0x0001f118
    e4a0:	0001f11c 	.word	0x0001f11c
    e4a4:	f507 63bf 	add.w	r3, r7, #1528	; 0x5f8
    e4a8:	f5a3 63b8 	sub.w	r3, r3, #1472	; 0x5c0
    e4ac:	6812      	ldr	r2, [r2, #0]
    e4ae:	681b      	ldr	r3, [r3, #0]
    e4b0:	429a      	cmp	r2, r3
    e4b2:	dd3d      	ble.n	e530 <benchmark_body+0x63fc>
    e4b4:	4ba8      	ldr	r3, [pc, #672]	; (e758 <benchmark_body+0x6624>)
    e4b6:	689b      	ldr	r3, [r3, #8]
    e4b8:	4aa7      	ldr	r2, [pc, #668]	; (e758 <benchmark_body+0x6624>)
    e4ba:	6013      	str	r3, [r2, #0]
    e4bc:	4ba7      	ldr	r3, [pc, #668]	; (e75c <benchmark_body+0x6628>)
    e4be:	681b      	ldr	r3, [r3, #0]
    e4c0:	3b04      	subs	r3, #4
    e4c2:	4aa6      	ldr	r2, [pc, #664]	; (e75c <benchmark_body+0x6628>)
    e4c4:	6013      	str	r3, [r2, #0]
    e4c6:	f507 63bf 	add.w	r3, r7, #1528	; 0x5f8
    e4ca:	f5a3 63b9 	sub.w	r3, r3, #1480	; 0x5c8
    e4ce:	f507 62bf 	add.w	r2, r7, #1528	; 0x5f8
    e4d2:	f5a2 61b8 	sub.w	r1, r2, #1472	; 0x5c0
    e4d6:	f507 62bf 	add.w	r2, r7, #1528	; 0x5f8
    e4da:	f2a2 52c4 	subw	r2, r2, #1476	; 0x5c4
    e4de:	6809      	ldr	r1, [r1, #0]
    e4e0:	6812      	ldr	r2, [r2, #0]
    e4e2:	440a      	add	r2, r1
    e4e4:	601a      	str	r2, [r3, #0]
    e4e6:	4b9e      	ldr	r3, [pc, #632]	; (e760 <benchmark_body+0x662c>)
    e4e8:	681b      	ldr	r3, [r3, #0]
    e4ea:	499e      	ldr	r1, [pc, #632]	; (e764 <benchmark_body+0x6630>)
    e4ec:	f507 62bf 	add.w	r2, r7, #1528	; 0x5f8
    e4f0:	f5a2 62b8 	sub.w	r2, r2, #1472	; 0x5c0
    e4f4:	6812      	ldr	r2, [r2, #0]
    e4f6:	f841 2023 	str.w	r2, [r1, r3, lsl #2]
    e4fa:	4b99      	ldr	r3, [pc, #612]	; (e760 <benchmark_body+0x662c>)
    e4fc:	681b      	ldr	r3, [r3, #0]
    e4fe:	3301      	adds	r3, #1
    e500:	4998      	ldr	r1, [pc, #608]	; (e764 <benchmark_body+0x6630>)
    e502:	f507 62bf 	add.w	r2, r7, #1528	; 0x5f8
    e506:	f2a2 52c4 	subw	r2, r2, #1476	; 0x5c4
    e50a:	6812      	ldr	r2, [r2, #0]
    e50c:	f841 2023 	str.w	r2, [r1, r3, lsl #2]
    e510:	4b93      	ldr	r3, [pc, #588]	; (e760 <benchmark_body+0x662c>)
    e512:	681b      	ldr	r3, [r3, #0]
    e514:	3302      	adds	r3, #2
    e516:	4993      	ldr	r1, [pc, #588]	; (e764 <benchmark_body+0x6630>)
    e518:	f507 62bf 	add.w	r2, r7, #1528	; 0x5f8
    e51c:	f5a2 62b9 	sub.w	r2, r2, #1480	; 0x5c8
    e520:	6812      	ldr	r2, [r2, #0]
    e522:	f841 2023 	str.w	r2, [r1, r3, lsl #2]
    e526:	4b8e      	ldr	r3, [pc, #568]	; (e760 <benchmark_body+0x662c>)
    e528:	681b      	ldr	r3, [r3, #0]
    e52a:	3303      	adds	r3, #3
    e52c:	4a8c      	ldr	r2, [pc, #560]	; (e760 <benchmark_body+0x662c>)
    e52e:	6013      	str	r3, [r2, #0]
    e530:	4b8a      	ldr	r3, [pc, #552]	; (e75c <benchmark_body+0x6628>)
    e532:	681b      	ldr	r3, [r3, #0]
    e534:	2b04      	cmp	r3, #4
    e536:	dd63      	ble.n	e600 <benchmark_body+0x64cc>
    e538:	4b89      	ldr	r3, [pc, #548]	; (e760 <benchmark_body+0x662c>)
    e53a:	681b      	ldr	r3, [r3, #0]
    e53c:	2b03      	cmp	r3, #3
    e53e:	dc5f      	bgt.n	e600 <benchmark_body+0x64cc>
    e540:	4b85      	ldr	r3, [pc, #532]	; (e758 <benchmark_body+0x6624>)
    e542:	68da      	ldr	r2, [r3, #12]
    e544:	4b84      	ldr	r3, [pc, #528]	; (e758 <benchmark_body+0x6624>)
    e546:	685b      	ldr	r3, [r3, #4]
    e548:	429a      	cmp	r2, r3
    e54a:	d159      	bne.n	e600 <benchmark_body+0x64cc>
    e54c:	4b82      	ldr	r3, [pc, #520]	; (e758 <benchmark_body+0x6624>)
    e54e:	68da      	ldr	r2, [r3, #12]
    e550:	4b81      	ldr	r3, [pc, #516]	; (e758 <benchmark_body+0x6624>)
    e552:	689b      	ldr	r3, [r3, #8]
    e554:	429a      	cmp	r2, r3
    e556:	d153      	bne.n	e600 <benchmark_body+0x64cc>
    e558:	f507 63bf 	add.w	r3, r7, #1528	; 0x5f8
    e55c:	f2a3 53cc 	subw	r3, r3, #1484	; 0x5cc
    e560:	4a7d      	ldr	r2, [pc, #500]	; (e758 <benchmark_body+0x6624>)
    e562:	6912      	ldr	r2, [r2, #16]
    e564:	601a      	str	r2, [r3, #0]
    e566:	f507 63bf 	add.w	r3, r7, #1528	; 0x5f8
    e56a:	f5a3 63ba 	sub.w	r3, r3, #1488	; 0x5d0
    e56e:	4a7a      	ldr	r2, [pc, #488]	; (e758 <benchmark_body+0x6624>)
    e570:	68d2      	ldr	r2, [r2, #12]
    e572:	601a      	str	r2, [r3, #0]
    e574:	f507 63bf 	add.w	r3, r7, #1528	; 0x5f8
    e578:	f5a3 62ba 	sub.w	r2, r3, #1488	; 0x5d0
    e57c:	f507 63bf 	add.w	r3, r7, #1528	; 0x5f8
    e580:	f2a3 53cc 	subw	r3, r3, #1484	; 0x5cc
    e584:	6812      	ldr	r2, [r2, #0]
    e586:	681b      	ldr	r3, [r3, #0]
    e588:	429a      	cmp	r2, r3
    e58a:	dd39      	ble.n	e600 <benchmark_body+0x64cc>
    e58c:	4b73      	ldr	r3, [pc, #460]	; (e75c <benchmark_body+0x6628>)
    e58e:	681b      	ldr	r3, [r3, #0]
    e590:	3b04      	subs	r3, #4
    e592:	4a72      	ldr	r2, [pc, #456]	; (e75c <benchmark_body+0x6628>)
    e594:	6013      	str	r3, [r2, #0]
    e596:	f507 63bf 	add.w	r3, r7, #1528	; 0x5f8
    e59a:	f2a3 53d4 	subw	r3, r3, #1492	; 0x5d4
    e59e:	f507 62bf 	add.w	r2, r7, #1528	; 0x5f8
    e5a2:	f2a2 51cc 	subw	r1, r2, #1484	; 0x5cc
    e5a6:	f507 62bf 	add.w	r2, r7, #1528	; 0x5f8
    e5aa:	f5a2 62ba 	sub.w	r2, r2, #1488	; 0x5d0
    e5ae:	6809      	ldr	r1, [r1, #0]
    e5b0:	6812      	ldr	r2, [r2, #0]
    e5b2:	440a      	add	r2, r1
    e5b4:	601a      	str	r2, [r3, #0]
    e5b6:	4b6a      	ldr	r3, [pc, #424]	; (e760 <benchmark_body+0x662c>)
    e5b8:	681b      	ldr	r3, [r3, #0]
    e5ba:	496a      	ldr	r1, [pc, #424]	; (e764 <benchmark_body+0x6630>)
    e5bc:	f507 62bf 	add.w	r2, r7, #1528	; 0x5f8
    e5c0:	f2a2 52cc 	subw	r2, r2, #1484	; 0x5cc
    e5c4:	6812      	ldr	r2, [r2, #0]
    e5c6:	f841 2023 	str.w	r2, [r1, r3, lsl #2]
    e5ca:	4b65      	ldr	r3, [pc, #404]	; (e760 <benchmark_body+0x662c>)
    e5cc:	681b      	ldr	r3, [r3, #0]
    e5ce:	3301      	adds	r3, #1
    e5d0:	4964      	ldr	r1, [pc, #400]	; (e764 <benchmark_body+0x6630>)
    e5d2:	f507 62bf 	add.w	r2, r7, #1528	; 0x5f8
    e5d6:	f5a2 62ba 	sub.w	r2, r2, #1488	; 0x5d0
    e5da:	6812      	ldr	r2, [r2, #0]
    e5dc:	f841 2023 	str.w	r2, [r1, r3, lsl #2]
    e5e0:	4b5f      	ldr	r3, [pc, #380]	; (e760 <benchmark_body+0x662c>)
    e5e2:	681b      	ldr	r3, [r3, #0]
    e5e4:	3302      	adds	r3, #2
    e5e6:	495f      	ldr	r1, [pc, #380]	; (e764 <benchmark_body+0x6630>)
    e5e8:	f507 62bf 	add.w	r2, r7, #1528	; 0x5f8
    e5ec:	f2a2 52d4 	subw	r2, r2, #1492	; 0x5d4
    e5f0:	6812      	ldr	r2, [r2, #0]
    e5f2:	f841 2023 	str.w	r2, [r1, r3, lsl #2]
    e5f6:	4b5a      	ldr	r3, [pc, #360]	; (e760 <benchmark_body+0x662c>)
    e5f8:	681b      	ldr	r3, [r3, #0]
    e5fa:	3303      	adds	r3, #3
    e5fc:	4a58      	ldr	r2, [pc, #352]	; (e760 <benchmark_body+0x662c>)
    e5fe:	6013      	str	r3, [r2, #0]
    e600:	4b56      	ldr	r3, [pc, #344]	; (e75c <benchmark_body+0x6628>)
    e602:	681b      	ldr	r3, [r3, #0]
    e604:	2b04      	cmp	r3, #4
    e606:	dd67      	ble.n	e6d8 <benchmark_body+0x65a4>
    e608:	4b55      	ldr	r3, [pc, #340]	; (e760 <benchmark_body+0x662c>)
    e60a:	681b      	ldr	r3, [r3, #0]
    e60c:	2b03      	cmp	r3, #3
    e60e:	dc63      	bgt.n	e6d8 <benchmark_body+0x65a4>
    e610:	4b51      	ldr	r3, [pc, #324]	; (e758 <benchmark_body+0x6624>)
    e612:	68da      	ldr	r2, [r3, #12]
    e614:	4b50      	ldr	r3, [pc, #320]	; (e758 <benchmark_body+0x6624>)
    e616:	689b      	ldr	r3, [r3, #8]
    e618:	429a      	cmp	r2, r3
    e61a:	d15d      	bne.n	e6d8 <benchmark_body+0x65a4>
    e61c:	4b4e      	ldr	r3, [pc, #312]	; (e758 <benchmark_body+0x6624>)
    e61e:	68da      	ldr	r2, [r3, #12]
    e620:	4b4d      	ldr	r3, [pc, #308]	; (e758 <benchmark_body+0x6624>)
    e622:	681b      	ldr	r3, [r3, #0]
    e624:	429a      	cmp	r2, r3
    e626:	d157      	bne.n	e6d8 <benchmark_body+0x65a4>
    e628:	f507 63bf 	add.w	r3, r7, #1528	; 0x5f8
    e62c:	f5a3 63bb 	sub.w	r3, r3, #1496	; 0x5d8
    e630:	4a49      	ldr	r2, [pc, #292]	; (e758 <benchmark_body+0x6624>)
    e632:	6912      	ldr	r2, [r2, #16]
    e634:	601a      	str	r2, [r3, #0]
    e636:	f507 63bf 	add.w	r3, r7, #1528	; 0x5f8
    e63a:	f2a3 53dc 	subw	r3, r3, #1500	; 0x5dc
    e63e:	4a46      	ldr	r2, [pc, #280]	; (e758 <benchmark_body+0x6624>)
    e640:	68d2      	ldr	r2, [r2, #12]
    e642:	601a      	str	r2, [r3, #0]
    e644:	f507 63bf 	add.w	r3, r7, #1528	; 0x5f8
    e648:	f2a3 52dc 	subw	r2, r3, #1500	; 0x5dc
    e64c:	f507 63bf 	add.w	r3, r7, #1528	; 0x5f8
    e650:	f5a3 63bb 	sub.w	r3, r3, #1496	; 0x5d8
    e654:	6812      	ldr	r2, [r2, #0]
    e656:	681b      	ldr	r3, [r3, #0]
    e658:	429a      	cmp	r2, r3
    e65a:	dd3d      	ble.n	e6d8 <benchmark_body+0x65a4>
    e65c:	4b3e      	ldr	r3, [pc, #248]	; (e758 <benchmark_body+0x6624>)
    e65e:	685b      	ldr	r3, [r3, #4]
    e660:	4a3d      	ldr	r2, [pc, #244]	; (e758 <benchmark_body+0x6624>)
    e662:	6013      	str	r3, [r2, #0]
    e664:	4b3d      	ldr	r3, [pc, #244]	; (e75c <benchmark_body+0x6628>)
    e666:	681b      	ldr	r3, [r3, #0]
    e668:	3b04      	subs	r3, #4
    e66a:	4a3c      	ldr	r2, [pc, #240]	; (e75c <benchmark_body+0x6628>)
    e66c:	6013      	str	r3, [r2, #0]
    e66e:	f507 63bf 	add.w	r3, r7, #1528	; 0x5f8
    e672:	f5a3 63bc 	sub.w	r3, r3, #1504	; 0x5e0
    e676:	f507 62bf 	add.w	r2, r7, #1528	; 0x5f8
    e67a:	f5a2 61bb 	sub.w	r1, r2, #1496	; 0x5d8
    e67e:	f507 62bf 	add.w	r2, r7, #1528	; 0x5f8
    e682:	f2a2 52dc 	subw	r2, r2, #1500	; 0x5dc
    e686:	6809      	ldr	r1, [r1, #0]
    e688:	6812      	ldr	r2, [r2, #0]
    e68a:	440a      	add	r2, r1
    e68c:	601a      	str	r2, [r3, #0]
    e68e:	4b34      	ldr	r3, [pc, #208]	; (e760 <benchmark_body+0x662c>)
    e690:	681b      	ldr	r3, [r3, #0]
    e692:	4934      	ldr	r1, [pc, #208]	; (e764 <benchmark_body+0x6630>)
    e694:	f507 62bf 	add.w	r2, r7, #1528	; 0x5f8
    e698:	f5a2 62bb 	sub.w	r2, r2, #1496	; 0x5d8
    e69c:	6812      	ldr	r2, [r2, #0]
    e69e:	f841 2023 	str.w	r2, [r1, r3, lsl #2]
    e6a2:	4b2f      	ldr	r3, [pc, #188]	; (e760 <benchmark_body+0x662c>)
    e6a4:	681b      	ldr	r3, [r3, #0]
    e6a6:	3301      	adds	r3, #1
    e6a8:	492e      	ldr	r1, [pc, #184]	; (e764 <benchmark_body+0x6630>)
    e6aa:	f507 62bf 	add.w	r2, r7, #1528	; 0x5f8
    e6ae:	f2a2 52dc 	subw	r2, r2, #1500	; 0x5dc
    e6b2:	6812      	ldr	r2, [r2, #0]
    e6b4:	f841 2023 	str.w	r2, [r1, r3, lsl #2]
    e6b8:	4b29      	ldr	r3, [pc, #164]	; (e760 <benchmark_body+0x662c>)
    e6ba:	681b      	ldr	r3, [r3, #0]
    e6bc:	3302      	adds	r3, #2
    e6be:	4929      	ldr	r1, [pc, #164]	; (e764 <benchmark_body+0x6630>)
    e6c0:	f507 62bf 	add.w	r2, r7, #1528	; 0x5f8
    e6c4:	f5a2 62bc 	sub.w	r2, r2, #1504	; 0x5e0
    e6c8:	6812      	ldr	r2, [r2, #0]
    e6ca:	f841 2023 	str.w	r2, [r1, r3, lsl #2]
    e6ce:	4b24      	ldr	r3, [pc, #144]	; (e760 <benchmark_body+0x662c>)
    e6d0:	681b      	ldr	r3, [r3, #0]
    e6d2:	3303      	adds	r3, #3
    e6d4:	4a22      	ldr	r2, [pc, #136]	; (e760 <benchmark_body+0x662c>)
    e6d6:	6013      	str	r3, [r2, #0]
    e6d8:	4b20      	ldr	r3, [pc, #128]	; (e75c <benchmark_body+0x6628>)
    e6da:	681b      	ldr	r3, [r3, #0]
    e6dc:	2b04      	cmp	r3, #4
    e6de:	dd6c      	ble.n	e7ba <benchmark_body+0x6686>
    e6e0:	4b1f      	ldr	r3, [pc, #124]	; (e760 <benchmark_body+0x662c>)
    e6e2:	681b      	ldr	r3, [r3, #0]
    e6e4:	2b03      	cmp	r3, #3
    e6e6:	dc68      	bgt.n	e7ba <benchmark_body+0x6686>
    e6e8:	4b1b      	ldr	r3, [pc, #108]	; (e758 <benchmark_body+0x6624>)
    e6ea:	68da      	ldr	r2, [r3, #12]
    e6ec:	4b1a      	ldr	r3, [pc, #104]	; (e758 <benchmark_body+0x6624>)
    e6ee:	689b      	ldr	r3, [r3, #8]
    e6f0:	429a      	cmp	r2, r3
    e6f2:	d162      	bne.n	e7ba <benchmark_body+0x6686>
    e6f4:	4b18      	ldr	r3, [pc, #96]	; (e758 <benchmark_body+0x6624>)
    e6f6:	68da      	ldr	r2, [r3, #12]
    e6f8:	4b17      	ldr	r3, [pc, #92]	; (e758 <benchmark_body+0x6624>)
    e6fa:	685b      	ldr	r3, [r3, #4]
    e6fc:	429a      	cmp	r2, r3
    e6fe:	d15c      	bne.n	e7ba <benchmark_body+0x6686>
    e700:	f507 63bf 	add.w	r3, r7, #1528	; 0x5f8
    e704:	f2a3 53e4 	subw	r3, r3, #1508	; 0x5e4
    e708:	4a13      	ldr	r2, [pc, #76]	; (e758 <benchmark_body+0x6624>)
    e70a:	6912      	ldr	r2, [r2, #16]
    e70c:	601a      	str	r2, [r3, #0]
    e70e:	f507 63bf 	add.w	r3, r7, #1528	; 0x5f8
    e712:	f5a3 63bd 	sub.w	r3, r3, #1512	; 0x5e8
    e716:	4a10      	ldr	r2, [pc, #64]	; (e758 <benchmark_body+0x6624>)
    e718:	68d2      	ldr	r2, [r2, #12]
    e71a:	601a      	str	r2, [r3, #0]
    e71c:	f507 63bf 	add.w	r3, r7, #1528	; 0x5f8
    e720:	f5a3 62bd 	sub.w	r2, r3, #1512	; 0x5e8
    e724:	f507 63bf 	add.w	r3, r7, #1528	; 0x5f8
    e728:	f2a3 53e4 	subw	r3, r3, #1508	; 0x5e4
    e72c:	6812      	ldr	r2, [r2, #0]
    e72e:	681b      	ldr	r3, [r3, #0]
    e730:	429a      	cmp	r2, r3
    e732:	dd42      	ble.n	e7ba <benchmark_body+0x6686>
    e734:	4b09      	ldr	r3, [pc, #36]	; (e75c <benchmark_body+0x6628>)
    e736:	681b      	ldr	r3, [r3, #0]
    e738:	3b04      	subs	r3, #4
    e73a:	4a08      	ldr	r2, [pc, #32]	; (e75c <benchmark_body+0x6628>)
    e73c:	6013      	str	r3, [r2, #0]
    e73e:	f507 63bf 	add.w	r3, r7, #1528	; 0x5f8
    e742:	f2a3 53ec 	subw	r3, r3, #1516	; 0x5ec
    e746:	f507 62bf 	add.w	r2, r7, #1528	; 0x5f8
    e74a:	f2a2 51e4 	subw	r1, r2, #1508	; 0x5e4
    e74e:	f507 62bf 	add.w	r2, r7, #1528	; 0x5f8
    e752:	f5a2 62bd 	sub.w	r2, r2, #1512	; 0x5e8
    e756:	e007      	b.n	e768 <benchmark_body+0x6634>
    e758:	0001f104 	.word	0x0001f104
    e75c:	0001ecac 	.word	0x0001ecac
    e760:	0001f118 	.word	0x0001f118
    e764:	0001f11c 	.word	0x0001f11c
    e768:	6809      	ldr	r1, [r1, #0]
    e76a:	6812      	ldr	r2, [r2, #0]
    e76c:	440a      	add	r2, r1
    e76e:	601a      	str	r2, [r3, #0]
    e770:	4b1d      	ldr	r3, [pc, #116]	; (e7e8 <benchmark_body+0x66b4>)
    e772:	681b      	ldr	r3, [r3, #0]
    e774:	491d      	ldr	r1, [pc, #116]	; (e7ec <benchmark_body+0x66b8>)
    e776:	f507 62bf 	add.w	r2, r7, #1528	; 0x5f8
    e77a:	f2a2 52e4 	subw	r2, r2, #1508	; 0x5e4
    e77e:	6812      	ldr	r2, [r2, #0]
    e780:	f841 2023 	str.w	r2, [r1, r3, lsl #2]
    e784:	4b18      	ldr	r3, [pc, #96]	; (e7e8 <benchmark_body+0x66b4>)
    e786:	681b      	ldr	r3, [r3, #0]
    e788:	3301      	adds	r3, #1
    e78a:	4918      	ldr	r1, [pc, #96]	; (e7ec <benchmark_body+0x66b8>)
    e78c:	f507 62bf 	add.w	r2, r7, #1528	; 0x5f8
    e790:	f5a2 62bd 	sub.w	r2, r2, #1512	; 0x5e8
    e794:	6812      	ldr	r2, [r2, #0]
    e796:	f841 2023 	str.w	r2, [r1, r3, lsl #2]
    e79a:	4b13      	ldr	r3, [pc, #76]	; (e7e8 <benchmark_body+0x66b4>)
    e79c:	681b      	ldr	r3, [r3, #0]
    e79e:	3302      	adds	r3, #2
    e7a0:	4912      	ldr	r1, [pc, #72]	; (e7ec <benchmark_body+0x66b8>)
    e7a2:	f507 62bf 	add.w	r2, r7, #1528	; 0x5f8
    e7a6:	f2a2 52ec 	subw	r2, r2, #1516	; 0x5ec
    e7aa:	6812      	ldr	r2, [r2, #0]
    e7ac:	f841 2023 	str.w	r2, [r1, r3, lsl #2]
    e7b0:	4b0d      	ldr	r3, [pc, #52]	; (e7e8 <benchmark_body+0x66b4>)
    e7b2:	681b      	ldr	r3, [r3, #0]
    e7b4:	3303      	adds	r3, #3
    e7b6:	4a0c      	ldr	r2, [pc, #48]	; (e7e8 <benchmark_body+0x66b4>)
    e7b8:	6013      	str	r3, [r2, #0]
    e7ba:	f8d7 35f4 	ldr.w	r3, [r7, #1524]	; 0x5f4
    e7be:	3301      	adds	r3, #1
    e7c0:	f8c7 35f4 	str.w	r3, [r7, #1524]	; 0x5f4
    e7c4:	f507 63bf 	add.w	r3, r7, #1528	; 0x5f8
    e7c8:	f2a3 53f4 	subw	r3, r3, #1524	; 0x5f4
    e7cc:	f8d7 25f4 	ldr.w	r2, [r7, #1524]	; 0x5f4
    e7d0:	681b      	ldr	r3, [r3, #0]
    e7d2:	429a      	cmp	r2, r3
    e7d4:	f6f9 acbc 	blt.w	8150 <benchmark_body+0x1c>
    e7d8:	2300      	movs	r3, #0
    e7da:	4618      	mov	r0, r3
    e7dc:	f207 57fc 	addw	r7, r7, #1532	; 0x5fc
    e7e0:	46bd      	mov	sp, r7
    e7e2:	bc80      	pop	{r7}
    e7e4:	4770      	bx	lr
    e7e6:	bf00      	nop
    e7e8:	0001f118 	.word	0x0001f118
    e7ec:	0001f11c 	.word	0x0001f11c

0000e7f0 <verify_benchmark>:
    e7f0:	b480      	push	{r7}
    e7f2:	b095      	sub	sp, #84	; 0x54
    e7f4:	af00      	add	r7, sp, #0
    e7f6:	6078      	str	r0, [r7, #4]
    e7f8:	2303      	movs	r3, #3
    e7fa:	64bb      	str	r3, [r7, #72]	; 0x48
    e7fc:	2300      	movs	r3, #0
    e7fe:	637b      	str	r3, [r7, #52]	; 0x34
    e800:	2300      	movs	r3, #0
    e802:	63bb      	str	r3, [r7, #56]	; 0x38
    e804:	2300      	movs	r3, #0
    e806:	63fb      	str	r3, [r7, #60]	; 0x3c
    e808:	2305      	movs	r3, #5
    e80a:	647b      	str	r3, [r7, #68]	; 0x44
    e80c:	f107 0320 	add.w	r3, r7, #32
    e810:	2200      	movs	r2, #0
    e812:	601a      	str	r2, [r3, #0]
    e814:	605a      	str	r2, [r3, #4]
    e816:	609a      	str	r2, [r3, #8]
    e818:	60da      	str	r2, [r3, #12]
    e81a:	611a      	str	r2, [r3, #16]
    e81c:	2300      	movs	r3, #0
    e81e:	643b      	str	r3, [r7, #64]	; 0x40
    e820:	f107 0308 	add.w	r3, r7, #8
    e824:	2200      	movs	r2, #0
    e826:	601a      	str	r2, [r3, #0]
    e828:	605a      	str	r2, [r3, #4]
    e82a:	609a      	str	r2, [r3, #8]
    e82c:	60da      	str	r2, [r3, #12]
    e82e:	611a      	str	r2, [r3, #16]
    e830:	615a      	str	r2, [r3, #20]
    e832:	4b40      	ldr	r3, [pc, #256]	; (e934 <verify_benchmark+0x144>)
    e834:	681b      	ldr	r3, [r3, #0]
    e836:	6cba      	ldr	r2, [r7, #72]	; 0x48
    e838:	429a      	cmp	r2, r3
    e83a:	d109      	bne.n	e850 <verify_benchmark+0x60>
    e83c:	4b3e      	ldr	r3, [pc, #248]	; (e938 <verify_benchmark+0x148>)
    e83e:	681b      	ldr	r3, [r3, #0]
    e840:	6c7a      	ldr	r2, [r7, #68]	; 0x44
    e842:	429a      	cmp	r2, r3
    e844:	d104      	bne.n	e850 <verify_benchmark+0x60>
    e846:	4b3d      	ldr	r3, [pc, #244]	; (e93c <verify_benchmark+0x14c>)
    e848:	681b      	ldr	r3, [r3, #0]
    e84a:	6c3a      	ldr	r2, [r7, #64]	; 0x40
    e84c:	429a      	cmp	r2, r3
    e84e:	d001      	beq.n	e854 <verify_benchmark+0x64>
    e850:	2300      	movs	r3, #0
    e852:	e069      	b.n	e928 <verify_benchmark+0x138>
    e854:	2300      	movs	r3, #0
    e856:	64fb      	str	r3, [r7, #76]	; 0x4c
    e858:	e028      	b.n	e8ac <verify_benchmark+0xbc>
    e85a:	6cfb      	ldr	r3, [r7, #76]	; 0x4c
    e85c:	009b      	lsls	r3, r3, #2
    e85e:	3350      	adds	r3, #80	; 0x50
    e860:	443b      	add	r3, r7
    e862:	f853 2c1c 	ldr.w	r2, [r3, #-28]
    e866:	4936      	ldr	r1, [pc, #216]	; (e940 <verify_benchmark+0x150>)
    e868:	6cfb      	ldr	r3, [r7, #76]	; 0x4c
    e86a:	f851 3023 	ldr.w	r3, [r1, r3, lsl #2]
    e86e:	429a      	cmp	r2, r3
    e870:	d117      	bne.n	e8a2 <verify_benchmark+0xb2>
    e872:	6cfb      	ldr	r3, [r7, #76]	; 0x4c
    e874:	009b      	lsls	r3, r3, #2
    e876:	3350      	adds	r3, #80	; 0x50
    e878:	443b      	add	r3, r7
    e87a:	f853 2c30 	ldr.w	r2, [r3, #-48]
    e87e:	4931      	ldr	r1, [pc, #196]	; (e944 <verify_benchmark+0x154>)
    e880:	6cfb      	ldr	r3, [r7, #76]	; 0x4c
    e882:	f851 3023 	ldr.w	r3, [r1, r3, lsl #2]
    e886:	429a      	cmp	r2, r3
    e888:	d10b      	bne.n	e8a2 <verify_benchmark+0xb2>
    e88a:	6cfb      	ldr	r3, [r7, #76]	; 0x4c
    e88c:	009b      	lsls	r3, r3, #2
    e88e:	3350      	adds	r3, #80	; 0x50
    e890:	443b      	add	r3, r7
    e892:	f853 2c48 	ldr.w	r2, [r3, #-72]
    e896:	492c      	ldr	r1, [pc, #176]	; (e948 <verify_benchmark+0x158>)
    e898:	6cfb      	ldr	r3, [r7, #76]	; 0x4c
    e89a:	f851 3023 	ldr.w	r3, [r1, r3, lsl #2]
    e89e:	429a      	cmp	r2, r3
    e8a0:	d001      	beq.n	e8a6 <verify_benchmark+0xb6>
    e8a2:	2300      	movs	r3, #0
    e8a4:	e040      	b.n	e928 <verify_benchmark+0x138>
    e8a6:	6cfb      	ldr	r3, [r7, #76]	; 0x4c
    e8a8:	3301      	adds	r3, #1
    e8aa:	64fb      	str	r3, [r7, #76]	; 0x4c
    e8ac:	6cfb      	ldr	r3, [r7, #76]	; 0x4c
    e8ae:	2b02      	cmp	r3, #2
    e8b0:	ddd3      	ble.n	e85a <verify_benchmark+0x6a>
    e8b2:	2303      	movs	r3, #3
    e8b4:	64fb      	str	r3, [r7, #76]	; 0x4c
    e8b6:	e01c      	b.n	e8f2 <verify_benchmark+0x102>
    e8b8:	6cfb      	ldr	r3, [r7, #76]	; 0x4c
    e8ba:	009b      	lsls	r3, r3, #2
    e8bc:	3350      	adds	r3, #80	; 0x50
    e8be:	443b      	add	r3, r7
    e8c0:	f853 2c30 	ldr.w	r2, [r3, #-48]
    e8c4:	491f      	ldr	r1, [pc, #124]	; (e944 <verify_benchmark+0x154>)
    e8c6:	6cfb      	ldr	r3, [r7, #76]	; 0x4c
    e8c8:	f851 3023 	ldr.w	r3, [r1, r3, lsl #2]
    e8cc:	429a      	cmp	r2, r3
    e8ce:	d10b      	bne.n	e8e8 <verify_benchmark+0xf8>
    e8d0:	6cfb      	ldr	r3, [r7, #76]	; 0x4c
    e8d2:	009b      	lsls	r3, r3, #2
    e8d4:	3350      	adds	r3, #80	; 0x50
    e8d6:	443b      	add	r3, r7
    e8d8:	f853 2c48 	ldr.w	r2, [r3, #-72]
    e8dc:	491a      	ldr	r1, [pc, #104]	; (e948 <verify_benchmark+0x158>)
    e8de:	6cfb      	ldr	r3, [r7, #76]	; 0x4c
    e8e0:	f851 3023 	ldr.w	r3, [r1, r3, lsl #2]
    e8e4:	429a      	cmp	r2, r3
    e8e6:	d001      	beq.n	e8ec <verify_benchmark+0xfc>
    e8e8:	2300      	movs	r3, #0
    e8ea:	e01d      	b.n	e928 <verify_benchmark+0x138>
    e8ec:	6cfb      	ldr	r3, [r7, #76]	; 0x4c
    e8ee:	3301      	adds	r3, #1
    e8f0:	64fb      	str	r3, [r7, #76]	; 0x4c
    e8f2:	6cfb      	ldr	r3, [r7, #76]	; 0x4c
    e8f4:	2b04      	cmp	r3, #4
    e8f6:	dddf      	ble.n	e8b8 <verify_benchmark+0xc8>
    e8f8:	2305      	movs	r3, #5
    e8fa:	64fb      	str	r3, [r7, #76]	; 0x4c
    e8fc:	e010      	b.n	e920 <verify_benchmark+0x130>
    e8fe:	6cfb      	ldr	r3, [r7, #76]	; 0x4c
    e900:	009b      	lsls	r3, r3, #2
    e902:	3350      	adds	r3, #80	; 0x50
    e904:	443b      	add	r3, r7
    e906:	f853 2c48 	ldr.w	r2, [r3, #-72]
    e90a:	490f      	ldr	r1, [pc, #60]	; (e948 <verify_benchmark+0x158>)
    e90c:	6cfb      	ldr	r3, [r7, #76]	; 0x4c
    e90e:	f851 3023 	ldr.w	r3, [r1, r3, lsl #2]
    e912:	429a      	cmp	r2, r3
    e914:	d001      	beq.n	e91a <verify_benchmark+0x12a>
    e916:	2300      	movs	r3, #0
    e918:	e006      	b.n	e928 <verify_benchmark+0x138>
    e91a:	6cfb      	ldr	r3, [r7, #76]	; 0x4c
    e91c:	3301      	adds	r3, #1
    e91e:	64fb      	str	r3, [r7, #76]	; 0x4c
    e920:	6cfb      	ldr	r3, [r7, #76]	; 0x4c
    e922:	2b05      	cmp	r3, #5
    e924:	ddeb      	ble.n	e8fe <verify_benchmark+0x10e>
    e926:	2301      	movs	r3, #1
    e928:	4618      	mov	r0, r3
    e92a:	3754      	adds	r7, #84	; 0x54
    e92c:	46bd      	mov	sp, r7
    e92e:	bc80      	pop	{r7}
    e930:	4770      	bx	lr
    e932:	bf00      	nop
    e934:	0001eca8 	.word	0x0001eca8
    e938:	0001ecac 	.word	0x0001ecac
    e93c:	0001f118 	.word	0x0001f118
    e940:	0001f0f8 	.word	0x0001f0f8
    e944:	0001f104 	.word	0x0001f104
    e948:	0001f11c 	.word	0x0001f11c

0000e94c <initialise_board>:
    e94c:	b480      	push	{r7}
    e94e:	af00      	add	r7, sp, #0
    e950:	4b06      	ldr	r3, [pc, #24]	; (e96c <initialise_board+0x20>)
    e952:	681b      	ldr	r3, [r3, #0]
    e954:	4a05      	ldr	r2, [pc, #20]	; (e96c <initialise_board+0x20>)
    e956:	f043 7380 	orr.w	r3, r3, #16777216	; 0x1000000
    e95a:	6013      	str	r3, [r2, #0]
    e95c:	4b04      	ldr	r3, [pc, #16]	; (e970 <initialise_board+0x24>)
    e95e:	2200      	movs	r2, #0
    e960:	601a      	str	r2, [r3, #0]
    e962:	bf00      	nop
    e964:	46bd      	mov	sp, r7
    e966:	bc80      	pop	{r7}
    e968:	4770      	bx	lr
    e96a:	bf00      	nop
    e96c:	e000edfc 	.word	0xe000edfc
    e970:	e0001004 	.word	0xe0001004

0000e974 <start_trigger>:
    e974:	b480      	push	{r7}
    e976:	af00      	add	r7, sp, #0
    e978:	4b04      	ldr	r3, [pc, #16]	; (e98c <start_trigger+0x18>)
    e97a:	681b      	ldr	r3, [r3, #0]
    e97c:	4a03      	ldr	r2, [pc, #12]	; (e98c <start_trigger+0x18>)
    e97e:	f043 0301 	orr.w	r3, r3, #1
    e982:	6013      	str	r3, [r2, #0]
    e984:	bf00      	nop
    e986:	46bd      	mov	sp, r7
    e988:	bc80      	pop	{r7}
    e98a:	4770      	bx	lr
    e98c:	e0001000 	.word	0xe0001000

0000e990 <stop_trigger>:
    e990:	b480      	push	{r7}
    e992:	af00      	add	r7, sp, #0
    e994:	4b06      	ldr	r3, [pc, #24]	; (e9b0 <stop_trigger+0x20>)
    e996:	2200      	movs	r2, #0
    e998:	601a      	str	r2, [r3, #0]
    e99a:	4b06      	ldr	r3, [pc, #24]	; (e9b4 <stop_trigger+0x24>)
    e99c:	681b      	ldr	r3, [r3, #0]
    e99e:	4a05      	ldr	r2, [pc, #20]	; (e9b4 <stop_trigger+0x24>)
    e9a0:	f023 0301 	bic.w	r3, r3, #1
    e9a4:	6013      	str	r3, [r2, #0]
    e9a6:	bf00      	nop
    e9a8:	46bd      	mov	sp, r7
    e9aa:	bc80      	pop	{r7}
    e9ac:	4770      	bx	lr
    e9ae:	bf00      	nop
    e9b0:	e0001004 	.word	0xe0001004
    e9b4:	e0001000 	.word	0xe0001000

0000e9b8 <main>:
    e9b8:	b580      	push	{r7, lr}
    e9ba:	b084      	sub	sp, #16
    e9bc:	af00      	add	r7, sp, #0
    e9be:	6078      	str	r0, [r7, #4]
    e9c0:	6039      	str	r1, [r7, #0]
    e9c2:	f7ff ffc3 	bl	e94c <initialise_board>
    e9c6:	f7f9 fb99 	bl	80fc <initialise_benchmark>
    e9ca:	2001      	movs	r0, #1
    e9cc:	f7f9 fb9c 	bl	8108 <warm_caches>
    e9d0:	f7ff ffd0 	bl	e974 <start_trigger>
    e9d4:	f7f9 fba4 	bl	8120 <benchmark>
    e9d8:	4603      	mov	r3, r0
    e9da:	60bb      	str	r3, [r7, #8]
    e9dc:	f7ff ffd8 	bl	e990 <stop_trigger>
    e9e0:	68bb      	ldr	r3, [r7, #8]
    e9e2:	4618      	mov	r0, r3
    e9e4:	f7ff ff04 	bl	e7f0 <verify_benchmark>
    e9e8:	60f8      	str	r0, [r7, #12]
    e9ea:	68fb      	ldr	r3, [r7, #12]
    e9ec:	2b00      	cmp	r3, #0
    e9ee:	bf0c      	ite	eq
    e9f0:	2301      	moveq	r3, #1
    e9f2:	2300      	movne	r3, #0
    e9f4:	b2db      	uxtb	r3, r3
    e9f6:	4618      	mov	r0, r3
    e9f8:	3710      	adds	r7, #16
    e9fa:	46bd      	mov	sp, r7
    e9fc:	bd80      	pop	{r7, pc}
    e9fe:	0000      	movs	r0, r0

0000ea00 <__libc_init_array>:
    ea00:	b570      	push	{r4, r5, r6, lr}
    ea02:	4e0d      	ldr	r6, [pc, #52]	; (ea38 <__libc_init_array+0x38>)
    ea04:	4d0d      	ldr	r5, [pc, #52]	; (ea3c <__libc_init_array+0x3c>)
    ea06:	1b76      	subs	r6, r6, r5
    ea08:	10b6      	asrs	r6, r6, #2
    ea0a:	d006      	beq.n	ea1a <__libc_init_array+0x1a>
    ea0c:	2400      	movs	r4, #0
    ea0e:	f855 3b04 	ldr.w	r3, [r5], #4
    ea12:	3401      	adds	r4, #1
    ea14:	4798      	blx	r3
    ea16:	42a6      	cmp	r6, r4
    ea18:	d1f9      	bne.n	ea0e <__libc_init_array+0xe>
    ea1a:	4e09      	ldr	r6, [pc, #36]	; (ea40 <__libc_init_array+0x40>)
    ea1c:	4d09      	ldr	r5, [pc, #36]	; (ea44 <__libc_init_array+0x44>)
    ea1e:	1b76      	subs	r6, r6, r5
    ea20:	f7f9 faee 	bl	8000 <_init>
    ea24:	10b6      	asrs	r6, r6, #2
    ea26:	d006      	beq.n	ea36 <__libc_init_array+0x36>
    ea28:	2400      	movs	r4, #0
    ea2a:	f855 3b04 	ldr.w	r3, [r5], #4
    ea2e:	3401      	adds	r4, #1
    ea30:	4798      	blx	r3
    ea32:	42a6      	cmp	r6, r4
    ea34:	d1f9      	bne.n	ea2a <__libc_init_array+0x2a>
    ea36:	bd70      	pop	{r4, r5, r6, pc}
    ea38:	0001ec9c 	.word	0x0001ec9c
    ea3c:	0001ec9c 	.word	0x0001ec9c
    ea40:	0001eca4 	.word	0x0001eca4
    ea44:	0001ec9c 	.word	0x0001ec9c

0000ea48 <memset>:
    ea48:	0783      	lsls	r3, r0, #30
    ea4a:	b530      	push	{r4, r5, lr}
    ea4c:	d048      	beq.n	eae0 <memset+0x98>
    ea4e:	1e54      	subs	r4, r2, #1
    ea50:	2a00      	cmp	r2, #0
    ea52:	d03f      	beq.n	ead4 <memset+0x8c>
    ea54:	b2ca      	uxtb	r2, r1
    ea56:	4603      	mov	r3, r0
    ea58:	e001      	b.n	ea5e <memset+0x16>
    ea5a:	3c01      	subs	r4, #1
    ea5c:	d33a      	bcc.n	ead4 <memset+0x8c>
    ea5e:	f803 2b01 	strb.w	r2, [r3], #1
    ea62:	079d      	lsls	r5, r3, #30
    ea64:	d1f9      	bne.n	ea5a <memset+0x12>
    ea66:	2c03      	cmp	r4, #3
    ea68:	d92d      	bls.n	eac6 <memset+0x7e>
    ea6a:	b2cd      	uxtb	r5, r1
    ea6c:	ea45 2505 	orr.w	r5, r5, r5, lsl #8
    ea70:	2c0f      	cmp	r4, #15
    ea72:	ea45 4505 	orr.w	r5, r5, r5, lsl #16
    ea76:	d936      	bls.n	eae6 <memset+0x9e>
    ea78:	f1a4 0210 	sub.w	r2, r4, #16
    ea7c:	f022 0c0f 	bic.w	ip, r2, #15
    ea80:	f103 0e20 	add.w	lr, r3, #32
    ea84:	44e6      	add	lr, ip
    ea86:	ea4f 1c12 	mov.w	ip, r2, lsr #4
    ea8a:	f103 0210 	add.w	r2, r3, #16
    ea8e:	e942 5504 	strd	r5, r5, [r2, #-16]
    ea92:	e942 5502 	strd	r5, r5, [r2, #-8]
    ea96:	3210      	adds	r2, #16
    ea98:	4572      	cmp	r2, lr
    ea9a:	d1f8      	bne.n	ea8e <memset+0x46>
    ea9c:	f10c 0201 	add.w	r2, ip, #1
    eaa0:	f014 0f0c 	tst.w	r4, #12
    eaa4:	eb03 1202 	add.w	r2, r3, r2, lsl #4
    eaa8:	f004 0c0f 	and.w	ip, r4, #15
    eaac:	d013      	beq.n	ead6 <memset+0x8e>
    eaae:	f1ac 0304 	sub.w	r3, ip, #4
    eab2:	f023 0303 	bic.w	r3, r3, #3
    eab6:	3304      	adds	r3, #4
    eab8:	4413      	add	r3, r2
    eaba:	f842 5b04 	str.w	r5, [r2], #4
    eabe:	4293      	cmp	r3, r2
    eac0:	d1fb      	bne.n	eaba <memset+0x72>
    eac2:	f00c 0403 	and.w	r4, ip, #3
    eac6:	b12c      	cbz	r4, ead4 <memset+0x8c>
    eac8:	b2ca      	uxtb	r2, r1
    eaca:	441c      	add	r4, r3
    eacc:	f803 2b01 	strb.w	r2, [r3], #1
    ead0:	429c      	cmp	r4, r3
    ead2:	d1fb      	bne.n	eacc <memset+0x84>
    ead4:	bd30      	pop	{r4, r5, pc}
    ead6:	4664      	mov	r4, ip
    ead8:	4613      	mov	r3, r2
    eada:	2c00      	cmp	r4, #0
    eadc:	d1f4      	bne.n	eac8 <memset+0x80>
    eade:	e7f9      	b.n	ead4 <memset+0x8c>
    eae0:	4603      	mov	r3, r0
    eae2:	4614      	mov	r4, r2
    eae4:	e7bf      	b.n	ea66 <memset+0x1e>
    eae6:	461a      	mov	r2, r3
    eae8:	46a4      	mov	ip, r4
    eaea:	e7e0      	b.n	eaae <memset+0x66>

0000eaec <__call_exitprocs>:
    eaec:	e92d 4ff0 	stmdb	sp!, {r4, r5, r6, r7, r8, r9, sl, fp, lr}
    eaf0:	4b2d      	ldr	r3, [pc, #180]	; (eba8 <__call_exitprocs+0xbc>)
    eaf2:	b083      	sub	sp, #12
    eaf4:	4683      	mov	fp, r0
    eaf6:	6818      	ldr	r0, [r3, #0]
    eaf8:	f8cd b004 	str.w	fp, [sp, #4]
    eafc:	460f      	mov	r7, r1
    eafe:	f000 f873 	bl	ebe8 <__retarget_lock_acquire_recursive>
    eb02:	4b2a      	ldr	r3, [pc, #168]	; (ebac <__call_exitprocs+0xc0>)
    eb04:	f8d3 8000 	ldr.w	r8, [r3]
    eb08:	f8d8 6148 	ldr.w	r6, [r8, #328]	; 0x148
    eb0c:	b19e      	cbz	r6, eb36 <__call_exitprocs+0x4a>
    eb0e:	f04f 0901 	mov.w	r9, #1
    eb12:	f04f 0a00 	mov.w	sl, #0
    eb16:	6874      	ldr	r4, [r6, #4]
    eb18:	1e65      	subs	r5, r4, #1
    eb1a:	d40c      	bmi.n	eb36 <__call_exitprocs+0x4a>
    eb1c:	3401      	adds	r4, #1
    eb1e:	eb06 0484 	add.w	r4, r6, r4, lsl #2
    eb22:	b17f      	cbz	r7, eb44 <__call_exitprocs+0x58>
    eb24:	f8d4 3100 	ldr.w	r3, [r4, #256]	; 0x100
    eb28:	42bb      	cmp	r3, r7
    eb2a:	d00b      	beq.n	eb44 <__call_exitprocs+0x58>
    eb2c:	3d01      	subs	r5, #1
    eb2e:	1c6b      	adds	r3, r5, #1
    eb30:	f1a4 0404 	sub.w	r4, r4, #4
    eb34:	d1f5      	bne.n	eb22 <__call_exitprocs+0x36>
    eb36:	4b1c      	ldr	r3, [pc, #112]	; (eba8 <__call_exitprocs+0xbc>)
    eb38:	6818      	ldr	r0, [r3, #0]
    eb3a:	b003      	add	sp, #12
    eb3c:	e8bd 4ff0 	ldmia.w	sp!, {r4, r5, r6, r7, r8, r9, sl, fp, lr}
    eb40:	f000 b854 	b.w	ebec <__retarget_lock_release_recursive>
    eb44:	6873      	ldr	r3, [r6, #4]
    eb46:	6822      	ldr	r2, [r4, #0]
    eb48:	3b01      	subs	r3, #1
    eb4a:	42ab      	cmp	r3, r5
    eb4c:	bf0c      	ite	eq
    eb4e:	6075      	streq	r5, [r6, #4]
    eb50:	f8c4 a000 	strne.w	sl, [r4]
    eb54:	2a00      	cmp	r2, #0
    eb56:	d0e9      	beq.n	eb2c <__call_exitprocs+0x40>
    eb58:	f8d6 0188 	ldr.w	r0, [r6, #392]	; 0x188
    eb5c:	f8d6 b004 	ldr.w	fp, [r6, #4]
    eb60:	fa09 f105 	lsl.w	r1, r9, r5
    eb64:	4201      	tst	r1, r0
    eb66:	d10b      	bne.n	eb80 <__call_exitprocs+0x94>
    eb68:	4790      	blx	r2
    eb6a:	6872      	ldr	r2, [r6, #4]
    eb6c:	455a      	cmp	r2, fp
    eb6e:	d112      	bne.n	eb96 <__call_exitprocs+0xaa>
    eb70:	f8d8 3148 	ldr.w	r3, [r8, #328]	; 0x148
    eb74:	42b3      	cmp	r3, r6
    eb76:	d0d9      	beq.n	eb2c <__call_exitprocs+0x40>
    eb78:	461e      	mov	r6, r3
    eb7a:	2e00      	cmp	r6, #0
    eb7c:	d1cb      	bne.n	eb16 <__call_exitprocs+0x2a>
    eb7e:	e7da      	b.n	eb36 <__call_exitprocs+0x4a>
    eb80:	f8d6 018c 	ldr.w	r0, [r6, #396]	; 0x18c
    eb84:	4201      	tst	r1, r0
    eb86:	d10b      	bne.n	eba0 <__call_exitprocs+0xb4>
    eb88:	f8d4 1080 	ldr.w	r1, [r4, #128]	; 0x80
    eb8c:	9801      	ldr	r0, [sp, #4]
    eb8e:	4790      	blx	r2
    eb90:	6872      	ldr	r2, [r6, #4]
    eb92:	455a      	cmp	r2, fp
    eb94:	d0ec      	beq.n	eb70 <__call_exitprocs+0x84>
    eb96:	f8d8 6148 	ldr.w	r6, [r8, #328]	; 0x148
    eb9a:	2e00      	cmp	r6, #0
    eb9c:	d1bb      	bne.n	eb16 <__call_exitprocs+0x2a>
    eb9e:	e7ca      	b.n	eb36 <__call_exitprocs+0x4a>
    eba0:	f8d4 0080 	ldr.w	r0, [r4, #128]	; 0x80
    eba4:	4790      	blx	r2
    eba6:	e7e0      	b.n	eb6a <__call_exitprocs+0x7e>
    eba8:	0001f0d8 	.word	0x0001f0d8
    ebac:	0000ec8c 	.word	0x0000ec8c

0000ebb0 <atexit>:
    ebb0:	2300      	movs	r3, #0
    ebb2:	4601      	mov	r1, r0
    ebb4:	461a      	mov	r2, r3
    ebb6:	4618      	mov	r0, r3
    ebb8:	f000 b81a 	b.w	ebf0 <__register_exitproc>

0000ebbc <__libc_fini_array>:
    ebbc:	b538      	push	{r3, r4, r5, lr}
    ebbe:	4b08      	ldr	r3, [pc, #32]	; (ebe0 <__libc_fini_array+0x24>)
    ebc0:	4d08      	ldr	r5, [pc, #32]	; (ebe4 <__libc_fini_array+0x28>)
    ebc2:	1b5b      	subs	r3, r3, r5
    ebc4:	109c      	asrs	r4, r3, #2
    ebc6:	d007      	beq.n	ebd8 <__libc_fini_array+0x1c>
    ebc8:	3b04      	subs	r3, #4
    ebca:	441d      	add	r5, r3
    ebcc:	3c01      	subs	r4, #1
    ebce:	f855 3904 	ldr.w	r3, [r5], #-4
    ebd2:	4798      	blx	r3
    ebd4:	2c00      	cmp	r4, #0
    ebd6:	d1f9      	bne.n	ebcc <__libc_fini_array+0x10>
    ebd8:	e8bd 4038 	ldmia.w	sp!, {r3, r4, r5, lr}
    ebdc:	f000 b850 	b.w	ec80 <_fini>
    ebe0:	0001eca8 	.word	0x0001eca8
    ebe4:	0001eca4 	.word	0x0001eca4

0000ebe8 <__retarget_lock_acquire_recursive>:
    ebe8:	4770      	bx	lr
    ebea:	bf00      	nop

0000ebec <__retarget_lock_release_recursive>:
    ebec:	4770      	bx	lr
    ebee:	bf00      	nop

0000ebf0 <__register_exitproc>:
    ebf0:	e92d 47f0 	stmdb	sp!, {r4, r5, r6, r7, r8, r9, sl, lr}
    ebf4:	f8df a07c 	ldr.w	sl, [pc, #124]	; ec74 <__register_exitproc+0x84>
    ebf8:	4606      	mov	r6, r0
    ebfa:	f8da 0000 	ldr.w	r0, [sl]
    ebfe:	4698      	mov	r8, r3
    ec00:	460f      	mov	r7, r1
    ec02:	4691      	mov	r9, r2
    ec04:	f7ff fff0 	bl	ebe8 <__retarget_lock_acquire_recursive>
    ec08:	4b1b      	ldr	r3, [pc, #108]	; (ec78 <__register_exitproc+0x88>)
    ec0a:	681b      	ldr	r3, [r3, #0]
    ec0c:	f8d3 4148 	ldr.w	r4, [r3, #328]	; 0x148
    ec10:	b324      	cbz	r4, ec5c <__register_exitproc+0x6c>
    ec12:	6865      	ldr	r5, [r4, #4]
    ec14:	2d1f      	cmp	r5, #31
    ec16:	dc26      	bgt.n	ec66 <__register_exitproc+0x76>
    ec18:	b95e      	cbnz	r6, ec32 <__register_exitproc+0x42>
    ec1a:	1c6b      	adds	r3, r5, #1
    ec1c:	3502      	adds	r5, #2
    ec1e:	f8da 0000 	ldr.w	r0, [sl]
    ec22:	6063      	str	r3, [r4, #4]
    ec24:	f844 7025 	str.w	r7, [r4, r5, lsl #2]
    ec28:	f7ff ffe0 	bl	ebec <__retarget_lock_release_recursive>
    ec2c:	2000      	movs	r0, #0
    ec2e:	e8bd 87f0 	ldmia.w	sp!, {r4, r5, r6, r7, r8, r9, sl, pc}
    ec32:	eb04 0185 	add.w	r1, r4, r5, lsl #2
    ec36:	2301      	movs	r3, #1
    ec38:	f8c1 9088 	str.w	r9, [r1, #136]	; 0x88
    ec3c:	f8d4 2188 	ldr.w	r2, [r4, #392]	; 0x188
    ec40:	40ab      	lsls	r3, r5
    ec42:	431a      	orrs	r2, r3
    ec44:	2e02      	cmp	r6, #2
    ec46:	f8c4 2188 	str.w	r2, [r4, #392]	; 0x188
    ec4a:	f8c1 8108 	str.w	r8, [r1, #264]	; 0x108
    ec4e:	d1e4      	bne.n	ec1a <__register_exitproc+0x2a>
    ec50:	f8d4 218c 	ldr.w	r2, [r4, #396]	; 0x18c
    ec54:	4313      	orrs	r3, r2
    ec56:	f8c4 318c 	str.w	r3, [r4, #396]	; 0x18c
    ec5a:	e7de      	b.n	ec1a <__register_exitproc+0x2a>
    ec5c:	f503 74a6 	add.w	r4, r3, #332	; 0x14c
    ec60:	f8c3 4148 	str.w	r4, [r3, #328]	; 0x148
    ec64:	e7d5      	b.n	ec12 <__register_exitproc+0x22>
    ec66:	f8da 0000 	ldr.w	r0, [sl]
    ec6a:	f7ff ffbf 	bl	ebec <__retarget_lock_release_recursive>
    ec6e:	f04f 30ff 	mov.w	r0, #4294967295	; 0xffffffff
    ec72:	e7dc      	b.n	ec2e <__register_exitproc+0x3e>
    ec74:	0001f0d8 	.word	0x0001f0d8
    ec78:	0000ec8c 	.word	0x0000ec8c

0000ec7c <_exit>:
    ec7c:	e7fe      	b.n	ec7c <_exit>
    ec7e:	bf00      	nop

Disassembly of section .fini:

0000ec80 <_fini>:
    ec80:	b5f8      	push	{r3, r4, r5, r6, r7, lr}
    ec82:	bf00      	nop
    ec84:	bcf8      	pop	{r3, r4, r5, r6, r7}
    ec86:	bc08      	pop	{r3}
    ec88:	469e      	mov	lr, r3
    ec8a:	4770      	bx	lr
